
Disassembly of ./on_board/DSPFuzz.out:

DATA section .cinit, 0x77 words load/run at 0xD0FE
00d0fe:               ___cinit__:
00d0fe:               cinit:
00d0fe:               .cinit:
00d0fe: 0001             .word 0x0001
00d0ff: 0133             .word 0x0133
00d100: 8800             .word 0x8800
00d101: 0000             .word 0x0000
00d102: 0001             .word 0x0001
00d103: 0133             .word 0x0133
00d104: 8900             .word 0x8900
00d105: 0000             .word 0x0000
00d106: 0002             .word 0x0002
00d107: 0133             .word 0x0133
00d108: 8c00             .word 0x8c00
00d109: 0000             .word 0x0000
00d10a: 0000             .word 0x0000
00d10b: 0001             .word 0x0001
00d10c: 0135             .word 0x0135
00d10d: 1e00             .word 0x1e00
00d10e: 0000             .word 0x0000
00d10f: 0002             .word 0x0002
00d110: 0135             .word 0x0135
00d111: 2000             .word 0x2000
00d112: 0000             .word 0x0000
00d113: 0000             .word 0x0000
00d114: 0001             .word 0x0001
00d115: 0135             .word 0x0135
00d116: 1f00             .word 0x1f00
00d117: 0000             .word 0x0000
00d118: 0001             .word 0x0001
00d119: 0135             .word 0x0135
00d11a: 2200             .word 0x2200
00d11b: 0009             .word 0x0009
00d11c: 0001             .word 0x0001
00d11d: 0135             .word 0x0135
00d11e: 2300             .word 0x2300
00d11f: 0000             .word 0x0000
00d120: 0001             .word 0x0001
00d121: 0135             .word 0x0135
00d122: 3400             .word 0x3400
00d123: 0000             .word 0x0000
00d124: 0001             .word 0x0001
00d125: 0135             .word 0x0135
00d126: 3500             .word 0x3500
00d127: 0000             .word 0x0000
00d128: 0001             .word 0x0001
00d129: 0135             .word 0x0135
00d12a: 3600             .word 0x3600
00d12b: 0000             .word 0x0000
00d12c: 0001             .word 0x0001
00d12d: 0135             .word 0x0135
00d12e: 3700             .word 0x3700
00d12f: 0000             .word 0x0000
00d130: 0001             .word 0x0001
00d131: 0135             .word 0x0135
00d132: 3800             .word 0x3800
00d133: 0001             .word 0x0001
00d134: 0001             .word 0x0001
00d135: 0135             .word 0x0135
00d136: 3900             .word 0x3900
00d137: 01f4             .word 0x01f4
00d138: 0002             .word 0x0002
00d139: 0135             .word 0x0135
00d13a: 3a00             .word 0x3a00
00d13b: 0000             .word 0x0000
00d13c: 0000             .word 0x0000
00d13d: 0002             .word 0x0002
00d13e: 0135             .word 0x0135
00d13f: 3e00             .word 0x3e00
00d140: 0000             .word 0x0000
00d141: 0000             .word 0x0000
00d142:               .cinit:
00d142: 000e             .word 0x000e
00d143: 0136             .word 0x0136
00d144: 9400             .word 0x9400
00d145: 3914             .word 0x3914
00d146: 2e40             .word 0x2e40
00d147: 3aae             .word 0x3aae
00d148: 4f6f             .word 0x4f6f
00d149: 3c08             .word 0x3c08
00d14a: 026d             .word 0x026d
00d14b: 3d2a             .word 0x3d2a
00d14c: a0e5             .word 0xa0e5
00d14d: 3e2a             .word 0x3e2a
00d14e: aa4f             .word 0xaa4f
00d14f: 3eff             .word 0x3eff
00d150: fffd             .word 0xfffd
00d151: 3f80             .word 0x3f80
00d152: 0000             .word 0x0000
00d153:               .cinit:
00d153: 0002             .word 0x0002
00d154: 0136             .word 0x0136
00d155: a800             .word 0xa800
00d156: 0001             .word 0x0001
00d157: a1c3             .word 0xa1c3
00d158: 0002             .word 0x0002
00d159: 0136             .word 0x0136
00d15a: aa00             .word 0xaa00
00d15b: 0001             .word 0x0001
00d15c: a1c3             .word 0xa1c3
00d15d:               .cinit:
00d15d: 0002             .word 0x0002
00d15e: 0136             .word 0x0136
00d15f: ac00             .word 0xac00
00d160: 0000             .word 0x0000
00d161: 0000             .word 0x0000
00d162: 0002             .word 0x0002
00d163: 0136             .word 0x0136
00d164: ae00             .word 0xae00
00d165: 0000             .word 0x0000
00d166: 0000             .word 0x0000
00d167:               .cinit:
00d167: 0002             .word 0x0002
00d168: 0136             .word 0x0136
00d169: b000             .word 0xb000
00d16a: 0000             .word 0x0000
00d16b: 0001             .word 0x0001
00d16c:               .cinit:
00d16c: 0001             .word 0x0001
00d16d: 0136             .word 0x0136
00d16e: b200             .word 0xb200
00d16f: 0000             .word 0x0000
00d170:               .cinit:
00d170: 0001             .word 0x0001
00d171: 0136             .word 0x0136
00d172: a700             .word 0xa700
00d173: 0001             .word 0x0001
00d174: 0000             .word 0x0000

TEXT section .text, 0x371A bytes load/run at 0x16AE2
016ae2:               _crash_void:
016ae2:               $C$L2:
016ae2:               $C$DW$L$_crash_void$2$B:
016ae2: 4a7e             B _crash_void
016ae4:               _start_timer:
016ae4:               $C$DW$L$_crash_void$2$E:
016ae4: 4ef5             AADD #-11,SP
016ae6: eb0085           MOV XAR0,dbl(@#00h)
016ae9: ec049e           AMAR @#02h,XAR1
016aec: ec108e           AMAR @#08h,XAR0
016aef: 6c018b8b_3d04    CALL _GPT_open || MOV #0,T0
016af5: ed00bf           MOV dbl(@#00h),XAR3
016af8: eb6185           MOV XAR0,dbl(*AR3)
016afb: ed00bf           MOV dbl(@#00h),XAR3
016afe: ed618f           MOV dbl(*AR3),XAR0
016b01: 6c018c4e         CALL _GPT_reset
016b05: c404             MOV T0,@#02h
016b07: 6c017b72         CALL _IRQ_clearAll
016b0b: 6c017d0d         CALL _IRQ_disableAll
016b0f: 7a00000a         MOV #0 << #16,AC0
016b13: 7e070000         OR #1792,AC0,AC0
016b17: 6c017eb6         CALL _IRQ_setVecs
016b1b: 76001848         MOV #24,T0
016b1f: 7a00010a         MOV #1 << #16,AC0
016b23: 7e896500         OR #35173,AC0,AC0
016b27: 6c019a86         CALL _IRQ_plug
016b2b: 7a00010a         MOV #1 << #16,AC0
016b2f: 7e882000         OR #34848,AC0,AC0
016b33: 6c019a86_3d44    CALL _IRQ_plug || MOV #4,T0
016b39: 76001848         MOV #24,T0
016b3d: 6c017d1b         CALL _IRQ_enable
016b41: 6c017d1b_3d44    CALL _IRQ_enable || MOV #4,T0
016b47: e60601           MOV #1,@#03h
016b4a: e60a01           MOV #1,@#05h
016b4d: e60800           MOV #0,@#04h
016b50: ed310801353c     MOV dbl(*(#01353ch)),AC0
016b56: 10073e           SFTL AC0,#-2,AC0
016b59: c00c             MOV AC0,@#06h
016b5b: e60e00           MOV #0,@#07h
016b5e: ed00bf           MOV dbl(@#00h),XAR3
016b61: ec069e           AMAR @#03h,XAR1
016b64: ed618f           MOV dbl(*AR3),XAR0
016b67: 6c018dcf         CALL _GPT_config
016b6b: c404             MOV T0,@#02h
016b6d: 6c017f72         CALL _IRQ_globalEnable
016b71: ed00bf           MOV dbl(@#00h),XAR3
016b74: ed618f           MOV dbl(*AR3),XAR0
016b77: 6c018d3d         CALL _GPT_start
016b7b: 4e0b             AADD #11,SP
016b7d: 4804             RET
016b7f:               _stop_timer:
016b7f: 4efd             AADD #-3,SP
016b81: eb0085           MOV XAR0,dbl(@#00h)
016b84: 6c017f59         CALL _IRQ_globalDisable
016b88: 6c017b72         CALL _IRQ_clearAll
016b8c: 6c017d0d         CALL _IRQ_disableAll
016b90: ed00bf           MOV dbl(@#00h),XAR3
016b93: ed618f           MOV dbl(*AR3),XAR0
016b96: 6c018d6a         CALL _GPT_stop
016b9a: c404             MOV T0,@#02h
016b9c: ed00bf           MOV dbl(@#00h),XAR3
016b9f: ed618f           MOV dbl(*AR3),XAR0
016ba2: 6c018c4e         CALL _GPT_reset
016ba6: c404             MOV T0,@#02h
016ba8: 4e03             AADD #3,SP
016baa: 4804             RET
016bac:               _setup:
016bac: 4efd             AADD #-3,SP
016bae: eb0085           MOV XAR0,dbl(@#00h)
016bb1: 7601f448         MOV #500,T0
016bb5: 6c01842e_3d15    CALL _calloc || MOV #1,T1
016bbb: eb318501338a     MOV XAR0,dbl(*(#01338ah))
016bc1: ed31bf01338a     MOV dbl(*(#01338ah)),XAR3
016bc7: 90b0             MOV XAR3,AC0
016bc9: 6310             BCC $C$L3,AC0 != #0
016bcb: 6c01a058_3f14    CALL _exit || MOV #-1,T0
016bd1:               $C$L3:
016bd1: ec318e01338c     AMAR *(#01338ch),XAR0
016bd7: 76019058         MOV #400,T1
016bdb: 6c01a1c5_3d04    CALL _memset || MOV #0,T0
016be1: 76138858         MOV #5000,T1
016be5: ec318e012000     AMAR *(#012000h),XAR0
016beb: 6c01a1c5_3d04    CALL _memset || MOV #0,T0
016bf1: ec31be01338c     AMAR *(#01338ch),XAR3
016bf7: eb31b501351c     MOV XAR3,dbl(*(#01351ch))
016bfd: ed00bf           MOV dbl(@#00h),XAR3
016c00: eb31b5013520     MOV XAR3,dbl(*(#013520h))
016c06: 7a00010a         MOV #1 << #16,AC0
016c0a: 7e338c00         OR #13196,AC0,AC0
016c0e: 6210             BCC $C$L4,AC0 != #0
016c10: 3e14             MOV #-1,T0
016c12: 4a02             B $C$L5
016c14:               $C$L4:
016c14: 3c04             MOV #0,T0
016c16:               $C$L5:
016c16: 4e03             AADD #3,SP
016c18: 4804             RET
016c1a:               _mutator:
016c1a: 4ef7             AADD #-9,SP
016c1c: ec318e000000     AMAR *(#00000h),XAR0
016c22: 6c01a175         CALL _time
016c26: c004             MOV AC0,@#02h
016c28: 6c019e94_2304    CALL _srand || MOV AC0,T0
016c2e: a931013539       MOV *(#013539h),AR1
016c33: 6319             BCC $C$L6,AR1 != #0
016c35: 6c01a058_3f34    CALL _exit || MOV #-3,T0
016c3b:               $C$L6:
016c3b: 7600c0a8         MOV #192,AR2
016c3f: a931013534       MOV *(#013534h),AR1
016c44: 1298a4           CMPU AR1 >= AR2, TC1
016c47: 6664             BCC $C$L7,TC1
016c49: 3c1a             MOV #1,AR2
016c4b: a931013538       MOV *(#013538h),AR1
016c50: 12a894           CMPU AR2 >= AR1, TC1
016c53: 64e4             BCC $C$L8,TC1
016c55:               $C$L7:
016c55: e63108013537     MOV #8,*(#013537h)
016c5b: 060082           B $C$L16
016c5e:               $C$L8:
016c5e: 3c2a             MOV #2,AR2
016c60: a931013534       MOV *(#013534h),AR1
016c65: 1298a4           CMPU AR1 >= AR2, TC1
016c68: 64e4             BCC $C$L9,TC1
016c6a: e63100013537     MOV #0,*(#013537h)
016c70: 06006d           B $C$L16
016c73:               $C$L9:
016c73: 3c4a             MOV #4,AR2
016c75: 1298a4           CMPU AR1 >= AR2, TC1
016c78: 64e4             BCC $C$L10,TC1
016c7a: e63101013537     MOV #1,*(#013537h)
016c80: 06005d           B $C$L16
016c83:               $C$L10:
016c83: 3c6a             MOV #6,AR2
016c85: 1298a4           CMPU AR1 >= AR2, TC1
016c88: 64e4             BCC $C$L11,TC1
016c8a: e63102013537     MOV #2,*(#013537h)
016c90: 06004d           B $C$L16
016c93:               $C$L11:
016c93: 3c8a             MOV #8,AR2
016c95: 1298a4           CMPU AR1 >= AR2, TC1
016c98: 6464             BCC $C$L12,TC1
016c9a: e63103013537     MOV #3,*(#013537h)
016ca0: 4a3e             B $C$L16
016ca2:               $C$L12:
016ca2: 3caa             MOV #10,AR2
016ca4: 1298a4           CMPU AR1 >= AR2, TC1
016ca7: 6464             BCC $C$L13,TC1
016ca9: e63104013537     MOV #4,*(#013537h)
016caf: 4a2f             B $C$L16
016cb1:               $C$L13:
016cb1: 3cca             MOV #12,AR2
016cb3: 1298a4           CMPU AR1 >= AR2, TC1
016cb6: 6464             BCC $C$L14,TC1
016cb8: e63105013537     MOV #5,*(#013537h)
016cbe: 4a20             B $C$L16
016cc0:               $C$L14:
016cc0: 760052a8         MOV #82,AR2
016cc4: 1298a4           CMPU AR1 >= AR2, TC1
016cc7: 6464             BCC $C$L15,TC1
016cc9: e63106013537     MOV #6,*(#013537h)
016ccf: 4a0f             B $C$L16
016cd1:               $C$L15:
016cd1: 760098a8         MOV #152,AR2
016cd5: 1298a4           CMPU AR1 >= AR2, TC1
016cd8: 6364             BCC $C$L16,TC1
016cda: e63107013537     MOV #7,*(#013537h)
016ce0:               $C$L16:
016ce0: 3c2a             MOV #2,AR2
016ce2: a931013538       MOV *(#013538h),AR1
016ce7: 12a894           CMPU AR2 >= AR1, TC1
016cea: 046424           BCC $C$L17,TC1
016ced: a431013539       MOV *(#013539h),T0
016cf2: a531013538       MOV *(#013538h),T1
016cf7: 6c01a130         CALL I$$UDIV
016cfb: 2245             MOV T0,T1
016cfd: a431013539       MOV *(#013539h),T0
016d02: 6c01a130         CALL I$$UDIV
016d06: c40e             MOV T0,@#07h
016d08: 2249             MOV T0,AR1
016d0a: 6419             BCC $C$L18,AR1 != #0
016d0c: e60e01           MOV #1,@#07h
016d0f: 4a03             B $C$L18
016d11:               $C$L17:
016d11: e60e01           MOV #1,@#07h
016d14:               $C$L18:
016d14: a931013534       MOV *(#013534h),AR1
016d19: 180109           AND #1,AR1,AC0
016d1c: c00c             MOV AC0,@#06h
016d1e: a931013537       MOV *(#013537h),AR1
016d23: 041969           BCC $C$L22,AR1 != #0
016d26: e60000           MOV #0,@#00h
016d29: a931013539       MOV *(#013539h),AR1
016d2e: aa00             MOV @#00h,AR2
016d30: 12a894           CMPU AR2 >= AR1, TC1
016d33: 6d6406b2         BCC $C$DW$L$_mutator$85$E,TC1
016d37:               $C$L19:
016d37:               $C$DW$L$_mutator$28$B:
016d37: a90c             MOV @#06h,AR1
016d39: c902             MOV AR1,@#01h
016d3b: 76001008         MOV #16,AC0
016d3f: df0c0f_239a      SUB uns(@#06h),AC0,AC0 || MOV AR1,AR2
016d44: 2209             MOV AC0,AR1
016d46: 12a894           CMPU AR2 >= AR1, TC1
016d49: 04642c           BCC $C$DW$L$_mutator$29$E,TC1
016d4c:               $C$DW$L$_mutator$28$E:
016d4c:               $C$L20:
016d4c:               $C$DW$L$_mutator$29$B:
016d4c: a400             MOV @#00h,T0
016d4e: ed31bf01338a     MOV dbl(*(#01338ah)),XAR3
016d54: a502_3d10        MOV @#01h,T1 || MOV #1,AC0
016d58: 5c05             SFTS AC0,T1,AC0
016d5a: db6b90           XOR *AR3(AR0),AC0,AR1
016d5d: c96b             MOV AR1,*AR3(AR0)
016d5f: f7020001         ADD #1,@#01h
016d63: f7020001         ADD #1,@#01h
016d67: 76001008         MOV #16,AC0
016d6b: df0c0f           SUB uns(@#06h),AC0,AC0
016d6e: aa02_2309        MOV @#01h,AR2 || MOV AC0,AR1
016d72: 12a494           CMPU AR2 < AR1, TC1
016d75: 0464d4           BCC $C$DW$L$_mutator$28$E,TC1
016d78:               $C$DW$L$_mutator$29$E:
016d78:               $C$L21:
016d78:               $C$DW$L$_mutator$30$B:
016d78: a90e             MOV @#07h,AR1
016d7a: d60099           ADD @#00h,AR1,AR1
016d7d: c900             MOV AR1,@#00h
016d7f: aa00             MOV @#00h,AR2
016d81: a931013539       MOV *(#013539h),AR1
016d86: 12a494           CMPU AR2 < AR1, TC1
016d89: 0464ab           BCC $C$L19,TC1
016d8c:               $C$DW$L$_mutator$30$E:
016d8c: 06065a           B $C$DW$L$_mutator$85$E
016d8f:               $C$L22:
016d8f: f0310001013537   CMP *(#013537h) == #1, TC1
016d96: 04747e           BCC $C$L26,!TC1
016d99: e60000           MOV #0,@#00h
016d9c: a931013539       MOV *(#013539h),AR1
016da1: aa00             MOV @#00h,AR2
016da3: 12a894           CMPU AR2 >= AR1, TC1
016da6: 6d64063f         BCC $C$DW$L$_mutator$85$E,TC1
016daa:               $C$L23:
016daa:               $C$DW$L$_mutator$34$B:
016daa: a90c             MOV @#06h,AR1
016dac: c902             MOV AR1,@#01h
016dae: 76001008         MOV #16,AC0
016db2: df0c0f_239a      SUB uns(@#06h),AC0,AC0 || MOV AR1,AR2
016db7: 2209             MOV AC0,AR1
016db9: 12a894           CMPU AR2 >= AR1, TC1
016dbc: 046441           BCC $C$DW$L$_mutator$35$E,TC1
016dbf:               $C$DW$L$_mutator$34$E:
016dbf:               $C$L24:
016dbf:               $C$DW$L$_mutator$35$B:
016dbf: a400             MOV @#00h,T0
016dc1: ed31bf01338a     MOV dbl(*(#01338ah)),XAR3
016dc7: a502_3d10        MOV @#01h,T1 || MOV #1,AC0
016dcb: 5c05             SFTS AC0,T1,AC0
016dcd: db6b90           XOR *AR3(AR0),AC0,AR1
016dd0: c96b             MOV AR1,*AR3(AR0)
016dd2: a400             MOV @#00h,T0
016dd4: ed31bf01338a     MOV dbl(*(#01338ah)),XAR3
016dda: a502             MOV @#01h,T1
016ddc: 4015_3d10        ADD #1,T1 || MOV #1,AC0
016de0: 5c05             SFTS AC0,T1,AC0
016de2: db6b90           XOR *AR3(AR0),AC0,AR1
016de5: c96b             MOV AR1,*AR3(AR0)
016de7: f7020002         ADD #2,@#01h
016deb: f7020001         ADD #1,@#01h
016def: 76001008         MOV #16,AC0
016df3: df0c0f           SUB uns(@#06h),AC0,AC0
016df6: aa02_2309        MOV @#01h,AR2 || MOV AC0,AR1
016dfa: 12a494           CMPU AR2 < AR1, TC1
016dfd: 0464bf           BCC $C$DW$L$_mutator$34$E,TC1
016e00:               $C$DW$L$_mutator$35$E:
016e00:               $C$L25:
016e00:               $C$DW$L$_mutator$36$B:
016e00: a90e             MOV @#07h,AR1
016e02: d60099           ADD @#00h,AR1,AR1
016e05: c900             MOV AR1,@#00h
016e07: aa00             MOV @#00h,AR2
016e09: a931013539       MOV *(#013539h),AR1
016e0e: 12a494           CMPU AR2 < AR1, TC1
016e11: 046496           BCC $C$L23,TC1
016e14:               $C$DW$L$_mutator$36$E:
016e14: 0605d2           B $C$DW$L$_mutator$85$E
016e17:               $C$L26:
016e17: f0310002013537   CMP *(#013537h) == #2, TC1
016e1e: 6d7400aa         BCC $C$L30,!TC1
016e22: 2209             MOV AC0,AR1
016e24: c900             MOV AR1,@#00h
016e26: 220a             MOV AC0,AR2
016e28: a931013539       MOV *(#013539h),AR1
016e2d: 12a894           CMPU AR2 >= AR1, TC1
016e30: 6d6405b5         BCC $C$DW$L$_mutator$85$E,TC1
016e34:               $C$L27:
016e34:               $C$DW$L$_mutator$40$B:
016e34: a90c             MOV @#06h,AR1
016e36: c902             MOV AR1,@#01h
016e38: 76001008         MOV #16,AC0
016e3c: df0c0f_239a      SUB uns(@#06h),AC0,AC0 || MOV AR1,AR2
016e41: 2209             MOV AC0,AR1
016e43: 12a894           CMPU AR2 >= AR1, TC1
016e46: 04646b           BCC $C$DW$L$_mutator$41$E,TC1
016e49:               $C$DW$L$_mutator$40$E:
016e49:               $C$L28:
016e49:               $C$DW$L$_mutator$41$B:
016e49: a400             MOV @#00h,T0
016e4b: ed31bf01338a     MOV dbl(*(#01338ah)),XAR3
016e51: a502_3d10        MOV @#01h,T1 || MOV #1,AC0
016e55: 5c05             SFTS AC0,T1,AC0
016e57: db6b90           XOR *AR3(AR0),AC0,AR1
016e5a: c96b             MOV AR1,*AR3(AR0)
016e5c: a400             MOV @#00h,T0
016e5e: ed31bf01338a     MOV dbl(*(#01338ah)),XAR3
016e64: a502             MOV @#01h,T1
016e66: 4015_3d10        ADD #1,T1 || MOV #1,AC0
016e6a: 5c05             SFTS AC0,T1,AC0
016e6c: db6b90           XOR *AR3(AR0),AC0,AR1
016e6f: c96b             MOV AR1,*AR3(AR0)
016e71: a400             MOV @#00h,T0
016e73: ed31bf01338a     MOV dbl(*(#01338ah)),XAR3
016e79: a502             MOV @#01h,T1
016e7b: 4025_3d10        ADD #2,T1 || MOV #1,AC0
016e7f: 5c05             SFTS AC0,T1,AC0
016e81: db6b90           XOR *AR3(AR0),AC0,AR1
016e84: c96b             MOV AR1,*AR3(AR0)
016e86: a400             MOV @#00h,T0
016e88: ed31bf01338a     MOV dbl(*(#01338ah)),XAR3
016e8e: a502             MOV @#01h,T1
016e90: 4035_3d10        ADD #3,T1 || MOV #1,AC0
016e94: 5c05             SFTS AC0,T1,AC0
016e96: db6b90           XOR *AR3(AR0),AC0,AR1
016e99: c96b             MOV AR1,*AR3(AR0)
016e9b: f7020004         ADD #4,@#01h
016e9f: f7020001         ADD #1,@#01h
016ea3: 76001008         MOV #16,AC0
016ea7: df0c0f           SUB uns(@#06h),AC0,AC0
016eaa: aa02_2309        MOV @#01h,AR2 || MOV AC0,AR1
016eae: 12a494           CMPU AR2 < AR1, TC1
016eb1: 046495           BCC $C$DW$L$_mutator$40$E,TC1
016eb4:               $C$DW$L$_mutator$41$E:
016eb4:               $C$L29:
016eb4:               $C$DW$L$_mutator$42$B:
016eb4: a90e             MOV @#07h,AR1
016eb6: d60099           ADD @#00h,AR1,AR1
016eb9: c900             MOV AR1,@#00h
016ebb: aa00             MOV @#00h,AR2
016ebd: a931013539       MOV *(#013539h),AR1
016ec2: 12a494           CMPU AR2 < AR1, TC1
016ec5: 6d64ff6b         BCC $C$L27,TC1
016ec9:               $C$DW$L$_mutator$42$E:
016ec9: 06051d           B $C$DW$L$_mutator$85$E
016ecc:               $C$L30:
016ecc: f0310003013537   CMP *(#013537h) == #3, TC1
016ed3: 047448           BCC $C$L32,!TC1
016ed6: e60000           MOV #0,@#00h
016ed9: a931013539       MOV *(#013539h),AR1
016ede: aa00             MOV @#00h,AR2
016ee0: 12a894           CMPU AR2 >= AR1, TC1
016ee3: 6d640502         BCC $C$DW$L$_mutator$85$E,TC1
016ee7:               $C$L31:
016ee7:               $C$DW$L$_mutator$46$B:
016ee7: a931013534       MOV *(#013534h),AR1
016eec: a400             MOV @#00h,T0
016eee: ed31bf01338a     MOV dbl(*(#01338ah)),XAR3
016ef4: 180109           AND #1,AR1,AC0
016ef7: 100703           SFTL AC0,#3,AC0
016efa: 7600ff18_2305    MOV #255,AC1 || MOV AC0,T1
016f00: 5c15             SFTS AC1,T1,AC0
016f02: db6b90           XOR *AR3(AR0),AC0,AR1
016f05: c96b             MOV AR1,*AR3(AR0)
016f07: a90e             MOV @#07h,AR1
016f09: d60099           ADD @#00h,AR1,AR1
016f0c: c900             MOV AR1,@#00h
016f0e: aa00             MOV @#00h,AR2
016f10: a931013539       MOV *(#013539h),AR1
016f15: 12a494           CMPU AR2 < AR1, TC1
016f18: 0464cc           BCC $C$L31,TC1
016f1b:               $C$DW$L$_mutator$46$E:
016f1b: 0604cb           B $C$DW$L$_mutator$85$E
016f1e:               $C$L32:
016f1e: f0310004013537   CMP *(#013537h) == #4, TC1
016f25: 047447           BCC $C$L34,!TC1
016f28: e60000           MOV #0,@#00h
016f2b: a931013539       MOV *(#013539h),AR1
016f30: aa00             MOV @#00h,AR2
016f32: 12a894           CMPU AR2 >= AR1, TC1
016f35: 6d6404b0         BCC $C$DW$L$_mutator$85$E,TC1
016f39:               $C$L33:
016f39:               $C$DW$L$_mutator$50$B:
016f39: a400             MOV @#00h,T0
016f3b: ed31bf01338a     MOV dbl(*(#01338ah)),XAR3
016f41: a96b             MOV *AR3(AR0),AR1
016f43: 1cff99           XOR #255,AR1,AR1
016f46: c96b             MOV AR1,*AR3(AR0)
016f48: a400             MOV @#00h,T0
016f4a: ed31bf01338a     MOV dbl(*(#01338ah)),XAR3
016f50: a96b             MOV *AR3(AR0),AR1
016f52: 7fff0099         XOR #65280,AR1,AR1
016f56: c96b             MOV AR1,*AR3(AR0)
016f58: a90e             MOV @#07h,AR1
016f5a: d60099           ADD @#00h,AR1,AR1
016f5d: c900             MOV AR1,@#00h
016f5f: aa00             MOV @#00h,AR2
016f61: a931013539       MOV *(#013539h),AR1
016f66: 12a494           CMPU AR2 < AR1, TC1
016f69: 0464cd           BCC $C$L33,TC1
016f6c:               $C$DW$L$_mutator$50$E:
016f6c: 06047a           B $C$DW$L$_mutator$85$E
016f6f:               $C$L34:
016f6f: f0310005013537   CMP *(#013537h) == #5, TC1
016f76: 6d740084         BCC $C$L36,!TC1
016f7a: e60000           MOV #0,@#00h
016f7d: a931013539       MOV *(#013539h),AR1
016f82: aa00             MOV @#00h,AR2
016f84: 12a894           CMPU AR2 >= AR1, TC1
016f87: 6d64045e         BCC $C$DW$L$_mutator$85$E,TC1
016f8b:               $C$L35:
016f8b:               $C$DW$L$_mutator$54$B:
016f8b: a90e             MOV @#07h,AR1
016f8d: d60ca9           ADD @#06h,AR1,AR2
016f90: a900             MOV @#00h,AR1
016f92: 4019             ADD #1,AR1
016f94: 1294a4           CMPU AR1 < AR2, TC1
016f97: 6d74044e         BCC $C$DW$L$_mutator$85$E,!TC1
016f9b:               $C$DW$L$_mutator$54$E:
016f9b:               $C$DW$L$_mutator$55$B:
016f9b: a400             MOV @#00h,T0
016f9d: ed31bf01338a     MOV dbl(*(#01338ah)),XAR3
016fa3: a96b             MOV *AR3(AR0),AR1
016fa5: 1cff99           XOR #255,AR1,AR1
016fa8: c96b             MOV AR1,*AR3(AR0)
016faa: a400             MOV @#00h,T0
016fac: ed31bf01338a     MOV dbl(*(#01338ah)),XAR3
016fb2: a96b             MOV *AR3(AR0),AR1
016fb4: 7fff0099         XOR #65280,AR1,AR1
016fb8: c96b             MOV AR1,*AR3(AR0)
016fba: a400             MOV @#00h,T0
016fbc: 4014             ADD #1,T0
016fbe: ed31bf01338a     MOV dbl(*(#01338ah)),XAR3
016fc4: a96b             MOV *AR3(AR0),AR1
016fc6: a400             MOV @#00h,T0
016fc8: 4014             ADD #1,T0
016fca: 1cff99           XOR #255,AR1,AR1
016fcd: c96b             MOV AR1,*AR3(AR0)
016fcf: a400             MOV @#00h,T0
016fd1: 4014             ADD #1,T0
016fd3: ed31bf01338a     MOV dbl(*(#01338ah)),XAR3
016fd9: a96b             MOV *AR3(AR0),AR1
016fdb: a400             MOV @#00h,T0
016fdd: 4014             ADD #1,T0
016fdf: 7fff0099         XOR #65280,AR1,AR1
016fe3: c96b             MOV AR1,*AR3(AR0)
016fe5: a90e             MOV @#07h,AR1
016fe7: d60099           ADD @#00h,AR1,AR1
016fea: 4029             ADD #2,AR1
016fec: c900             MOV AR1,@#00h
016fee: aa00             MOV @#00h,AR2
016ff0: a931013539       MOV *(#013539h),AR1
016ff5: 12a494           CMPU AR2 < AR1, TC1
016ff8: 046490           BCC $C$L35,TC1
016ffb:               $C$DW$L$_mutator$55$E:
016ffb: 0603eb           B $C$DW$L$_mutator$85$E
016ffe:               $C$L36:
016ffe: f0310006013537   CMP *(#013537h) == #6, TC1
017005: 047453           BCC $C$L38,!TC1
017008: 2209             MOV AC0,AR1
01700a: c900             MOV AR1,@#00h
01700c: a031013539       MOV *(#013539h),AC0
017011: df0c0f_239a      SUB uns(@#06h),AC0,AC0 || MOV AR1,AR2
017016: 2209             MOV AC0,AR1
017018: 12a894           CMPU AR2 >= AR1, TC1
01701b: 6d6403ca         BCC $C$DW$L$_mutator$85$E,TC1
01701f:               $C$L37:
01701f:               $C$DW$L$_mutator$59$B:
01701f: a431013534       MOV *(#013534h),T0
017024: 76002358         MOV #35,T1
017028: 6c01a145         CALL I$$UMOD
01702c: ed31bf01338a     MOV dbl(*(#01338ah)),XAR3
017032: a400_2349        MOV @#00h,T0 || MOV T0,AR1
017036: d66b99           ADD *AR3(AR0),AR1,AR1
017039: c96b             MOV AR1,*AR3(AR0)
01703b: f7000001         ADD #1,@#00h
01703f: a90e             MOV @#07h,AR1
017041: d60099           ADD @#00h,AR1,AR1
017044: c900             MOV AR1,@#00h
017046: a031013539       MOV *(#013539h),AC0
01704b: df0c0f_239a      SUB uns(@#06h),AC0,AC0 || MOV AR1,AR2
017050: 2209             MOV AC0,AR1
017052: 12a494           CMPU AR2 < AR1, TC1
017055: 0464c7           BCC $C$L37,TC1
017058:               $C$DW$L$_mutator$59$E:
017058: 06038e           B $C$DW$L$_mutator$85$E
01705b:               $C$L38:
01705b: f0310007013537   CMP *(#013537h) == #7, TC1
017062: 047453           BCC $C$L40,!TC1
017065: 2209             MOV AC0,AR1
017067: c900             MOV AR1,@#00h
017069: a031013539       MOV *(#013539h),AC0
01706e: df0c0f_239a      SUB uns(@#06h),AC0,AC0 || MOV AR1,AR2
017073: 2209             MOV AC0,AR1
017075: 12a894           CMPU AR2 >= AR1, TC1
017078: 6d64036d         BCC $C$DW$L$_mutator$85$E,TC1
01707c:               $C$L39:
01707c:               $C$DW$L$_mutator$63$B:
01707c: a431013534       MOV *(#013534h),T0
017081: 76002358         MOV #35,T1
017085: 6c01a145         CALL I$$UMOD
017089: ed31bf01338a     MOV dbl(*(#01338ah)),XAR3
01708f: a400_2349        MOV @#00h,T0 || MOV T0,AR1
017093: d86b99           SUB AR1,*AR3(AR0),AR1
017096: c96b             MOV AR1,*AR3(AR0)
017098: f7000001         ADD #1,@#00h
01709c: a90e             MOV @#07h,AR1
01709e: d60099           ADD @#00h,AR1,AR1
0170a1: c900             MOV AR1,@#00h
0170a3: a031013539       MOV *(#013539h),AC0
0170a8: df0c0f_239a      SUB uns(@#06h),AC0,AC0 || MOV AR1,AR2
0170ad: 2209             MOV AC0,AR1
0170af: 12a494           CMPU AR2 < AR1, TC1
0170b2: 0464c7           BCC $C$L39,TC1
0170b5:               $C$DW$L$_mutator$63$E:
0170b5: 060331           B $C$DW$L$_mutator$85$E
0170b8:               $C$L40:
0170b8: f0310008013537   CMP *(#013537h) == #8, TC1
0170bf: 6d740326         BCC $C$DW$L$_mutator$85$E,!TC1
0170c3: 6c019eb6         CALL _rand
0170c7: 6c01a0b5_3dc5    CALL I$$MOD || MOV #12,T1
0170cd: c410             MOV T0,@#08h
0170cf: a931013538       MOV *(#013538h),AR1
0170d4: 6319             BCC $C$L41,AR1 != #0
0170d6: e63101013538     MOV #1,*(#013538h)
0170dc:               $C$L41:
0170dc: 6c019eb6         CALL _rand
0170e0: a531013538       MOV *(#013538h),T1
0170e5: 76006448_2349    MOV #100,T0 || MOV T0,AR1
0170eb: 6c01a130         CALL I$$UDIV
0170ef: 2245             MOV T0,T1
0170f1: 6c01a145_2394    CALL I$$UMOD || MOV AR1,T0
0170f7: c40a             MOV T0,@#05h
0170f9: e60000           MOV #0,@#00h
0170fc: aa00             MOV @#00h,AR2
0170fe: a90a             MOV @#05h,AR1
017100: 12a894           CMPU AR2 >= AR1, TC1
017103: 6d6402e2         BCC $C$DW$L$_mutator$85$E,TC1
017107:               $C$L42:
017107:               $C$DW$L$_mutator$69$B:
017107: 6c019eb6         CALL _rand
01710b: a531013539       MOV *(#013539h),T1
017110: 6c01a145         CALL I$$UMOD
017114: c406             MOV T0,@#03h
017116: 060293           B $C$DW$L$_mutator$82$E
017119:               $C$DW$L$_mutator$69$E:
017119:               $C$L43:
017119:               $C$DW$L$_mutator$71$B:
017119: 6c019eb6         CALL _rand
01711d: 7600ffa8_2340    MOV #255,AR2 || MOV T0,AC0
017123: ed31bf01338a     MOV dbl(*(#01338ah)),XAR3
017129: 100539_37aa      SFTS AC0,#-7,AC0 || NOT AR2,AR2
01712e: 76ff0090         BFXTR #65280,AC0,AR1
017132: 2449             ADD T0,AR1
017134: 289a             AND AR1,AR2
017136: a406_2349        MOV @#03h,T0 || MOV T0,AR1
01713a: 26a9             SUB AR2,AR1
01713c: c96b             MOV AR1,*AR3(AR0)
01713e: 06028d           B $C$DW$L$_mutator$84$E
017141:               $C$DW$L$_mutator$71$E:
017141:               $C$L44:
017141:               $C$DW$L$_mutator$72$B:
017141: a431013534       MOV *(#013534h),T0
017146: 76002258         MOV #34,T1
01714a: 6c01a145         CALL I$$UMOD
01714e: ed31bf01338a     MOV dbl(*(#01338ah)),XAR3
017154: a406_2349        MOV @#03h,T0 || MOV T0,AR1
017158: d66b99           ADD *AR3(AR0),AR1,AR1
01715b: c96b             MOV AR1,*AR3(AR0)
01715d: 06026e           B $C$DW$L$_mutator$84$E
017160:               $C$DW$L$_mutator$72$E:
017160:               $C$L45:
017160:               $C$DW$L$_mutator$73$B:
017160: a406             MOV @#03h,T0
017162: ed31bf01338a     MOV dbl(*(#01338ah)),XAR3
017168: df3193013534     MOV uns(low_byte(*(#013534h))),AR1
01716e: d66b99           ADD *AR3(AR0),AR1,AR1
017171: c96b             MOV AR1,*AR3(AR0)
017173: 060258           B $C$DW$L$_mutator$84$E
017176:               $C$DW$L$_mutator$73$E:
017176:               $C$L46:
017176:               $C$DW$L$_mutator$74$B:
017176: a406             MOV @#03h,T0
017178: ed31bf01338a     MOV dbl(*(#01338ah)),XAR3
01717e: df3193013534     MOV uns(low_byte(*(#013534h))),AR1
017184: d86b99           SUB AR1,*AR3(AR0),AR1
017187: c96b             MOV AR1,*AR3(AR0)
017189: 060242           B $C$DW$L$_mutator$84$E
01718c:               $C$DW$L$_mutator$74$E:
01718c:               $C$L47:
01718c:               $C$DW$L$_mutator$75$B:
01718c: a431013534       MOV *(#013534h),T0
017191: 76002258         MOV #34,T1
017195: 6c01a145         CALL I$$UMOD
017199: ed31bf01338a     MOV dbl(*(#01338ah)),XAR3
01719f: a406_2349        MOV @#03h,T0 || MOV T0,AR1
0171a3: d86b99           SUB AR1,*AR3(AR0),AR1
0171a6: c96b             MOV AR1,*AR3(AR0)
0171a8: 060223           B $C$DW$L$_mutator$84$E
0171ab:               $C$DW$L$_mutator$75$E:
0171ab:               $C$L48:
0171ab:               $C$DW$L$_mutator$76$B:
0171ab: 6c019eb6         CALL _rand
0171af: a531013539       MOV *(#013539h),T1
0171b4: 6c01a145         CALL I$$UMOD
0171b8: 7c000194         SUB #1,T0,AR1
0171bc: c906             MOV AR1,@#03h
0171be: 6c019eb6         CALL _rand
0171c2: 2240_3dfa        MOV T0,AC0 || MOV #15,AR2
0171c6: 10053d_37aa      SFTS AC0,#-3,AC0 || NOT AR2,AR2
0171cb: 76f00090         BFXTR #61440,AC0,AR1
0171cf: 2449             ADD T0,AR1
0171d1: 289a             AND AR1,AR2
0171d3: 26a4             SUB AR2,T0
0171d5: c408             MOV T0,@#04h
0171d7: a406             MOV @#03h,T0
0171d9: ed31bf01338a     MOV dbl(*(#01338ah)),XAR3
0171df: a508_3d10        MOV @#04h,T1 || MOV #1,AC0
0171e3: 5c05             SFTS AC0,T1,AC0
0171e5: db6b90           XOR *AR3(AR0),AC0,AR1
0171e8: c96b             MOV AR1,*AR3(AR0)
0171ea: 0601e1           B $C$DW$L$_mutator$84$E
0171ed:               $C$DW$L$_mutator$76$E:
0171ed:               $C$L49:
0171ed:               $C$DW$L$_mutator$77$B:
0171ed: 6c019eb6         CALL _rand
0171f1: a531013539       MOV *(#013539h),T1
0171f6: 6c01a145         CALL I$$UMOD
0171fa: 7c000194         SUB #1,T0,AR1
0171fe: c906             MOV AR1,@#03h
017200: 6c019eb6         CALL _rand
017204: 2240_3dfa        MOV T0,AC0 || MOV #15,AR2
017208: 10053d_37aa      SFTS AC0,#-3,AC0 || NOT AR2,AR2
01720d: 76f00090         BFXTR #61440,AC0,AR1
017211: 2449             ADD T0,AR1
017213: 289a             AND AR1,AR2
017215: 26a4             SUB AR2,T0
017217: c408             MOV T0,@#04h
017219: a406             MOV @#03h,T0
01721b: ed31bf01338a     MOV dbl(*(#01338ah)),XAR3
017221: a508_3d10        MOV @#04h,T1 || MOV #1,AC0
017225: 5c05             SFTS AC0,T1,AC0
017227: db6b90           XOR *AR3(AR0),AC0,AR1
01722a: c96b             MOV AR1,*AR3(AR0)
01722c: a406             MOV @#03h,T0
01722e: ed31bf01338a     MOV dbl(*(#01338ah)),XAR3
017234: a508             MOV @#04h,T1
017236: 4015_3d10        ADD #1,T1 || MOV #1,AC0
01723a: 5c05             SFTS AC0,T1,AC0
01723c: db6b90           XOR *AR3(AR0),AC0,AR1
01723f: c96b             MOV AR1,*AR3(AR0)
017241: 06018a           B $C$DW$L$_mutator$84$E
017244:               $C$DW$L$_mutator$77$E:
017244:               $C$L50:
017244:               $C$DW$L$_mutator$78$B:
017244: 6c019eb6         CALL _rand
017248: a531013539       MOV *(#013539h),T1
01724d: 6c01a145         CALL I$$UMOD
017251: 7c000194         SUB #1,T0,AR1
017255: c906             MOV AR1,@#03h
017257: 6c019eb6         CALL _rand
01725b: 2240_3dfa        MOV T0,AC0 || MOV #15,AR2
01725f: 10053d_37aa      SFTS AC0,#-3,AC0 || NOT AR2,AR2
017264: 76f00090         BFXTR #61440,AC0,AR1
017268: 2449             ADD T0,AR1
01726a: 289a             AND AR1,AR2
01726c: 26a4             SUB AR2,T0
01726e: c408             MOV T0,@#04h
017270: a406             MOV @#03h,T0
017272: ed31bf01338a     MOV dbl(*(#01338ah)),XAR3
017278: a508_3d10        MOV @#04h,T1 || MOV #1,AC0
01727c: 5c05             SFTS AC0,T1,AC0
01727e: db6b90           XOR *AR3(AR0),AC0,AR1
017281: c96b             MOV AR1,*AR3(AR0)
017283: a406             MOV @#03h,T0
017285: ed31bf01338a     MOV dbl(*(#01338ah)),XAR3
01728b: a508             MOV @#04h,T1
01728d: 4015_3d10        ADD #1,T1 || MOV #1,AC0
017291: 5c05             SFTS AC0,T1,AC0
017293: db6b90           XOR *AR3(AR0),AC0,AR1
017296: c96b             MOV AR1,*AR3(AR0)
017298: a406             MOV @#03h,T0
01729a: ed31bf01338a     MOV dbl(*(#01338ah)),XAR3
0172a0: a508             MOV @#04h,T1
0172a2: 4025_3d10        ADD #2,T1 || MOV #1,AC0
0172a6: 5c05             SFTS AC0,T1,AC0
0172a8: db6b90           XOR *AR3(AR0),AC0,AR1
0172ab: c96b             MOV AR1,*AR3(AR0)
0172ad: a406             MOV @#03h,T0
0172af: ed31bf01338a     MOV dbl(*(#01338ah)),XAR3
0172b5: a508             MOV @#04h,T1
0172b7: 4035_3d10        ADD #3,T1 || MOV #1,AC0
0172bb: 5c05             SFTS AC0,T1,AC0
0172bd: db6b90           XOR *AR3(AR0),AC0,AR1
0172c0: c96b             MOV AR1,*AR3(AR0)
0172c2: 060109           B $C$DW$L$_mutator$84$E
0172c5:               $C$DW$L$_mutator$78$E:
0172c5:               $C$L51:
0172c5:               $C$DW$L$_mutator$79$B:
0172c5: 6c019eb6         CALL _rand
0172c9: a531013539       MOV *(#013539h),T1
0172ce: 6c01a145         CALL I$$UMOD
0172d2: 7c000194         SUB #1,T0,AR1
0172d6: c906             MOV AR1,@#03h
0172d8: a931013534       MOV *(#013534h),AR1
0172dd: ed31bf01338a     MOV dbl(*(#01338ah)),XAR3
0172e3: a406             MOV @#03h,T0
0172e5: 180109           AND #1,AR1,AC0
0172e8: 100703           SFTL AC0,#3,AC0
0172eb: 7600ff18_2305    MOV #255,AC1 || MOV AC0,T1
0172f1: 5c15             SFTS AC1,T1,AC0
0172f3: db6b90           XOR *AR3(AR0),AC0,AR1
0172f6: c96b             MOV AR1,*AR3(AR0)
0172f8: 0600d3           B $C$DW$L$_mutator$84$E
0172fb:               $C$DW$L$_mutator$79$E:
0172fb:               $C$L52:
0172fb:               $C$DW$L$_mutator$80$B:
0172fb: 6c019eb6         CALL _rand
0172ff: a531013539       MOV *(#013539h),T1
017304: 6c01a145         CALL I$$UMOD
017308: c406             MOV T0,@#03h
01730a: ed31bf01338a     MOV dbl(*(#01338ah)),XAR3
017310: a406             MOV @#03h,T0
017312: a96b             MOV *AR3(AR0),AR1
017314: 1cff99           XOR #255,AR1,AR1
017317: c96b             MOV AR1,*AR3(AR0)
017319: a406             MOV @#03h,T0
01731b: ed31bf01338a     MOV dbl(*(#01338ah)),XAR3
017321: a96b             MOV *AR3(AR0),AR1
017323: 7fff0099         XOR #65280,AR1,AR1
017327: c96b             MOV AR1,*AR3(AR0)
017329: 0600a2           B $C$DW$L$_mutator$84$E
01732c:               $C$DW$L$_mutator$80$E:
01732c:               $C$L53:
01732c:               $C$DW$L$_mutator$81$B:
01732c: 6c019eb6         CALL _rand
017330: a531013539       MOV *(#013539h),T1
017335: 6c01a145         CALL I$$UMOD
017339: 7c000194         SUB #1,T0,AR1
01733d: c906             MOV AR1,@#03h
01733f: ed31bf01338a     MOV dbl(*(#01338ah)),XAR3
017345: a406             MOV @#03h,T0
017347: a96b             MOV *AR3(AR0),AR1
017349: 1cff99           XOR #255,AR1,AR1
01734c: c96b             MOV AR1,*AR3(AR0)
01734e: a406             MOV @#03h,T0
017350: ed31bf01338a     MOV dbl(*(#01338ah)),XAR3
017356: a96b             MOV *AR3(AR0),AR1
017358: 7fff0099         XOR #65280,AR1,AR1
01735c: c96b             MOV AR1,*AR3(AR0)
01735e: ed31bf01338a     MOV dbl(*(#01338ah)),XAR3
017364: a406             MOV @#03h,T0
017366: 4014             ADD #1,T0
017368: a96b             MOV *AR3(AR0),AR1
01736a: a406             MOV @#03h,T0
01736c: 4014             ADD #1,T0
01736e: 1cff99           XOR #255,AR1,AR1
017371: c96b             MOV AR1,*AR3(AR0)
017373: ed31bf01338a     MOV dbl(*(#01338ah)),XAR3
017379: a406             MOV @#03h,T0
01737b: 4014             ADD #1,T0
01737d: a96b             MOV *AR3(AR0),AR1
01737f: a406             MOV @#03h,T0
017381: 4014             ADD #1,T0
017383: 7fff0099         XOR #65280,AR1,AR1
017387: c96b             MOV AR1,*AR3(AR0)
017389: 060042           B $C$DW$L$_mutator$84$E
01738c:               $C$DW$L$_mutator$81$E:
01738c:               $C$L54:
01738c:               $C$DW$L$_mutator$82$B:
01738c: 6c019eb6         CALL _rand
017390: a531013539       MOV *(#013539h),T1
017395: 6c01a145         CALL I$$UMOD
017399: 7c000194         SUB #1,T0,AR1
01739d: c906             MOV AR1,@#03h
01739f: ed31bf01338a     MOV dbl(*(#01338ah)),XAR3
0173a5: a406             MOV @#03h,T0
0173a7: e66b00           MOV #0,*AR3(AR0)
0173aa: 4a22             B $C$DW$L$_mutator$84$E
0173ac:               $C$DW$L$_mutator$82$E:
0173ac:               $C$L55:
0173ac:               $C$DW$L$_mutator$83$B:
0173ac: a010             MOV @#08h,AC0
0173ae: 2209_3dba        MOV AC0,AR1 || MOV #11,AR2
0173b2: 12a894           CMPU AR2 >= AR1, TC1
0173b5: 047416           BCC $C$DW$L$_mutator$84$E,!TC1
0173b8:               $C$DW$L$_mutator$83$E:
0173b8:               $C$DW$L$_mutator$84$B:
0173b8: 4450             SFTS AC0,#1
0173ba: a110_98          MOV mmap(@AC0L),AC1
0173bd: 7a00010a         MOV #1 << #16,AC0
0173c1: 7ee00000         OR #57344,AC0,AC0
0173c5: 2410             ADD AC1,AC0
0173c7: 900b             MOV AC0,XAR3
0173c9: ed6108           MOV dbl(*AR3),AC0
0173cc: 9100             B AC0
0173ce:               $C$DW$L$_mutator$84$E:
0173ce:               $C$L56:
0173ce:               $C$DW$L$_mutator$85$B:
0173ce: 6c019eb6         CALL _rand
0173d2: 6c01a0b5_3dc5    CALL I$$MOD || MOV #12,T1
0173d8: c410             MOV T0,@#08h
0173da: f7000001         ADD #1,@#00h
0173de: a90a             MOV @#05h,AR1
0173e0: aa00             MOV @#00h,AR2
0173e2: 12a494           CMPU AR2 < AR1, TC1
0173e5: 6d64fd1e         BCC $C$L42,TC1
0173e9:               $C$DW$L$_mutator$85$E:
0173e9:               $C$L57:
0173e9:               $C$L58:
0173e9: f7310001013534   ADD #1,*(#013534h)
0173f0: 4e09             AADD #9,SP
0173f2: 4804             RET
0173f4:               _dequeue_seed:
0173f4: 4efd             AADD #-3,SP
0173f6: a931013522       MOV *(#013522h),AR1
0173fb: aa3101351f       MOV *(#01351fh),AR2
017400: 12ac94           CMPU AR2 != AR1, TC1
017403: 6364             BCC $C$L59,TC1
017405: e6310001351f     MOV #0,*(#01351fh)
01740b:               $C$L59:
01740b: f03100fa013534   CMP *(#013534h) == #250, TC1
017412: 66f4             BCC $C$L60,!TC1
017414: e63100013534     MOV #0,*(#013534h)
01741a: f731000101351f   ADD #1,*(#01351fh)
017421:               $C$L60:
017421: a931013388       MOV *(#013388h),AR1
017426: aa3101351f       MOV *(#01351fh),AR2
01742b: 12a494           CMPU AR2 < AR1, TC1
01742e: 66e4             BCC $C$L61,TC1
017430: e6310001351f     MOV #0,*(#01351fh)
017436: f7310001013535   ADD #1,*(#013535h)
01743d:               $C$L61:
01743d: 3c5a             MOV #5,AR2
01743f: a931013535       MOV *(#013535h),AR1
017444: 12a894           CMPU AR2 >= AR1, TC1
017447: 046422           BCC $C$L63,TC1
01744a: 3caa             MOV #10,AR2
01744c: a931013538       MOV *(#013538h),AR1
017451: 1298a4           CMPU AR1 >= AR2, TC1
017454: 63e4             BCC $C$L62,TC1
017456: f7310001013538   ADD #1,*(#013538h)
01745d:               $C$L62:
01745d: f031000a013538   CMP *(#013538h) == #10, TC1
017464: 6374             BCC $C$L63,!TC1
017466: e63101013538     MOV #1,*(#013538h)
01746c:               $C$L63:
01746c: b03101351f       MOV *(#01351fh) << #16,AC0
017471: 7901f400         MPYK #500,AC0,AC0
017475: 2209             MOV AC0,AR1
017477: ed31af01338a     MOV dbl(*(#01338ah)),XAR2
01747d: ec31be012000     AMAR *(#012000h),XAR3
017483: 1490b0           AADD AR1,AR3
017486: ec419e_0d01f3    AMAR *AR2,XAR1 || RPT #499
01748c:               $C$L64:
01748c:               $C$DW$L$_dequeue_seed$13$B:
01748c: 806514           MOV *AR3+,*AR2+
01748f:               $C$DW$L$_dequeue_seed$13$E:
01748f:               $C$L65:
01748f: eb0095           MOV XAR1,dbl(@#00h)
017492: ed00bf           MOV dbl(@#00h),XAR3
017495: 90b0             MOV XAR3,AC0
017497: 6310             BCC $C$L66,AC0 != #0
017499: 3e14             MOV #-1,T0
01749b: 6c01a058         CALL _exit
01749f:               $C$L66:
01749f: 4e03             AADD #3,SP
0174a1: 4804             RET
0174a3:               _bubble_coverage:
0174a3: 4eff             AADD #-1,SP
0174a5: e60000           MOV #0,@#00h
0174a8: 4e01             AADD #1,SP
0174aa: 4804             RET
0174ac:               _main_harness_loop:
0174ac: 4efd             AADD #-3,SP
0174ae: 7a00010a         MOV #1 << #16,AC0
0174b2: 7e697100         OR #26993,AC0,AC0
0174b6: 9008             MOV AC0,XAR0
0174b8: 08f6f1           CALL _setup
0174bb: e63100013389     MOV #0,*(#013389h)
0174c1: ec318e013524     AMAR *(#013524h),XAR0
0174c7: 6c019fd4         CALL __setjmp
0174cb:               $C$L67:
0174cb:               $C$DW$L$_main_harness_loop$3$B:
0174cb: f7310001013536   ADD #1,*(#013536h)
0174d2: 08ff1f           CALL _dequeue_seed
0174d5: 08f742           CALL _mutator
0174d8: ec008e           AMAR @#00h,XAR0
0174db: 08f606           CALL _start_timer
0174de: ed318f01338a     MOV dbl(*(#01338ah)),XAR0
0174e4: 6c016971         CALL _susan_edges
0174e8: ec008e           AMAR @#00h,XAR0
0174eb: 08f691           CALL _stop_timer
0174ee: 3c00             MOV #0,AC0
0174f0: eb310801353e     MOV AC0,dbl(*(#01353eh))
0174f6: a931013523       MOV *(#013523h),AR1
0174fb: 040957           BCC $C$DW$L$_main_harness_loop$8$E,AR1 == #0
0174fe:               $C$DW$L$_main_harness_loop$3$E:
0174fe:               $C$DW$L$_main_harness_loop$4$B:
0174fe: ed310801338c     MOV dbl(*(#01338ch)),AC0
017504: 04004e           BCC $C$DW$L$_main_harness_loop$8$E,AC0 == #0
017507:               $C$DW$L$_main_harness_loop$4$E:
017507:               $C$DW$L$_main_harness_loop$5$B:
017507: f7310001013389   ADD #1,*(#013389h)
01750e: 08ff92           CALL _bubble_coverage
017511: e60400           MOV #0,@#02h
017514: 7600c8a8         MOV #200,AR2
017518: a904             MOV @#02h,AR1
01751a: 1298a4           CMPU AR1 >= AR2, TC1
01751d: 04641b           BCC $C$DW$L$_main_harness_loop$6$E,TC1
017520:               $C$DW$L$_main_harness_loop$5$E:
017520:               $C$L68:
017520:               $C$DW$L$_main_harness_loop$6$B:
017520: a404             MOV @#02h,T0
017522: 5040             SFTL T0,#1
017524: 3c00             MOV #0,AC0
017526: ec31be01338c     AMAR *(#01338ch),XAR3
01752c: eb6b08           MOV AC0,dbl(*AR3(AR0))
01752f: f7040001         ADD #1,@#02h
017533: a904             MOV @#02h,AR1
017535: 1294a4           CMPU AR1 < AR2, TC1
017538: 0464e5           BCC $C$DW$L$_main_harness_loop$5$E,TC1
01753b:               $C$DW$L$_main_harness_loop$6$E:
01753b:               $C$L69:
01753b:               $C$DW$L$_main_harness_loop$7$B:
01753b: ec31be01338c     AMAR *(#01338ch),XAR3
017541: eb31b501351c     MOV XAR3,dbl(*(#01351ch))
017547: e63100013523     MOV #0,*(#013523h)
01754d: e63101013538     MOV #1,*(#013538h)
017553: 4a00             B $C$DW$L$_main_harness_loop$8$E
017555:               $C$DW$L$_main_harness_loop$8$E:
017555:               $C$L71:
017555:               $C$DW$L$_main_harness_loop$9$B:
017555:               $C$DW$L$_main_harness_loop$7$E:
017555:               $C$L70:
017555:               $C$DW$L$_main_harness_loop$8$B:
017555: ec318e013524     AMAR *(#013524h),XAR0
01755b: 6c019ff5_3d14    CALL _longjmp || MOV #1,T0
017561: 06ff67           B $C$L67
017564:               _main:
017564:               $C$DW$L$_main_harness_loop$9$E:
017564: 4eff             AADD #-1,SP
017566: 08ff43           CALL _main_harness_loop
017569: 3c04             MOV #0,T0
01756b: 4e01             AADD #1,SP
01756d: 4804             RET
01756f:               _getenv:
01756f: 50d5             PSHBOTH XAR5
017571: 20               NOP
017572: 20               NOP
017573: 50f5             PSHBOTH XAR7
017575: ec01de           AMAR *AR0,XAR5
017578: 4eff             AADD #-1,SP
01757a: ed31080136a8     MOV dbl(*(#0136a8h)),AC0
017580: 9200             CALL AC0
017582: 76ffffa8         MOV #-1,AR2
017586: eca1be           AMAR *AR5,XAR3
017589: b465             AMAR *AR3-
01758b: a96f0001         MOV *+AR3(#0001h),AR1
01758f: 401a             ADD #1,AR2
017591: 0419f7           BCC #0x01758b,AR1 != #0
017594: ec31fe013540     AMAR *(#013540h),XAR7
01759a: eca19e           AMAR *AR5,XAR1
01759d: 7b00015a         ADD #1,AR2,T1
0175a1: 7600f648         MOV #246,T0
0175a5: ece18e           AMAR *AR7,XAR0
0175a8: 6c019890         CALL _writemsg
0175ac: ec31de013548     AMAR *(#013548h),XAR5
0175b2: eca19e           AMAR *AR5,XAR1
0175b5: ece18e           AMAR *AR7,XAR0
0175b8: 6c019dc0         CALL _readmsg
0175bc: ed31080136aa     MOV dbl(*(#0136aah)),AC0
0175c2: 9200             CALL AC0
0175c4: 76ffff98         MOV #-1,AR1
0175c8: eca18e           AMAR *AR5,XAR0
0175cb: ec01be           AMAR *AR0,XAR3
0175ce: b465             AMAR *AR3-
0175d0: aa6f0001         MOV *+AR3(#0001h),AR2
0175d4: 4019             ADD #1,AR1
0175d6: 041af7           BCC #0x0175d0,AR2 != #0
0175d9: 4e01             AADD #1,SP
0175db: 20               NOP
0175dc: 50f4             POPBOTH XAR7
0175de: 50d4             POPBOTH XAR5
0175e0: 9609             XCC AR1 == #0
0175e2: ec318e000000     AMAR *(#00000h),XAR0
0175e8: 4804             RET
0175ea:               _HOSTwrite:
0175ea: 3876             PSH T3,T2
0175ec: 50d5             PSHBOTH XAR5
0175ee: 20               NOP
0175ef: 2247             MOV T0,T3
0175f1: 50f5             PSHBOTH XAR7
0175f3: ec01de_2356      AMAR *AR0,XAR5 || MOV T1,T2
0175f8: 4eff             AADD #-1,SP
0175fa: ed31080136a8     MOV dbl(*(#0136a8h)),AC0
017600: 9200             CALL AC0
017602: ec31fe013540     AMAR *(#013540h),XAR7
017608: 76010098         MOV #256,AR1
01760c: 129864_21        CMPU AR1 >= T2, TC1 || NOP
017610: 18ff07           AND #255,T3,AC0
017613: 76010068_9ef4    XCCPART !TC1 || MOV #256,T2
017619: c0e1_2370        MOV AC0,*AR7 || MOV T3,AC0
01761d: 100538           SFTS AC0,#-8,AC0
017620: 18ff00           AND #255,AC0,AC0
017623: c0f3_19ff06      MOV AC0,*(AR7+T1) || AND #255,T2,AC0
017628: c0f5_2360        MOV AC0,*(AR7-T1) || MOV T2,AC0
01762c: 76ff0090         BFXTR #65280,AC0,AR1
017630: c9f7             MOV AR1,*AR7(T1)
017632: 7600f348         MOV #243,T0
017636: ece18e           AMAR *AR7,XAR0
017639: eca19e_2365      AMAR *AR5,XAR1 || MOV T2,T1
01763e: 6c019890         CALL _writemsg
017642: ec319e000000     AMAR *(#00000h),XAR1
017648: ece18e           AMAR *AR7,XAR0
01764b: 6c019dc0         CALL _readmsg
01764f: df3105013540     MOV uns(*(#013540h)),AC0
017655: df3115013541     MOV uns(*(#013541h)),AC1
01765b: 101308           ADD AC1 << #8,AC0
01765e: 100510           SFTS AC0,#16,AC0
017661: 4406             MOV HI(AC0),T2
017663: ed31080136aa     MOV dbl(*(#0136aah)),AC0
017669: 9200             CALL AC0
01766b: 4e01             AADD #1,SP
01766d: 50f4             POPBOTH XAR7
01766f: 2264             MOV T2,T0
017671: 50d4             POPBOTH XAR5
017673: 3a76             POP T3,T2
017675: 4804             RET
017677:               _HOSTunlink:
017677: 5066             PSH T2
017679: 50d5             PSHBOTH XAR5
01767b: 50f5             PSHBOTH XAR7
01767d: 20               NOP
01767e: 20               NOP
01767f: ed31080136a8     MOV dbl(*(#0136a8h)),AC0
017685: ec01fe           AMAR *AR0,XAR7
017688: 9200             CALL AC0
01768a: 76ffffa8         MOV #-1,AR2
01768e: ece1be           AMAR *AR7,XAR3
017691: b465             AMAR *AR3-
017693: a96f0001         MOV *+AR3(#0001h),AR1
017697: 401a             ADD #1,AR2
017699: 0419f7           BCC #0x017693,AR1 != #0
01769c: ec31de013540     AMAR *(#013540h),XAR5
0176a2: ece19e           AMAR *AR7,XAR1
0176a5: 7b00015a         ADD #1,AR2,T1
0176a9: 7600f548         MOV #245,T0
0176ad: eca18e           AMAR *AR5,XAR0
0176b0: 6c019890         CALL _writemsg
0176b4: ec319e000000     AMAR *(#00000h),XAR1
0176ba: eca18e           AMAR *AR5,XAR0
0176bd: 6c019dc0         CALL _readmsg
0176c1: dfb315           MOV uns(*(AR5+T1)),AC1
0176c4: dfa105           MOV uns(*AR5),AC0
0176c7: 101308           ADD AC1 << #8,AC0
0176ca: 100510           SFTS AC0,#16,AC0
0176cd: 4406             MOV HI(AC0),T2
0176cf: ed31080136aa     MOV dbl(*(#0136aah)),AC0
0176d5: 9200             CALL AC0
0176d7: 50f4             POPBOTH XAR7
0176d9: 2264             MOV T2,T0
0176db: 50d4             POPBOTH XAR5
0176dd: 5062             POP T2
0176df: 4804             RET
0176e1:               _HOSTtime:
0176e1: 50d5             PSHBOTH XAR5
0176e3: ed31080136a8     MOV dbl(*(#0136a8h)),AC0
0176e9: 4efe             AADD #-2,SP
0176eb: 9200             CALL AC0
0176ed: ec31de013540     AMAR *(#013540h),XAR5
0176f3: 7600f848         MOV #248,T0
0176f7: ec319e000000     AMAR *(#00000h),XAR1
0176fd: eca18e_3d05      AMAR *AR5,XAR0 || MOV #0,T1
017702: 6c019890         CALL _writemsg
017706: ec319e000000     AMAR *(#00000h),XAR1
01770c: eca18e           AMAR *AR5,XAR0
01770f: 6c019dc0         CALL _readmsg
017713: df3105013540     MOV uns(*(#013540h)),AC0
017719: dfb715           MOV uns(*AR5(T1)),AC1
01771c: dfb515_111318    MOV uns(*(AR5-T1)),AC1 || ADD AC1 << #24,AC0
017722: dfb315_111310    MOV uns(*(AR5+T1)),AC1 || ADD AC1 << #16,AC0
017728: 101308           ADD AC1 << #8,AC0
01772b: eb0008           MOV AC0,dbl(@#00h)
01772e: ed31080136aa     MOV dbl(*(#0136aah)),AC0
017734: 9200             CALL AC0
017736: ed0008           MOV dbl(@#00h),AC0
017739: 4e02             AADD #2,SP
01773b: 50d4             POPBOTH XAR5
01773d: 4804             RET
01773f:               _HOSTrename:
01773f: 5066             PSH T2
017741: 50d5             PSHBOTH XAR5
017743: 20               NOP
017744: 20               NOP
017745: 50f5             PSHBOTH XAR7
017747: ec01de           AMAR *AR0,XAR5
01774a: 4e9c             AADD #-100,SP
01774c: ed31080136a8     MOV dbl(*(#0136a8h)),AC0
017752: ec21fe           AMAR *AR1,XAR7
017755: 9200             CALL AC0
017757: 904a             MOV XSP,XAR2
017759: eca1be           AMAR *AR5,XAR3
01775c: a961             MOV *AR3,AR1
01775e: 806104           MOV *AR3,*AR2
017761: 6589             BCC #0x01776e,AR1 == #0
017763: a96f0001         MOV *+AR3(#0001h),AR1
017767: c94f0001         MOV AR1,*+AR2(#0001h)
01776b: 0419f5           BCC #0x017763,AR1 != #0
01776e: 76ffffa8         MOV #-1,AR2
017772: b4a5             AMAR *AR5-
017774: a9af0001         MOV *+AR5(#0001h),AR1
017778: 401a             ADD #1,AR2
01777a: 0419f7           BCC #0x017774,AR1 != #0
01777d: 7b00015a         ADD #1,AR2,T1
017781: 904b             MOV XSP,XAR3
017783: ece1ae           AMAR *AR7,XAR2
017786: 8a41b91850       MOV *AR2,AR1 || AADD T1,AR3
01778b: c963             MOV AR1,*AR3+
01778d: 6489             BCC #0x017798,AR1 == #0
01778f: a94f0001         MOV *+AR2(#0001h),AR1
017793: c963             MOV AR1,*AR3+
017795: 0419f7           BCC #0x01778f,AR1 != #0
017798: 76ffffa8         MOV #-1,AR2
01779c: b4e5             AMAR *AR7-
01779e: a9ef0001         MOV *+AR7(#0001h),AR1
0177a2: 401a             ADD #1,AR2
0177a4: 0419f7           BCC #0x01779e,AR1 != #0
0177a7: 9049             MOV XSP,XAR1
0177a9: ec31de013540     AMAR *(#013540h),XAR5
0177af: 7600f748_25a5    MOV #247,T0 || ADD AR2,T1
0177b5: eca18e_4115      AMAR *AR5,XAR0 || ADD #1,T1
0177ba: 6c019890         CALL _writemsg
0177be: ec319e000000     AMAR *(#00000h),XAR1
0177c4: eca18e           AMAR *AR5,XAR0
0177c7: 6c019dc0         CALL _readmsg
0177cb: dfb315           MOV uns(*(AR5+T1)),AC1
0177ce: dfa105           MOV uns(*AR5),AC0
0177d1: 101308           ADD AC1 << #8,AC0
0177d4: 100510           SFTS AC0,#16,AC0
0177d7: 4406             MOV HI(AC0),T2
0177d9: ed31080136aa     MOV dbl(*(#0136aah)),AC0
0177df: 9200             CALL AC0
0177e1: 4e64             AADD #100,SP
0177e3: 50f4             POPBOTH XAR7
0177e5: 2264             MOV T2,T0
0177e7: 50d4             POPBOTH XAR5
0177e9: 5062             POP T2
0177eb: 4804             RET
0177ed:               _HOSTread:
0177ed: 3876             PSH T3,T2
0177ef: 50d5             PSHBOTH XAR5
0177f1: 20               NOP
0177f2: 2247             MOV T0,T3
0177f4: 50f5             PSHBOTH XAR7
0177f6: ec01de_2356      AMAR *AR0,XAR5 || MOV T1,T2
0177fb: 4eff             AADD #-1,SP
0177fd: ed31080136a8     MOV dbl(*(#0136a8h)),AC0
017803: 9200             CALL AC0
017805: ec31fe013540     AMAR *(#013540h),XAR7
01780b: 76010098         MOV #256,AR1
01780f: 129864_21        CMPU AR1 >= T2, TC1 || NOP
017813: 18ff07           AND #255,T3,AC0
017816: 76010068_9ef4    XCCPART !TC1 || MOV #256,T2
01781c: c0e1_2370        MOV AC0,*AR7 || MOV T3,AC0
017820: 100538           SFTS AC0,#-8,AC0
017823: 18ff00           AND #255,AC0,AC0
017826: c0f3_19ff06      MOV AC0,*(AR7+T1) || AND #255,T2,AC0
01782b: c0f5_2360        MOV AC0,*(AR7-T1) || MOV T2,AC0
01782f: 76ff0090         BFXTR #65280,AC0,AR1
017833: c9f7             MOV AR1,*AR7(T1)
017835: 7600f248         MOV #242,T0
017839: ece18e_3d05      AMAR *AR7,XAR0 || MOV #0,T1
01783e: ec319e000000     AMAR *(#00000h),XAR1
017844: 6c019890         CALL _writemsg
017848: eca19e           AMAR *AR5,XAR1
01784b: ece18e           AMAR *AR7,XAR0
01784e: 6c019dc0         CALL _readmsg
017852: df3105013540     MOV uns(*(#013540h)),AC0
017858: df3115013541     MOV uns(*(#013541h)),AC1
01785e: 101308           ADD AC1 << #8,AC0
017861: 100510           SFTS AC0,#16,AC0
017864: 4406             MOV HI(AC0),T2
017866: ed31080136aa     MOV dbl(*(#0136aah)),AC0
01786c: 9200             CALL AC0
01786e: 4e01             AADD #1,SP
017870: 50f4             POPBOTH XAR7
017872: 2264             MOV T2,T0
017874: 50d4             POPBOTH XAR5
017876: 3a76             POP T3,T2
017878: 4804             RET
01787a:               _HOSTopen:
01787a: 3876             PSH T3,T2
01787c: 50d5             PSHBOTH XAR5
01787e: 50e5             PSHBOTH XAR6
017880: 20               NOP
017881: 20               NOP
017882: 2246             MOV T0,T2
017884: ec01ee_2357      AMAR *AR0,XAR6 || MOV T1,T3
017889: 50f5             PSHBOTH XAR7
01788b: ed31080136a8     MOV dbl(*(#0136a8h)),AC0
017891: 9200             CALL AC0
017893: ec31be013540     AMAR *(#013540h),XAR3
017899: 18ff07           AND #255,T3,AC0
01789c: 76ffffa8         MOV #-1,AR2
0178a0: c061_2370        MOV AC0,*AR3 || MOV T3,AC0
0178a4: ec61de_110538    AMAR *AR3,XAR5 || SFTS AC0,#-8,AC0
0178aa: b4a3_19ff00      AMAR *AR5+ || AND #255,AC0,AC0
0178af: c0a1_19ff06      MOV AC0,*AR5 || AND #255,T2,AC0
0178b4: c075_2360        MOV AC0,*(AR3-T1) || MOV T2,AC0
0178b8: 76ff0090         BFXTR #65280,AC0,AR1
0178bc: ecc1be           AMAR *AR6,XAR3
0178bf: b465             AMAR *AR3-
0178c1: c9b5             MOV AR1,*(AR5-T1)
0178c3: a96f0001         MOV *+AR3(#0001h),AR1
0178c7: 401a             ADD #1,AR2
0178c9: 0419f7           BCC #0x0178c3,AR1 != #0
0178cc: ec31fe013540     AMAR *(#013540h),XAR7
0178d2: ecc19e           AMAR *AR6,XAR1
0178d5: 7b00015a         ADD #1,AR2,T1
0178d9: 7600f048         MOV #240,T0
0178dd: ece18e           AMAR *AR7,XAR0
0178e0: 6c019890         CALL _writemsg
0178e4: ec319e000000     AMAR *(#00000h),XAR1
0178ea: ece18e           AMAR *AR7,XAR0
0178ed: 6c019dc0         CALL _readmsg
0178f1: dfa115           MOV uns(*AR5),AC1
0178f4: dfad05ffff       MOV uns(*AR5(#-0001h)),AC0
0178f9: 101308           ADD AC1 << #8,AC0
0178fc: 100510           SFTS AC0,#16,AC0
0178ff: 4406             MOV HI(AC0),T2
017901: ed31080136aa     MOV dbl(*(#0136aah)),AC0
017907: 9200             CALL AC0
017909: 2267_9ea6        XCCPART T2 < #0 || MOV T2,T3
01790d: 50f4             POPBOTH XAR7
01790f: 2274             MOV T3,T0
017911: 50e4             POPBOTH XAR6
017913: 50d4             POPBOTH XAR5
017915: 3a76             POP T3,T2
017917: 4804             RET
017919:               _HOSTlseek:
017919: 3876             PSH T3,T2
01791b: 50d5             PSHBOTH XAR5
01791d: 2247             MOV T0,T3
01791f: 4efe             AADD #-2,SP
017921: eb0008_2356      MOV AC0,dbl(@#00h) || MOV T1,T2
017926: ed31080136a8     MOV dbl(*(#0136a8h)),AC0
01792c: 9200             CALL AC0
01792e: ec31de013540     AMAR *(#013540h),XAR5
017934: 18ff07           AND #255,T3,AC0
017937: c0a1_2370        MOV AC0,*AR5 || MOV T3,AC0
01793b: 100538           SFTS AC0,#-8,AC0
01793e: 18ff00           AND #255,AC0,AC0
017941: c0b3             MOV AC0,*(AR5+T1)
017943: ed0008           MOV dbl(@#00h),AC0
017946: 18ff00           AND #255,AC0,AC0
017949: c0b5             MOV AC0,*(AR5-T1)
01794b: ed0008           MOV dbl(@#00h),AC0
01794e: a900_110538      MOV @#00h,AR1 || SFTS AC0,#-8,AC0
017953: 18ff00           AND #255,AC0,AC0
017956: c0b7_19ff09      MOV AC0,*AR5(T1) || AND #255,AR1,AC0
01795b: 7600f448         MOV #244,T0
01795f: c0b9             MOV AC0,*+AR5
017961: ec319e000000     AMAR *(#00000h),XAR1
017967: ed0008           MOV dbl(@#00h),AC0
01796a: 100528           SFTS AC0,#-24,AC0
01796d: 18ff00           AND #255,AC0,AC0
017970: c0bb_19ff06      MOV AC0,*-AR5 || AND #255,T2,AC0
017975: c0bd_2360        MOV AC0,*(AR5+AR0B) || MOV T2,AC0
017979: 100538           SFTS AC0,#-8,AC0
01797c: eca18e_19ff00    AMAR *AR5,XAR0 || AND #255,AC0,AC0
017982: c0bf_3d05        MOV AC0,*(AR5-AR0B) || MOV #0,T1
017986: 6c019890         CALL _writemsg
01798a: ec319e000000     AMAR *(#00000h),XAR1
017990: eca18e           AMAR *AR5,XAR0
017993: 6c019dc0         CALL _readmsg
017997: df3105013540     MOV uns(*(#013540h)),AC0
01799d: df3115013543     MOV uns(*(#013543h)),AC1
0179a3: 101318           ADD AC1 << #24,AC0
0179a6: df3115013542     MOV uns(*(#013542h)),AC1
0179ac: 101310           ADD AC1 << #16,AC0
0179af: df3115013541     MOV uns(*(#013541h)),AC1
0179b5: 101308           ADD AC1 << #8,AC0
0179b8: eb0008           MOV AC0,dbl(@#00h)
0179bb: ed31080136aa     MOV dbl(*(#0136aah)),AC0
0179c1: 9200             CALL AC0
0179c3: ed0008           MOV dbl(@#00h),AC0
0179c6: 4e02             AADD #2,SP
0179c8: 50d4             POPBOTH XAR5
0179ca: 3a76             POP T3,T2
0179cc: 4804             RET
0179ce:               _HOSTclose:
0179ce: 2246_5166        MOV T0,T2 || PSH T2
0179d2: 50d5             PSHBOTH XAR5
0179d4: 4eff             AADD #-1,SP
0179d6: ed31080136a8     MOV dbl(*(#0136a8h)),AC0
0179dc: 9200             CALL AC0
0179de: ec31de013540     AMAR *(#013540h),XAR5
0179e4: 7600f148         MOV #241,T0
0179e8: 18ff06           AND #255,T2,AC0
0179eb: ec319e000000     AMAR *(#00000h),XAR1
0179f1: c0a1_2360        MOV AC0,*AR5 || MOV T2,AC0
0179f5: 100538           SFTS AC0,#-8,AC0
0179f8: eca18e_19ff00    AMAR *AR5,XAR0 || AND #255,AC0,AC0
0179fe: c0b3_3d05        MOV AC0,*(AR5+T1) || MOV #0,T1
017a02: 6c019890         CALL _writemsg
017a06: ec319e000000     AMAR *(#00000h),XAR1
017a0c: eca18e           AMAR *AR5,XAR0
017a0f: 6c019dc0         CALL _readmsg
017a13: df3105013540     MOV uns(*(#013540h)),AC0
017a19: df3115013541     MOV uns(*(#013541h)),AC1
017a1f: 101308           ADD AC1 << #8,AC0
017a22: 100510           SFTS AC0,#16,AC0
017a25: 4406             MOV HI(AC0),T2
017a27: ed31080136aa     MOV dbl(*(#0136aah)),AC0
017a2d: 9200             CALL AC0
017a2f: 4e01             AADD #1,SP
017a31: 50d4             POPBOTH XAR5
017a33: 2264             MOV T2,T0
017a35: 5062             POP T2
017a37: 4804             RET
017a39:               _HOSTclock:
017a39: 50d5             PSHBOTH XAR5
017a3b: ed31080136a8     MOV dbl(*(#0136a8h)),AC0
017a41: 4efe             AADD #-2,SP
017a43: 9200             CALL AC0
017a45: ec31de013540     AMAR *(#013540h),XAR5
017a4b: 7600f948         MOV #249,T0
017a4f: ec319e000000     AMAR *(#00000h),XAR1
017a55: eca18e_3d05      AMAR *AR5,XAR0 || MOV #0,T1
017a5a: 6c019890         CALL _writemsg
017a5e: ec319e000000     AMAR *(#00000h),XAR1
017a64: eca18e           AMAR *AR5,XAR0
017a67: 6c019dc0         CALL _readmsg
017a6b: df3105013540     MOV uns(*(#013540h)),AC0
017a71: dfb715           MOV uns(*AR5(T1)),AC1
017a74: dfb515_111318    MOV uns(*(AR5-T1)),AC1 || ADD AC1 << #24,AC0
017a7a: dfb315_111310    MOV uns(*(AR5+T1)),AC1 || ADD AC1 << #16,AC0
017a80: 101308           ADD AC1 << #8,AC0
017a83: eb0008           MOV AC0,dbl(@#00h)
017a86: ed31080136aa     MOV dbl(*(#0136aah)),AC0
017a8c: 9200             CALL AC0
017a8e: ed0008           MOV dbl(@#00h),AC0
017a91: 4e02             AADD #2,SP
017a93: 50d4             POPBOTH XAR5
017a95: 4804             RET
017a97:               _IRQ_init:
017a97: 4efb             AADD #-5,SP
017a99: c404             MOV T0,@#02h
017a9b: eb0085           MOV XAR0,dbl(@#00h)
017a9e: ed00bf           MOV dbl(@#00h),XAR3
017aa1: 90b0             MOV XAR3,AC0
017aa3: ec31be7fffff     AMAR *(#07fffffh),XAR3
017aa9: 90b1             MOV XAR3,AC1
017aab: 121c04           CMPU AC1 != AC0, TC1
017aae: 62e4             BCC $C$L1,TC1
017ab0: 3e64             MOV #-6,T0
017ab2: 060066           B $C$L6
017ab5:               $C$L1:
017ab5: ed00bf           MOV dbl(@#00h),XAR3
017ab8: eb31b5013610     MOV XAR3,dbl(*(#013610h))
017abe: e60600           MOV #0,@#03h
017ac1: 76001fa8         MOV #31,AR2
017ac5: a906             MOV @#03h,AR1
017ac7: 12a494           CMPU AR2 < AR1, TC1
017aca: 04641b           BCC $C$DW$L$_IRQ_init$4$E,TC1
017acd:               $C$L2:
017acd:               $C$DW$L$_IRQ_init$4$B:
017acd: a406             MOV @#03h,T0
017acf: 5040             SFTL T0,#1
017ad1: a006             MOV @#03h,AC0
017ad3: ec31be013612     AMAR *(#013612h),XAR3
017ad9: eb6b08           MOV AC0,dbl(*AR3(AR0))
017adc: f7060001         ADD #1,@#03h
017ae0: a906             MOV @#03h,AR1
017ae2: 12a894           CMPU AR2 >= AR1, TC1
017ae5: 0464e5           BCC $C$L2,TC1
017ae8:               $C$DW$L$_IRQ_init$4$E:
017ae8:               $C$L3:
017ae8: e60600           MOV #0,@#03h
017aeb: a906             MOV @#03h,AR1
017aed: 12a494           CMPU AR2 < AR1, TC1
017af0: 04641f           BCC $C$DW$L$_IRQ_init$6$E,TC1
017af3:               $C$L4:
017af3:               $C$DW$L$_IRQ_init$6$B:
017af3: a506             MOV @#03h,T1
017af5: 2254             MOV T1,T0
017af7: 5040             SFTL T0,#1
017af9: 3c10             MOV #1,AC0
017afb: ec31be013652     AMAR *(#013652h),XAR3
017b01: 5c05             SFTS AC0,T1,AC0
017b03: eb6b08           MOV AC0,dbl(*AR3(AR0))
017b06: f7060001         ADD #1,@#03h
017b0a: a906             MOV @#03h,AR1
017b0c: 12a894           CMPU AR2 >= AR1, TC1
017b0f: 0464e1           BCC $C$L4,TC1
017b12:               $C$DW$L$_IRQ_init$6$E:
017b12:               $C$L5:
017b12: a904             MOV @#02h,AR1
017b14: c931013692       MOV AR1,*(#013692h)
017b19: 3c04             MOV #0,T0
017b1b:               $C$L6:
017b1b: 4e05             AADD #5,SP
017b1d: 4804             RET
017b1f:               _IRQ_clear:
017b1f: 4efd             AADD #-3,SP
017b21: c400             MOV T0,@#00h
017b23: 76001fa8_2349    MOV #31,AR2 || MOV T0,AR1
017b29: 12a894           CMPU AR2 >= AR1, TC1
017b2c: 6264             BCC $C$L7,TC1
017b2e: 3e64             MOV #-6,T0
017b30: 4a3c             B $C$L10
017b32:               $C$L7:
017b32: 080424           CALL _IRQ_globalDisable
017b35: c404             MOV T0,@#02h
017b37: a900             MOV @#00h,AR1
017b39: c902             MOV AR1,@#01h
017b3b: a900_3dfa        MOV @#00h,AR1 || MOV #15,AR2
017b3f: 12a894           CMPU AR2 >= AR1, TC1
017b42: 046413           BCC $C$L8,TC1
017b45: 7c001059_3d10    SUB #16,AR1,T1 || MOV #1,AC0
017b4b: 5c05             SFTS AC0,T1,AC0
017b4d: c002             MOV AC0,@#01h
017b4f: 2209             MOV AC0,AR1
017b51: c931000046       MOV AR1,*(#00046h)
017b56: 4a0f             B $C$L9
017b58:               $C$L8:
017b58: a500_3d10        MOV @#00h,T1 || MOV #1,AC0
017b5c: 5c05             SFTS AC0,T1,AC0
017b5e: c002             MOV AC0,@#01h
017b60: 2209             MOV AC0,AR1
017b62: c931000001       MOV AR1,*(#00001h)
017b67:               $C$L9:
017b67: a404             MOV @#02h,T0
017b69: 08041f           CALL _IRQ_globalRestore
017b6c: 3c04             MOV #0,T0
017b6e:               $C$L10:
017b6e: 4e03             AADD #3,SP
017b70: 4804             RET
017b72:               _IRQ_clearAll:
017b72: fb31ffff000001   MOV #-1,*(#00001h)
017b79: fb31ffff000046   MOV #-1,*(#00046h)
017b80: 4804             RET
017b82:               _IRQ_config:
017b82: 4efb             AADD #-5,SP
017b84: eb0485           MOV XAR0,dbl(@#02h)
017b87: c400             MOV T0,@#00h
017b89: ed04bf           MOV dbl(@#02h),XAR3
017b8c: 90b0_3d01        MOV XAR3,AC0 || MOV #0,AC1
017b90: 121c04           CMPU AC1 != AC0, TC1
017b93: 62e4             BCC $C$L11,TC1
017b95: 3e64             MOV #-6,T0
017b97: 060069           B $C$L13
017b9a:               $C$L11:
017b9a: 76001fa8_2349    MOV #31,AR2 || MOV T0,AR1
017ba0: 12a894           CMPU AR2 >= AR1, TC1
017ba3: 62e4             BCC $C$L12,TC1
017ba5: 3e64             MOV #-6,T0
017ba7: 060059           B $C$L13
017baa:               $C$L12:
017baa: ed31af013610     MOV dbl(*(#013610h)),XAR2
017bb0: f9000308         MOV @#00h << #3,AC0
017bb4: 2204             MOV AC0,T0
017bb6: 806170           MOV dbl(*AR3),dbl(*AR2(AR0))
017bb9: ed31bf013610     MOV dbl(*(#013610h)),XAR3
017bbf: ed04af           MOV dbl(@#02h),XAR2
017bc2: f9000308         MOV @#00h << #3,AC0
017bc6: 2209             MOV AC0,AR1
017bc8: 8e55bd180890     MOV dbl(*(AR2-T1)),AC0 || AADD AR1,AR3
017bce: eb7508           MOV AC0,dbl(*(AR3-T1))
017bd1: ed31bf013610     MOV dbl(*(#013610h)),XAR3
017bd7: ed04af           MOV dbl(@#02h),XAR2
017bda: f9000308         MOV @#00h << #3,AC0
017bde: 2209             MOV AC0,AR1
017be0: 8e59bd180890     MOV dbl(*+AR2),AC0 || AADD AR1,AR3
017be6: eb7908           MOV AC0,dbl(*+AR3)
017be9: ed31bf013610     MOV dbl(*(#013610h)),XAR3
017bef: ed04af           MOV dbl(@#02h),XAR2
017bf2: f9000308         MOV @#00h << #3,AC0
017bf6: 2209             MOV AC0,AR1
017bf8: 8e5dbd180890     MOV dbl(*(AR2+AR0B)),AC0 || AADD AR1,AR3
017bfe: eb7d08           MOV AC0,dbl(*(AR3+AR0B))
017c01: 3c04             MOV #0,T0
017c03:               $C$L13:
017c03: 4e05             AADD #5,SP
017c05: 4804             RET
017c07:               _IRQ_getConfig:
017c07: 4efb             AADD #-5,SP
017c09: eb0485           MOV XAR0,dbl(@#02h)
017c0c: c400             MOV T0,@#00h
017c0e: ed04bf           MOV dbl(@#02h),XAR3
017c11: 90b0_3d01        MOV XAR3,AC0 || MOV #0,AC1
017c15: 121c04           CMPU AC1 != AC0, TC1
017c18: 62e4             BCC $C$L14,TC1
017c1a: 3e64             MOV #-6,T0
017c1c: 06006c           B $C$L16
017c1f:               $C$L14:
017c1f: 76001fa8_2349    MOV #31,AR2 || MOV T0,AR1
017c25: 12a894           CMPU AR2 >= AR1, TC1
017c28: 62e4             BCC $C$L15,TC1
017c2a: 3e64             MOV #-6,T0
017c2c: 06005c           B $C$L16
017c2f:               $C$L15:
017c2f: ed31bf013610     MOV dbl(*(#013610h)),XAR3
017c35: ed04af           MOV dbl(@#02h),XAR2
017c38: f9000308         MOV @#00h << #3,AC0
017c3c: 2204             MOV AC0,T0
017c3e: 807d00           MOV dbl(*AR3(AR0)),dbl(*AR2)
017c41: ed31bf013610     MOV dbl(*(#013610h)),XAR3
017c47: f9000308         MOV @#00h << #3,AC0
017c4b: 2209             MOV AC0,AR1
017c4d: 1490b0           AADD AR1,AR3
017c50: ed7508           MOV dbl(*(AR3-T1)),AC0
017c53: ed04bf           MOV dbl(@#02h),XAR3
017c56: eb7508           MOV AC0,dbl(*(AR3-T1))
017c59: ed31bf013610     MOV dbl(*(#013610h)),XAR3
017c5f: f9000308         MOV @#00h << #3,AC0
017c63: 2209             MOV AC0,AR1
017c65: 1490b0           AADD AR1,AR3
017c68: ed7908           MOV dbl(*+AR3),AC0
017c6b: ed04bf           MOV dbl(@#02h),XAR3
017c6e: eb7908           MOV AC0,dbl(*+AR3)
017c71: ed31bf013610     MOV dbl(*(#013610h)),XAR3
017c77: f9000308         MOV @#00h << #3,AC0
017c7b: 2209             MOV AC0,AR1
017c7d: 1490b0           AADD AR1,AR3
017c80: ed7d08           MOV dbl(*(AR3+AR0B)),AC0
017c83: ed04bf           MOV dbl(@#02h),XAR3
017c86: eb7d08           MOV AC0,dbl(*(AR3+AR0B))
017c89: 3c04             MOV #0,T0
017c8b:               $C$L16:
017c8b: 4e05             AADD #5,SP
017c8d: 4804             RET
017c8f:               _IRQ_disable:
017c8f: 4efb             AADD #-5,SP
017c91: c400             MOV T0,@#00h
017c93: 76001fa8_2349    MOV #31,AR2 || MOV T0,AR1
017c99: 12a894           CMPU AR2 >= AR1, TC1
017c9c: 62e4             BCC $C$L17,TC1
017c9e: 3e64             MOV #-6,T0
017ca0: 060066           B $C$L20
017ca3:               $C$L17:
017ca3: c902             MOV AR1,@#01h
017ca5: 0802b1           CALL _IRQ_globalDisable
017ca8: c406             MOV T0,@#03h
017caa: a900_3dfa        MOV @#00h,AR1 || MOV #15,AR2
017cae: 12a894           CMPU AR2 >= AR1, TC1
017cb1: 04642a           BCC $C$L18,TC1
017cb4: f702fff0         ADD #-16,@#01h
017cb8: df3105000045     MOV uns(*(#00045h)),AC0
017cbe: a902             MOV @#01h,AR1
017cc0: 3495             NEG AR1,T1
017cc2: 5c05             SFTS AC0,T1,AC0
017cc4: 180100           AND #1,AC0,AC0
017cc7: c004             MOV AC0,@#02h
017cc9: a502_3d10        MOV @#01h,T1 || MOV #1,AC0
017ccd: 5c05             SFTS AC0,T1,AC0
017ccf: 3609             NOT AC0,AR1
017cd1: d93109000045     AND *(#00045h),AR1,AC0
017cd7: c031000045       MOV AC0,*(#00045h)
017cdc: 4a24             B $C$L19
017cde:               $C$L18:
017cde: a902             MOV @#01h,AR1
017ce0: df3105000000     MOV uns(*(#00000h)),AC0
017ce6: 3495             NEG AR1,T1
017ce8: 5c05             SFTS AC0,T1,AC0
017cea: 180100           AND #1,AC0,AC0
017ced: c004             MOV AC0,@#02h
017cef: a502_3d10        MOV @#01h,T1 || MOV #1,AC0
017cf3: 5c05             SFTS AC0,T1,AC0
017cf5: 3609             NOT AC0,AR1
017cf7: d93109000000     AND *(#00000h),AR1,AC0
017cfd: c031000000       MOV AC0,*(#00000h)
017d02:               $C$L19:
017d02: a406             MOV @#03h,T0
017d04: 080284           CALL _IRQ_globalRestore
017d07: a404             MOV @#02h,T0
017d09:               $C$L20:
017d09: 4e05             AADD #5,SP
017d0b: 4804             RET
017d0d:               _IRQ_disableAll:
017d0d: e63100000000     MOV #0,*(#00000h)
017d13: e63100000045     MOV #0,*(#00045h)
017d19: 4804             RET
017d1b:               _IRQ_enable:
017d1b: 4efb             AADD #-5,SP
017d1d: c400             MOV T0,@#00h
017d1f: 76001fa8_2349    MOV #31,AR2 || MOV T0,AR1
017d25: 12a894           CMPU AR2 >= AR1, TC1
017d28: 62e4             BCC $C$L21,TC1
017d2a: 3e64             MOV #-6,T0
017d2c: 060072           B $C$L24
017d2f:               $C$L21:
017d2f: c902             MOV AR1,@#01h
017d31: 080225           CALL _IRQ_globalDisable
017d34: c406             MOV T0,@#03h
017d36: a900_3dfa        MOV @#00h,AR1 || MOV #15,AR2
017d3a: 12a894           CMPU AR2 >= AR1, TC1
017d3d: 046430           BCC $C$L22,TC1
017d40: f702fff0         ADD #-16,@#01h
017d44: df3105000045     MOV uns(*(#00045h)),AC0
017d4a: a902             MOV @#01h,AR1
017d4c: 3495             NEG AR1,T1
017d4e: 5c05             SFTS AC0,T1,AC0
017d50: 180100           AND #1,AC0,AC0
017d53: c004             MOV AC0,@#02h
017d55: a502_3d10        MOV @#01h,T1 || MOV #1,AC0
017d59: 5c05             SFTS AC0,T1,AC0
017d5b: 3609             NOT AC0,AR1
017d5d: d93199000045     AND *(#00045h),AR1,AR1
017d63: 3c10             MOV #1,AC0
017d65: 5c05             SFTS AC0,T1,AC0
017d67: 2a90             OR AR1,AC0
017d69: c031000045       MOV AC0,*(#00045h)
017d6e: 4a2a             B $C$L23
017d70:               $C$L22:
017d70: a902             MOV @#01h,AR1
017d72: df3105000000     MOV uns(*(#00000h)),AC0
017d78: 3495             NEG AR1,T1
017d7a: 5c05             SFTS AC0,T1,AC0
017d7c: 180100           AND #1,AC0,AC0
017d7f: c004             MOV AC0,@#02h
017d81: a502_3d10        MOV @#01h,T1 || MOV #1,AC0
017d85: 5c05             SFTS AC0,T1,AC0
017d87: 3609             NOT AC0,AR1
017d89: d93199000000     AND *(#00000h),AR1,AR1
017d8f: 3c10             MOV #1,AC0
017d91: 5c05             SFTS AC0,T1,AC0
017d93: 2a90             OR AR1,AC0
017d95: c031000000       MOV AC0,*(#00000h)
017d9a:               $C$L23:
017d9a: a406             MOV @#03h,T0
017d9c: 0801ec           CALL _IRQ_globalRestore
017d9f: a404             MOV @#02h,T0
017da1:               $C$L24:
017da1: 4e05             AADD #5,SP
017da3: 4804             RET
017da5:               _IRQ_restore:
017da5: 4efb             AADD #-5,SP
017da7: c502             MOV T1,@#01h
017da9: c400             MOV T0,@#00h
017dab: 76001fa8_2349    MOV #31,AR2 || MOV T0,AR1
017db1: 12a894           CMPU AR2 >= AR1, TC1
017db4: 62e4             BCC $C$L25,TC1
017db6: 3e64             MOV #-6,T0
017db8: 060056           B $C$L28
017dbb:               $C$L25:
017dbb: c904             MOV AR1,@#02h
017dbd: 080199           CALL _IRQ_globalDisable
017dc0: c406             MOV T0,@#03h
017dc2: a900_3dfa        MOV @#00h,AR1 || MOV #15,AR2
017dc6: 12a894           CMPU AR2 >= AR1, TC1
017dc9: 046422           BCC $C$L26,TC1
017dcc: f704fff0         ADD #-16,@#02h
017dd0: a504_3d10        MOV @#02h,T1 || MOV #1,AC0
017dd4: 5c05             SFTS AC0,T1,AC0
017dd6: aa02_3709        MOV @#01h,AR2 || NOT AC0,AR1
017dda: d93199000045     AND *(#00045h),AR1,AR1
017de0: 18010a           AND #1,AR2,AC0
017de3: 5c05             SFTS AC0,T1,AC0
017de5: 2a90             OR AR1,AC0
017de7: c031000045       MOV AC0,*(#00045h)
017dec: 4a1c             B $C$L27
017dee:               $C$L26:
017dee: a504_3d10        MOV @#02h,T1 || MOV #1,AC0
017df2: 5c05             SFTS AC0,T1,AC0
017df4: aa02_3709        MOV @#01h,AR2 || NOT AC0,AR1
017df8: d93199000000     AND *(#00000h),AR1,AR1
017dfe: 18010a           AND #1,AR2,AC0
017e01: 5c05             SFTS AC0,T1,AC0
017e03: 2a90             OR AR1,AC0
017e05: c031000000       MOV AC0,*(#00000h)
017e0a:               $C$L27:
017e0a: a406             MOV @#03h,T0
017e0c: 08017c           CALL _IRQ_globalRestore
017e0f: 3c04             MOV #0,T0
017e11:               $C$L28:
017e11: 4e05             AADD #5,SP
017e13: 4804             RET
017e15:               _IRQ_getArg:
017e15: 4efb             AADD #-5,SP
017e17: eb0485           MOV XAR0,dbl(@#02h)
017e1a: c400             MOV T0,@#00h
017e1c: ed04bf           MOV dbl(@#02h),XAR3
017e1f: 90b0_3d01        MOV XAR3,AC0 || MOV #0,AC1
017e23: 121c04           CMPU AC1 != AC0, TC1
017e26: 6264             BCC $C$L29,TC1
017e28: 3e64             MOV #-6,T0
017e2a: 4a29             B $C$L31
017e2c:               $C$L29:
017e2c: 76001fa8_2349    MOV #31,AR2 || MOV T0,AR1
017e32: 12a894           CMPU AR2 >= AR1, TC1
017e35: 6264             BCC $C$L30,TC1
017e37: 3e64             MOV #-6,T0
017e39: 4a1a             B $C$L31
017e3b:               $C$L30:
017e3b: ed31bf013610     MOV dbl(*(#013610h)),XAR3
017e41: f9000308         MOV @#00h << #3,AC0
017e45: 2209             MOV AC0,AR1
017e47: ed04af           MOV dbl(@#02h),XAR2
017e4a: 1490b0           AADD AR1,AR3
017e4d: 1402b4           AADD #2,AR3
017e50: 806100           MOV dbl(*AR3),dbl(*AR2)
017e53: 3c04             MOV #0,T0
017e55:               $C$L31:
017e55: 4e05             AADD #5,SP
017e57: 4804             RET
017e59:               _IRQ_setArg:
017e59: 4efb             AADD #-5,SP
017e5b: eb0408           MOV AC0,dbl(@#02h)
017e5e: c400             MOV T0,@#00h
017e60: 76001fa8_2349    MOV #31,AR2 || MOV T0,AR1
017e66: 12a894           CMPU AR2 >= AR1, TC1
017e69: 6264             BCC $C$L32,TC1
017e6b: 3e64             MOV #-6,T0
017e6d: 4a17             B $C$L33
017e6f:               $C$L32:
017e6f: ed31bf013610     MOV dbl(*(#013610h)),XAR3
017e75: f9000308         MOV @#00h << #3,AC0
017e79: 2209             MOV AC0,AR1
017e7b: 8e04bd180890     MOV dbl(@#02h),AC0 || AADD AR1,AR3
017e81: eb7508           MOV AC0,dbl(*(AR3-T1))
017e84: 3c04             MOV #0,T0
017e86:               $C$L33:
017e86: 4e05             AADD #5,SP
017e88: 4804             RET
017e8a:               _IRQ_map:
017e8a: 4eff             AADD #-1,SP
017e8c: c400             MOV T0,@#00h
017e8e: 76001fa8_2349    MOV #31,AR2 || MOV T0,AR1
017e94: 12a894           CMPU AR2 >= AR1, TC1
017e97: 6264             BCC $C$L34,TC1
017e99: 3e64             MOV #-6,T0
017e9b: 4a15             B $C$L35
017e9d:               $C$L34:
017e9d: a500             MOV @#00h,T1
017e9f: 2254             MOV T1,T0
017ea1: 5040             SFTL T0,#1
017ea3: 3c10             MOV #1,AC0
017ea5: ec31be013612     AMAR *(#013612h),XAR3
017eab: 5c05             SFTS AC0,T1,AC0
017ead: eb6b08           MOV AC0,dbl(*AR3(AR0))
017eb0: 3c04             MOV #0,T0
017eb2:               $C$L35:
017eb2: 4e01             AADD #1,SP
017eb4: 4804             RET
017eb6:               _IRQ_setVecs:
017eb6: 4efb             AADD #-5,SP
017eb8: eb0008           MOV AC0,dbl(@#00h)
017ebb: 7affff0a         MOV #-1 << #16,AC0
017ebf: ed0018           MOV dbl(@#00h),AC1
017ec2: 7eff0000         OR #65280,AC0,AC0
017ec6: 2810             AND AC1,AC0
017ec8: 100738           SFTL AC0,#-8,AC0
017ecb: c006             MOV AC0,@#03h
017ecd: 080089           CALL _IRQ_globalDisable
017ed0: c404             MOV T0,@#02h
017ed2: a906             MOV @#03h,AR1
017ed4: c931000049       MOV AR1,*(#00049h)
017ed9: c93100004a       MOV AR1,*(#0004ah)
017ede: 0800aa           CALL _IRQ_globalRestore
017ee1: 3c04             MOV #0,T0
017ee3: 4e05             AADD #5,SP
017ee5: 4804             RET
017ee7:               _IRQ_test:
017ee7: 4ef9             AADD #-7,SP
017ee9: eb0485           MOV XAR0,dbl(@#02h)
017eec: c400             MOV T0,@#00h
017eee: ed04bf           MOV dbl(@#02h),XAR3
017ef1: 90b0_3d01        MOV XAR3,AC0 || MOV #0,AC1
017ef5: 121c04           CMPU AC1 != AC0, TC1
017ef8: 62e4             BCC $C$L36,TC1
017efa: 3e64             MOV #-6,T0
017efc: 060056           B $C$L40
017eff:               $C$L36:
017eff: 76001fa8_2349    MOV #31,AR2 || MOV T0,AR1
017f05: 12a894           CMPU AR2 >= AR1, TC1
017f08: 62e4             BCC $C$L37,TC1
017f0a: 3e64             MOV #-6,T0
017f0c: 060046           B $C$L40
017f0f:               $C$L37:
017f0f: c908             MOV AR1,@#04h
017f11: 080045           CALL _IRQ_globalDisable
017f14: c40a             MOV T0,@#05h
017f16: a900_3dfa        MOV @#00h,AR1 || MOV #15,AR2
017f1a: 12a894           CMPU AR2 >= AR1, TC1
017f1d: 04641a           BCC $C$L38,TC1
017f20: f708fff0         ADD #-16,@#04h
017f24: a908             MOV @#04h,AR1
017f26: ed04bf           MOV dbl(@#02h),XAR3
017f29: df3105000046     MOV uns(*(#00046h)),AC0
017f2f: 3495             NEG AR1,T1
017f31: 5c05             SFTS AC0,T1,AC0
017f33: 180100           AND #1,AC0,AC0
017f36: c061             MOV AC0,*AR3
017f38: 4a14             B $C$L39
017f3a:               $C$L38:
017f3a: a908             MOV @#04h,AR1
017f3c: ed04bf           MOV dbl(@#02h),XAR3
017f3f: df3105000001     MOV uns(*(#00001h)),AC0
017f45: 3495             NEG AR1,T1
017f47: 5c05             SFTS AC0,T1,AC0
017f49: 180100           AND #1,AC0,AC0
017f4c: c061             MOV AC0,*AR3
017f4e:               $C$L39:
017f4e: a40a             MOV @#05h,T0
017f50: 080038           CALL _IRQ_globalRestore
017f53: 3c04             MOV #0,T0
017f55:               $C$L40:
017f55: 4e07             AADD #7,SP
017f57: 4804             RET
017f59:               _IRQ_globalDisable:
017f59: 4eff             AADD #-1,SP
017f5b: a931000003       MOV *(#00003h),AR1
017f60: 7d080009         AND #2048,AR1,AC0
017f64: 100535           SFTS AC0,#-11,AC0
017f67: c000             MOV AC0,@#00h
017f69: 20               NOP
017f6a: 46b3             BSET ST1_INTM
017f6c: 2204             MOV AC0,T0
017f6e: 4e01             AADD #1,SP
017f70: 4804             RET
017f72:               _IRQ_globalEnable:
017f72: 4eff             AADD #-1,SP
017f74: a931000003       MOV *(#00003h),AR1
017f79: 7d080009         AND #2048,AR1,AC0
017f7d: 100535           SFTS AC0,#-11,AC0
017f80: c000             MOV AC0,@#00h
017f82: 20               NOP
017f83: 46b2             BCLR ST1_INTM
017f85: 2204             MOV AC0,T0
017f87: 4e01             AADD #1,SP
017f89: 4804             RET
017f8b:               _IRQ_globalRestore:
017f8b: 4eff             AADD #-1,SP
017f8d: c400             MOV T0,@#00h
017f8f: 2249             MOV T0,AR1
017f91: 6289             BCC $C$L41,AR1 == #0
017f93: 20               NOP
017f94: 46b3             BSET ST1_INTM
017f96: 4a03             B $C$L42
017f98:               $C$L41:
017f98: 20               NOP
017f99: 46b2             BCLR ST1_INTM
017f9b:               $C$L42:
017f9b: 4e01             AADD #1,SP
017f9d: 4804             RET
017f9f:               _free:
017f9f: 50d5             PSHBOTH XAR5
017fa1: 20               NOP
017fa2: 20               NOP
017fa3: 20               NOP
017fa4: ec01de           AMAR *AR0,XAR5
017fa7: 90d0             MOV XAR5,AC0
017fa9: 6d0000ba         BCC #0x018067,AC0 == #0
017fad: ed31080136a8     MOV dbl(*(#0136a8h)),AC0
017fb3: 9200             CALL AC0
017fb5: 1402d6           ASUB #2,AR5
017fb8: 90d3             MOV XAR5,AC3
017fba: ed31bf0136a2     MOV dbl(*(#0136a2h)),XAR3
017fc0: 1a0013           OR #0,AC3,AC1
017fc3: 90b0             MOV XAR3,AC0
017fc5: 1a0020           OR #0,AC0,AC2
017fc8: 122814           CMPU AC2 >= AC1, TC1
017fcb: 046412           BCC #0x017fe0,TC1
017fce: 900b             MOV AC0,XAR3
017fd0: ed75af           MOV dbl(*(AR3-T1)),XAR2
017fd3: 90a0             MOV XAR2,AC0
017fd5: 1a0020           OR #0,AC0,AC2
017fd8: 122414           CMPU AC2 < AC1, TC1
017fdb: 0464f0           BCC #0x017fce,TC1
017fde: 4a06             B #0x017fe6
017fe0: ec31be000000     AMAR *(#00000h),XAR3
017fe6: 903a             MOV AC3,XAR2
017fe8: a941             MOV *AR2,AR1
017fea: 7dfffec9         AND #65534,AR1,AR4
017fee: 7dffff2c         AND #65535,AR4,AC2
017ff2: 2412             ADD AC1,AC2
017ff4: 1a0010           OR #0,AC0,AC1
017ff7: 122014           CMPU AC2 == AC1, TC1
017ffa: eb5508_9e74      XCC !TC1 || MOV AC0,dbl(*(AR2-T1))
017fff: 04741d           BCC #0x01801f,!TC1
018002: 900a             MOV AC0,XAR2
018004: a941             MOV *AR2,AR1
018006: ec0092           BCLR @#00h,AR1
018009: 24c9             ADD AR4,AR1
01800b: ed55cf           MOV dbl(*(AR2-T1)),XAR4
01800e: 903a             MOV AC3,XAR2
018010: 7dfffe09         AND #65534,AR1,AC0
018014: c041             MOV AC0,*AR2
018016: eb55c5           MOV XAR4,dbl(*(AR2-T1))
018019: a941             MOV *AR2,AR1
01801b: 7dfffec9         AND #65534,AR1,AR4
01801f: 90b0             MOV XAR3,AC0
018021: 04002f           BCC #0x018053,AC0 == #0
018024: a961             MOV *AR3,AR1
018026: 7dfffe99         AND #65534,AR1,AR1
01802a: 7dffff19         AND #65535,AR1,AC1
01802e: 2401             ADD AC0,AC1
018030: 1a0003           OR #0,AC3,AC0
018033: 121004           CMPU AC1 == AC0, TC1
018036: 9039_9ef4        XCCPART !TC1 || MOV AC3,XAR1
01803a: eb7595_9e74      XCC !TC1 || MOV XAR1,dbl(*(AR3-T1))
01803f: 047419           BCC #0x01805b,!TC1
018042: 903a             MOV AC3,XAR2
018044: 24c9             ADD AR4,AR1
018046: ec0092           BCLR @#00h,AR1
018049: c961             MOV AR1,*AR3
01804b: ed55af           MOV dbl(*(AR2-T1)),XAR2
01804e: eb75a5           MOV XAR2,dbl(*(AR3-T1))
018051: 4a0c             B #0x01805f
018053: 9039             MOV AC3,XAR1
018055: eb31950136a2     MOV XAR1,dbl(*(#0136a2h))
01805b: 903b             MOV AC3,XAR3
01805d: cc61             MOV AR4,*AR3
01805f: ed31080136aa     MOV dbl(*(#0136aah)),AC0
018065: 9200             CALL AC0
018067: 50d4             POPBOTH XAR5
018069: 4804             RET
01806b:               _minit:
01806b: ed31080136a8     MOV dbl(*(#0136a8h)),AC0
018071: 4eff             AADD #-1,SP
018073: 9200             CALL AC0
018075: ec31be004000     AMAR *(#04000h),XAR3
01807b: 18019b           AND #1,AR3,AR1
01807e: 7a00000a         MOV #0 << #16,AC0
018082: 90b1             MOV XAR3,AC1
018084: 7e600000         OR #24576,AC0,AC0
018088: 5001             SFTL AC0,#-1
01808a: 2690             SUB AR1,AC0
01808c: 7dffff09_230a    AND #65535,AR1,AC0 || MOV AC0,AR2
018092: ca310136a6       MOV AR2,*(#0136a6h)
018097: 2410             ADD AC1,AC0
018099: 900c             MOV AC0,XAR4
01809b: 7dffff09         AND #65535,AR1,AC0
01809f: 2410             ADD AC1,AC0
0180a1: 900b             MOV AC0,XAR3
0180a3: e631000136a7     MOV #0,*(#0136a7h)
0180a9: eb31c50136a2     MOV XAR4,dbl(*(#0136a2h))
0180af: 7dfffe0a         AND #65534,AR2,AC0
0180b3: eb31c50136a4     MOV XAR4,dbl(*(#0136a4h))
0180b9: c061             MOV AC0,*AR3
0180bb: ec31ae7fffff     AMAR *(#07fffffh),XAR2
0180c1: ed31080136aa     MOV dbl(*(#0136aah)),AC0
0180c7: eb75a5           MOV XAR2,dbl(*(AR3-T1))
0180ca: 9200             CALL AC0
0180cc: 4e01             AADD #1,SP
0180ce: 4804             RET
0180d0:               _malloc:
0180d0: 5066             PSH T2
0180d2: 4efe             AADD #-2,SP
0180d4: 04045e           BCC #0x018135,T0 == #0
0180d7: 3c49             MOV #4,AR1
0180d9: 7b000264         ADD #2,T0,T2
0180dd: ed31080136a8     MOV dbl(*(#0136a8h)),AC0
0180e3: 129464_21        CMPU AR1 < T2, TC1 || NOP
0180e7: 3c46_9ef4        XCCPART !TC1 || MOV #4,T2
0180eb: 180196           AND #1,T2,AR1
0180ee: 2496             ADD AR1,T2
0180f0: 9200             CALL AC0
0180f2: a9310136a7       MOV *(#0136a7h),AR1
0180f7: 6189             BCC #0x0180fc,AR1 == #0
0180f9: 08ff6f           CALL _minit
0180fc: ed31bf0136a2     MOV dbl(*(#0136a2h)),XAR3
018102: eb00b5           MOV XAR3,dbl(@#00h)
018105: 20               NOP
018106: 20               NOP
018107: 20               NOP
018108: ec31be000000     AMAR *(#00000h),XAR3
01810e: 4a0c             B #0x01811c
018110: ed00bf           MOV dbl(@#00h),XAR3
018113: ed75af           MOV dbl(*(AR3-T1)),XAR2
018116: eb00a5           MOV XAR2,dbl(@#00h)
018119: 20               NOP
01811a: 20               NOP
01811b: 20               NOP
01811c: ec31ae7fffff     AMAR *(#07fffffh),XAR2
018122: ed0008           MOV dbl(@#00h),AC0
018125: 90a1             MOV XAR2,AC1
018127: 120c14           CMPU AC0 != AC1, TC1
01812a: 046411           BCC #0x01813e,TC1
01812d: ed31080136aa     MOV dbl(*(#0136aah)),AC0
018133: 9200             CALL AC0
018135: ec318e000000     AMAR *(#00000h),XAR0
01813b: 060081           B #0x0181bf
01813e: ed00af           MOV dbl(@#00h),XAR2
018141: a941             MOV *AR2,AR1
018143: 7dfffe99         AND #65534,AR1,AR1
018147: 129464_21        CMPU AR1 < T2, TC1 || NOP
01814b: 0464c2           BCC #0x018110,TC1
01814e: 7b0004a6         ADD #4,T2,AR2
018152: 12a494_21        CMPU AR2 < AR1, TC1 || NOP
018156: 046424           BCC #0x01817d,TC1
018159: 90b0             MOV XAR3,AC0
01815b: 6710             BCC #0x01816b,AC0 != #0
01815d: ed00bf           MOV dbl(@#00h),XAR3
018160: ed75bf           MOV dbl(*(AR3-T1)),XAR3
018163: eb31b50136a2     MOV XAR3,dbl(*(#0136a2h))
018169: 4a09             B #0x018174
01816b: ed00af           MOV dbl(@#00h),XAR2
01816e: ed55af           MOV dbl(*(AR2-T1)),XAR2
018171: eb75a5           MOV XAR2,dbl(*(AR3-T1))
018174: ed00bf           MOV dbl(@#00h),XAR3
018177: f5610001         OR #1,*AR3
01817b: 4a34             B #0x0181b1
01817d: ed00af           MOV dbl(@#00h),XAR2
018180: ed00cf           MOV dbl(@#00h),XAR4
018183: 7dffff06         AND #65535,T2,AC0
018187: 90a1             MOV XAR2,AC1
018189: 2410             ADD AC1,AC0
01818b: 900a             MOV AC0,XAR2
01818d: ed95cf           MOV dbl(*(AR4-T1)),XAR4
018190: 90b0             MOV XAR3,AC0
018192: eb55c5           MOV XAR4,dbl(*(AR2-T1))
018195: eb75a5_9e10      XCC AC0 != #0 || MOV XAR2,dbl(*(AR3-T1))
01819a: ed00bf           MOV dbl(@#00h),XAR3
01819d: 2669             SUB T2,AR1
01819f: ec0092           BCLR @#00h,AR1
0181a2: c941_1b0196      MOV AR1,*AR2 || OR #1,T2,AR1
0181a7: 9600             XCC AC0 == #0
0181a9: eb31a50136a2     MOV XAR2,dbl(*(#0136a2h))
0181af: c961             MOV AR1,*AR3
0181b1: ed31080136aa     MOV dbl(*(#0136aah)),AC0
0181b7: 9200             CALL AC0
0181b9: ed008f           MOV dbl(@#00h),XAR0
0181bc: 140284           AADD #2,AR0
0181bf: 4e02             AADD #2,SP
0181c1: 5062             POP T2
0181c3: 4804             RET
0181c5:               _realloc:
0181c5: 5066             PSH T2
0181c7: 50d5             PSHBOTH XAR5
0181c9: 20               NOP
0181ca: 20               NOP
0181cb: 50f5             PSHBOTH XAR7
0181cd: ec01de_2346      AMAR *AR0,XAR5 || MOV T0,T2
0181d2: 4efc             AADD #-4,SP
0181d4: 6616             BCC #0x0181e2,T2 != #0
0181d6: 08fdc6           CALL _free
0181d9: ec318e000000     AMAR *(#00000h),XAR0
0181df: 06018a           B #0x01836c
0181e2: 90d0             MOV XAR5,AC0
0181e4: 6310             BCC #0x0181ec,AC0 != #0
0181e6: 08fee7           CALL _malloc
0181e9: 060180           B #0x01836c
0181ec: 4026             ADD #2,T2
0181ee: 3c49             MOV #4,AR1
0181f0: eca1be_139464    AMAR *AR5,XAR3 || CMPU AR1 < T2, TC1
0181f6: 3c46_9ef4        XCCPART !TC1 || MOV #4,T2
0181fa: 1402b6_190196    ASUB #2,AR3 || AND #1,T2,AR1
018200: a961_2596        MOV *AR3,AR1 || ADD AR1,T2
018204: 90b1             MOV XAR3,AC1
018206: 7dfffe09         AND #65534,AR1,AC0
01820a: eb04b5_2510      MOV XAR3,dbl(@#02h) || ADD AC1,AC0
01820f: eb0008           MOV AC0,dbl(@#00h)
018212: ed31080136a8     MOV dbl(*(#0136a8h)),AC0
018218: 9200             CALL AC0
01821a: ed04bf           MOV dbl(@#02h),XAR3
01821d: a961             MOV *AR3,AR1
01821f: 7dfffe99         AND #65534,AR1,AR1
018223: 129864_21        CMPU AR1 >= T2, TC1 || NOP
018227: 046434           BCC #0x01825e,TC1
01822a: ed31bf0136a4     MOV dbl(*(#0136a4h)),XAR3
018230: df31150136a6     MOV uns(*(#0136a6h)),AC1
018236: 90b0             MOV XAR3,AC0
018238: ed0008_2501      MOV dbl(@#00h),AC0 || ADD AC0,AC1
01823d: 120814           CMPU AC0 >= AC1, TC1
018240: 6d6400f7         BCC #0x01833b,TC1
018244: ed00bf           MOV dbl(@#00h),XAR3
018247: aa61             MOV *AR3,AR2
018249: ec00a8           BTST @#00h,AR2,TC1
01824c: 6d6400eb         BCC #0x01833b,TC1
018250: 7dfffeaa         AND #65534,AR2,AR2
018254: 249a             ADD AR1,AR2
018256: 12a464_21        CMPU AR2 < T2, TC1 || NOP
01825a: 6d6400dd         BCC #0x01833b,TC1
01825e: ed31bf0136a2     MOV dbl(*(#0136a2h)),XAR3
018264: 90b0             MOV XAR3,AC0
018266: ed0418_1b0020    MOV dbl(@#02h),AC1 || OR #0,AC0,AC2
01826c: 122814           CMPU AC2 >= AC1, TC1
01826f: 046415           BCC #0x018287,TC1
018272: 900b             MOV AC0,XAR3
018274: ed75af           MOV dbl(*(AR3-T1)),XAR2
018277: 90a0             MOV XAR2,AC0
018279: ed0418_1b0020    MOV dbl(@#02h),AC1 || OR #0,AC0,AC2
01827f: 122414           CMPU AC2 < AC1, TC1
018282: 0464ed           BCC #0x018272,TC1
018285: 4a06             B #0x01828d
018287: ec31be000000     AMAR *(#00000h),XAR3
01828d: ed04af           MOV dbl(@#02h),XAR2
018290: a941             MOV *AR2,AR1
018292: 7dfffe99         AND #65534,AR1,AR1
018296: 7dffff29         AND #65535,AR1,AC2
01829a: 2412             ADD AC1,AC2
01829c: 1a0010           OR #0,AC0,AC1
01829f: 121024           CMPU AC1 == AC2, TC1
0182a2: 046423           BCC #0x0182c8,TC1
0182a5: 2669_3d4a        SUB T2,AR1 || MOV #4,AR2
0182a9: 1294a4_21        CMPU AR1 < AR2, TC1 || NOP
0182ad: 04647e           BCC #0x01832e,TC1
0182b0: ed04af           MOV dbl(@#02h),XAR2
0182b3: 7dffff16         AND #65535,T2,AC1
0182b7: 90a2             MOV XAR2,AC2
0182b9: 2421             ADD AC2,AC1
0182bb: 901a             MOV AC1,XAR2
0182bd: 7dfffe19         AND #65534,AR1,AC1
0182c1: eb5508           MOV AC0,dbl(*(AR2-T1))
0182c4: c141             MOV AC1,*AR2
0182c6: 4a32             B #0x0182fa
0182c8: 900a             MOV AC0,XAR2
0182ca: aa41             MOV *AR2,AR2
0182cc: ec00a2           BCLR @#00h,AR2
0182cf: 249a             ADD AR1,AR2
0182d1: 22a9             MOV AR2,AR1
0182d3: 7b0004a6         ADD #4,T2,AR2
0182d7: 12a894_21        CMPU AR2 >= AR1, TC1 || NOP
0182db: 04642f           BCC #0x01830d,TC1
0182de: 900a             MOV AC0,XAR2
0182e0: ed55cf           MOV dbl(*(AR2-T1)),XAR4
0182e3: ed04af           MOV dbl(@#02h),XAR2
0182e6: 7dffff06         AND #65535,T2,AC0
0182ea: 90a1             MOV XAR2,AC1
0182ec: 2410             ADD AC1,AC0
0182ee: 900a             MOV AC0,XAR2
0182f0: 2669             SUB T2,AR1
0182f2: ec0092           BCLR @#00h,AR1
0182f5: c941             MOV AR1,*AR2
0182f7: eb55c5           MOV XAR4,dbl(*(AR2-T1))
0182fa: 90b0             MOV XAR3,AC0
0182fc: 9600             XCC AC0 == #0
0182fe: eb31a50136a2     MOV XAR2,dbl(*(#0136a2h))
018304: eb75a5_9e10      XCC AC0 != #0 || MOV XAR2,dbl(*(AR3-T1))
018309: 4a19_2369        B #0x018326 || MOV T2,AR1
01830d: 90b1             MOV XAR3,AC1
01830f: 6691             BCC #0x01831e,AC1 != #0
018311: 900b             MOV AC0,XAR3
018313: ed75bf           MOV dbl(*(AR3-T1)),XAR3
018316: eb31b50136a2     MOV XAR3,dbl(*(#0136a2h))
01831c: 4a08             B #0x018326
01831e: 900a             MOV AC0,XAR2
018320: ed55af           MOV dbl(*(AR2-T1)),XAR2
018323: eb75a5           MOV XAR2,dbl(*(AR3-T1))
018326: ed04bf           MOV dbl(@#02h),XAR3
018329: 1a0199           OR #1,AR1,AR1
01832c: c961             MOV AR1,*AR3
01832e: ed31080136aa     MOV dbl(*(#0136aah)),AC0
018334: 9200             CALL AC0
018336: eca18e           AMAR *AR5,XAR0
018339: 4a31             B #0x01836c
01833b: ed31080136aa     MOV dbl(*(#0136aah)),AC0
018341: 9200             CALL AC0
018343: 2264             MOV T2,T0
018345: 08fd88           CALL _malloc
018348: ec01fe           AMAR *AR0,XAR7
01834b: 90f0             MOV XAR7,AC0
01834d: 040019           BCC #0x018369,AC0 == #0
018350: ed04bf           MOV dbl(@#02h),XAR3
018353: a961             MOV *AR3,AR1
018355: ec0092           BCLR @#00h,AR1
018358: 7c000249         SUB #2,AR1,T0
01835c: eca19e           AMAR *AR5,XAR1
01835f: 6c01a019         CALL _memcpy
018363: eca18e           AMAR *AR5,XAR0
018366: 08fc36           CALL _free
018369: ece18e           AMAR *AR7,XAR0
01836c: 4e04             AADD #4,SP
01836e: 50f4             POPBOTH XAR7
018370: 50d4             POPBOTH XAR5
018372: 5062             POP T2
018374: 4804             RET
018376:               _max_free:
018376: 5066             PSH T2
018378: ed31080136a8     MOV dbl(*(#0136a8h)),AC0
01837e: 9200             CALL AC0
018380: a9310136a7       MOV *(#0136a7h),AR1
018385: ed31bf0136a2     MOV dbl(*(#0136a2h)),XAR3
01838b: 3c06             MOV #0,T2
01838d: 90b0             MOV XAR3,AC0
01838f: 041930           BCC #0x0183c2,AR1 != #0
018392: ec31be7fffff     AMAR *(#07fffffh),XAR3
018398: 1a0020           OR #0,AC0,AC2
01839b: 90b1             MOV XAR3,AC1
01839d: 122014           CMPU AC2 == AC1, TC1
0183a0: 04641f           BCC #0x0183c2,TC1
0183a3: 900b             MOV AC0,XAR3
0183a5: a961             MOV *AR3,AR1
0183a7: ec0092           BCLR @#00h,AR1
0183aa: 4229             SUB #2,AR1
0183ac: 126894_21        CMPU T2 >= AR1, TC1 || NOP
0183b0: ed75bf           MOV dbl(*(AR3-T1)),XAR3
0183b3: 2296_9ef4        XCCPART !TC1 || MOV AR1,T2
0183b7: 90b0             MOV XAR3,AC0
0183b9: 1a0020           OR #0,AC0,AC2
0183bc: 122c14           CMPU AC2 != AC1, TC1
0183bf: 0464e1           BCC #0x0183a3,TC1
0183c2: ed31080136aa     MOV dbl(*(#0136aah)),AC0
0183c8: 9200             CALL AC0
0183ca: 2264             MOV T2,T0
0183cc: 5062             POP T2
0183ce: 4804             RET
0183d0:               _free_memory:
0183d0: 5066             PSH T2
0183d2: ed31080136a8     MOV dbl(*(#0136a8h)),AC0
0183d8: 9200             CALL AC0
0183da: a9310136a7       MOV *(#0136a7h),AR1
0183df: ed31bf0136a2     MOV dbl(*(#0136a2h)),XAR3
0183e5: 3c06             MOV #0,T2
0183e7: 90b0             MOV XAR3,AC0
0183e9: 04192c           BCC #0x018418,AR1 != #0
0183ec: ec31be7fffff     AMAR *(#07fffffh),XAR3
0183f2: 1a0020           OR #0,AC0,AC2
0183f5: 90b1             MOV XAR3,AC1
0183f7: 122014           CMPU AC2 == AC1, TC1
0183fa: 04641b           BCC #0x018418,TC1
0183fd: 900b             MOV AC0,XAR3
0183ff: a961             MOV *AR3,AR1
018401: ed75bf           MOV dbl(*(AR3-T1)),XAR3
018404: 90b0             MOV XAR3,AC0
018406: ec0092_1b0020    BCLR @#00h,AR1 || OR #0,AC0,AC2
01840c: 122c14_2569      CMPU AC2 != AC1, TC1 || ADD T2,AR1
018411: 7c000269         SUB #2,AR1,T2
018415: 0464e5           BCC #0x0183fd,TC1
018418: ed31080136aa     MOV dbl(*(#0136aah)),AC0
01841e: 9200             CALL AC0
018420: 2264             MOV T2,T0
018422: 5062             POP T2
018424: 4804             RET
018426:               _chkheap:
018426: ec318e000000     AMAR *(#00000h),XAR0
01842c: 4804             RET
01842e:               _calloc:
01842e: 5250             MOV T1,HI(AC0)
018430: 5800             MPY T0,AC0,AC0
018432: 2206_5166        MOV AC0,T2 || PSH T2
018436: 2264             MOV T2,T0
018438: 08fc95           CALL _malloc
01843b: 9080             MOV XAR0,AC0
01843d: 040010           BCC #0x018450,AC0 == #0
018440: ec01be           AMAR *AR0,XAR3
018443: 6586             BCC #0x018450,T2 == #0
018445: 7c000196         SUB #1,T2,AR1
018449: 529c             MOV AR1,CSR
01844b: 4800             RPT CSR
01844d: e66300              MOV #0,*AR3+
018450: 5062             POP T2
018452: 4804             RET
018454:               __divd:
018454: 3876             PSH T3,T2
018456: 4ef1             AADD #-15,SP
018458: eb0008           MOV AC0,dbl(@#00h)
01845b: a000             MOV @#00h,AC0
01845d: 76800090         BFXTR #32768,AC0,AR1
018461: ed0008           MOV dbl(@#00h),AC0
018464: 100729           SFTL AC0,#-23,AC0
018467: 18ffa0           AND #255,AC0,AR2
01846a: 7c007faa         SUB #127,AR2,AR2
01846e: 22a0             MOV AR2,AC0
018470: eb0408           MOV AC0,dbl(@#02h)
018473: ed0008           MOV dbl(@#00h),AC0
018476: eb0018_110708    MOV AC1,dbl(@#00h) || SFTL AC0,#8,AC0
01847c: ec3e00           BSET @#1fh,AC0
01847f: 7affff1a         MOV #-1 << #16,AC1
018483: eb0808           MOV AC0,dbl(@#04h)
018486: a000             MOV @#00h,AC0
018488: 76800060         BFXTR #32768,AC0,T2
01848c: ed0008           MOV dbl(@#00h),AC0
01848f: 100729           SFTL AC0,#-23,AC0
018492: 18ffa0           AND #255,AC0,AR2
018495: 7c007faa         SUB #127,AR2,AR2
018499: 7eff8111         OR #65409,AC1,AC1
01849d: 22a0             MOV AR2,AC0
01849f: eb0c08           MOV AC0,dbl(@#06h)
0184a2: ed0008           MOV dbl(@#00h),AC0
0184a5: 100708           SFTL AC0,#8,AC0
0184a8: ec3e00           BSET @#1fh,AC0
0184ab: eb1008           MOV AC0,dbl(@#08h)
0184ae: ed0408           MOV dbl(@#02h),AC0
0184b1: 120014           CMPU AC0 == AC1, TC1
0184b4: 04642b           BCC #0x0184e2,TC1
0184b7: 76008018         MOV #128,AC1
0184bb: ed0408           MOV dbl(@#02h),AC0
0184be: 120014           CMPU AC0 == AC1, TC1
0184c1: 04641e           BCC #0x0184e2,TC1
0184c4: 7affff1a         MOV #-1 << #16,AC1
0184c8: ed0c08           MOV dbl(@#06h),AC0
0184cb: 7eff8111         OR #65409,AC1,AC1
0184cf: 120014           CMPU AC0 == AC1, TC1
0184d2: 6764             BCC #0x0184e2,TC1
0184d4: 76008018         MOV #128,AC1
0184d8: ed0c08           MOV dbl(@#06h),AC0
0184db: 120c14           CMPU AC0 != AC1, TC1
0184de: 6d640140         BCC #0x018622,TC1
0184e2: ed0408           MOV dbl(@#02h),AC0
0184e5: 76008018_2362    MOV #128,AC1 || MOV T2,AC2
0184eb: 120c14           CMPU AC0 != AC1, TC1
0184ee: 2c92             XOR AR1,AC2
0184f0: 6764             BCC #0x018500,TC1
0184f2: 7a80001a         MOV #-32768 << #16,AC1
0184f6: ed0808           MOV dbl(@#04h),AC0
0184f9: 120c14           CMPU AC0 != AC1, TC1
0184fc: 6d640088         BCC #0x018588,TC1
018500: 76008018         MOV #128,AC1
018504: ed0c08           MOV dbl(@#06h),AC0
018507: 120c14           CMPU AC0 != AC1, TC1
01850a: 66e4             BCC #0x018519,TC1
01850c: 7a80001a         MOV #-32768 << #16,AC1
018510: ed1008           MOV dbl(@#08h),AC0
018513: 120c14           CMPU AC0 != AC1, TC1
018516: 04646f           BCC #0x018588,TC1
018519: 76008018         MOV #128,AC1
01851d: ed0408           MOV dbl(@#02h),AC0
018520: 120c14           CMPU AC0 != AC1, TC1
018523: 046426           BCC #0x01854c,TC1
018526: 7a80001a         MOV #-32768 << #16,AC1
01852a: ed0808           MOV dbl(@#04h),AC0
01852d: 120c14           CMPU AC0 != AC1, TC1
018530: 046419           BCC #0x01854c,TC1
018533: 76008018         MOV #128,AC1
018537: ed0c08           MOV dbl(@#06h),AC0
01853a: 120c14           CMPU AC0 != AC1, TC1
01853d: 66e4             BCC #0x01854c,TC1
01853f: 7a80001a         MOV #-32768 << #16,AC1
018543: ed1008           MOV dbl(@#08h),AC0
018546: 120014           CMPU AC0 == AC1, TC1
018549: 04643c           BCC #0x018588,TC1
01854c: 7affff1a         MOV #-1 << #16,AC1
018550: ed0408           MOV dbl(@#02h),AC0
018553: 7eff8111         OR #65409,AC1,AC1
018557: 120c14           CMPU AC0 != AC1, TC1
01855a: 046444           BCC #0x0185a1,TC1
01855d: 7a80001a         MOV #-32768 << #16,AC1
018561: ed0808           MOV dbl(@#04h),AC0
018564: 120c14           CMPU AC0 != AC1, TC1
018567: 046437           BCC #0x0185a1,TC1
01856a: 7affff1a         MOV #-1 << #16,AC1
01856e: ed0c08           MOV dbl(@#06h),AC0
018571: 7eff8111         OR #65409,AC1,AC1
018575: 120c14           CMPU AC0 != AC1, TC1
018578: 046426           BCC #0x0185a1,TC1
01857b: 7a80001a         MOV #-32768 << #16,AC1
01857f: ed1008           MOV dbl(@#08h),AC0
018582: 120c14           CMPU AC0 != AC1, TC1
018585: 046419           BCC #0x0185a1,TC1
018588: f4007fff         AND #32767,@#00h
01858c: a000             MOV @#00h,AC0
01858e: 10210f           OR AC2 << #15, AC0
018591: c000             MOV AC0,@#00h
018593: ed0018           MOV dbl(@#00h),AC1
018596: 7a7fff0a         MOV #32767 << #16,AC0
01859a: 7effff00         OR #65535,AC0,AC0
01859e: 060271           B #0x018812
0185a1: 76008018         MOV #128,AC1
0185a5: ed0408           MOV dbl(@#02h),AC0
0185a8: 120c14           CMPU AC0 != AC1, TC1
0185ab: 6764             BCC #0x0185bb,TC1
0185ad: 7a80001a         MOV #-32768 << #16,AC1
0185b1: ed0808           MOV dbl(@#04h),AC0
0185b4: 120014           CMPU AC0 == AC1, TC1
0185b7: 6d6400c2         BCC #0x01867d,TC1
0185bb: 7affff1a         MOV #-1 << #16,AC1
0185bf: ed0c08           MOV dbl(@#06h),AC0
0185c2: 7eff8111         OR #65409,AC1,AC1
0185c6: 120c14           CMPU AC0 != AC1, TC1
0185c9: 6764             BCC #0x0185d9,TC1
0185cb: 7a80001a         MOV #-32768 << #16,AC1
0185cf: ed1008           MOV dbl(@#08h),AC0
0185d2: 120c14           CMPU AC0 != AC1, TC1
0185d5: 6d7400a4         BCC #0x01867d,!TC1
0185d9: 7affff1a         MOV #-1 << #16,AC1
0185dd: ed0408           MOV dbl(@#02h),AC0
0185e0: 7eff8111         OR #65409,AC1,AC1
0185e4: 120c14           CMPU AC0 != AC1, TC1
0185e7: 66e4             BCC #0x0185f6,TC1
0185e9: 7a80001a         MOV #-32768 << #16,AC1
0185ed: ed0808           MOV dbl(@#04h),AC0
0185f0: 120014           CMPU AC0 == AC1, TC1
0185f3: 04641a           BCC #0x018610,TC1
0185f6: 76008018         MOV #128,AC1
0185fa: ed0c08           MOV dbl(@#06h),AC0
0185fd: 120c14           CMPU AC0 != AC1, TC1
018600: 04641f           BCC #0x018622,TC1
018603: 7a80001a         MOV #-32768 << #16,AC1
018607: ed1008           MOV dbl(@#08h),AC0
01860a: 120c14           CMPU AC0 != AC1, TC1
01860d: 046412           BCC #0x018622,TC1
018610: f4007fff         AND #32767,@#00h
018614: a000             MOV @#00h,AC0
018616: 10210f           OR AC2 << #15, AC0
018619: c000             MOV AC0,@#00h
01861b: 7a80000a         MOV #-32768 << #16,AC0
01861f: 06007a           B #0x01869c
018622: 7affff1a         MOV #-1 << #16,AC1
018626: ed0408           MOV dbl(@#02h),AC0
018629: 7eff8111         OR #65409,AC1,AC1
01862d: 120c14           CMPU AC0 != AC1, TC1
018630: 2c96             XOR AR1,T2
018632: 67e4             BCC #0x018643,TC1
018634: f4007fff         AND #32767,@#00h
018638: a100_2360        MOV @#00h,AC1 || MOV T2,AC0
01863c: 10410f           OR AC0 << #15, AC1
01863f: c100             MOV AC1,@#00h
018641: 4a58             B #0x01861b
018643: ed0408           MOV dbl(@#02h),AC0
018646: ed0c02           SUB dbl(@#06h),AC0,AC0
018649: 760080a8_2309    MOV #128,AR2 || MOV AC0,AR1
01864f: 1298a0_21        CMP AR1 >= AR2, TC1 || NOP
018653: eb1808           MOV AC0,dbl(@#0ch)
018656: 65e4             BCC #0x018663,TC1
018658: 76ff82a8         MOV #-126,AR2
01865c: 12a490_21        CMP AR2 < AR1, TC1 || NOP
018660: 04644d           BCC #0x0186b0,TC1
018663: ed1008           MOV dbl(@#08h),AC0
018666: ed0818           MOV dbl(@#04h),AC1
018669: 760080a8         MOV #128,AR2
01866d: 121804           CMPU AC1 >= AC0, TC1
018670: 4219_9ef4        XCCPART !TC1 || SUB #1,AR1
018674: 1294a0_21        CMP AR1 < AR2, TC1 || NOP
018678: 2262             MOV T2,AC2
01867a: 046427           BCC #0x0186a4,TC1
01867d: f4007fff         AND #32767,@#00h
018681: a000             MOV @#00h,AC0
018683: 10210f           OR AC2 << #15, AC0
018686: c000             MOV AC0,@#00h
018688: ed0018           MOV dbl(@#00h),AC1
01868b: 7a7fff0a         MOV #32767 << #16,AC0
01868f: 7effff00         OR #65535,AC0,AC0
018693: 2a10             OR AC1,AC0
018695: eb0008           MOV AC0,dbl(@#00h)
018698: 7aff800a         MOV #-128 << #16,AC0
01869c: ed0018           MOV dbl(@#00h),AC1
01869f: 060170_2910      B #0x018814 || AND AC1,AC0
0186a4: 76ff82a8         MOV #-126,AR2
0186a8: 1298a0_21        CMP AR1 >= AR2, TC1 || NOP
0186ac: 6d74ff60         BCC #0x018610,!TC1
0186b0: 7a80001a         MOV #-32768 << #16,AC1
0186b4: 7a00010a         MOV #1 << #16,AC0
0186b8: ed1050           ADD dbl(@#08h),AC1,AC1
0186bb: 7ec02600         OR #49190,AC0,AC0
0186bf: 105724           SFTL AC1,#-28,AC1
0186c2: 2410             ADD AC1,AC0
0186c4: 900b             MOV AC0,XAR3
0186c6: df6105           MOV uns(*AR3),AC0
0186c9: 100517           SFTS AC0,#23,AC0
0186cc: eb1408           MOV AC0,dbl(@#0ah)
0186cf: ed1408           MOV dbl(@#0ah),AC0
0186d2: 6390             BCC #0x0186db,AC0 != #0
0186d4: 7a80000a         MOV #-32768 << #16,AC0
0186d8: eb1408           MOV AC0,dbl(@#0ah)
0186db: 3c57             MOV #5,T3
0186dd: ed1008           MOV dbl(@#08h),AC0
0186e0: ed1418           MOV dbl(@#0ah),AC1
0186e3: 6c019bff         CALL __frcmpyd_div
0186e7: 1a0010           OR #0,AC0,AC1
0186ea: 101701           SFTL AC1,#1,AC0
0186ed: 3600             NOT AC0,AC0
0186ef: 7b000110         ADD #1,AC0,AC1
0186f3: ed1408           MOV dbl(@#0ah),AC0
0186f6: 6c019bff         CALL __frcmpyd_div
0186fa: eb1408           MOV AC0,dbl(@#0ah)
0186fd: ed1408           MOV dbl(@#0ah),AC0
018700: 5000             SFTL AC0,#1
018702: 4217             SUB #1,T3
018704: eb1408           MOV AC0,dbl(@#0ah)
018707: 0417d3           BCC #0x0186dd,T3 != #0
01870a: ed0808           MOV dbl(@#04h),AC0
01870d: ed1418           MOV dbl(@#0ah),AC1
018710: 6c019bff         CALL __frcmpyd_div
018714: eb1408           MOV AC0,dbl(@#0ah)
018717: ed1808           MOV dbl(@#0ch),AC0
01871a: eb1808           MOV AC0,dbl(@#0ch)
01871d: ed1408           MOV dbl(@#0ah),AC0
018720: 7a80001a_5100    MOV #-32768 << #16,AC1 || SFTL AC0,#1
018726: eb1408           MOV AC0,dbl(@#0ah)
018729: ed1408           MOV dbl(@#0ah),AC0
01872c: 120814           CMPU AC0 >= AC1, TC1
01872f: 046410           BCC #0x018742,TC1
018732: ed1408           MOV dbl(@#0ah),AC0
018735: 5000             SFTL AC0,#1
018737: eb1408           MOV AC0,dbl(@#0ah)
01873a: ed1808           MOV dbl(@#0ch),AC0
01873d: 4210             SUB #1,AC0
01873f: eb1808           MOV AC0,dbl(@#0ch)
018742: ed1408           MOV dbl(@#0ah),AC0
018745: 7b004000         ADD #64,AC0,AC0
018749: eb1408           MOV AC0,dbl(@#0ah)
01874c: ed1408           MOV dbl(@#0ah),AC0
01874f: 120814           CMPU AC0 >= AC1, TC1
018752: 67e4             BCC #0x018763,TC1
018754: ed1808           MOV dbl(@#0ch),AC0
018757: 4010             ADD #1,AC0
018759: eb1808           MOV AC0,dbl(@#0ch)
01875c: 7a80000a         MOV #-32768 << #16,AC0
018760: eb1408           MOV AC0,dbl(@#0ah)
018763: 7affff1a         MOV #-1 << #16,AC1
018767: ed1408           MOV dbl(@#0ah),AC0
01876a: 7eff8011         OR #65408,AC1,AC1
01876e: 2810             AND AC1,AC0
018770: eb1408           MOV AC0,dbl(@#0ah)
018773: ed1408           MOV dbl(@#0ah),AC0
018776: 188000           AND #128,AC0,AC0
018779: 04005f           BCC #0x0187db,AC0 == #0
01877c: ed1008           MOV dbl(@#08h),AC0
01877f: ed1418           MOV dbl(@#0ah),AC1
018782: 6c019bff         CALL __frcmpyd_div
018786: 7a80002a         MOV #-32768 << #16,AC2
01878a: ed1818           MOV dbl(@#0ch),AC1
01878d: ed0428_130424    MOV dbl(@#02h),AC2 || CMPU AC0 < AC2, TC1
018793: ed0c50           ADD dbl(@#06h),AC1,AC1
018796: 4011_9ef4        XCCPART !TC1 || ADD #1,AC1
01879a: 5000_9ee4        XCCPART TC1 || SFTL AC0,#1
01879e: 121420           CMP AC1 < AC2, TC1
0187a1: 046412           BCC #0x0187b6,TC1
0187a4: ed0428           MOV dbl(@#02h),AC2
0187a7: 122c14           CMPU AC2 != AC1, TC1
0187aa: 04642e           BCC #0x0187db,TC1
0187ad: ed0818           MOV dbl(@#04h),AC1
0187b0: 120814           CMPU AC0 >= AC1, TC1
0187b3: 046425           BCC #0x0187db,TC1
0187b6: ed1408           MOV dbl(@#0ah),AC0
0187b9: 7a80001a         MOV #-32768 << #16,AC1
0187bd: 7b008000         ADD #128,AC0,AC0
0187c1: eb1408           MOV AC0,dbl(@#0ah)
0187c4: ed1408           MOV dbl(@#0ah),AC0
0187c7: 120814           CMPU AC0 >= AC1, TC1
0187ca: 67e4             BCC #0x0187db,TC1
0187cc: ed1808           MOV dbl(@#0ch),AC0
0187cf: 4010             ADD #1,AC0
0187d1: eb1808           MOV AC0,dbl(@#0ch)
0187d4: 7a80000a         MOV #-32768 << #16,AC0
0187d8: eb1408           MOV AC0,dbl(@#0ah)
0187db: f4007fff         AND #32767,@#00h
0187df: a100             MOV @#00h,AC1
0187e1: 7a80002a_2360    MOV #-32768 << #16,AC2 || MOV T2,AC0
0187e7: 10410f           OR AC0 << #15, AC1
0187ea: ec31be7fffff     AMAR *(#07fffffh),XAR3
0187f0: c100             MOV AC1,@#00h
0187f2: ed0008           MOV dbl(@#00h),AC0
0187f5: 7a3f801a         MOV #16256 << #16,AC1
0187f9: ed1808_2902      MOV dbl(@#0ch),AC0 || AND AC0,AC2
0187fe: 100717           SFTL AC0,#23,AC0
018801: 2401             ADD AC0,AC1
018803: ec3e12           BCLR @#1fh,AC1
018806: ed1408_2b21      MOV dbl(@#0ah),AC0 || OR AC2,AC1
01880b: 108738           SFTL AC0,#-8,AC2
01880e: 90b0             MOV XAR3,AC0
018810: 2820             AND AC2,AC0
018812: 2a10             OR AC1,AC0
018814: eb0008           MOV AC0,dbl(@#00h)
018817: ed0008           MOV dbl(@#00h),AC0
01881a: 4e0f             AADD #15,SP
01881c: 3a76             POP T3,T2
01881e: 4804             RET
018820:               _fuzzer_isr:
018820:               .text:retain:
018820: f406f91f_98      AND #63775,mmap(@ST1_55)
018825: f5064100_98      OR #16640,mmap(@ST1_55)
01882a: f496fa00_98      AND #64000,mmap(@ST2_55)
01882f: f5968000_98      OR #32768,mmap(@ST2_55)
018834: b508_98          PSH mmap(@ST3_55)
018837: 5007             PSH dbl(AC0)
018839: b514_98          PSH mmap(@AC0G)
01883c: 5017             PSH dbl(AC1)
01883e: b51a_98          PSH mmap(@AC1G)
018841: 5027             PSH dbl(AC2)
018843: b54c_98          PSH mmap(@AC2G)
018846: 5037             PSH dbl(AC3)
018848: b554_98          PSH mmap(@AC3G)
01884b: 5046             PSH T0
01884d: 5056             PSH T1
01884f: 5085             PSHBOTH XAR0
018851: 5095             PSHBOTH XAR1
018853: 50a5             PSHBOTH XAR2
018855: 50b5             PSHBOTH XAR3
018857: 50c5             PSHBOTH XAR4
018859: b562_98          PSH mmap(@BKC)
01885c: b532_98          PSH mmap(@BK03)
01885f: b560_98          PSH mmap(@BK47)
018862: b534_98          PSH mmap(@BRC0)
018865: b57a_98          PSH mmap(@RSA0L)
018868: b578_98          PSH mmap(@RSA0H)
01886b: b57e_98          PSH mmap(@REA0L)
01886e: b57c_98          PSH mmap(@REA0H)
018871: b574_98          PSH mmap(@BRS1)
018874: b572_98          PSH mmap(@BRC1)
018877: b582_98          PSH mmap(@RSA1L)
01887a: b580_98          PSH mmap(@RSA1H)
01887d: b586_98          PSH mmap(@REA1L)
018880: b584_98          PSH mmap(@REA1H)
018883: b576_98          PSH mmap(@CSR)
018886: b588_98          PSH mmap(@RPTC)
018889: 5075             PSHBOTH XCDP
01888b: b51e_98          PSH mmap(@TRN0)
01888e: b570_98          PSH mmap(@TRN1)
018891: b564_98          PSH mmap(@BSA01)
018894: b566_98          PSH mmap(@BSA23)
018897: b568_98          PSH mmap(@BSA45)
01889a: b56a_98          PSH mmap(@BSA67)
01889d: b56c_98          PSH mmap(@BSAC)
0188a0: ec009e           AMAR @#00h,XAR1
0188a3: f49afffe_98      AND #65534,mmap(@SP)
0188a8: 5096             PSH AR1
0188aa: 4eff             AADD #-1,SP
0188ac: 4656             BCLR ST3_SATA
0188ae: 4617             BSET ST3_SMUL
0188b0: 6c017b1f_3d44    CALL _IRQ_clear || MOV #4,T0
0188b6: e651011c14       MOV #1,port(#01c14h)
0188bb: ed310801353e     MOV dbl(*(#01353eh)),AC0
0188c1: 4010             ADD #1,AC0
0188c3: eb310801353e     MOV AC0,dbl(*(#01353eh))
0188c9: 76271018         MOV #10000,AC1
0188cd: ed310801353e     MOV dbl(*(#01353eh)),AC0
0188d3: 6c019c72         CALL __remul
0188d7: 041018           BCC $C$L1,AC0 != #0
0188da: 3c00             MOV #0,AC0
0188dc: eb310801353e     MOV AC0,dbl(*(#01353eh))
0188e2: 6c017f59         CALL _IRQ_globalDisable
0188e6: 6c017b72         CALL _IRQ_clearAll
0188ea: 6c017d0d         CALL _IRQ_disableAll
0188ee: 6c016ae2         CALL _crash_void
0188f2:               $C$L1:
0188f2: 4e01             AADD #1,SP
0188f4: bb9a_98          POP mmap(@SP)
0188f7: bb6c_98          POP mmap(@BSAC)
0188fa: bb6a_98          POP mmap(@BSA67)
0188fd: bb68_98          POP mmap(@BSA45)
018900: bb66_98          POP mmap(@BSA23)
018903: bb64_98          POP mmap(@BSA01)
018906: bb70_98          POP mmap(@TRN1)
018909: bb1e_98          POP mmap(@TRN0)
01890c: 5074             POPBOTH XCDP
01890e: bb88_98          POP mmap(@RPTC)
018911: bb76_98          POP mmap(@CSR)
018914: bb84_98          POP mmap(@REA1H)
018917: bb86_98          POP mmap(@REA1L)
01891a: bb80_98          POP mmap(@RSA1H)
01891d: bb82_98          POP mmap(@RSA1L)
018920: bb72_98          POP mmap(@BRC1)
018923: bb74_98          POP mmap(@BRS1)
018926: bb7c_98          POP mmap(@REA0H)
018929: bb7e_98          POP mmap(@REA0L)
01892c: bb78_98          POP mmap(@RSA0H)
01892f: bb7a_98          POP mmap(@RSA0L)
018932: bb34_98          POP mmap(@BRC0)
018935: bb60_98          POP mmap(@BK47)
018938: bb32_98          POP mmap(@BK03)
01893b: bb62_98          POP mmap(@BKC)
01893e: 50c4             POPBOTH XAR4
018940: 50b4             POPBOTH XAR3
018942: 50a4             POPBOTH XAR2
018944: 5094             POPBOTH XAR1
018946: 5084             POPBOTH XAR0
018948: 5052             POP T1
01894a: 5042             POP T0
01894c: bb54_98          POP mmap(@AC3G)
01894f: 5033             POP dbl(AC3)
018951: bb4c_98          POP mmap(@AC2G)
018954: 5023             POP dbl(AC2)
018956: bb1a_98          POP mmap(@AC1G)
018959: 5013             POP dbl(AC1)
01895b: bb14_98          POP mmap(@AC0G)
01895e: 5003             POP dbl(AC0)
018960: bb08_98          POP mmap(@ST3_55)
018963: 4805             RETI
018965:               _bus_error_isr:
018965: f406f91f_98      AND #63775,mmap(@ST1_55)
01896a: f5064100_98      OR #16640,mmap(@ST1_55)
01896f: f496fa00_98      AND #64000,mmap(@ST2_55)
018974: f5968000_98      OR #32768,mmap(@ST2_55)
018979: b508_98          PSH mmap(@ST3_55)
01897c: 5007             PSH dbl(AC0)
01897e: b514_98          PSH mmap(@AC0G)
018981: 5017             PSH dbl(AC1)
018983: b51a_98          PSH mmap(@AC1G)
018986: 5027             PSH dbl(AC2)
018988: b54c_98          PSH mmap(@AC2G)
01898b: 5037             PSH dbl(AC3)
01898d: b554_98          PSH mmap(@AC3G)
018990: 5046             PSH T0
018992: 5056             PSH T1
018994: 5085             PSHBOTH XAR0
018996: 5095             PSHBOTH XAR1
018998: 50a5             PSHBOTH XAR2
01899a: 50b5             PSHBOTH XAR3
01899c: 50c5             PSHBOTH XAR4
01899e: b562_98          PSH mmap(@BKC)
0189a1: b532_98          PSH mmap(@BK03)
0189a4: b560_98          PSH mmap(@BK47)
0189a7: b534_98          PSH mmap(@BRC0)
0189aa: b57a_98          PSH mmap(@RSA0L)
0189ad: b578_98          PSH mmap(@RSA0H)
0189b0: b57e_98          PSH mmap(@REA0L)
0189b3: b57c_98          PSH mmap(@REA0H)
0189b6: b574_98          PSH mmap(@BRS1)
0189b9: b572_98          PSH mmap(@BRC1)
0189bc: b582_98          PSH mmap(@RSA1L)
0189bf: b580_98          PSH mmap(@RSA1H)
0189c2: b586_98          PSH mmap(@REA1L)
0189c5: b584_98          PSH mmap(@REA1H)
0189c8: b576_98          PSH mmap(@CSR)
0189cb: b588_98          PSH mmap(@RPTC)
0189ce: 5075             PSHBOTH XCDP
0189d0: b51e_98          PSH mmap(@TRN0)
0189d3: b570_98          PSH mmap(@TRN1)
0189d6: b564_98          PSH mmap(@BSA01)
0189d9: b566_98          PSH mmap(@BSA23)
0189dc: b568_98          PSH mmap(@BSA45)
0189df: b56a_98          PSH mmap(@BSA67)
0189e2: b56c_98          PSH mmap(@BSAC)
0189e5: ec009e           AMAR @#00h,XAR1
0189e8: f49afffe_98      AND #65534,mmap(@SP)
0189ed: 5096             PSH AR1
0189ef: 4eff             AADD #-1,SP
0189f1: 4656             BCLR ST3_SATA
0189f3: 76001848_4717    MOV #24,T0 || BSET ST3_SMUL
0189f9: 6c017b1f         CALL _IRQ_clear
0189fd: 6c017b72         CALL _IRQ_clearAll
018a01: 6c016ae2         CALL _crash_void
018a05: 4e01             AADD #1,SP
018a07: bb9a_98          POP mmap(@SP)
018a0a: bb6c_98          POP mmap(@BSAC)
018a0d: bb6a_98          POP mmap(@BSA67)
018a10: bb68_98          POP mmap(@BSA45)
018a13: bb66_98          POP mmap(@BSA23)
018a16: bb64_98          POP mmap(@BSA01)
018a19: bb70_98          POP mmap(@TRN1)
018a1c: bb1e_98          POP mmap(@TRN0)
018a1f: 5074             POPBOTH XCDP
018a21: bb88_98          POP mmap(@RPTC)
018a24: bb76_98          POP mmap(@CSR)
018a27: bb84_98          POP mmap(@REA1H)
018a2a: bb86_98          POP mmap(@REA1L)
018a2d: bb80_98          POP mmap(@RSA1H)
018a30: bb82_98          POP mmap(@RSA1L)
018a33: bb72_98          POP mmap(@BRC1)
018a36: bb74_98          POP mmap(@BRS1)
018a39: bb7c_98          POP mmap(@REA0H)
018a3c: bb7e_98          POP mmap(@REA0L)
018a3f: bb78_98          POP mmap(@RSA0H)
018a42: bb7a_98          POP mmap(@RSA0L)
018a45: bb34_98          POP mmap(@BRC0)
018a48: bb60_98          POP mmap(@BK47)
018a4b: bb32_98          POP mmap(@BK03)
018a4e: bb62_98          POP mmap(@BKC)
018a51: 50c4             POPBOTH XAR4
018a53: 50b4             POPBOTH XAR3
018a55: 50a4             POPBOTH XAR2
018a57: 5094             POPBOTH XAR1
018a59: 5084             POPBOTH XAR0
018a5b: 5052             POP T1
018a5d: 5042             POP T0
018a5f: bb54_98          POP mmap(@AC3G)
018a62: 5033             POP dbl(AC3)
018a64: bb4c_98          POP mmap(@AC2G)
018a67: 5023             POP dbl(AC2)
018a69: bb1a_98          POP mmap(@AC1G)
018a6c: 5013             POP dbl(AC1)
018a6e: bb14_98          POP mmap(@AC0G)
018a71: 5003             POP dbl(AC0)
018a73: bb08_98          POP mmap(@ST3_55)
018a76: 4805             RETI
018a78:               _data_log_isr:
018a78: f406f91f_98      AND #63775,mmap(@ST1_55)
018a7d: f5064100_98      OR #16640,mmap(@ST1_55)
018a82: f496fa00_98      AND #64000,mmap(@ST2_55)
018a87: f5968000_98      OR #32768,mmap(@ST2_55)
018a8c: b508_98          PSH mmap(@ST3_55)
018a8f: 5007             PSH dbl(AC0)
018a91: b514_98          PSH mmap(@AC0G)
018a94: 5017             PSH dbl(AC1)
018a96: b51a_98          PSH mmap(@AC1G)
018a99: 5027             PSH dbl(AC2)
018a9b: b54c_98          PSH mmap(@AC2G)
018a9e: 5037             PSH dbl(AC3)
018aa0: b554_98          PSH mmap(@AC3G)
018aa3: 5046             PSH T0
018aa5: 5056             PSH T1
018aa7: 5085             PSHBOTH XAR0
018aa9: 5095             PSHBOTH XAR1
018aab: 50a5             PSHBOTH XAR2
018aad: 50b5             PSHBOTH XAR3
018aaf: 50c5             PSHBOTH XAR4
018ab1: b562_98          PSH mmap(@BKC)
018ab4: b532_98          PSH mmap(@BK03)
018ab7: b560_98          PSH mmap(@BK47)
018aba: b534_98          PSH mmap(@BRC0)
018abd: b57a_98          PSH mmap(@RSA0L)
018ac0: b578_98          PSH mmap(@RSA0H)
018ac3: b57e_98          PSH mmap(@REA0L)
018ac6: b57c_98          PSH mmap(@REA0H)
018ac9: b574_98          PSH mmap(@BRS1)
018acc: b572_98          PSH mmap(@BRC1)
018acf: b582_98          PSH mmap(@RSA1L)
018ad2: b580_98          PSH mmap(@RSA1H)
018ad5: b586_98          PSH mmap(@REA1L)
018ad8: b584_98          PSH mmap(@REA1H)
018adb: b576_98          PSH mmap(@CSR)
018ade: b588_98          PSH mmap(@RPTC)
018ae1: 5075             PSHBOTH XCDP
018ae3: b51e_98          PSH mmap(@TRN0)
018ae6: b570_98          PSH mmap(@TRN1)
018ae9: b564_98          PSH mmap(@BSA01)
018aec: b566_98          PSH mmap(@BSA23)
018aef: b568_98          PSH mmap(@BSA45)
018af2: b56a_98          PSH mmap(@BSA67)
018af5: b56c_98          PSH mmap(@BSAC)
018af8: ec009e           AMAR @#00h,XAR1
018afb: f49afffe_98      AND #65534,mmap(@SP)
018b00: 5096             PSH AR1
018b02: 4eff             AADD #-1,SP
018b04: 4656             BCLR ST3_SATA
018b06: 76001948_4717    MOV #25,T0 || BSET ST3_SMUL
018b0c: 6c017b1f         CALL _IRQ_clear
018b10: 6c017b72         CALL _IRQ_clearAll
018b14: 6c016ae2         CALL _crash_void
018b18: 4e01             AADD #1,SP
018b1a: bb9a_98          POP mmap(@SP)
018b1d: bb6c_98          POP mmap(@BSAC)
018b20: bb6a_98          POP mmap(@BSA67)
018b23: bb68_98          POP mmap(@BSA45)
018b26: bb66_98          POP mmap(@BSA23)
018b29: bb64_98          POP mmap(@BSA01)
018b2c: bb70_98          POP mmap(@TRN1)
018b2f: bb1e_98          POP mmap(@TRN0)
018b32: 5074             POPBOTH XCDP
018b34: bb88_98          POP mmap(@RPTC)
018b37: bb76_98          POP mmap(@CSR)
018b3a: bb84_98          POP mmap(@REA1H)
018b3d: bb86_98          POP mmap(@REA1L)
018b40: bb80_98          POP mmap(@RSA1H)
018b43: bb82_98          POP mmap(@RSA1L)
018b46: bb72_98          POP mmap(@BRC1)
018b49: bb74_98          POP mmap(@BRS1)
018b4c: bb7c_98          POP mmap(@REA0H)
018b4f: bb7e_98          POP mmap(@REA0L)
018b52: bb78_98          POP mmap(@RSA0H)
018b55: bb7a_98          POP mmap(@RSA0L)
018b58: bb34_98          POP mmap(@BRC0)
018b5b: bb60_98          POP mmap(@BK47)
018b5e: bb32_98          POP mmap(@BK03)
018b61: bb62_98          POP mmap(@BKC)
018b64: 50c4             POPBOTH XAR4
018b66: 50b4             POPBOTH XAR3
018b68: 50a4             POPBOTH XAR2
018b6a: 5094             POPBOTH XAR1
018b6c: 5084             POPBOTH XAR0
018b6e: 5052             POP T1
018b70: 5042             POP T0
018b72: bb54_98          POP mmap(@AC3G)
018b75: 5033             POP dbl(AC3)
018b77: bb4c_98          POP mmap(@AC2G)
018b7a: 5023             POP dbl(AC2)
018b7c: bb1a_98          POP mmap(@AC1G)
018b7f: 5013             POP dbl(AC1)
018b81: bb14_98          POP mmap(@AC0G)
018b84: 5003             POP dbl(AC0)
018b86: bb08_98          POP mmap(@ST3_55)
018b89: 4805             RETI
018b8b:               _GPT_open:
018b8b: 4ef7             AADD #-9,SP
018b8d: eb0895           MOV XAR1,dbl(@#04h)
018b90: eb0485           MOV XAR0,dbl(@#02h)
018b93: c400             MOV T0,@#00h
018b95: ed08bf           MOV dbl(@#04h),XAR3
018b98: e66100           MOV #0,*AR3
018b9b: 3c00             MOV #0,AC0
018b9d: eb0c08           MOV AC0,dbl(@#06h)
018ba0: ed04bf           MOV dbl(@#02h),XAR3
018ba3: 90b0_3d01        MOV XAR3,AC0 || MOV #0,AC1
018ba7: 121c04           CMPU AC1 != AC0, TC1
018baa: 6664             BCC $C$L1,TC1
018bac: ed08bf           MOV dbl(@#04h),XAR3
018baf: e661fb           MOV #-5,*AR3
018bb2: ed0c8f           MOV dbl(@#06h),XAR0
018bb5: 060092           B $C$L10
018bb8:               $C$L1:
018bb8: a900             MOV @#00h,AR1
018bba: 63a9             BCC $C$L2,AR1 < #0
018bbc: 3c3a             MOV #3,AR2
018bbe: 1294a0           CMP AR1 < AR2, TC1
018bc1: 6664             BCC $C$L3,TC1
018bc3:               $C$L2:
018bc3: ed08bf           MOV dbl(@#04h),XAR3
018bc6: e661fa           MOV #-6,*AR3
018bc9: ed0c8f           MOV dbl(@#06h),XAR0
018bcc: 06007b           B $C$L10
018bcf:               $C$L3:
018bcf: eb0cb5           MOV XAR3,dbl(@#06h)
018bd2: fb101c00         MOV #7168,@#08h
018bd6: 060057           B $C$L8
018bd9:               $C$L4:
018bd9: ed0cbf           MOV dbl(@#06h),XAR3
018bdc: e66100           MOV #0,*AR3
018bdf: ed0cbf           MOV dbl(@#06h),XAR3
018be2: fb751810         MOV #6160,*(AR3-T1)
018be6: ab10             MOV @#08h,AR3
018be8: a975_99          MOV port(*(AR3-T1)),AR1
018beb: ec1492           BCLR @#0ah,AR1
018bee: c975_9a          MOV AR1,port(*(AR3-T1))
018bf1: 060053           B $C$L9
018bf4:               $C$L5:
018bf4: ed0cbf           MOV dbl(@#06h),XAR3
018bf7: e66101           MOV #1,*AR3
018bfa: ed0cbf           MOV dbl(@#06h),XAR3
018bfd: fb751850         MOV #6224,*(AR3-T1)
018c01: ab10             MOV @#08h,AR3
018c03: a975_99          MOV port(*(AR3-T1)),AR1
018c06: ec1892           BCLR @#0ch,AR1
018c09: c975_9a          MOV AR1,port(*(AR3-T1))
018c0c: 4a39             B $C$L9
018c0e:               $C$L6:
018c0e: ed0cbf           MOV dbl(@#06h),XAR3
018c11: e66102           MOV #2,*AR3
018c14: ed0cbf           MOV dbl(@#06h),XAR3
018c17: fb751890         MOV #6288,*(AR3-T1)
018c1b: ab10             MOV @#08h,AR3
018c1d: a975_99          MOV port(*(AR3-T1)),AR1
018c20: ec1a92           BCLR @#0dh,AR1
018c23: c975_9a          MOV AR1,port(*(AR3-T1))
018c26: 4a1f             B $C$L9
018c28:               $C$L7:
018c28: ed08bf           MOV dbl(@#04h),XAR3
018c2b: e661fa           MOV #-6,*AR3
018c2e: 4a17             B $C$L9
018c30:               $C$L8:
018c30: a900             MOV @#00h,AR1
018c32: 0409a4           BCC $C$L4,AR1 == #0
018c35: 3c1a             MOV #1,AR2
018c37: 1290a0           CMP AR1 == AR2, TC1
018c3a: 0464b7           BCC $C$L5,TC1
018c3d: 3c2a             MOV #2,AR2
018c3f: 1290a0           CMP AR1 == AR2, TC1
018c42: 0464c9           BCC $C$L6,TC1
018c45: 4a61             B $C$L7
018c47:               $C$L9:
018c47: ed0c8f           MOV dbl(@#06h),XAR0
018c4a:               $C$L10:
018c4a: 4e09             AADD #9,SP
018c4c: 4804             RET
018c4e:               _GPT_reset:
018c4e: 4efb             AADD #-5,SP
018c50: eb0085           MOV XAR0,dbl(@#00h)
018c53: ed00bf           MOV dbl(@#00h),XAR3
018c56: 90b0_3d01        MOV XAR3,AC0 || MOV #0,AC1
018c5a: 121c04           CMPU AC1 != AC0, TC1
018c5d: 62e4             BCC $C$L11,TC1
018c5f: 3e54             MOV #-5,T0
018c61: 060060           B $C$L18
018c64:               $C$L11:
018c64: a975             MOV *(AR3-T1),AR1
018c66: c904             MOV AR1,@#02h
018c68: 229b             MOV AR1,AR3
018c6a: e66100_9a        MOV #0,port(*AR3)
018c6e: ab04             MOV @#02h,AR3
018c70: e67900_9a        MOV #0,port(*+AR3)
018c74: ab04             MOV @#02h,AR3
018c76: e67b00_9a        MOV #0,port(*-AR3)
018c7a: ab04             MOV @#02h,AR3
018c7c: e67500_9a        MOV #0,port(*(AR3-T1))
018c80: ab04             MOV @#02h,AR3
018c82: e67700_9a        MOV #0,port(*AR3(T1))
018c86: fb061c14         MOV #7188,@#03h
018c8a: 4a1c             B $C$L16
018c8c:               $C$L12:
018c8c: ab06             MOV @#03h,AR3
018c8e: e66101_9a        MOV #1,port(*AR3)
018c92: 4a2e             B $C$L17
018c94:               $C$L13:
018c94: ab06             MOV @#03h,AR3
018c96: e66102_9a        MOV #2,port(*AR3)
018c9a: 4a26             B $C$L17
018c9c:               $C$L14:
018c9c: ab06             MOV @#03h,AR3
018c9e: e66104_9a        MOV #4,port(*AR3)
018ca2: 4a1e             B $C$L17
018ca4:               $C$L15:
018ca4: 3e64             MOV #-6,T0
018ca6: 4a1c             B $C$L18
018ca8:               $C$L16:
018ca8: ed00bf           MOV dbl(@#00h),XAR3
018cab: a961             MOV *AR3,AR1
018cad: 0409dc           BCC $C$L12,AR1 == #0
018cb0: 3c1a             MOV #1,AR2
018cb2: 1290a0           CMP AR1 == AR2, TC1
018cb5: 0464dc           BCC $C$L13,TC1
018cb8: 3c2a             MOV #2,AR2
018cba: 1290a0           CMP AR1 == AR2, TC1
018cbd: 0464dc           BCC $C$L14,TC1
018cc0: 4a62             B $C$L15
018cc2:               $C$L17:
018cc2: 3c04             MOV #0,T0
018cc4:               $C$L18:
018cc4: 4e05             AADD #5,SP
018cc6: 4804             RET
018cc8:               _GPT_close:
018cc8: 4efd             AADD #-3,SP
018cca: eb0085           MOV XAR0,dbl(@#00h)
018ccd: ed00bf           MOV dbl(@#00h),XAR3
018cd0: 90b0_3d01        MOV XAR3,AC0 || MOV #0,AC1
018cd4: 121c04           CMPU AC1 != AC0, TC1
018cd7: 62e4             BCC $C$L19,TC1
018cd9: 3e54             MOV #-5,T0
018cdb: 06005b           B $C$L25
018cde:               $C$L19:
018cde: fb041c00         MOV #7168,@#02h
018ce2: 4a30             B $C$L23
018ce4:               $C$L20:
018ce4: ab04             MOV @#02h,AR3
018ce6: a975_99          MOV port(*(AR3-T1)),AR1
018ce9: ec1492           BCLR @#0ah,AR1
018cec: ec1490           BSET @#0ah,AR1
018cef: c975_9a          MOV AR1,port(*(AR3-T1))
018cf2: 4a38             B $C$L24
018cf4:               $C$L21:
018cf4: ab04             MOV @#02h,AR3
018cf6: a975_99          MOV port(*(AR3-T1)),AR1
018cf9: ec1892           BCLR @#0ch,AR1
018cfc: ec1890           BSET @#0ch,AR1
018cff: c975_9a          MOV AR1,port(*(AR3-T1))
018d02: 4a28             B $C$L24
018d04:               $C$L22:
018d04: ab04             MOV @#02h,AR3
018d06: a975_99          MOV port(*(AR3-T1)),AR1
018d09: ec1a92           BCLR @#0dh,AR1
018d0c: ec1a90           BSET @#0dh,AR1
018d0f: c975_9a          MOV AR1,port(*(AR3-T1))
018d12: 4a18             B $C$L24
018d14:               $C$L23:
018d14: ed00bf           MOV dbl(@#00h),XAR3
018d17: a961             MOV *AR3,AR1
018d19: 0409c8           BCC $C$L20,AR1 == #0
018d1c: 3c1a             MOV #1,AR2
018d1e: 1290a0           CMP AR1 == AR2, TC1
018d21: 0464d0           BCC $C$L21,TC1
018d24: 3c2a             MOV #2,AR2
018d26: 1290a0           CMP AR1 == AR2, TC1
018d29: 0464d8           BCC $C$L22,TC1
018d2c:               $C$L24:
018d2c: ed00bf           MOV dbl(@#00h),XAR3
018d2f: e67500           MOV #0,*(AR3-T1)
018d32: 3c00             MOV #0,AC0
018d34: eb0008           MOV AC0,dbl(@#00h)
018d37: 3c04             MOV #0,T0
018d39:               $C$L25:
018d39: 4e03             AADD #3,SP
018d3b: 4804             RET
018d3d:               _GPT_start:
018d3d: 4efd             AADD #-3,SP
018d3f: eb0085           MOV XAR0,dbl(@#00h)
018d42: ed00bf           MOV dbl(@#00h),XAR3
018d45: 90b0_3d01        MOV XAR3,AC0 || MOV #0,AC1
018d49: 121c04           CMPU AC1 != AC0, TC1
018d4c: 6264             BCC $C$L26,TC1
018d4e: 3e54             MOV #-5,T0
018d50: 4a14             B $C$L27
018d52:               $C$L26:
018d52: a975             MOV *(AR3-T1),AR1
018d54: c904             MOV AR1,@#02h
018d56: 229b             MOV AR1,AR3
018d58: a961_99          MOV port(*AR3),AR1
018d5b: ec0092           BCLR @#00h,AR1
018d5e: ec0090           BSET @#00h,AR1
018d61: c961_9a          MOV AR1,port(*AR3)
018d64: 3c04             MOV #0,T0
018d66:               $C$L27:
018d66: 4e03             AADD #3,SP
018d68: 4804             RET
018d6a:               _GPT_stop:
018d6a: 4efd             AADD #-3,SP
018d6c: eb0085           MOV XAR0,dbl(@#00h)
018d6f: ed00bf           MOV dbl(@#00h),XAR3
018d72: 90b0_3d01        MOV XAR3,AC0 || MOV #0,AC1
018d76: 121c04           CMPU AC1 != AC0, TC1
018d79: 6264             BCC $C$L28,TC1
018d7b: 3e54             MOV #-5,T0
018d7d: 4a11             B $C$L29
018d7f:               $C$L28:
018d7f: a975             MOV *(AR3-T1),AR1
018d81: c904             MOV AR1,@#02h
018d83: 229b             MOV AR1,AR3
018d85: a961_99          MOV port(*AR3),AR1
018d88: ec0092           BCLR @#00h,AR1
018d8b: c961_9a          MOV AR1,port(*AR3)
018d8e: 3c04             MOV #0,T0
018d90:               $C$L29:
018d90: 4e03             AADD #3,SP
018d92: 4804             RET
018d94:               _GPT_getCnt:
018d94: 4ef9             AADD #-7,SP
018d96: eb0495           MOV XAR1,dbl(@#02h)
018d99: eb0085           MOV XAR0,dbl(@#00h)
018d9c: ed00bf           MOV dbl(@#00h),XAR3
018d9f: 90b0_3d01        MOV XAR3,AC0 || MOV #0,AC1
018da3: 121c04           CMPU AC1 != AC0, TC1
018da6: 6264             BCC $C$L30,TC1
018da8: 3e54             MOV #-5,T0
018daa: 4a1f             B $C$L31
018dac:               $C$L30:
018dac: a975             MOV *(AR3-T1),AR1
018dae: c90c             MOV AR1,@#06h
018db0: 229b             MOV AR1,AR3
018db2: a979_99          MOV port(*+AR3),AR1
018db5: c908             MOV AR1,@#04h
018db7: ab0c             MOV @#06h,AR3
018db9: a97b_99          MOV port(*-AR3),AR1
018dbc: c90a             MOV AR1,@#05h
018dbe: ed04bf           MOV dbl(@#02h),XAR3
018dc1: 5290             MOV AR1,HI(AC0)
018dc3: da0800           OR @#04h,AC0,AC0
018dc6: eb6108           MOV AC0,dbl(*AR3)
018dc9: 3c04             MOV #0,T0
018dcb:               $C$L31:
018dcb: 4e07             AADD #7,SP
018dcd: 4804             RET
018dcf:               _GPT_config:
018dcf: 4efb             AADD #-5,SP
018dd1: eb0495           MOV XAR1,dbl(@#02h)
018dd4: eb0085           MOV XAR0,dbl(@#00h)
018dd7: ed00bf           MOV dbl(@#00h),XAR3
018dda: 90b0_3d01        MOV XAR3,AC0 || MOV #0,AC1
018dde: 121c04           CMPU AC1 != AC0, TC1
018de1: 62e4             BCC $C$L32,TC1
018de3: 3e54             MOV #-5,T0
018de5: 06008a           B $C$L34
018de8:               $C$L32:
018de8: ed04bf           MOV dbl(@#02h),XAR3
018deb: 90b0             MOV XAR3,AC0
018ded: 121c04           CMPU AC1 != AC0, TC1
018df0: 62e4             BCC $C$L33,TC1
018df2: 3e64             MOV #-6,T0
018df4: 06007b           B $C$L34
018df7:               $C$L33:
018df7: ed00bf           MOV dbl(@#00h),XAR3
018dfa: a975             MOV *(AR3-T1),AR1
018dfc: c908             MOV AR1,@#04h
018dfe: 229b             MOV AR1,AR3
018e00: a961_99          MOV port(*AR3),AR1
018e03: ec1e92           BCLR @#0fh,AR1
018e06: c961_9a          MOV AR1,port(*AR3)
018e09: ed04bf           MOV dbl(@#02h),XAR3
018e0c: f9730208         MOV *(AR3+T1) << #2,AC0
018e10: ab08             MOV @#04h,AR3
018e12: 183c90           AND #60,AC0,AR1
018e15: aa61_99          MOV port(*AR3),AR2
018e18: 7dffc3aa         AND #65475,AR2,AR2
018e1c: 2aa9             OR AR2,AR1
018e1e: c961_9a          MOV AR1,port(*AR3)
018e21: ed04bf           MOV dbl(@#02h),XAR3
018e24: a961             MOV *AR3,AR1
018e26: ab08             MOV @#04h,AR3
018e28: 5090             SFTL AR1,#1
018e2a: 180299           AND #2,AR1,AR1
018e2d: aa61_99          MOV port(*AR3),AR2
018e30: ec02a2           BCLR @#01h,AR2
018e33: 2aa9             OR AR2,AR1
018e35: c961_9a          MOV AR1,port(*AR3)
018e38: ed04bf           MOV dbl(@#02h),XAR3
018e3b: f9750f08         MOV *(AR3-T1) << #15,AC0
018e3f: ab08             MOV @#04h,AR3
018e41: 7d800090         AND #32768,AC0,AR1
018e45: aa61_99          MOV port(*AR3),AR2
018e48: ec1ea2           BCLR @#0fh,AR2
018e4b: 2aa9             OR AR2,AR1
018e4d: c961_9a          MOV AR1,port(*AR3)
018e50: ab08             MOV @#04h,AR3
018e52: e67900_9a        MOV #0,port(*+AR3)
018e56: ab08             MOV @#04h,AR3
018e58: e67b00_9a        MOV #0,port(*-AR3)
018e5c: ed04bf           MOV dbl(@#02h),XAR3
018e5f: a977             MOV *AR3(T1),AR1
018e61: ab08             MOV @#04h,AR3
018e63: c975_9a          MOV AR1,port(*(AR3-T1))
018e66: ed04bf           MOV dbl(@#02h),XAR3
018e69: a979             MOV *+AR3,AR1
018e6b: ab08             MOV @#04h,AR3
018e6d: c977_9a          MOV AR1,port(*AR3(T1))
018e70: 3c04             MOV #0,T0
018e72:               $C$L34:
018e72: 4e05             AADD #5,SP
018e74: 4804             RET
018e76:               __addd:
018e76: 4ef3             AADD #-13,SP
018e78: eb0808           MOV AC0,dbl(@#04h)
018e7b: eb1018           MOV AC1,dbl(@#08h)
018e7e: ed0808           MOV dbl(@#04h),AC0
018e81: eb0c08           MOV AC0,dbl(@#06h)
018e84: ed1008           MOV dbl(@#08h),AC0
018e87: eb0408           MOV AC0,dbl(@#02h)
018e8a: ed0c08           MOV dbl(@#06h),AC0
018e8d: ec3e02           BCLR @#1fh,AC0
018e90: ed0c18_1b0020    MOV dbl(@#06h),AC1 || OR #0,AC0,AC2
018e96: eb1418           MOV AC1,dbl(@#0ah)
018e99: 041215           BCC #0x018eb1,AC2 != #0
018e9c: ed0408           MOV dbl(@#02h),AC0
018e9f: 1a0010           OR #0,AC0,AC1
018ea2: ec3e12           BCLR @#1fh,AC1
018ea5: 6d110223         BCC #0x0190cc,AC1 != #0
018ea9: ed0c18           MOV dbl(@#06h),AC1
018eac: 2810             AND AC1,AC0
018eae: 06021b           B #0x0190cc
018eb1: ed0418           MOV dbl(@#02h),AC1
018eb4: ec3e12           BCLR @#1fh,AC1
018eb7: 1a0021           OR #0,AC1,AC2
018eba: eb0028           MOV AC2,dbl(@#00h)
018ebd: ed0428           MOV dbl(@#02h),AC2
018ec0: 6d010205         BCC #0x0190c9,AC1 == #0
018ec4: 7a7f803a         MOV #32640 << #16,AC3
018ec8: 120830           CMP AC0 >= AC3, TC1
018ecb: 6d6401c7         BCC #0x019096,TC1
018ecf: 121430           CMP AC1 < AC3, TC1
018ed2: 6d7401c8         BCC #0x01909e,!TC1
018ed6: 10c529           SFTS AC0,#-23,AC3
018ed9: 223a             MOV AC3,AR2
018edb: 6d0a01bf         BCC #0x01909e,AR2 == #0
018edf: ec31be7fffff     AMAR *(#07fffffh),XAR3
018ee5: 105529           SFTS AC1,#-23,AC1
018ee8: 90b3             MOV XAR3,AC3
018eea: 221c             MOV AC1,AR4
018eec: 7a00800a_2903    MOV #128 << #16,AC0 || AND AC0,AC3
018ef2: 2430             ADD AC3,AC0
018ef4: 6d0c01d1         BCC #0x0190c9,AR4 == #0
018ef8: 90b1             MOV XAR3,AC1
018efa: ed0438_13a4c0    MOV dbl(@#02h),AC3 || CMP AR2 < AR4, TC1
018f00: 7a00803a_2931    MOV #128 << #16,AC3 || AND AC3,AC1
018f06: 2413             ADD AC1,AC3
018f08: 62e4             BCC #0x018f0f,TC1
018f0a: ed1428           MOV dbl(@#0ah),AC2
018f0d: 4a0f             B #0x018f1e
018f0f: 22a9_1b0010      MOV AR2,AR1 || OR #0,AC0,AC1
018f14: 1a0003_23ca      OR #0,AC3,AC0 || MOV AR4,AR2
018f19: 1a0031_239c      OR #0,AC1,AC3 || MOV AR1,AR4
018f1e: 7a80001a         MOV #-32768 << #16,AC1
018f22: ed0c28_2921      MOV dbl(@#06h),AC2 || AND AC2,AC1
018f27: eb0818           MOV AC1,dbl(@#04h)
018f2a: ed0418           MOV dbl(@#02h),AC1
018f2d: 7a80002a_2d21    MOV #-32768 << #16,AC2 || XOR AC2,AC1
018f33: 2812_23a9        AND AC1,AC2 || MOV AR2,AR1
018f37: 3433_9e92        XCCPART AC2 != #0 || NEG AC3,AC3
018f3b: 760019b8_27c9    MOV #25,AR3 || SUB AR4,AR1
018f41: 1298b0_21        CMP AR1 >= AR3, TC1 || NOP
018f45: 04646e           BCC #0x018fb6,TC1
018f48: 3495             NEG AR1,T1
018f4a: 12a0c0_1b0013    CMP AR2 == AR4, TC1 || OR #0,AC3,AC1
018f50: 5c55             SFTS AC1,T1,AC1
018f52: 2410             ADD AC1,AC0
018f54: 04644f           BCC #0x018fa6,TC1
018f57: 76002058         MOV #32,T1
018f5b: 2695_1b0013      SUB AR1,T1 || OR #0,AC3,AC1
018f60: 3c1b             MOV #1,AR3
018f62: 7a80001a_5d95    MOV #-32768 << #16,AC1 || SFTS AC1,T1,AC2
018f68: 2821_1390b0      AND AC2,AC1 || CMP AR1 == AR3, TC1
018f6d: eb0418           MOV AC1,dbl(@#02h)
018f70: 046429           BCC #0x018f9c,TC1
018f73: 76002158         MOV #33,T1
018f77: 2695_1b0013      SUB AR1,T1 || OR #0,AC3,AC1
018f7c: 3c2b             MOV #2,AR3
018f7e: 7a80001a_5d95    MOV #-32768 << #16,AC1 || SFTS AC1,T1,AC2
018f84: 2821_1390b0      AND AC2,AC1 || CMP AR1 == AR3, TC1
018f89: eb0018           MOV AC1,dbl(@#00h)
018f8c: 6564             BCC #0x018f98,TC1
018f8e: 76002258         MOV #34,T1
018f92: 2695             SUB AR1,T1
018f94: 4a2c_5d75        B #0x018fc4 || SFTS AC3,T1,AC1
018f98: 4a28_3d01        B #0x018fc4 || MOV #0,AC1
018f9c: 3c01             MOV #0,AC1
018f9e: 1a0021           OR #0,AC1,AC2
018fa1: eb0028           MOV AC2,dbl(@#00h)
018fa4: 4a1e             B #0x018fc4
018fa6: 3c01             MOV #0,AC1
018fa8: 1a0021           OR #0,AC1,AC2
018fab: eb0028           MOV AC2,dbl(@#00h)
018fae: ed0028           MOV dbl(@#00h),AC2
018fb1: eb0428           MOV AC2,dbl(@#02h)
018fb4: 4a0e             B #0x018fc4
018fb6: 3c01             MOV #0,AC1
018fb8: eb0418           MOV AC1,dbl(@#02h)
018fbb: ed0418           MOV dbl(@#02h),AC1
018fbe: eb0018           MOV AC1,dbl(@#00h)
018fc1: ed0018           MOV dbl(@#00h),AC1
018fc4: 044014           BCC #0x018fdb,AC0 > #0
018fc7: ed0428           MOV dbl(@#02h),AC2
018fca: 6792             BCC #0x018fdb,AC2 != #0
018fcc: 6d0000fc         BCC #0x0190cc,AC0 == #0
018fd0: ed0828           MOV dbl(@#04h),AC2
018fd3: ec3e26           BNOT @#1fh,AC2
018fd6: eb0828_3500      MOV AC2,dbl(@#04h) || NEG AC0,AC0
018fdb: 7a01002a         MOV #256 << #16,AC2
018fdf: 120820           CMP AC0 >= AC2, TC1
018fe2: 046445           BCC #0x01902a,TC1
018fe5: 7a00802a         MOV #128 << #16,AC2
018fe9: 120420           CMP AC0 < AC2, TC1
018fec: 65e4             BCC #0x018ff9,TC1
018fee: ed0028           MOV dbl(@#00h),AC2
018ff1: ed0428_2b21      MOV dbl(@#02h),AC2 || OR AC2,AC1
018ff6: 060045           B #0x01903e
018ff9: 3c1b             MOV #1,AR3
018ffb: 3c09             MOV #0,AR1
018ffd: 5000             SFTL AC0,#1
018fff: 6599             BCC #0x01900c,AR1 != #0
019001: ed0428_3d03      MOV dbl(@#02h),AC2 || MOV #0,AC3
019006: 3c13_9e92        XCCPART AC2 != #0 || MOV #1,AC3
01900a: 2a30             OR AC3,AC0
01900c: 129cb0_21        CMP AR1 != AR3, TC1 || NOP
019010: 6464             BCC #0x01901a,TC1
019012: 3c01             MOV #0,AC1
019014: 1a0021           OR #0,AC1,AC2
019017: eb0028           MOV AC2,dbl(@#00h)
01901a: 7a00802a         MOV #128 << #16,AC2
01901e: 120420_4119      CMP AC0 < AC2, TC1 || ADD #1,AR1
019023: 421a             SUB #1,AR2
019025: 0464d5           BCC #0x018ffd,TC1
019028: 4a17             B #0x019041
01902a: ed0428           MOV dbl(@#02h),AC2
01902d: ed0018_2b12      MOV dbl(@#00h),AC1 || OR AC1,AC2
019032: 2a12             OR AC1,AC2
019034: 1a0012           OR #0,AC2,AC1
019037: 180120           AND #1,AC0,AC2
01903a: 4440_411a        SFTS AC0,#-1 || ADD #1,AR2
01903e: eb0028           MOV AC2,dbl(@#00h)
019041: ed0028           MOV dbl(@#00h),AC2
019044: 6782             BCC #0x019055,AC2 == #0
019046: 2209             MOV AC0,AR1
019048: 7fffff99         XOR #65535,AR1,AR1
01904c: 180199           AND #1,AR1,AR1
01904f: 6109             BCC #0x019053,AR1 == #0
019051: 6101             BCC #0x019055,AC1 == #0
019053: 4010             ADD #1,AC0
019055: 7a01001a         MOV #256 << #16,AC1
019059: 120410           CMP AC0 < AC1, TC1
01905c: 401a_9ef4        XCCPART !TC1 || ADD #1,AR2
019060: 4440_9ef4        XCCPART !TC1 || SFTS AC0,#-1
019064: 043a14           BCC #0x01907b,AR2 <= #0
019067: 7600ff98         MOV #255,AR1
01906b: 12a490_21        CMP AR2 < AR1, TC1 || NOP
01906f: 3c00_9ef4        XCCPART !TC1 || MOV #0,AC0
019073: 7600ffa8_9ef4    XCCPART !TC1 || MOV #255,AR2
019079: 4a04             B #0x01907f
01907b: 3c0a             MOV #0,AR2
01907d: 3c00             MOV #0,AC0
01907f: ec31be7fffff     AMAR *(#07fffffh),XAR3
019085: 90b1             MOV XAR3,AC1
019087: 2801             AND AC0,AC1
019089: 22a0             MOV AR2,AC0
01908b: 104317           ADD AC0 << #23,AC1
01908e: ed0850           ADD dbl(@#04h),AC1,AC1
019091: 1a0001           OR #0,AC1,AC0
019094: 4a36             B #0x0190cc
019096: ed0018           MOV dbl(@#00h),AC1
019099: 120810           CMP AC0 >= AC1, TC1
01909c: 62e4             BCC #0x0190a3,TC1
01909e: ed1008           MOV dbl(@#08h),AC0
0190a1: 4a29             B #0x0190cc
0190a3: 7a7f801a         MOV #32640 << #16,AC1
0190a7: 120c10           CMP AC0 != AC1, TC1
0190aa: 04641c           BCC #0x0190c9,TC1
0190ad: ed0408           MOV dbl(@#02h),AC0
0190b0: ed0c18           MOV dbl(@#06h),AC1
0190b3: 7a80001a_2d10    MOV #-32768 << #16,AC1 || XOR AC1,AC0
0190b9: 120c14           CMPU AC0 != AC1, TC1
0190bc: 7a7f800a_9ef4    XCCPART !TC1 || MOV #32640 << #16,AC0
0190c2: 1a0100_9ef4      XCCPART !TC1 || OR #1,AC0,AC0
0190c7: 61f4             BCC #0x0190cc,!TC1
0190c9: ed0808           MOV dbl(@#04h),AC0
0190cc: 4e0d             AADD #13,SP
0190ce: 4804             RET
0190d0:               __neqd:
0190d0: 1a0020           OR #0,AC0,AC2
0190d3: 1a0001           OR #0,AC1,AC0
0190d6: 1a0012           OR #0,AC2,AC1
0190d9: 2c01             XOR AC0,AC1
0190db: 65d1             BCC #0x0190e8,AC1 >= #0
0190dd: 7a80000a_2b02    MOV #-32768 << #16,AC0 || OR AC0,AC2
0190e3: 122004           CMPU AC2 == AC0, TC1
0190e6: 4a14             B #0x0190fc
0190e8: 122000           CMP AC2 == AC0, TC1
0190eb: 3c14_9ef4        XCCPART !TC1 || MOV #1,T0
0190ef: 047410           BCC #0x019102,!TC1
0190f2: 7a7f800a         MOV #32640 << #16,AC0
0190f6: ec3e22           BCLR @#1fh,AC2
0190f9: 120824           CMPU AC0 >= AC2, TC1
0190fc: 3c04             MOV #0,T0
0190fe: 3c14_9ef4        XCCPART !TC1 || MOV #1,T0
019102: 4804             RET
019104:               __lssd:
019104: 1a0020           OR #0,AC0,AC2
019107: 1a0001           OR #0,AC1,AC0
01910a: 7a7f803a         MOV #32640 << #16,AC3
01910e: 1a0012           OR #0,AC2,AC1
019111: ec3e12           BCLR @#1fh,AC1
019114: 123814           CMPU AC3 >= AC1, TC1
019117: 047426           BCC #0x019140,!TC1
01911a: 1a0010           OR #0,AC0,AC1
01911d: ec3e12           BCLR @#1fh,AC1
019120: 123814           CMPU AC3 >= AC1, TC1
019123: 04741a           BCC #0x019140,!TC1
019126: 1a0012           OR #0,AC2,AC1
019129: 2c01             XOR AC0,AC1
01912b: 6421             BCC #0x019135,AC1 < #0
01912d: 2602             SUB AC0,AC2
01912f: 3422_9ea0        XCCPART AC0 < #0 || NEG AC2,AC2
019133: 4a0f             B #0x019144
019135: 7a80001a_2b20    MOV #-32768 << #16,AC1 || OR AC2,AC0
01913b: 120c14           CMPU AC0 != AC1, TC1
01913e: 6264             BCC #0x019144,TC1
019140: 3c04             MOV #0,T0
019142: 4a06             B #0x01914a
019144: 3c04             MOV #0,T0
019146: 3c14_9ea2        XCCPART AC2 < #0 || MOV #1,T0
01914a: 4804             RET
01914c:               __leqd:
01914c: 1a0020           OR #0,AC0,AC2
01914f: 1a0001           OR #0,AC1,AC0
019152: 7a7f803a         MOV #32640 << #16,AC3
019156: 1a0012           OR #0,AC2,AC1
019159: ec3e12           BCLR @#1fh,AC1
01915c: 123814           CMPU AC3 >= AC1, TC1
01915f: 65f4             BCC #0x01916c,!TC1
019161: 1a0010           OR #0,AC0,AC1
019164: ec3e12           BCLR @#1fh,AC1
019167: 123814           CMPU AC3 >= AC1, TC1
01916a: 6264             BCC #0x019170,TC1
01916c: 3c04             MOV #0,T0
01916e: 4a27             B #0x019197
019170: 1a0012           OR #0,AC2,AC1
019173: 2c01             XOR AC0,AC1
019175: 6421             BCC #0x01917f,AC1 < #0
019177: 2602             SUB AC0,AC2
019179: 3422_9ea0        XCCPART AC0 < #0 || NEG AC2,AC2
01917d: 4a12             B #0x019191
01917f: 7a80001a_2b20    MOV #-32768 << #16,AC1 || OR AC2,AC0
019185: 120c14           CMPU AC0 != AC1, TC1
019188: 3c14_9ef4        XCCPART !TC1 || MOV #1,T0
01918c: 64f4             BCC #0x019197,!TC1
01918e: ec0020           BSET @#00h,AC2
019191: 3c04             MOV #0,T0
019193: 3c14_9eb2        XCCPART AC2 <= #0 || MOV #1,T0
019197: 4804             RET
019199:               __gtrd:
019199: 1a0020           OR #0,AC0,AC2
01919c: 1a0001           OR #0,AC1,AC0
01919f: 7a7f803a         MOV #32640 << #16,AC3
0191a3: 1a0012           OR #0,AC2,AC1
0191a6: ec3e12           BCLR @#1fh,AC1
0191a9: 123814           CMPU AC3 >= AC1, TC1
0191ac: 047426           BCC #0x0191d5,!TC1
0191af: 1a0010           OR #0,AC0,AC1
0191b2: ec3e12           BCLR @#1fh,AC1
0191b5: 123814           CMPU AC3 >= AC1, TC1
0191b8: 04741a           BCC #0x0191d5,!TC1
0191bb: 1a0012           OR #0,AC2,AC1
0191be: 2c01             XOR AC0,AC1
0191c0: 6421             BCC #0x0191ca,AC1 < #0
0191c2: 2602             SUB AC0,AC2
0191c4: 3422_9ea0        XCCPART AC0 < #0 || NEG AC2,AC2
0191c8: 4a12             B #0x0191dc
0191ca: 7a80001a_2b20    MOV #-32768 << #16,AC1 || OR AC2,AC0
0191d0: 120c14           CMPU AC0 != AC1, TC1
0191d3: 6264             BCC #0x0191d9,TC1
0191d5: 3c04             MOV #0,T0
0191d7: 4a09             B #0x0191e2
0191d9: ec0020           BSET @#00h,AC2
0191dc: 3c04             MOV #0,T0
0191de: 3c14_9ec2        XCCPART AC2 > #0 || MOV #1,T0
0191e2: 4804             RET
0191e4:               __geqd:
0191e4: 1a0020           OR #0,AC0,AC2
0191e7: 1a0001           OR #0,AC1,AC0
0191ea: 7a7f803a         MOV #32640 << #16,AC3
0191ee: 1a0012           OR #0,AC2,AC1
0191f1: ec3e12           BCLR @#1fh,AC1
0191f4: 123814           CMPU AC3 >= AC1, TC1
0191f7: 65f4             BCC #0x019204,!TC1
0191f9: 1a0010           OR #0,AC0,AC1
0191fc: ec3e12           BCLR @#1fh,AC1
0191ff: 123814           CMPU AC3 >= AC1, TC1
019202: 6264             BCC #0x019208,TC1
019204: 3c04             MOV #0,T0
019206: 4a24             B #0x01922c
019208: 1a0012           OR #0,AC2,AC1
01920b: 2c01             XOR AC0,AC1
01920d: 6421             BCC #0x019217,AC1 < #0
01920f: 2602             SUB AC0,AC2
019211: 3422_9ea0        XCCPART AC0 < #0 || NEG AC2,AC2
019215: 4a0f             B #0x019226
019217: 7a80001a_2b20    MOV #-32768 << #16,AC1 || OR AC2,AC0
01921d: 120c14           CMPU AC0 != AC1, TC1
019220: 3c14_9ef4        XCCPART !TC1 || MOV #1,T0
019224: 6374             BCC #0x01922c,!TC1
019226: 3c04             MOV #0,T0
019228: 3c14_9ed2        XCCPART AC2 >= #0 || MOV #1,T0
01922c: 4804             RET
01922e:               __eqld:
01922e: 1a0020           OR #0,AC0,AC2
019231: 1a0001           OR #0,AC1,AC0
019234: 1a0012           OR #0,AC2,AC1
019237: 2c01             XOR AC0,AC1
019239: 65d1             BCC #0x019246,AC1 >= #0
01923b: 7a80000a_2b02    MOV #-32768 << #16,AC0 || OR AC0,AC2
019241: 122c04           CMPU AC2 != AC0, TC1
019244: 4a14             B #0x01925a
019246: 122000           CMP AC2 == AC0, TC1
019249: 3c04_9ef4        XCCPART !TC1 || MOV #0,T0
01924d: 047410           BCC #0x019260,!TC1
019250: 7a7f800a         MOV #32640 << #16,AC0
019254: ec3e22           BCLR @#1fh,AC2
019257: 120424           CMPU AC0 < AC2, TC1
01925a: 3c04             MOV #0,T0
01925c: 3c14_9ef4        XCCPART !TC1 || MOV #1,T0
019260: 4804             RET
019262:               __cmpd:
019262: 1a0020           OR #0,AC0,AC2
019265: 1a0001           OR #0,AC1,AC0
019268: 7a7f803a         MOV #32640 << #16,AC3
01926c: 1a0012           OR #0,AC2,AC1
01926f: ec3e12           BCLR @#1fh,AC1
019272: 123814           CMPU AC3 >= AC1, TC1
019275: 65f4             BCC #0x019282,!TC1
019277: 1a0010           OR #0,AC0,AC1
01927a: ec3e12           BCLR @#1fh,AC1
01927d: 123814           CMPU AC3 >= AC1, TC1
019280: 6364             BCC #0x019288,TC1
019282: 76800048         MOV #-32768,T0
019286: 4a30             B #0x0192b8
019288: 1a0012           OR #0,AC2,AC1
01928b: 2c01             XOR AC0,AC1
01928d: 042111           BCC #0x0192a1,AC1 < #0
019290: 2602             SUB AC0,AC2
019292: 3422_9ea0        XCCPART AC0 < #0 || NEG AC2,AC2
019296: 042219           BCC #0x0192b2,AC2 < #0
019299: 3c04             MOV #0,T0
01929b: 3c14_9ec2        XCCPART AC2 > #0 || MOV #1,T0
01929f: 4a17             B #0x0192b8
0192a1: 7a80001a_2b20    MOV #-32768 << #16,AC1 || OR AC2,AC0
0192a7: 120c14           CMPU AC0 != AC1, TC1
0192aa: 3c04_9ef4        XCCPART !TC1 || MOV #0,T0
0192ae: 6474             BCC #0x0192b8,!TC1
0192b0: 6252             BCC #0x0192b6,AC2 >= #0
0192b2: 3e14             MOV #-1,T0
0192b4: 4a02             B #0x0192b8
0192b6: 3c14             MOV #1,T0
0192b8: 4804             RET
0192ba:               _exp:
0192ba: 5066             PSH T2
0192bc: ed311801c000     MOV dbl(*(#01c000h)),AC1
0192c2: 50d5             PSHBOTH XAR5
0192c4: 4ef7             AADD #-9,SP
0192c6: eb0408           MOV AC0,dbl(@#02h)
0192c9: ed0408           MOV dbl(@#02h),AC0
0192cc: 6c019262         CALL __cmpd
0192d0: 9644             XCC T0 > #0
0192d2: e631020136b2     MOV #2,*(#0136b2h)
0192d8: 9644             XCC T0 > #0
0192da: ed310801c002     MOV dbl(*(#01c002h)),AC0
0192e0: 6d440184         BCC #0x019468,T0 > #0
0192e4: ed0408           MOV dbl(@#02h),AC0
0192e7: ed311801c004     MOV dbl(*(#01c004h)),AC1
0192ed: 6c019262         CALL __cmpd
0192f1: 9624             XCC T0 < #0
0192f3: ed310801c006     MOV dbl(*(#01c006h)),AC0
0192f9: 6d24016b         BCC #0x019468,T0 < #0
0192fd: ed0408           MOV dbl(@#02h),AC0
019300: ed311801c008     MOV dbl(*(#01c008h)),AC1
019306: 5000             SFTL AC0,#1
019308: 5001             SFTL AC0,#-1
01930a: 6c019262         CALL __cmpd
01930e: 9624             XCC T0 < #0
019310: ed310801c00a     MOV dbl(*(#01c00ah)),AC0
019316: 6d24014e         BCC #0x019468,T0 < #0
01931a: ed0408           MOV dbl(@#02h),AC0
01931d: ed311801c00c     MOV dbl(*(#01c00ch)),AC1
019323: 6c019470         CALL __mpyd
019327: eb0008           MOV AC0,dbl(@#00h)
01932a: ed311801c006     MOV dbl(*(#01c006h)),AC1
019330: ed0008           MOV dbl(@#00h),AC0
019333: eb0808           MOV AC0,dbl(@#04h)
019336: ed0808           MOV dbl(@#04h),AC0
019339: 6c019262         CALL __cmpd
01933d: 045436           BCC #0x019376,T0 >= #0
019340: ed0808           MOV dbl(@#04h),AC0
019343: 6c01a106         CALL __fixdi
019347: 6c01a1e6         CALL __fltid
01934b: ed0808_1b0010    MOV dbl(@#04h),AC0 || OR #0,AC0,AC1
019351: 6c019262         CALL __cmpd
019355: 040419           BCC #0x019371,T0 == #0
019358: ed0808           MOV dbl(@#04h),AC0
01935b: 6c01a1d6         CALL __negd
01935f: ed311801c00a     MOV dbl(*(#01c00ah)),AC1
019365: 6c018e76         CALL __addd
019369: 6c01a106         CALL __fixdi
01936d: 4a0c_3544        B #0x01937d || NEG T0,T0
019371: ed0008           MOV dbl(@#00h),AC0
019374: 4a0b             B #0x019381
019376: ed0008           MOV dbl(@#00h),AC0
019379: 6c01a106         CALL __fixdi
01937d: 6c01a1e6         CALL __fltid
019381: 6c01a106         CALL __fixdi
019385: 2246             MOV T0,T2
019387: 4016             ADD #1,T2
019389: 2264             MOV T2,T0
01938b: 6c01a1e6         CALL __fltid
01938f: eb0808           MOV AC0,dbl(@#04h)
019392: ed311801c006     MOV dbl(*(#01c006h)),AC1
019398: ed0408           MOV dbl(@#02h),AC0
01939b: 6c019262         CALL __cmpd
01939f: 045436           BCC #0x0193d8,T0 >= #0
0193a2: ed0408           MOV dbl(@#02h),AC0
0193a5: 6c01a106         CALL __fixdi
0193a9: 6c01a1e6         CALL __fltid
0193ad: ed0408_1b0010    MOV dbl(@#02h),AC0 || OR #0,AC0,AC1
0193b3: 6c019262         CALL __cmpd
0193b7: 040419           BCC #0x0193d3,T0 == #0
0193ba: ed0408           MOV dbl(@#02h),AC0
0193bd: 6c01a1d6         CALL __negd
0193c1: ed311801c00a     MOV dbl(*(#01c00ah)),AC1
0193c7: 6c018e76         CALL __addd
0193cb: 6c01a106         CALL __fixdi
0193cf: 4a0c_3544        B #0x0193df || NEG T0,T0
0193d3: ed0408           MOV dbl(@#02h),AC0
0193d6: 4a0b             B #0x0193e3
0193d8: ed0408           MOV dbl(@#02h),AC0
0193db: 6c01a106         CALL __fixdi
0193df: 6c01a1e6         CALL __fltid
0193e3: eb0008           MOV AC0,dbl(@#00h)
0193e6: ed311801c00e     MOV dbl(*(#01c00eh)),AC1
0193ec: ed0808           MOV dbl(@#04h),AC0
0193ef: 6c019470         CALL __mpyd
0193f3: ed0008_1b0010    MOV dbl(@#00h),AC0 || OR #0,AC0,AC1
0193f9: 6c01a18c         CALL __subd
0193fd: eb0c08           MOV AC0,dbl(@#06h)
019400: ed0018           MOV dbl(@#00h),AC1
019403: ed0408           MOV dbl(@#02h),AC0
019406: 6c01a18c         CALL __subd
01940a: ed0c08_1b0010    MOV dbl(@#06h),AC0 || OR #0,AC0,AC1
019410: 6c018e76         CALL __addd
019414: eb0008           MOV AC0,dbl(@#00h)
019417: ed311801c010     MOV dbl(*(#01c010h)),AC1
01941d: ed0808           MOV dbl(@#04h),AC0
019420: 6c019470         CALL __mpyd
019424: ed0008_1b0010    MOV dbl(@#00h),AC0 || OR #0,AC0,AC1
01942a: 6c01a18c         CALL __subd
01942e: ec31de013694     AMAR *(#013694h),XAR5
019434: eb0008           MOV AC0,dbl(@#00h)
019437: eda108           MOV dbl(*AR5),AC0
01943a: ed0018           MOV dbl(@#00h),AC1
01943d: 6c019470         CALL __mpyd
019441: 160059           MOV #5,BRC0
019444: 1402d4_0f000a    AADD #2,AR5 || RPTB #0x019454
01944a: eda318              MOV dbl(*AR5+),AC1
01944d: 6c018e76            CALL __addd
019451: ed0018              MOV dbl(@#00h),AC1
019454: 6c019470            CALL __mpyd
019458: ed311801c00a     MOV dbl(*(#01c00ah)),AC1
01945e: 6c018e76         CALL __addd
019462: 2264             MOV T2,T0
019464: 6c0196d2         CALL _ldexp
019468: 4e09             AADD #9,SP
01946a: 50d4             POPBOTH XAR5
01946c: 5062             POP T2
01946e: 4804             RET
019470:               __mpyd:
019470: 5066             PSH T2
019472: 4ef8             AADD #-8,SP
019474: eb0408           MOV AC0,dbl(@#02h)
019477: eb0018           MOV AC1,dbl(@#00h)
01947a: ed0408           MOV dbl(@#02h),AC0
01947d: eb0808           MOV AC0,dbl(@#04h)
019480: ed0838           MOV dbl(@#04h),AC3
019483: ed0008           MOV dbl(@#00h),AC0
019486: ec3e32           BCLR @#1fh,AC3
019489: eb0c08           MOV AC0,dbl(@#06h)
01948c: ed0c18           MOV dbl(@#06h),AC1
01948f: ed0808           MOV dbl(@#04h),AC0
019492: 7a80001a_2d10    MOV #-32768 << #16,AC1 || XOR AC1,AC0
019498: eb0808           MOV AC0,dbl(@#04h)
01949b: ed0808           MOV dbl(@#04h),AC0
01949e: 2810             AND AC1,AC0
0194a0: eb0808           MOV AC0,dbl(@#04h)
0194a3: 7a7f800a         MOV #32640 << #16,AC0
0194a7: ed0c18_133804    MOV dbl(@#06h),AC1 || CMPU AC3 >= AC0, TC1
0194ad: ec3e12           BCLR @#1fh,AC1
0194b0: 6d6400db         BCC #0x01958f,TC1
0194b4: 121804           CMPU AC1 >= AC0, TC1
0194b7: 6d6400ca         BCC #0x019585,TC1
0194bb: 103729           SFTL AC3,#-23,AC0
0194be: 2209             MOV AC0,AR1
0194c0: 3c00             MOV #0,AC0
0194c2: 6d0900ed         BCC #0x0195b3,AR1 == #0
0194c6: ec31be7fffff     AMAR *(#07fffffh),XAR3
0194cc: 90b2             MOV XAR3,AC2
0194ce: 2823             AND AC2,AC3
0194d0: 041322           BCC #0x0194f5,AC3 != #0
0194d3: ed0c18           MOV dbl(@#06h),AC1
0194d6: 105729           SFTL AC1,#-23,AC1
0194d9: 221c             MOV AC1,AR4
0194db: 18ffac           AND #255,AR4,AR2
0194de: 6d0a00d1         BCC #0x0195b3,AR2 == #0
0194e2: 90b1             MOV XAR3,AC1
0194e4: ed0c08_19ff6c    MOV dbl(@#06h),AC0 || AND #255,AR4,T2
0194ea: 7a00800a_2901    MOV #128 << #16,AC0 || AND AC0,AC1
0194f0: 06005b_2510      B #0x019550 || ADD AC1,AC0
0194f5: 109729           SFTL AC1,#-23,AC2
0194f8: 2226             MOV AC2,T2
0194fa: 6d0600b5         BCC #0x0195b3,T2 == #0
0194fe: 7a00800a         MOV #128 << #16,AC0
019502: 2403             ADD AC0,AC3
019504: 90b0             MOV XAR3,AC0
019506: 2801             AND AC0,AC1
019508: 040142           BCC #0x01954d,AC1 == #0
01950b: 7a00800a_2596    MOV #128 << #16,AC0 || ADD AR1,T2
019511: 2401             ADD AC0,AC1
019513: 1a0003           OR #0,AC3,AC0
019516: 6c019b89         CALL __frcmpyd
01951a: 7a04001a         MOV #1024 << #16,AC1
01951e: 120414           CMPU AC0 < AC1, TC1
019521: 6564             BCC #0x01952d,TC1
019523: 180110           AND #1,AC0,AC1
019526: 10073f           SFTL AC0,#-1,AC0
019529: 2a10_4116        OR AC1,AC0 || ADD #1,T2
01952d: 3c21             MOV #2,AC1
01952f: 180720           AND #7,AC0,AC2
019532: 122014           CMPU AC2 == AC1, TC1
019535: 4020_9ef4        XCCPART !TC1 || ADD #2,AC0
019539: 7a01001a         MOV #256 << #16,AC1
01953d: 10073e           SFTL AC0,#-2,AC0
019540: 120414           CMPU AC0 < AC1, TC1
019543: 5001_9ef4        XCCPART !TC1 || SFTL AC0,#-1
019547: 4016_9ef4        XCCPART !TC1 || ADD #1,T2
01954b: 4a05             B #0x019552
01954d: 1a0003           OR #0,AC3,AC0
019550: 2496             ADD AR1,T2
019552: 7c007f66         SUB #127,T2,T2
019556: 043614           BCC #0x01956d,T2 <= #0
019559: 7600ff98         MOV #255,AR1
01955d: 126490_21        CMP T2 < AR1, TC1 || NOP
019561: 3c00_9ef4        XCCPART !TC1 || MOV #0,AC0
019565: 7600ff68_9ef4    XCCPART !TC1 || MOV #255,T2
01956b: 4a04             B #0x019571
01956d: 3c06             MOV #0,T2
01956f: 3c00             MOV #0,AC0
019571: ec31be7fffff     AMAR *(#07fffffh),XAR3
019577: 90b1             MOV XAR3,AC1
019579: 2801             AND AC0,AC1
01957b: 2260             MOV T2,AC0
01957d: 104317           ADD AC0 << #23,AC1
019580: 1a0001           OR #0,AC1,AC0
019583: 4a2e             B #0x0195b3
019585: 120814           CMPU AC0 >= AC1, TC1
019588: 66f4             BCC #0x019597,!TC1
01958a: 04031f           BCC #0x0195ac,AC3 == #0
01958d: 4a24             B #0x0195b3
01958f: 1a0003           OR #0,AC3,AC0
019592: 120814           CMPU AC0 >= AC1, TC1
019595: 62e4             BCC #0x01959c,TC1
019597: ed0008           MOV dbl(@#00h),AC0
01959a: 4a1a             B #0x0195b6
01959c: 7a7f802a         MOV #32640 << #16,AC2
0195a0: 122804           CMPU AC2 >= AC0, TC1
0195a3: ed0408_9ef4      XCCPART !TC1 || MOV dbl(@#02h),AC0
0195a8: 6674             BCC #0x0195b6,!TC1
0195aa: 6391             BCC #0x0195b3,AC1 != #0
0195ac: 7a7f800a         MOV #32640 << #16,AC0
0195b0: 1a0100           OR #1,AC0,AC0
0195b3: ed0800           ADD dbl(@#04h),AC0,AC0
0195b6: 4e08             AADD #8,SP
0195b8: 5062             POP T2
0195ba: 4804             RET
0195bc:               _sqrt:
0195bc: 4ef9             AADD #-7,SP
0195be: eb0808           MOV AC0,dbl(@#04h)
0195c1: 7600ff18         MOV #255,AC1
0195c5: ed0808           MOV dbl(@#04h),AC0
0195c8: 108729           SFTL AC0,#-23,AC2
0195cb: 18ff22           AND #255,AC2,AC2
0195ce: 122c10           CMP AC2 != AC1, TC1
0195d1: 65e4             BCC #0x0195de,TC1
0195d3: 100709           SFTL AC0,#9,AC0
0195d6: 6310             BCC #0x0195de,AC0 != #0
0195d8: ed0808           MOV dbl(@#04h),AC0
0195db: 0600f0           B #0x0196ce
0195de: ed0808           MOV dbl(@#04h),AC0
0195e1: ed311801c01c     MOV dbl(*(#01c01ch)),AC1
0195e7: 6c019262         CALL __cmpd
0195eb: 6d3400c4         BCC #0x0196b3,T0 <= #0
0195ef: 9048             MOV XSP,XAR0
0195f1: ed0808           MOV dbl(@#04h),AC0
0195f4: 6c0197c4         CALL _frexp
0195f8: ed311801c01e     MOV dbl(*(#01c01eh)),AC1
0195fe: 6c019470         CALL __mpyd
019602: ed311801c020     MOV dbl(*(#01c020h)),AC1
019608: 6c018e76         CALL __addd
01960c: f700ffff         ADD #-1,@#00h
019610: dc0000           BTST #0,@#00h,TC1
019613: 6774             BCC #0x019623,!TC1
019615: f700ffff         ADD #-1,@#00h
019619: ed311801c022     MOV dbl(*(#01c022h)),AC1
01961f: 6c019470         CALL __mpyd
019623: a900             MOV @#00h,AR1
019625: 4449             SFTS AR1,#-1
019627: 3694             NOT AR1,T0
019629: 6c0196d2         CALL _ldexp
01962d: 160019           MOV #1,BRC0
019630: eb0408_0f0039    MOV AC0,dbl(@#02h) || RPTB #0x01966f
019636: ed0408              MOV dbl(@#02h),AC0
019639: ed0818              MOV dbl(@#04h),AC1
01963c: 6c019470            CALL __mpyd
019640: ed311801c024        MOV dbl(*(#01c024h)),AC1
019646: 6c019470            CALL __mpyd
01964a: ed0418              MOV dbl(@#02h),AC1
01964d: 6c019470            CALL __mpyd
019651: 1a0010              OR #0,AC0,AC1
019654: ed310801c024        MOV dbl(*(#01c024h)),AC0
01965a: 6c01a18c            CALL __subd
01965e: ed0418              MOV dbl(@#02h),AC1
019661: 6c019470            CALL __mpyd
019665: ed0408_1b0010       MOV dbl(@#02h),AC0 || OR #0,AC0,AC1
01966b: 6c018e76            CALL __addd
01966f: eb0408              MOV AC0,dbl(@#02h)
019672: ed0408           MOV dbl(@#02h),AC0
019675: ed0818           MOV dbl(@#04h),AC1
019678: 6c019470         CALL __mpyd
01967c: eb0808           MOV AC0,dbl(@#04h)
01967f: ed311801c024     MOV dbl(*(#01c024h)),AC1
019685: ed0808           MOV dbl(@#04h),AC0
019688: 6c019470         CALL __mpyd
01968c: ed0418           MOV dbl(@#02h),AC1
01968f: 6c019470         CALL __mpyd
019693: 1a0010           OR #0,AC0,AC1
019696: ed310801c024     MOV dbl(*(#01c024h)),AC0
01969c: 6c01a18c         CALL __subd
0196a0: ed0818           MOV dbl(@#04h),AC1
0196a3: 6c019470         CALL __mpyd
0196a7: ed0808_1b0010    MOV dbl(@#04h),AC0 || OR #0,AC0,AC1
0196ad: 6c018e76         CALL __addd
0196b1: 4a1b             B #0x0196ce
0196b3: ed0808           MOV dbl(@#04h),AC0
0196b6: ed311801c01c     MOV dbl(*(#01c01ch)),AC1
0196bc: 6c019262         CALL __cmpd
0196c0: ed310801c01c     MOV dbl(*(#01c01ch)),AC0
0196c6: 9614             XCC T0 != #0
0196c8: e631010136b2     MOV #1,*(#0136b2h)
0196ce: 4e07             AADD #7,SP
0196d0: 4804             RET
0196d2:               _ldexp:
0196d2: 5066             PSH T2
0196d4: 4efc             AADD #-4,SP
0196d6: eb0408           MOV AC0,dbl(@#02h)
0196d9: ed0408           MOV dbl(@#02h),AC0
0196dc: eb0008           MOV AC0,dbl(@#00h)
0196df: ab00             MOV @#00h,AR3
0196e1: 22b0             MOV AR3,AC0
0196e3: 100539_2346      SFTS AC0,#-7,AC0 || MOV T0,T2
0196e8: 18ffa0           AND #255,AC0,AR2
0196eb: 18ff90           AND #255,AC0,AR1
0196ee: 041a30           BCC #0x019721,AR2 != #0
0196f1: ed0008           MOV dbl(@#00h),AC0
0196f4: ed311801c012     MOV dbl(*(#01c012h)),AC1
0196fa: 6c019262         CALL __cmpd
0196fe: 04042a           BCC #0x01972b,T0 == #0
019701: ed0008           MOV dbl(@#00h),AC0
019704: ed311801c014     MOV dbl(*(#01c014h)),AC1
01970a: 6c019470         CALL __mpyd
01970e: eb0008           MOV AC0,dbl(@#00h)
019711: ab00             MOV @#00h,AR3
019713: 22b0             MOV AR3,AC0
019715: 100539           SFTS AC0,#-7,AC0
019718: 18ff90           AND #255,AC0,AR1
01971b: 7c001899         SUB #24,AR1,AR1
01971f: 4a10             B #0x019731
019721: 7600ffa8         MOV #255,AR2
019725: 129ca0_21        CMP AR1 != AR2, TC1 || NOP
019729: 6364             BCC #0x019731,TC1
01972b: ed0408           MOV dbl(@#02h),AC0
01972e: 06008d           B #0x0197be
019731: 7600fea8         MOV #254,AR2
019735: 269a             SUB AR1,AR2
019737: 12a460_21        CMP AR2 < T2, TC1 || NOP
01973b: 046454           BCC #0x019792,TC1
01973e: 3c1a             MOV #1,AR2
019740: 269a             SUB AR1,AR2
019742: 1264a0_21        CMP T2 < AR2, TC1 || NOP
019746: 046412           BCC #0x01975b,TC1
019749: 2260             MOV T2,AC0
01974b: 7d807f9b_2590    AND #32895,AR3,AR1 || ADD AR1,AC0
019751: 100507           SFTS AC0,#7,AC0
019754: 2a90             OR AR1,AC0
019756: c000             MOV AC0,@#00h
019758: 060060           B #0x0197bb
01975b: 76ffeaa8         MOV #-22,AR2
01975f: 269a             SUB AR1,AR2
019761: 1268a0_21        CMP T2 >= AR2, TC1 || NOP
019765: 9674             XCC !TC1
019767: ed310801c012     MOV dbl(*(#01c012h)),AC0
01976d: 04744e           BCC #0x0197be,!TC1
019770: 2260             MOV T2,AC0
019772: 7d807fab_2590    AND #32895,AR3,AR2 || ADD AR1,AC0
019778: 100507           SFTS AC0,#7,AC0
01977b: 7b0c0090         ADD #3072,AC0,AR1
01977f: 2aa9             OR AR2,AR1
019781: c900             MOV AR1,@#00h
019783: ed311801c016     MOV dbl(*(#01c016h)),AC1
019789: ed0008           MOV dbl(@#00h),AC0
01978c: 6c019470         CALL __mpyd
019790: 4a2c             B #0x0197be
019792: ed0408           MOV dbl(@#02h),AC0
019795: e631020136b2     MOV #2,*(#0136b2h)
01979b: ed311801c012     MOV dbl(*(#01c012h)),AC1
0197a1: 6c019262         CALL __cmpd
0197a5: ed310801c018     MOV dbl(*(#01c018h)),AC0
0197ab: eb0008_9e54      XCC T0 >= #0 || MOV AC0,dbl(@#00h)
0197b0: ed310801c01a     MOV dbl(*(#01c01ah)),AC0
0197b6: eb0008_9e24      XCC T0 < #0 || MOV AC0,dbl(@#00h)
0197bb: ed0008           MOV dbl(@#00h),AC0
0197be: 4e04             AADD #4,SP
0197c0: 5062             POP T2
0197c2: 4804             RET
0197c4:               _frexp:
0197c4: 3876             PSH T3,T2
0197c6: 50d5             PSHBOTH XAR5
0197c8: 4efc             AADD #-4,SP
0197ca: eb0408           MOV AC0,dbl(@#02h)
0197cd: ed0408           MOV dbl(@#02h),AC0
0197d0: eb0008           MOV AC0,dbl(@#00h)
0197d3: a600             MOV @#00h,T2
0197d5: 2260             MOV T2,AC0
0197d7: 100539           SFTS AC0,#-7,AC0
0197da: 18ff90           AND #255,AC0,AR1
0197dd: ec01de_19ff70    AMAR *AR0,XAR5 || AND #255,AC0,T3
0197e3: 04193c           BCC #0x019822,AR1 != #0
0197e6: ed0008           MOV dbl(@#00h),AC0
0197e9: ed311801c02e     MOV dbl(*(#01c02eh)),AC1
0197ef: 6c019262         CALL __cmpd
0197f3: e6a100_9e04      XCC T0 == #0 || MOV #0,*AR5
0197f8: ed0408_9e84      XCCPART T0 == #0 || MOV dbl(@#02h),AC0
0197fd: 6d040087         BCC #0x019888,T0 == #0
019801: ed0408           MOV dbl(@#02h),AC0
019804: ed311801c030     MOV dbl(*(#01c030h)),AC1
01980a: 6c019470         CALL __mpyd
01980e: eb0008           MOV AC0,dbl(@#00h)
019811: a600             MOV @#00h,T2
019813: 2260             MOV T2,AC0
019815: 100539           SFTS AC0,#-7,AC0
019818: 18ff90           AND #255,AC0,AR1
01981b: 7c001879         SUB #24,AR1,T3
01981f: 060053           B #0x019875
019822: 7600ff98         MOV #255,AR1
019826: 127c90_21        CMP T3 != AR1, TC1 || NOP
01982a: 046448           BCC #0x019875,TC1
01982d: ed0008           MOV dbl(@#00h),AC0
019830: ed311801c032     MOV dbl(*(#01c032h)),AC1
019836: 6c019262         CALL __cmpd
01983a: 042429           BCC #0x019866,T0 < #0
01983d: ed0008           MOV dbl(@#00h),AC0
019840: ed311801c034     MOV dbl(*(#01c034h)),AC1
019846: 6c019262         CALL __cmpd
01984a: 044411           BCC #0x01985e,T0 > #0
01984d: e631010136b2     MOV #1,*(#0136b2h)
019853: ed310801c02e     MOV dbl(*(#01c02eh)),AC0
019859: e6a100           MOV #0,*AR5
01985c: 4a2a             B #0x019888
01985e: ed310801c034     MOV dbl(*(#01c034h)),AC0
019864: 4a06             B #0x01986c
019866: ed310801c032     MOV dbl(*(#01c032h)),AC0
01986c: eb0008           MOV AC0,dbl(@#00h)
01986f: e631010136b2     MOV #1,*(#0136b2h)
019875: 7c007e77         SUB #126,T3,T3
019879: 7d807f96         AND #32895,T2,AR1
01987d: c7a1             MOV T3,*AR5
01987f: 7e3f0099         OR #16128,AR1,AR1
019883: c900             MOV AR1,@#00h
019885: ed0008           MOV dbl(@#00h),AC0
019888: 4e04             AADD #4,SP
01988a: 50d4             POPBOTH XAR5
01988c: 3a76             POP T3,T2
01988e: 4804             RET
019890:               _writemsg:
019890:               .text:CIO_breakpoint:
019890: 7600f9a8_5166    MOV #249,AR2 || PSH T2
019896: ec31be007000     AMAR *(#07000h),XAR3
01989c: c561_1340a4      MOV T1,*AR3 || CMPU T0 == AR2, TC1
0198a1: c473             MOV T0,*(AR3+T1)
0198a3: 6d64009a         BCC #0x019941,TC1
0198a7: 160079           MOV #7,BRC0
0198aa: 0e003e_3d02      RPTB #0x0198ed || MOV #0,AC2
0198af: ec0028              BTST @#00h,AC2,TC1
0198b2: 04641f              BCC #0x0198d4,TC1
0198b5: 76fffea2            BFXTR #65534,AC2,AR2
0198b9: 90b0                MOV XAR3,AC0
0198bb: 7dffff1a            AND #65535,AR2,AC1
0198bf: 2410                ADD AC1,AC0
0198c1: 106703              SFTL AC2,#3,AC1
0198c4: 361a                NOT AC1,AR2
0198c6: 18086a              AND #8,AR2,T2
0198c9: 900a                MOV AC0,XAR2
0198cb: df0333              MOV uns(low_byte(*AR0+)),AC3
0198ce: 5c78                SFTL AC3,T2,AC1
0198d0: c155                MOV AC1,*(AR2-T1)
0198d2: 4a19                B #0x0198ed
0198d4: 76fffea2            BFXTR #65534,AC2,AR2
0198d8: 90b0                MOV XAR3,AC0
0198da: 7dffff1a            AND #65535,AR2,AC1
0198de: 2410                ADD AC1,AC0
0198e0: 900a                MOV AC0,XAR2
0198e2: 8d03af1cc302        MOV uns(low_byte(*AR0+)),AR4 || AADD #2,AR2
0198e8: da41cc              OR *AR2,AR4,AR4
0198eb: cc41                MOV AR4,*AR2
0198ed: 4012                ADD #1,AC2
0198ef: 04054f           BCC #0x019941,T1 == #0
0198f2: 7c0001a5         SUB #1,T1,AR2
0198f6: 52ae             MOV AR2,BRC0
0198f8: 0e0042_3d02      RPTB #0x01993f || MOV #0,AC2
0198fd: ec0028              BTST @#00h,AC2,TC1
019900: 046421              BCC #0x019924,TC1
019903: 7b0008a2            ADD #8,AC2,AR2
019907: 50a1                SFTL AR2,#-1
019909: 90b0                MOV XAR3,AC0
01990b: 7dffff1a            AND #65535,AR2,AC1
01990f: 2410                ADD AC1,AC0
019911: 106703              SFTL AC2,#3,AC1
019914: 361a                NOT AC1,AR2
019916: 18085a              AND #8,AR2,T1
019919: 900a                MOV AC0,XAR2
01991b: df2333              MOV uns(low_byte(*AR1+)),AC3
01991e: 5c74                SFTL AC3,T1,AC1
019920: c155                MOV AC1,*(AR2-T1)
019922: 4a1b                B #0x01993f
019924: 7b0008a2            ADD #8,AC2,AR2
019928: 50a1                SFTL AR2,#-1
01992a: 90b0                MOV XAR3,AC0
01992c: 7dffff1a            AND #65535,AR2,AC1
019930: 2410                ADD AC1,AC0
019932: 900a                MOV AC0,XAR2
019934: 8d23af1cc302        MOV uns(low_byte(*AR1+)),AR4 || AADD #2,AR2
01993a: da41cc              OR *AR2,AR4,AR4
01993d: cc41                MOV AR4,*AR2
01993f: 4012                ADD #1,AC2
019941: 20               NOP
019942: 20               NOP
019943: 20               NOP
019944: 20               NOP
019945:               C$$IO$$:
019945: 20               NOP
019946: 5062             POP T2
019948: 4804             RET
01994a:               __divul:
01994a: 120814           CMPU AC0 >= AC1, TC1
01994d: 108700           SFTL AC0,#0,AC2
019950: 3c03_9ef4        XCCPART !TC1 || MOV #0,AC3
019954: 102820_5166      EXP AC2,T2 || PSH T2
019959: 109700           SFTL AC1,#0,AC2
01995c: 102810_21        EXP AC2,T1 || NOP
019960: 2665             SUB T2,T1
019962: 04747f           BCC #0x0199e4,!TC1
019965: 3c03_9e80        XCCPART AC0 == #0 || MOV #0,AC3
019969: 040078           BCC #0x0199e4,AC0 == #0
01996c: 7affff3a_9e81    XCCPART AC1 == #0 || MOV #-1 << #16,AC3
019972: 7effff33_9e81    XCCPART AC1 == #0 || OR #65535,AC3,AC3
019978: 040169           BCC #0x0199e4,AC1 == #0
01997b: 3e19_5d94        MOV #-1,AR1 || SFTL AC1,T1,AC2
01997f: 126c90_3d01      CMP T2 != AR1, TC1 || MOV #0,AC1
019984: 3c11_9ef4        XCCPART !TC1 || MOV #1,AC1
019988: 120824           CMPU AC0 >= AC2, TC1
01998b: 5cd4             SFTL AC1,T1,AC3
01998d: 5031_9ef4        XCCPART !TC1 || SFTL AC3,#-1
019991: 040115           BCC #0x0199a9,AC1 == #0
019994: 120424           CMPU AC0 < AC2, TC1
019997: 2620_9ef4        XCCPART !TC1 || SUB AC2,AC0
01999b: 5021_9ef4        XCCPART !TC1 || SFTL AC2,#-1
01999f: 5021_9ee4        XCCPART TC1 || SFTL AC2,#-1
0199a3: 2620_9ee4        XCCPART TC1 || SUB AC2,AC0
0199a7: 4a02             B #0x0199ab
0199a9: 4015             ADD #1,T1
0199ab: 043520           BCC #0x0199ce,T1 <= #0
0199ae: 7c000195         SUB #1,T1,AR1
0199b2: 529e             MOV AR1,BRC0
0199b4: 4a95             RPTBLOCAL _coverage_log-32
0199b6: 120424_3d09         CMPU AC0 < AC2, TC1 || MOV #0,AR1
0199bb: 3c19_9ef4           XCCPART !TC1 || MOV #1,AR1
0199bf: 120424              CMPU AC0 < AC2, TC1
0199c2: 2291                MOV AR1,AC1
0199c4: 2620_9ef4           XCCPART !TC1 || SUB AC2,AC0
0199c8: 104101              OR AC0 << #1, AC1
0199cb: 1a0001              OR #0,AC1,AC0
0199ce: 040513           BCC #0x0199e4,T1 == #0
0199d1: 76002098         MOV #32,AR1
0199d5: 2659             SUB T1,AR1
0199d7: 2295             MOV AR1,T1
0199d9: 5c04             SFTL AC0,T1,AC0
0199db: 3455             NEG T1,T1
0199dd: 5c04             SFTL AC0,T1,AC0
0199df: 2a30             OR AC3,AC0
0199e1: 1a0030           OR #0,AC0,AC3
0199e4: 5062             POP T2
0199e6: 1a0003           OR #0,AC3,AC0
0199e9: 4804             RET
0199eb:               _coverage_log:
0199eb: 5046             PSH T0
0199ed: 5056             PSH T1
0199ef: 5066             PSH T2
0199f1: 5076             PSH T3
0199f3: 5085             PSHBOTH XAR0
0199f5: 5095             PSHBOTH XAR1
0199f7: 50a5             PSHBOTH XAR2
0199f9: 50b5             PSHBOTH XAR3
0199fb: 50c5             PSHBOTH XAR4
0199fd: 50d5             PSHBOTH XAR5
0199ff: 50e5             PSHBOTH XAR6
019a01: 50f5             PSHBOTH XAR7
019a03: 5005             PSHBOTH AC0
019a05: 5015             PSHBOTH AC1
019a07: 5025             PSHBOTH AC2
019a09: 5035             PSHBOTH AC3
019a0b: 4efd             AADD #-3,SP
019a0d: eb0004           MOV RETA,dbl(@#00h)
019a10: ed0008           MOV dbl(@#00h),AC0
019a13: 4240             SUB #4,AC0
019a15: 180140           AND #1,AC0,T0
019a18: 5001             SFTL AC0,#-1
019a1a: 9008             MOV AC0,XAR0
019a1c: 76002098         MOV #32,AR1
019a20: 040412           BCC even,T0 == #0
019a23:               odd:
019a23: e50195           MOV AR1,low_byte(*AR0)
019a26: 4018             ADD #1,AR0
019a28: e50194           MOV AR1,high_byte(*AR0)
019a2b: e50195           MOV AR1,low_byte(*AR0)
019a2e: 4018             ADD #1,AR0
019a30: e50194           MOV AR1,high_byte(*AR0)
019a33: 4a10             B map_store
019a35:               even:
019a35: e50195           MOV AR1,low_byte(*AR0)
019a38: e50194           MOV AR1,high_byte(*AR0)
019a3b: 4018             ADD #1,AR0
019a3d: e50195           MOV AR1,low_byte(*AR0)
019a40: e50194           MOV AR1,high_byte(*AR0)
019a43: 4018             ADD #1,AR0
019a45:               map_store:
019a45: ed0008           MOV dbl(@#00h),AC0
019a48: 4240             SUB #4,AC0
019a4a:               finish:
019a4a: ed31af01351c     MOV dbl(*(#01351ch)),XAR2
019a50: eb4108           MOV AC0,dbl(*AR2)
019a53: 1402a4           AADD #2,AR2
019a56: eb31a501351c     MOV XAR2,dbl(*(#01351ch))
019a5c: e63101013523     MOV #1,*(#013523h)
019a62: 4e03             AADD #3,SP
019a64: 5034             POPBOTH AC3
019a66: 5024             POPBOTH AC2
019a68: 5014             POPBOTH AC1
019a6a: 5004             POPBOTH AC0
019a6c: 50f4             POPBOTH XAR7
019a6e: 50e4             POPBOTH XAR6
019a70: 50d4             POPBOTH XAR5
019a72: 50c4             POPBOTH XAR4
019a74: 50b4             POPBOTH XAR3
019a76: 50a4             POPBOTH XAR2
019a78: 5094             POPBOTH XAR1
019a7a: 5084             POPBOTH XAR0
019a7c: 5072             POP T3
019a7e: 5062             POP T2
019a80: 5052             POP T1
019a82: 5042             POP T0
019a84: 4804             RET
019a86:               _IRQ_plug:
019a86: 50b5             PSHBOTH XAR3
019a88: 50a5             PSHBOTH XAR2
019a8a: 4ef7             AADD #-9,SP
019a8c: eb0408           MOV AC0,dbl(@#02h)
019a8f: c40e             MOV T0,@#07h
019a91: 3c00             MOV #0,AC0
019a93: 900a             MOV AC0,XAR2
019a95: 900b             MOV AC0,XAR3
019a97: 6c017f59         CALL _IRQ_globalDisable
019a9b: c410             MOV T0,@#08h
019a9d: 20               NOP
019a9e: 20               NOP
019a9f: 20               NOP
019aa0: 20               NOP
019aa1: 20               NOP
019aa2: ec31ae000049     AMAR *(#00049h),XAR2
019aa8: 20               NOP
019aa9: 20               NOP
019aaa: 20               NOP
019aab: 20               NOP
019aac: 20               NOP
019aad: a10e             MOV @#07h,AC1
019aaf: 181831           AND #24,AC1,AC3
019ab2: 7c001033         SUB #16,AC3,AC3
019ab6: 9603             XCC AC3 == #0
019ab8: ec31ae00004a     AMAR *(#0004ah),XAR2
019abe: 105503           SFTS AC1,#3,AC1
019ac1: a041             MOV *AR2,AC0
019ac3: 100504           SFTS AC0,#4,AC0
019ac6: 100504           SFTS AC0,#4,AC0
019ac9: 2a10             OR AC1,AC0
019acb: 10053f           SFTS AC0,#-1,AC0
019ace: eb0008           MOV AC0,dbl(@#00h)
019ad1: ed0408           MOV dbl(@#02h),AC0
019ad4: ed00bf           MOV dbl(@#00h),XAR3
019ad7: a90e             MOV @#07h,AR1
019ad9: 180fa9           AND #15,AR1,AR2
019adc: eb6108           MOV AC0,dbl(*AR3)
019adf: 765e8038         MOV #24192,AC3
019ae3: 402b             ADD #2,AR3
019ae5: c361             MOV AC3,*AR3
019ae7: 401b             ADD #1,AR3
019ae9: c361             MOV AC3,*AR3
019aeb: 22a4             MOV AR2,T0
019aed: 181099           AND #16,AR1,AR1
019af0: 3c10             MOV #1,AC0
019af2: 5c00             SFTL AC0,T0,AC0
019af4: 2203             MOV AC0,AC3
019af6: 6319             BCC LIFR1,AR1 != #0
019af8: 3c1a             MOV #1,AR2
019afa: c341             MOV AC3,*AR2
019afc: 4a06             B RESTORE_INTM
019afe:               LIFR1:
019afe: 760046a8         MOV #70,AR2
019b02: c341             MOV AC3,*AR2
019b04:               RESTORE_INTM:
019b04: a410             MOV @#08h,T0
019b06: 6c017f8b         CALL _IRQ_globalRestore
019b0a:               EPILOGUE:
019b0a: 4e09             AADD #9,SP
019b0c: 50a4             POPBOTH XAR2
019b0e: 50b4             POPBOTH XAR3
019b10: 4804             RET
019b12:               __fixdul:
019b12: 1a0020           OR #0,AC0,AC2
019b15: 106729           SFTL AC2,#-23,AC1
019b18: 18ff91           AND #255,AC1,AR1
019b1b: 3c00_9e89        XCCPART AR1 == #0 || MOV #0,AC0
019b1f: 040965           BCC #0x019b87,AR1 == #0
019b22: 18ffa1           AND #255,AC1,AR2
019b25: 76009e98         MOV #158,AR1
019b29: 26a9             SUB AR2,AR1
019b2b: 042940           BCC #0x019b6e,AR1 < #0
019b2e: 760020a8         MOV #32,AR2
019b32: 1294a0_21        CMP AR1 < AR2, TC1 || NOP
019b36: 3c00_9ef4        XCCPART !TC1 || MOV #0,AC0
019b3a: 04744a           BCC #0x019b87,!TC1
019b3d: ec31be7fffff     AMAR *(#07fffffh),XAR3
019b43: 90b1             MOV XAR3,AC1
019b45: 2821             AND AC2,AC1
019b47: 109708           SFTL AC1,#8,AC2
019b4a: 7a80001a         MOV #-32768 << #16,AC1
019b4e: 2421             ADD AC2,AC1
019b50: 1a0020           OR #0,AC0,AC2
019b53: 7a80000a_3595    MOV #-32768 << #16,AC0 || NEG AR1,T1
019b59: 2820             AND AC2,AC0
019b5b: 5c54             SFTL AC1,T1,AC1
019b5d: 6500             BCC #0x019b69,AC0 == #0
019b5f: 6221             BCC #0x019b65,AC1 < #0
019b61: 3411             NEG AC1,AC1
019b63: 4a04             B #0x019b69
019b65: 7a80001a         MOV #-32768 << #16,AC1
019b69: 1a0001           OR #0,AC1,AC0
019b6c: 4a19             B #0x019b87
019b6e: 1a0020           OR #0,AC0,AC2
019b71: 7a80000a         MOV #-32768 << #16,AC0
019b75: 2820             AND AC2,AC0
019b77: 6300             BCC #0x019b7f,AC0 == #0
019b79: 7a80000a         MOV #-32768 << #16,AC0
019b7d: 4a08             B #0x019b87
019b7f: 7affff0a         MOV #-1 << #16,AC0
019b83: 7effff00         OR #65535,AC0,AC0
019b87: 4804             RET
019b89:               __frcmpyd:
019b89: 10d706           SFTL AC1,#6,AC3
019b8c: 223a_114706      MOV AC3,AR2 || SFTL AC0,#6,AC1
019b91: 4efb             AADD #-5,SP
019b93: 52a0             MOV AR2,HI(AC0)
019b95: 100700_2319      SFTL AC0,#0,AC0 || MOV AC1,AR1
019b9a: 1a0020           OR #0,AC0,AC2
019b9d: 5290             MOV AR1,HI(AC0)
019b9f: 7affff04         AND #65535 << 16,AC0,AC0
019ba3: 5426             MPY AC2,AC0
019ba5: 7affffe4         AND #65535 << 16,AC3,AC2
019ba9: eb0008_53a0      MOV AC0,dbl(@#00h) || MOV AR2,HI(AC0)
019bae: 104700_451b      SFTL AC0,#0,AC1 || MOV HI(AC1),AR3
019bb3: 10f700           SFTL AC3,#0,AC3
019bb6: 52b0             MOV AR3,HI(AC0)
019bb8: 7affff04         AND #65535 << 16,AC0,AC0
019bbc: 5416             MPY AC1,AC0
019bbe: eb0408_5390      MOV AC0,dbl(@#02h) || MOV AR1,HI(AC0)
019bc3: 100700           SFTL AC0,#0,AC0
019bc6: ed0008_5586      MOV dbl(@#00h),AC0 || MPY AC0,AC2
019bcb: 104730           SFTL AC0,#-16,AC1
019bce: ed0450           ADD dbl(@#02h),AC1,AC1
019bd1: 52b0             MOV AR3,HI(AC0)
019bd3: 2421             ADD AC2,AC1
019bd5: 105730           SFTL AC1,#-16,AC1
019bd8: 7affff04         AND #65535 << 16,AC0,AC0
019bdc: 5436             MPY AC3,AC0
019bde: ed0408_2501      MOV dbl(@#02h),AC0 || ADD AC0,AC1
019be3: ed0028_2b20      MOV dbl(@#00h),AC2 || OR AC2,AC0
019be8: 2a20             OR AC2,AC0
019bea: 180121           AND #1,AC1,AC2
019bed: 108110_3d03      OR AC0 << #16, AC2 || MOV #0,AC3
019bf2: 3c13_9e92        XCCPART AC2 != #0 || MOV #1,AC3
019bf6: 10173f           SFTL AC1,#-1,AC0
019bf9: 2a30             OR AC3,AC0
019bfb: 4e05             AADD #5,SP
019bfd: 4804             RET
019bff:               __frcmpyd_div:
019bff: 4ef7             AADD #-9,SP
019c01: eb0018           MOV AC1,dbl(@#00h)
019c04: ed0008_1b0030    MOV dbl(@#00h),AC0 || OR #0,AC0,AC3
019c0a: 7dffff00         AND #65535,AC0,AC0
019c0e: eb0408           MOV AC0,dbl(@#02h)
019c11: ed0418_113730    MOV dbl(@#02h),AC1 || SFTL AC3,#-16,AC0
019c17: 6c01a1a0         CALL I$$LMPY
019c1b: 7dffff23         AND #65535,AC3,AC2
019c1f: eb0808           MOV AC0,dbl(@#04h)
019c22: ed0008_1b0012    MOV dbl(@#00h),AC0 || OR #0,AC2,AC1
019c28: 100730           SFTL AC0,#-16,AC0
019c2b: 6c01a1a0         CALL I$$LMPY
019c2f: eb0c08           MOV AC0,dbl(@#06h)
019c32: ed0418_1b0002    MOV dbl(@#02h),AC1 || OR #0,AC2,AC0
019c38: 6c01a1a0         CALL I$$LMPY
019c3c: 108730           SFTL AC0,#-16,AC2
019c3f: ed0018_113730    MOV dbl(@#00h),AC1 || SFTL AC3,#-16,AC0
019c45: ed0ca0           ADD dbl(@#06h),AC2,AC2
019c48: 105730           SFTL AC1,#-16,AC1
019c4b: 6c01a1a0         CALL I$$LMPY
019c4f: 10e730           SFTL AC2,#-16,AC3
019c52: 7dffff22         AND #65535,AC2,AC2
019c56: ed0818           MOV dbl(@#04h),AC1
019c59: 105730           SFTL AC1,#-16,AC1
019c5c: 2431             ADD AC3,AC1
019c5e: ed0808_2501      MOV dbl(@#04h),AC0 || ADD AC0,AC1
019c63: 7dffff00         AND #65535,AC0,AC0
019c67: 2420             ADD AC2,AC0
019c69: 100730           SFTL AC0,#-16,AC0
019c6c: 2410             ADD AC1,AC0
019c6e: 4e09             AADD #9,SP
019c70: 4804             RET
019c72:               __remul:
019c72: 108700           SFTL AC0,#0,AC2
019c75: 120814           CMPU AC0 >= AC1, TC1
019c78: 102820_5166      EXP AC2,T2 || PSH T2
019c7d: 109700           SFTL AC1,#0,AC2
019c80: 102810_21        EXP AC2,T1 || NOP
019c84: 2665             SUB T2,T1
019c86: 047457           BCC #0x019ce0,!TC1
019c89: 6290             BCC #0x019c90,AC0 != #0
019c8b: 3c00             MOV #0,AC0
019c8d: 060050           B #0x019ce0
019c90: 3c00_9e81        XCCPART AC1 == #0 || MOV #0,AC0
019c94: 040149           BCC #0x019ce0,AC1 == #0
019c97: 3e19             MOV #-1,AR1
019c99: 126c90_21        CMP T2 != AR1, TC1 || NOP
019c9d: 5c54             SFTL AC1,T1,AC1
019c9f: 046415           BCC #0x019cb7,TC1
019ca2: 120414           CMPU AC0 < AC1, TC1
019ca5: 2610_9ef4        XCCPART !TC1 || SUB AC1,AC0
019ca9: 5011_9ef4        XCCPART !TC1 || SFTL AC1,#-1
019cad: 5011_9ee4        XCCPART TC1 || SFTL AC1,#-1
019cb1: 2610_9ee4        XCCPART TC1 || SUB AC1,AC0
019cb5: 4a02             B #0x019cb9
019cb7: 4015             ADD #1,T1
019cb9: 043520           BCC #0x019cdc,T1 <= #0
019cbc: 7c000195         SUB #1,T1,AR1
019cc0: 529e             MOV AR1,BRC0
019cc2: 4a95             RPTBLOCAL __fixdli-11
019cc4: 120414_3d09         CMPU AC0 < AC1, TC1 || MOV #0,AR1
019cc9: 3c19_9ef4           XCCPART !TC1 || MOV #1,AR1
019ccd: 120414              CMPU AC0 < AC1, TC1
019cd0: 2292                MOV AR1,AC2
019cd2: 2610_9ef4           XCCPART !TC1 || SUB AC1,AC0
019cd6: 108101              OR AC0 << #1, AC2
019cd9: 1a0002              OR #0,AC2,AC0
019cdc: 3455             NEG T1,T1
019cde: 5c04             SFTL AC0,T1,AC0
019ce0: 5062             POP T2
019ce2: 4804             RET
019ce4:               __fixdli:
019ce4: 1a0020           OR #0,AC0,AC2
019ce7: 106729           SFTL AC2,#-23,AC1
019cea: 18ff91           AND #255,AC1,AR1
019ced: 3c00_9e89        XCCPART AR1 == #0 || MOV #0,AC0
019cf1: 04095d           BCC #0x019d51,AR1 == #0
019cf4: 18ffa1           AND #255,AC1,AR2
019cf7: 76009e98         MOV #158,AR1
019cfb: 26a9             SUB AR2,AR1
019cfd: 043938           BCC #0x019d38,AR1 <= #0
019d00: 760020a8         MOV #32,AR2
019d04: 1294a0_21        CMP AR1 < AR2, TC1 || NOP
019d08: 3c00_9ef4        XCCPART !TC1 || MOV #0,AC0
019d0c: 047442           BCC #0x019d51,!TC1
019d0f: ec31be7fffff     AMAR *(#07fffffh),XAR3
019d15: 90b1             MOV XAR3,AC1
019d17: 7a00802a_2921    MOV #128 << #16,AC2 || AND AC2,AC1
019d1d: 2412             ADD AC1,AC2
019d1f: 106708           SFTL AC2,#8,AC1
019d22: 1a0020           OR #0,AC0,AC2
019d25: 7a80000a_3595    MOV #-32768 << #16,AC0 || NEG AR1,T1
019d2b: 2820             AND AC2,AC0
019d2d: 5c54             SFTL AC1,T1,AC1
019d2f: 3411_9e90        XCCPART AC0 != #0 || NEG AC1,AC1
019d33: 1a0001           OR #0,AC1,AC0
019d36: 4a19             B #0x019d51
019d38: 1a0020           OR #0,AC0,AC2
019d3b: 7a80000a         MOV #-32768 << #16,AC0
019d3f: 2820             AND AC2,AC0
019d41: 6510             BCC #0x019d4d,AC0 != #0
019d43: 7a7fff0a         MOV #32767 << #16,AC0
019d47: 7effff00         OR #65535,AC0,AC0
019d4b: 4a04             B #0x019d51
019d4d: 7a80000a         MOV #-32768 << #16,AC0
019d51: 4804             RET
019d53:               reset_isr:
019d53: 46b3             BSET ST1_INTM
019d55: fb920007_98      MOV #7,mmap(@IVPD)
019d5a: fb940007_98      MOV #7,mmap(@IVPH)
019d5f: 4676             BCLR ST3_CBERR
019d61: fb02ffff_98      MOV #-1,mmap(@IFR0)
019d66: fb8cffff_98      MOV #-1,mmap(@IFR1)
019d6b: e651201c04       MOV #32,port(#01c04h)
019d70: 5e80             NOP_16
019d72: fb5100ff1c05     MOV #255,port(#01c05h)
019d78: 5e80             NOP_16
019d7a: 6a01a0d2         B _c_int00
019d7e:               nmi_isr:
019d7e: 4a7e             B nmi_isr
019d80:               int0_isr:
019d80: 4a7e             B int0_isr
019d82:               int1_isr:
019d82: 4a7e             B int1_isr
019d84:               tim_isr:
019d84: 4a7e             B tim_isr
019d86:               i2s0_mmc0_tx_isr:
019d86: 4a7e             B i2s0_mmc0_tx_isr
019d88:               uart_isr:
019d88: 4a7e             B uart_isr
019d8a:               i2s0_mmc0_rx_isr:
019d8a: 4a7e             B i2s0_mmc0_rx_isr
019d8c:               dma_isr:
019d8c: 4a7e             B dma_isr
019d8e:               i2s1_mmc1_tx_isr:
019d8e: 4a7e             B i2s1_mmc1_tx_isr
019d90:               coprocfft_isr:
019d90: 4a7e             B coprocfft_isr
019d92:               i2s1_mmc1_rx_isr:
019d92: 4a7e             B i2s1_mmc1_rx_isr
019d94:               lcd_isr:
019d94: 4a7e             B lcd_isr
019d96:               saradc_isr:
019d96: 4a7e             B saradc_isr
019d98:               i2s2_tx_isr:
019d98: 4a7e             B i2s2_tx_isr
019d9a:               i2s2_rx_isr:
019d9a: 4a7e             B i2s2_rx_isr
019d9c:               i2s3_tx_isr:
019d9c: 4a7e             B i2s3_tx_isr
019d9e:               i2s3_rx_isr:
019d9e: 4a7e             B i2s3_rx_isr
019da0:               rtc_isr:
019da0: 4a7e             B rtc_isr
019da2:               spi_isr:
019da2: 4a7e             B spi_isr
019da4:               usb_isr:
019da4: 4a7e             B usb_isr
019da6:               gpio_isr:
019da6: 4a7e             B gpio_isr
019da8:               emif_error_isr:
019da8: 4a7e             B emif_error_isr
019daa:               i2c_isr:
019daa: 4a7e             B i2c_isr
019dac:               berr_isr:
019dac: 4676             BCLR ST3_CBERR
019dae: 4a7c             B berr_isr
019db0:               dlog_isr:
019db0: 4a7e             B dlog_isr
019db2:               rtos_isr:
019db2: 4a7e             B rtos_isr
019db4:               rtdxrcv_isr:
019db4: 4a7e             B rtdxrcv_isr
019db6:               rtdxxmt_isr:
019db6: 4a7e             B rtdxxmt_isr
019db8:               emuint_isr:
019db8: 4a7e             B emuint_isr
019dba:               sint30_isr:
019dba: 4a7e             B sint30_isr
019dbc:               sint31_isr:
019dbc: 4a7e             B sint31_isr
019dbe:               no_isr:
019dbe: 4a7e             B no_isr
019dc0:               _readmsg:
019dc0: ec31be007000     AMAR *(#07000h),XAR3
019dc6: 3c02_170079      MOV #0,AC2 || MOV #7,BRC0
019dcb: ac61_4ba0        MOV *AR3,AR4 || RPTBLOCAL #0x019def
019dcf: 76fffea2            BFXTR #65534,AC2,AR2
019dd3: 90b0                MOV XAR3,AC0
019dd5: 7dffff1a            AND #65535,AR2,AC1
019dd9: 2410                ADD AC1,AC0
019ddb: 900a                MOV AC0,XAR2
019ddd: 106703              SFTL AC2,#3,AC1
019de0: df5305_371a         MOV uns(*(AR2+T1)),AC0 || NOT AC1,AR2
019de5: 1808aa              AND #8,AR2,AR2
019de8: 34a5                NEG AR2,T1
019dea: 5c05                SFTS AC0,T1,AC0
019dec: 18ff00              AND #255,AC0,AC0
019def: c003_4112           MOV AC0,*AR0+ || ADD #1,AC2
019df3: 9090             MOV XAR1,AC0
019df5: 040033           BCC #0x019e2b,AC0 == #0
019df8: 040c30           BCC #0x019e2b,AR4 == #0
019dfb: 7c0001ac         SUB #1,AR4,AR2
019dff: 52ae             MOV AR2,BRC0
019e01: 4aa2_3d02        RPTBLOCAL #0x019e27 || MOV #0,AC2
019e05: 7b0008a2            ADD #8,AC2,AR2
019e09: 50a1                SFTL AR2,#-1
019e0b: 90b0                MOV XAR3,AC0
019e0d: 7dffff1a            AND #65535,AR2,AC1
019e11: 2410                ADD AC1,AC0
019e13: 900a                MOV AC0,XAR2
019e15: 106703              SFTL AC2,#3,AC1
019e18: df5305_371a         MOV uns(*(AR2+T1)),AC0 || NOT AC1,AR2
019e1d: 1808aa              AND #8,AR2,AR2
019e20: 34a5                NEG AR2,T1
019e22: 5c05                SFTS AC0,T1,AC0
019e24: 18ff00              AND #255,AC0,AC0
019e27: c023_4112           MOV AC0,*AR1+ || ADD #1,AC2
019e2b: 4804             RET
019e2d:               __fltlid:
019e2d: 1a0010           OR #0,AC0,AC1
019e30: 9601             XCC AC1 == #0
019e32: ed310801c036     MOV dbl(*(#01c036h)),AC0
019e38: 040157           BCC #0x019e92,AC1 == #0
019e3b: ec31be010000     AMAR *(#010000h),XAR3
019e41: 3410_9eb1        XCCPART AC1 <= #0 || NEG AC1,AC0
019e45: 90b2             MOV XAR3,AC2
019e47: 120424           CMPU AC0 < AC2, TC1
019e4a: 76009d98         MOV #157,AR1
019e4e: 76008d98_9ee4    XCCPART TC1 || MOV #141,AR1
019e54: 7a01002a         MOV #256 << #16,AC2
019e58: 100710_9ee4      XCCPART TC1 || SFTL AC0,#16,AC0
019e5d: 120824           CMPU AC0 >= AC2, TC1
019e60: 7a80002a         MOV #-32768 << #16,AC2
019e64: 100708_9ef4      XCCPART !TC1 || SFTL AC0,#8,AC0
019e69: 4289_9ef4        XCCPART !TC1 || SUB #8,AR1
019e6d: 120824           CMPU AC0 >= AC2, TC1
019e70: 6564             BCC #0x019e7c,TC1
019e72: 4219             SUB #1,AR1
019e74: 5000             SFTL AC0,#1
019e76: 120424           CMPU AC0 < AC2, TC1
019e79: 0464f6           BCC #0x019e72,TC1
019e7c: 100739           SFTL AC0,#-7,AC0
019e7f: 2292             MOV AR1,AC2
019e81: 4010             ADD #1,AC0
019e83: 10a717           SFTL AC2,#23,AC2
019e86: 5001             SFTL AC0,#-1
019e88: 2420             ADD AC2,AC0
019e8a: 6351             BCC #0x019e92,AC1 >= #0
019e8c: 7a80001a         MOV #-32768 << #16,AC1
019e90: 2410             ADD AC1,AC0
019e92: 4804             RET
019e94:               _srand:
019e94: 5066             PSH T2
019e96: ed31080136a8     MOV dbl(*(#0136a8h)),AC0
019e9c: 2246             MOV T0,T2
019e9e: 9200             CALL AC0
019ea0: 7dffff06         AND #65535,T2,AC0
019ea4: eb31080136b0     MOV AC0,dbl(*(#0136b0h))
019eaa: ed31080136aa     MOV dbl(*(#0136aah)),AC0
019eb0: 9200             CALL AC0
019eb2: 5062             POP T2
019eb4: 4804             RET
019eb6:               _rand:
019eb6: ed31080136a8     MOV dbl(*(#0136a8h)),AC0
019ebc: 4efd             AADD #-3,SP
019ebe: 9200             CALL AC0
019ec0: 7a41c61a         MOV #16838 << #16,AC1
019ec4: ed31080136b0     MOV dbl(*(#0136b0h)),AC0
019eca: 7e4e6d11         OR #20077,AC1,AC1
019ece: 6c01a1a0         CALL I$$LMPY
019ed2: 7b303900         ADD #12345,AC0,AC0
019ed6: eb0008           MOV AC0,dbl(@#00h)
019ed9: ed0008           MOV dbl(@#00h),AC0
019edc: eb31080136b0     MOV AC0,dbl(*(#0136b0h))
019ee2: ed31080136aa     MOV dbl(*(#0136aah)),AC0
019ee8: 9200             CALL AC0
019eea: a900             MOV @#00h,AR1
019eec: 7d7fff49         AND #32767,AR1,T0
019ef0: 4e03             AADD #3,SP
019ef2: 4804             RET
019ef4:               _auto_init:
019ef4: 4eff             AADD #-1,SP
019ef6: ec318e00d0fe     AMAR *(#0d0feh),XAR0
019efc: 368f             NOT AR0,AR7
019efe: 040f29           BCC #0x019f2a,AR7 == #0
019f01: aa03             MOV *AR0+,AR2
019f03: 040a24           BCC #0x019f2a,AR2 == #0
019f06: f9038808_431a    MOV uns(*AR0+) << #8,AC0 || SUB #1,AR2
019f0c: df0315_53ac      MOV uns(*AR0+),AC1 || MOV AR2,CSR
019f11: 101138           OR AC1 << #-8, AC0
019f14: 18ff11           AND #255,AC1,AC1
019f17: 900e             MOV AC0,XAR6
019f19: 6391             BCC #0x019f22,AC1 != #0
019f1b: 4800             RPT CSR
019f1d: 800714              MOV *AR0+,*AR6+
019f20: 4a5f             B #0x019f01
019f22: 4800             RPT CSR
019f24: 800714_9a           MOV *AR0+,port(*AR6+)
019f28: 4a57             B #0x019f01
019f2a: ec31ee7fffff     AMAR *(#07fffffh),XAR6
019f30: 36ef             NOT AR6,AR7
019f32: 648f             BCC #0x019f3d,AR7 == #0
019f34: edc308           MOV dbl(*AR6+),AC0
019f37: 6200             BCC #0x019f3d,AC0 == #0
019f39: 9200             CALL AC0
019f3b: 4a77             B #0x019f34
019f3d: 4e01             AADD #1,SP
019f3f: 4804             RET
019f41:               __args_main:
019f41: 7affff0a         MOV #-1 << #16,AC0
019f45: 7affff1a         MOV #-1 << #16,AC1
019f49: 7effff00         OR #65535,AC0,AC0
019f4d: 7effff11         OR #65535,AC1,AC1
019f51: 121c04           CMPU AC1 != AC0, TC1
019f54: 4eff             AADD #-1,SP
019f56: 20               NOP
019f57: 20               NOP
019f58: 3c04_9ef4        XCCPART !TC1 || MOV #0,T0
019f5c: 9674             XCC !TC1
019f5e: ec318e000000     AMAR *(#00000h),XAR0
019f64: 04741d           BCC #0x019f84,!TC1
019f67: 7affff0a         MOV #-1 << #16,AC0
019f6b: 7effff00         OR #65535,AC0,AC0
019f6f: 900b             MOV AC0,XAR3
019f71: 7affff0a         MOV #-1 << #16,AC0
019f75: a461             MOV *AR3,T0
019f77: 7effff00         OR #65535,AC0,AC0
019f7b: 900b             MOV AC0,XAR3
019f7d: 1402b4           AADD #2,AR3
019f80: 90b0             MOV XAR3,AC0
019f82: 9008             MOV AC0,XAR0
019f84: 6c017564         CALL _main
019f88: 4e01             AADD #1,SP
019f8a: 4804             RET
019f8c:               __divli:
019f8c: 1a0021_5166      OR #0,AC1,AC2 || PSH T2
019f91: 2c02_3d06        XOR AC0,AC2 || MOV #0,T2
019f95: 7a7fff0a_9e81    XCCPART AC1 == #0 || MOV #32767 << #16,AC0
019f9b: 3c16_9ea2        XCCPART AC2 < #0 || MOV #1,T2
019f9f: 7effff00_9e81    XCCPART AC1 == #0 || OR #65535,AC0,AC0
019fa5: 040128           BCC #0x019fd0,AC1 == #0
019fa8: 7a80002a         MOV #-32768 << #16,AC2
019fac: 120020           CMP AC0 == AC2, TC1
019faf: 3200             ABS AC0,AC0
019fb1: 7a80000a_9ee4    XCCPART TC1 || MOV #-32768 << #16,AC0
019fb7: 121020           CMP AC1 == AC2, TC1
019fba: 3211             ABS AC1,AC1
019fbc: 7a80001a_9ee4    XCCPART TC1 || MOV #-32768 << #16,AC1
019fc2: 6c01994a         CALL __divul
019fc6: 1a0010           OR #0,AC0,AC1
019fc9: 3400             NEG AC0,AC0
019fcb: 1a0001_9e86      XCCPART T2 == #0 || OR #0,AC1,AC0
019fd0: 5062             POP T2
019fd2: 4804             RET
019fd4:               __setjmp:
019fd4:               _setjmp:
019fd4: eb0304           MOV RETA,dbl(*AR0+)
019fd7: eb03d5           MOV XAR5,dbl(*AR0+)
019fda: eb03e5           MOV XAR6,dbl(*AR0+)
019fdd: eb03f5           MOV XAR7,dbl(*AR0+)
019fe0: eb0345           MOV XSP,dbl(*AR0+)
019fe3: eb0355           MOV XSSP,dbl(*AR0+)
019fe6: 5014             POPBOTH AC1
019fe8: 5015             PSHBOTH AC1
019fea: eb0318           MOV AC1,dbl(*AR0+)
019fed: c603             MOV T2,*AR0+
019fef: c703             MOV T3,*AR0+
019ff1: 3c04             MOV #0,T0
019ff3: 4804             RET
019ff5:               _longjmp:
019ff5: ed0306           MOV dbl(*AR0+),RETA
019ff8: ed03df           MOV dbl(*AR0+),XAR5
019ffb: ed03ef           MOV dbl(*AR0+),XAR6
019ffe: ed03ff           MOV dbl(*AR0+),XAR7
01a001: ed034f           MOV dbl(*AR0+),XSP
01a004: ed035f           MOV dbl(*AR0+),XSSP
01a007: ed0318           MOV dbl(*AR0+),AC1
01a00a: 20               NOP
01a00b: 5024             POPBOTH AC2
01a00d: 5015             PSHBOTH AC1
01a00f: a603             MOV *AR0+,T2
01a011: a703             MOV *AR0+,T3
01a013: 3c14_9e84        XCCPART T0 == #0 || MOV #1,T0
01a017: 4804             RET
01a019:               _memcpy:
01a019: df4005_98        MOV uns(mmap(@T0)),AC0
01a01d: ec01ae           AMAR *AR0,XAR2
01a020: 6f051824         BCCU #0x01a048,AC0 < #24
01a024: 228b             MOV AR0,AR3
01a026: 2a9b             OR AR1,AR3
01a028: 1801bb           AND #1,AR3,AR3
01a02b: 041b1a           BCC #0x01a048,AR3 != #0
01a02e: 5001_190150      SFTL AC0,#-1 || AND #1,AC0,T1
01a033: 4210             SUB #1,AC0
01a035: 64a0             BCC #0x01a040,AC0 < #0
01a037: dc1003_98        MOV mmap(@AC0L),CSR
01a03b: 4800             RPT CSR
01a03d: 802510              MOV dbl(*AR1+),dbl(*AR2+)
01a040: 020500           RETCC T1 == #0
01a043: 802104           MOV *AR1,*AR2
01a046: 4804             RET
01a048: 020000_4310      RETCC AC0 == #0 || SUB #1,AC0
01a04d: dc1003_98        MOV mmap(@AC0L),CSR
01a051: 4800             RPT CSR
01a053: 802514              MOV *AR1+,*AR2+
01a056: 4804             RET
01a058:               _exit:
01a058: 5066             PSH T2
01a05a: ed31080136a8     MOV dbl(*(#0136a8h)),AC0
01a060: 2246             MOV T0,T2
01a062: 9200             CALL AC0
01a064: ed31080136ae     MOV dbl(*(#0136aeh)),AC0
01a06a: 6500             BCC #0x01a076,AC0 == #0
01a06c: ed31080136ae     MOV dbl(*(#0136aeh)),AC0
01a072: 2264             MOV T2,T0
01a074: 9200             CALL AC0
01a076: ed31080136ac     MOV dbl(*(#0136ach)),AC0
01a07c: 6400             BCC #0x01a086,AC0 == #0
01a07e: ed31080136ac     MOV dbl(*(#0136ach)),AC0
01a084: 9200             CALL AC0
01a086: ed31080136aa     MOV dbl(*(#0136aah)),AC0
01a08c: 9200             CALL AC0
01a08e: 6c01a1f2         CALL _abort
01a092: 5062             POP T2
01a094: 4804             RET
01a096:               I$$DIV:
01a096:               __divi:
01a096: 4eff             AADD #-1,SP
01a098: 225c_3351        MOV T1,AR4 || ABS T1,AC1
01a09c: c100_3340        MOV AC1,@#00h || ABS T0,AC0
01a0a0: 4682_4d0f        BCLR ST1_SXMD || RPT #15
01a0a4: de0003              SUBC @#00h,AC0,AC0
01a0a7: 4683             BSET ST1_SXMD
01a0a9: 2c4c             XOR T0,AR4
01a0ab: 2204             MOV AC0,T0
01a0ad: 3444_9eac        XCCPART AR4 < #0 || NEG T0,T0
01a0b1: 4e01             AADD #1,SP
01a0b3: 4804             RET
01a0b5:               I$$MOD:
01a0b5:               __remi:
01a0b5: 4eff_3351        AADD #-1,SP || ABS T1,AC1
01a0b9: c100_3340        MOV AC1,@#00h || ABS T0,AC0
01a0bd: 4682_4d0f        BCLR ST1_SXMD || RPT #15
01a0c1: de0003              SUBC @#00h,AC0,AC0
01a0c4: 4683             BSET ST1_SXMD
01a0c6: 2245             MOV T0,T1
01a0c8: 4404             MOV HI(AC0),T0
01a0ca: 6155             BCC #0x01a0ce,T1 >= #0
01a0cc: 3444             NEG T0,T0
01a0ce: 4e01             AADD #1,SP
01a0d0: 4804             RET
01a0d2:               _c_int00:
01a0d2: ec314e000380     AMAR *(#00380h),XSP
01a0d8: ec315e000280     AMAR *(#00280h),XSSP
01a0de: f406f91f_98      AND #63775,mmap(@ST1_55)
01a0e3: f5064100_98      OR #16640,mmap(@ST1_55)
01a0e8: f496fa00_98      AND #64000,mmap(@ST2_55)
01a0ed: f5968000_98      OR #32768,mmap(@ST2_55)
01a0f2: 4656             BCLR ST3_SATA
01a0f4: 4617             BSET ST3_SMUL
01a0f6: 4606             BCLR ST3_SST
01a0f8: 6c019ef4         CALL _auto_init
01a0fc: 6c019f41         CALL __args_main
01a100: 3c19             MOV #1,AR1
01a102: 6c01a058         CALL _exit
01a106:               __fixdi:
01a106: 4eff             AADD #-1,SP
01a108: 6c019ce4         CALL __fixdli
01a10c: 3c01             MOV #0,AC1
01a10e: 7e800011         OR #32768,AC1,AC1
01a112: 120410           CMP AC0 < AC1, TC1
01a115: 767fff08_9ef4    XCCPART !TC1 || MOV #32767,AC0
01a11b: 66f4             BCC #0x01a12a,!TC1
01a11d: 76800018         MOV #-32768,AC1
01a121: 120810           CMP AC0 >= AC1, TC1
01a124: 76800008_9ef4    XCCPART !TC1 || MOV #-32768,AC0
01a12a: 2204             MOV AC0,T0
01a12c: 4e01             AADD #1,SP
01a12e: 4804             RET
01a130:               I$$UDIV:
01a130:               __divu:
01a130: 4eff             AADD #-1,SP
01a132: 4682             BCLR ST1_SXMD
01a134: c500_2340        MOV T1,@#00h || MOV T0,AC0
01a138: 4c0f             RPT #15
01a13a: de0003              SUBC @#00h,AC0,AC0
01a13d: 4683             BSET ST1_SXMD
01a13f: 2204             MOV AC0,T0
01a141: 4e01             AADD #1,SP
01a143: 4804             RET
01a145:               I$$UMOD:
01a145:               __remu:
01a145: 4eff             AADD #-1,SP
01a147: 4682             BCLR ST1_SXMD
01a149: c500_2340        MOV T1,@#00h || MOV T0,AC0
01a14d: 4c0f             RPT #15
01a14f: de0003              SUBC @#00h,AC0,AC0
01a152: 4683             BSET ST1_SXMD
01a154: 4404             MOV HI(AC0),T0
01a156: 4e01             AADD #1,SP
01a158: 4804             RET
01a15a:               __fixdu:
01a15a: 4eff             AADD #-1,SP
01a15c: 6c019b12         CALL __fixdul
01a160: 3c01             MOV #0,AC1
01a162: 7effff11         OR #65535,AC1,AC1
01a166: 121804           CMPU AC1 >= AC0, TC1
01a169: 76ffff08_9ef4    XCCPART !TC1 || MOV #-1,AC0
01a16f: 2204             MOV AC0,T0
01a171: 4e01             AADD #1,SP
01a173: 4804             RET
01a175:               _time:
01a175: 50d5             PSHBOTH XAR5
01a177: 20               NOP
01a178: 20               NOP
01a179: 20               NOP
01a17a: ec01de           AMAR *AR0,XAR5
01a17d: 6c0176e1         CALL _HOSTtime
01a181: 90d1             MOV XAR5,AC1
01a183: eba108_9e11      XCC AC1 != #0 || MOV AC0,dbl(*AR5)
01a188: 50d4             POPBOTH XAR5
01a18a: 4804             RET
01a18c:               __subd:
01a18c: 4efd             AADD #-3,SP
01a18e: eb0018           MOV AC1,dbl(@#00h)
01a191: f6008000         XOR #32768,@#00h
01a195: ed0018           MOV dbl(@#00h),AC1
01a198: 6c018e76         CALL __addd
01a19c: 4e03             AADD #3,SP
01a19e: 4804             RET
01a1a0:               I$$LMPY:
01a1a0:               __mpyli:
01a1a0: 5016_2304        PSH AC1 || MOV AC0,T0
01a1a4: d30000           MPYM @#00h,AC0,AC0
01a1a7: 5842             MAC AC1,T0,AC0,AC1
01a1a9: d3000c           MPYMU @#00h,T0,AC0
01a1ac: 101310_4f01      ADD AC1 << #16,AC0 || AADD #1,SP
01a1b1: 4804             RET
01a1b3:               __register_unlock:
01a1b3: eb31080136aa     MOV AC0,dbl(*(#0136aah))
01a1b9: 4804             RET
01a1bb:               __register_lock:
01a1bb: eb31080136a8     MOV AC0,dbl(*(#0136a8h))
01a1c1: 4804             RET
01a1c3:               __nop:
01a1c3: 4804             RET
01a1c5:               _memset:
01a1c5: ec01be           AMAR *AR0,XAR3
01a1c8: 6505             BCC #0x01a1d4,T1 == #0
01a1ca: 7c000195         SUB #1,T1,AR1
01a1ce: 529c             MOV AR1,CSR
01a1d0: 4800             RPT CSR
01a1d2: c463                MOV T0,*AR3+
01a1d4: 4804             RET
01a1d6:               __negd:
01a1d6: 4efd             AADD #-3,SP
01a1d8: eb0008           MOV AC0,dbl(@#00h)
01a1db: f6008000         XOR #32768,@#00h
01a1df: ed0008           MOV dbl(@#00h),AC0
01a1e2: 4e03             AADD #3,SP
01a1e4: 4804             RET
01a1e6:               __fltid:
01a1e6: 4eff             AADD #-1,SP
01a1e8: 2240             MOV T0,AC0
01a1ea: 6c019e2d         CALL __fltlid
01a1ee: 4e01             AADD #1,SP
01a1f0: 4804             RET
01a1f2:               _abort:
01a1f2:               .text:CIO_breakpoint:
01a1f2: 20               NOP
01a1f3:               C$$EXIT:
01a1f3: 20               NOP
01a1f4: 16000c           SIM_TRIG
01a1f7: 4a7e             B #0x01a1f7
01a1f9: 4a7e             B #0x01a1f9
01a1fb: 20               NOP

DATA section .const, 0x38 words load/run at 0x1C000
01c000:               .const:
01c000: 42b1             .word 0x42b1
01c001: 7217             .word 0x7217
01c002: 7f7f             .word 0x7f7f
01c003: ffff             .word 0xffff
01c004: c2ad             .word 0xc2ad
01c005: 496b             .word 0x496b
01c006: 0000             .word 0x0000
01c007: 0000             .word 0x0000
01c008: 3400             .word 0x3400
01c009: 0000             .word 0x0000
01c00a: 3f80             .word 0x3f80
01c00b: 0000             .word 0x0000
01c00c: 3fb8             .word 0x3fb8
01c00d: aa3b             .word 0xaa3b
01c00e: 3f31             .word 0x3f31
01c00f: 8000             .word 0x8000
01c010: b95e             .word 0xb95e
01c011: 8083             .word 0x8083
01c012:               .const:
01c012: 0000             .word 0x0000
01c013: 0000             .word 0x0000
01c014: 4b80             .word 0x4b80
01c015: 0000             .word 0x0000
01c016: 3380             .word 0x3380
01c017: 0000             .word 0x0000
01c018: 7f7f             .word 0x7f7f
01c019: ffff             .word 0xffff
01c01a: ff7f             .word 0xff7f
01c01b: ffff             .word 0xffff
01c01c:               .const:
01c01c: 0000             .word 0x0000
01c01d: 0000             .word 0x0000
01c01e: bf92             .word 0xbf92
01c01f: a002             .word 0xa002
01c020: 4021             .word 0x4021
01c021: cfff             .word 0xcfff
01c022: 3f35             .word 0x3f35
01c023: 04f3             .word 0x04f3
01c024: 3f00             .word 0x3f00
01c025: 0000             .word 0x0000
01c026:               .const:_initial_approx$1:
01c026: 0000             .word 0x0000
01c027: 00e3             .word 0x00e3
01c028: 00cc             .word 0x00cc
01c029: 00ba             .word 0x00ba
01c02a: 00aa             .word 0x00aa
01c02b: 009b             .word 0x009b
01c02c: 0092             .word 0x0092
01c02d: 0088             .word 0x0088
01c02e:               .const:
01c02e: 0000             .word 0x0000
01c02f: 0000             .word 0x0000
01c030: 4b80             .word 0x4b80
01c031: 0000             .word 0x0000
01c032: ff7f             .word 0xff7f
01c033: ffff             .word 0xffff
01c034: 7f7f             .word 0x7f7f
01c035: ffff             .word 0xffff
01c036:               .const:
01c036: 0000             .word 0x0000
01c037: 0000             .word 0x0000

DATA section .switch, 0x18 words load/run at 0x1E000
01e000:               .switch:_mutator:
01e000:               $C$SW1:
01e000:               .switch:
01e000: 0001             .word 0x0001
01e001: 7119             .word 0x7119
01e002: 0001             .word 0x0001
01e003: 7141             .word 0x7141
01e004: 0001             .word 0x0001
01e005: 7160             .word 0x7160
01e006: 0001             .word 0x0001
01e007: 7176             .word 0x7176
01e008: 0001             .word 0x0001
01e009: 718c             .word 0x718c
01e00a: 0001             .word 0x0001
01e00b: 71ab             .word 0x71ab
01e00c: 0001             .word 0x0001
01e00d: 71ed             .word 0x71ed
01e00e: 0001             .word 0x0001
01e00f: 7244             .word 0x7244
01e010: 0001             .word 0x0001
01e011: 72c5             .word 0x72c5
01e012: 0001             .word 0x0001
01e013: 72fb             .word 0x72fb
01e014: 0001             .word 0x0001
01e015: 732c             .word 0x732c
01e016: 0001             .word 0x0001
01e017: 738c             .word 0x738c

TEXT section .program_sandbox, 0x6AE2 bytes load/run at 0x10000
010000:               .bss:
010000:               _setbrightness:
010000:               .program_sandbox:
010000: 20               NOP
010001: 20               NOP
010002: 20               NOP
010003: 20               NOP
010004: 20               NOP
010005: 20               NOP
010006: 20               NOP
010007: 20               NOP
010008: 20               NOP
010009: 20               NOP
01000a: 20               NOP
01000b: 20               NOP
01000c: 20               NOP
01000d: 20               NOP
01000e: 20               NOP
01000f: 20               NOP
010010: 20               NOP
010011: 20               NOP
010012: 20               NOP
010013: 20               NOP
010014: 20               NOP
010015: 20               NOP
010016: 20               NOP
010017: 20               NOP
010018: 20               NOP
010019: 20               NOP
01001a: 20               NOP
01001b: 20               NOP
01001c: 20               NOP
01001d: 20               NOP
01001e: 20               NOP
01001f: 20               NOP
010020: 20               NOP
010021: 20               NOP
010022: 20               NOP
010023: 20               NOP
010024: 20               NOP
010025: 20               NOP
010026: 20               NOP
010027: 20               NOP
010028: 20               NOP
010029: 20               NOP
01002a: 20               NOP
01002b: 20               NOP
01002c: 20               NOP
01002d: 20               NOP
01002e: 20               NOP
01002f: 20               NOP
010030: 20               NOP
010031: 20               NOP
010032: 20               NOP
010033: 20               NOP
010034: 20               NOP
010035: 20               NOP
010036: 20               NOP
010037: 20               NOP
010038: 20               NOP
010039: 20               NOP
01003a: 20               NOP
01003b: 20               NOP
01003c: 20               NOP
01003d: 20               NOP
01003e: 20               NOP
01003f: 20               NOP
010040: 20               NOP
010041: 20               NOP
010042: 20               NOP
010043: 20               NOP
010044: 20               NOP
010045: 20               NOP
010046: 20               NOP
010047: 20               NOP
010048: 20               NOP
010049: 20               NOP
01004a: 20               NOP
01004b: 20               NOP
01004c: 20               NOP
01004d: 20               NOP
01004e: 20               NOP
01004f: 20               NOP
010050: 20               NOP
010051: 20               NOP
010052: 20               NOP
010053: 20               NOP
010054: 20               NOP
010055: 20               NOP
010056: 20               NOP
010057: 20               NOP
010058: 20               NOP
010059: 20               NOP
01005a: 20               NOP
01005b: 20               NOP
01005c: 20               NOP
01005d: 20               NOP
01005e: 20               NOP
01005f: 20               NOP
010060: 20               NOP
010061: 20               NOP
010062: 20               NOP
010063: 20               NOP
010064: 20               NOP
010065: 20               NOP
010066: 20               NOP
010067: 20               NOP
010068: 20               NOP
010069: 20               NOP
01006a: 20               NOP
01006b: 20               NOP
01006c: 20               NOP
01006d: 20               NOP
01006e: 20               NOP
01006f: 20               NOP
010070: 20               NOP
010071: 20               NOP
010072: 20               NOP
010073: 20               NOP
010074: 20               NOP
010075: 20               NOP
010076: 20               NOP
010077: 20               NOP
010078: 20               NOP
010079: 20               NOP
01007a: 20               NOP
01007b: 20               NOP
01007c: 20               NOP
01007d: 20               NOP
01007e: 20               NOP
01007f: 20               NOP
010080: 20               NOP
010081: 20               NOP
010082: 20               NOP
010083: 20               NOP
010084: 20               NOP
010085: 20               NOP
010086: 20               NOP
010087: 20               NOP
010088: 20               NOP
010089: 20               NOP
01008a: 20               NOP
01008b: 20               NOP
01008c: 20               NOP
01008d: 20               NOP
01008e: 20               NOP
01008f: 20               NOP
010090: 20               NOP
010091: 20               NOP
010092: 20               NOP
010093: 20               NOP
010094: 20               NOP
010095: 20               NOP
010096: 20               NOP
010097: 20               NOP
010098: 20               NOP
010099: 20               NOP
01009a: 20               NOP
01009b: 20               NOP
01009c: 20               NOP
01009d: 20               NOP
01009e: 20               NOP
01009f: 20               NOP
0100a0: 20               NOP
0100a1: 20               NOP
0100a2: 20               NOP
0100a3: 20               NOP
0100a4: 20               NOP
0100a5: 20               NOP
0100a6: 20               NOP
0100a7: 20               NOP
0100a8: 20               NOP
0100a9: 20               NOP
0100aa: 20               NOP
0100ab: 20               NOP
0100ac: 20               NOP
0100ad: 20               NOP
0100ae: 20               NOP
0100af: 20               NOP
0100b0: 20               NOP
0100b1: 20               NOP
0100b2: 20               NOP
0100b3: 20               NOP
0100b4: 20               NOP
0100b5: 20               NOP
0100b6: 20               NOP
0100b7: 20               NOP
0100b8: 20               NOP
0100b9: 20               NOP
0100ba: 20               NOP
0100bb: 20               NOP
0100bc: 20               NOP
0100bd: 20               NOP
0100be: 20               NOP
0100bf: 20               NOP
0100c0: 20               NOP
0100c1: 20               NOP
0100c2: 20               NOP
0100c3: 20               NOP
0100c4: 20               NOP
0100c5: 20               NOP
0100c6: 20               NOP
0100c7: 20               NOP
0100c8: 20               NOP
0100c9: 20               NOP
0100ca: 20               NOP
0100cb: 20               NOP
0100cc: 20               NOP
0100cd: 20               NOP
0100ce: 20               NOP
0100cf: 20               NOP
0100d0: 20               NOP
0100d1: 20               NOP
0100d2: 20               NOP
0100d3: 20               NOP
0100d4: 20               NOP
0100d5: 20               NOP
0100d6: 20               NOP
0100d7: 20               NOP
0100d8: 20               NOP
0100d9: 20               NOP
0100da: 20               NOP
0100db: 20               NOP
0100dc: 20               NOP
0100dd: 20               NOP
0100de: 20               NOP
0100df: 20               NOP
0100e0: 20               NOP
0100e1: 20               NOP
0100e2: 20               NOP
0100e3: 20               NOP
0100e4: 20               NOP
0100e5: 20               NOP
0100e6: 20               NOP
0100e7: 20               NOP
0100e8: 20               NOP
0100e9: 20               NOP
0100ea: 20               NOP
0100eb: 20               NOP
0100ec: 20               NOP
0100ed: 20               NOP
0100ee: 20               NOP
0100ef: 20               NOP
0100f0: 20               NOP
0100f1: 20               NOP
0100f2: 20               NOP
0100f3: 20               NOP
0100f4: 20               NOP
0100f5: 20               NOP
0100f6: 20               NOP
0100f7: 20               NOP
0100f8: 20               NOP
0100f9: 20               NOP
0100fa: 20               NOP
0100fb: 20               NOP
0100fc: 20               NOP
0100fd: 20               NOP
0100fe: 20               NOP
0100ff: 20               NOP
010100: 20               NOP
010101: 20               NOP
010102: 20               NOP
010103: 20               NOP
010104: 20               NOP
010105: 20               NOP
010106: 20               NOP
010107: 20               NOP
010108: 20               NOP
010109: 20               NOP
01010a: 20               NOP
01010b: 20               NOP
01010c: 20               NOP
01010d: 20               NOP
01010e: 20               NOP
01010f: 20               NOP
010110: 20               NOP
010111: 20               NOP
010112: 20               NOP
010113: 20               NOP
010114: 20               NOP
010115: 20               NOP
010116: 20               NOP
010117: 20               NOP
010118: 20               NOP
010119: 20               NOP
01011a: 20               NOP
01011b: 20               NOP
01011c: 20               NOP
01011d: 20               NOP
01011e: 20               NOP
01011f: 20               NOP
010120: 20               NOP
010121: 20               NOP
010122: 20               NOP
010123: 20               NOP
010124: 20               NOP
010125: 20               NOP
010126: 20               NOP
010127: 20               NOP
010128: 20               NOP
010129: 20               NOP
01012a: 20               NOP
01012b: 20               NOP
01012c: 20               NOP
01012d: 20               NOP
01012e: 20               NOP
01012f: 20               NOP
010130: 20               NOP
010131: 20               NOP
010132: 20               NOP
010133: 20               NOP
010134: 20               NOP
010135: 20               NOP
010136: 20               NOP
010137: 20               NOP
010138: 20               NOP
010139: 20               NOP
01013a: 20               NOP
01013b: 20               NOP
01013c: 20               NOP
01013d: 20               NOP
01013e: 20               NOP
01013f: 20               NOP
010140: 20               NOP
010141: 20               NOP
010142: 20               NOP
010143: 20               NOP
010144: 20               NOP
010145: 20               NOP
010146: 20               NOP
010147: 20               NOP
010148: 20               NOP
010149: 20               NOP
01014a: 20               NOP
01014b: 20               NOP
01014c: 20               NOP
01014d: 20               NOP
01014e: 20               NOP
01014f: 20               NOP
010150: 20               NOP
010151: 20               NOP
010152: 20               NOP
010153: 20               NOP
010154: 20               NOP
010155: 20               NOP
010156: 20               NOP
010157: 20               NOP
010158: 20               NOP
010159: 20               NOP
01015a: 20               NOP
01015b: 20               NOP
01015c: 20               NOP
01015d: 20               NOP
01015e: 20               NOP
01015f: 20               NOP
010160: 20               NOP
010161: 20               NOP
010162: 20               NOP
010163: 20               NOP
010164: 20               NOP
010165: 20               NOP
010166: 20               NOP
010167: 20               NOP
010168: 20               NOP
010169: 20               NOP
01016a: 20               NOP
01016b: 20               NOP
01016c: 20               NOP
01016d: 20               NOP
01016e: 20               NOP
01016f: 20               NOP
010170: 20               NOP
010171: 20               NOP
010172: 20               NOP
010173: 20               NOP
010174: 20               NOP
010175: 20               NOP
010176: 20               NOP
010177: 20               NOP
010178: 20               NOP
010179: 20               NOP
01017a: 20               NOP
01017b: 20               NOP
01017c: 20               NOP
01017d: 20               NOP
01017e: 20               NOP
01017f: 20               NOP
010180: 20               NOP
010181: 20               NOP
010182: 20               NOP
010183: 20               NOP
010184: 20               NOP
010185: 20               NOP
010186: 20               NOP
010187: 20               NOP
010188: 20               NOP
010189: 20               NOP
01018a: 20               NOP
01018b: 20               NOP
01018c: 20               NOP
01018d: 20               NOP
01018e: 20               NOP
01018f: 20               NOP
010190: 20               NOP
010191: 20               NOP
010192: 20               NOP
010193: 20               NOP
010194: 20               NOP
010195: 20               NOP
010196: 20               NOP
010197: 20               NOP
010198: 20               NOP
010199: 20               NOP
01019a: 20               NOP
01019b: 20               NOP
01019c: 20               NOP
01019d: 20               NOP
01019e: 20               NOP
01019f: 20               NOP
0101a0: 20               NOP
0101a1: 20               NOP
0101a2: 20               NOP
0101a3: 20               NOP
0101a4: 20               NOP
0101a5: 20               NOP
0101a6: 20               NOP
0101a7: 20               NOP
0101a8: 20               NOP
0101a9: 20               NOP
0101aa: 20               NOP
0101ab: 20               NOP
0101ac: 20               NOP
0101ad: 20               NOP
0101ae: 20               NOP
0101af: 20               NOP
0101b0: 20               NOP
0101b1: 20               NOP
0101b2: 20               NOP
0101b3: 20               NOP
0101b4: 20               NOP
0101b5: 20               NOP
0101b6: 20               NOP
0101b7: 20               NOP
0101b8: 20               NOP
0101b9: 20               NOP
0101ba: 20               NOP
0101bb: 20               NOP
0101bc: 20               NOP
0101bd: 20               NOP
0101be: 20               NOP
0101bf: 20               NOP
0101c0: 20               NOP
0101c1: 20               NOP
0101c2: 20               NOP
0101c3: 20               NOP
0101c4: 20               NOP
0101c5: 20               NOP
0101c6: 20               NOP
0101c7: 20               NOP
0101c8: 20               NOP
0101c9: 20               NOP
0101ca: 20               NOP
0101cb: 20               NOP
0101cc: 20               NOP
0101cd: 20               NOP
0101ce: 20               NOP
0101cf: 20               NOP
0101d0: 20               NOP
0101d1: 20               NOP
0101d2: 20               NOP
0101d3: 20               NOP
0101d4: 20               NOP
0101d5: 20               NOP
0101d6: 20               NOP
0101d7: 20               NOP
0101d8: 20               NOP
0101d9: 20               NOP
0101da: 20               NOP
0101db: 20               NOP
0101dc: 20               NOP
0101dd: 20               NOP
0101de: 20               NOP
0101df: 20               NOP
0101e0: 20               NOP
0101e1: 20               NOP
0101e2: 20               NOP
0101e3: 20               NOP
0101e4: 20               NOP
0101e5: 20               NOP
0101e6: 20               NOP
0101e7: 20               NOP
0101e8: 20               NOP
0101e9: 20               NOP
0101ea: 20               NOP
0101eb: 20               NOP
0101ec: 20               NOP
0101ed: 20               NOP
0101ee: 20               NOP
0101ef: 20               NOP
0101f0: 20               NOP
0101f1: 20               NOP
0101f2: 20               NOP
0101f3: 20               NOP
0101f4: 20               NOP
0101f5: 20               NOP
0101f6: 20               NOP
0101f7: 20               NOP
0101f8: 20               NOP
0101f9: 20               NOP
0101fa: 20               NOP
0101fb: 20               NOP
0101fc: 20               NOP
0101fd: 20               NOP
0101fe: 20               NOP
0101ff: 20               NOP
010200: 20               NOP
010201: 20               NOP
010202: 20               NOP
010203: 20               NOP
010204: 20               NOP
010205: 20               NOP
010206: 20               NOP
010207: 20               NOP
010208: 20               NOP
010209: 20               NOP
01020a: 20               NOP
01020b: 20               NOP
01020c: 20               NOP
01020d: 20               NOP
01020e: 20               NOP
01020f: 20               NOP
010210: 20               NOP
010211: 20               NOP
010212: 20               NOP
010213: 20               NOP
010214: 20               NOP
010215: 20               NOP
010216: 20               NOP
010217: 20               NOP
010218: 20               NOP
010219: 20               NOP
01021a: 20               NOP
01021b: 20               NOP
01021c: 20               NOP
01021d: 20               NOP
01021e: 20               NOP
01021f: 20               NOP
010220: 20               NOP
010221: 20               NOP
010222: 20               NOP
010223: 20               NOP
010224: 20               NOP
010225: 20               NOP
010226: 20               NOP
010227: 20               NOP
010228: 20               NOP
010229: 20               NOP
01022a: 20               NOP
01022b: 20               NOP
01022c: 20               NOP
01022d: 20               NOP
01022e: 20               NOP
01022f: 20               NOP
010230: 20               NOP
010231: 20               NOP
010232: 20               NOP
010233: 20               NOP
010234: 20               NOP
010235: 20               NOP
010236: 20               NOP
010237: 20               NOP
010238: 20               NOP
010239: 20               NOP
01023a: 20               NOP
01023b: 20               NOP
01023c: 20               NOP
01023d: 20               NOP
01023e: 20               NOP
01023f: 20               NOP
010240: 20               NOP
010241: 20               NOP
010242: 20               NOP
010243: 20               NOP
010244: 20               NOP
010245: 20               NOP
010246: 20               NOP
010247: 20               NOP
010248: 20               NOP
010249: 20               NOP
01024a: 20               NOP
01024b: 20               NOP
01024c: 20               NOP
01024d: 20               NOP
01024e: 20               NOP
01024f: 20               NOP
010250: 20               NOP
010251: 20               NOP
010252: 20               NOP
010253: 20               NOP
010254: 20               NOP
010255: 20               NOP
010256: 20               NOP
010257: 20               NOP
010258: 20               NOP
010259: 20               NOP
01025a: 20               NOP
01025b: 20               NOP
01025c: 20               NOP
01025d: 20               NOP
01025e: 20               NOP
01025f: 20               NOP
010260: 20               NOP
010261: 20               NOP
010262: 20               NOP
010263: 20               NOP
010264: 20               NOP
010265: 20               NOP
010266: 20               NOP
010267: 20               NOP
010268: 20               NOP
010269: 20               NOP
01026a: 20               NOP
01026b: 20               NOP
01026c: 20               NOP
01026d: 20               NOP
01026e: 20               NOP
01026f: 20               NOP
010270: 20               NOP
010271: 20               NOP
010272: 20               NOP
010273: 20               NOP
010274: 20               NOP
010275: 20               NOP
010276: 20               NOP
010277: 20               NOP
010278: 20               NOP
010279: 20               NOP
01027a: 20               NOP
01027b: 20               NOP
01027c: 20               NOP
01027d: 20               NOP
01027e: 20               NOP
01027f: 20               NOP
010280: 20               NOP
010281: 20               NOP
010282: 20               NOP
010283: 20               NOP
010284: 20               NOP
010285: 20               NOP
010286: 20               NOP
010287: 20               NOP
010288: 20               NOP
010289: 20               NOP
01028a: 20               NOP
01028b: 20               NOP
01028c: 20               NOP
01028d: 20               NOP
01028e: 20               NOP
01028f: 20               NOP
010290: 20               NOP
010291: 20               NOP
010292: 20               NOP
010293: 20               NOP
010294: 20               NOP
010295: 20               NOP
010296: 20               NOP
010297: 20               NOP
010298: 20               NOP
010299: 20               NOP
01029a: 20               NOP
01029b: 20               NOP
01029c: 20               NOP
01029d: 20               NOP
01029e: 20               NOP
01029f: 20               NOP
0102a0: 20               NOP
0102a1: 20               NOP
0102a2: 20               NOP
0102a3: 20               NOP
0102a4: 20               NOP
0102a5: 20               NOP
0102a6: 20               NOP
0102a7: 20               NOP
0102a8: 20               NOP
0102a9: 20               NOP
0102aa: 20               NOP
0102ab: 20               NOP
0102ac: 20               NOP
0102ad: 20               NOP
0102ae: 20               NOP
0102af: 20               NOP
0102b0: 20               NOP
0102b1: 20               NOP
0102b2: 20               NOP
0102b3: 20               NOP
0102b4: 20               NOP
0102b5: 20               NOP
0102b6: 20               NOP
0102b7: 20               NOP
0102b8: 20               NOP
0102b9: 20               NOP
0102ba: 20               NOP
0102bb: 20               NOP
0102bc: 20               NOP
0102bd: 20               NOP
0102be: 20               NOP
0102bf: 20               NOP
0102c0: 20               NOP
0102c1: 20               NOP
0102c2: 20               NOP
0102c3: 20               NOP
0102c4: 20               NOP
0102c5: 20               NOP
0102c6: 20               NOP
0102c7: 20               NOP
0102c8: 20               NOP
0102c9: 20               NOP
0102ca: 20               NOP
0102cb: 20               NOP
0102cc: 20               NOP
0102cd: 20               NOP
0102ce: 20               NOP
0102cf: 20               NOP
0102d0: 20               NOP
0102d1: 20               NOP
0102d2: 20               NOP
0102d3: 20               NOP
0102d4: 20               NOP
0102d5: 20               NOP
0102d6: 20               NOP
0102d7: 20               NOP
0102d8: 20               NOP
0102d9: 20               NOP
0102da: 20               NOP
0102db: 20               NOP
0102dc: 20               NOP
0102dd: 20               NOP
0102de: 20               NOP
0102df: 20               NOP
0102e0: 20               NOP
0102e1: 20               NOP
0102e2: 20               NOP
0102e3: 20               NOP
0102e4: 20               NOP
0102e5: 20               NOP
0102e6: 20               NOP
0102e7: 20               NOP
0102e8: 20               NOP
0102e9: 20               NOP
0102ea: 20               NOP
0102eb: 20               NOP
0102ec: 20               NOP
0102ed: 20               NOP
0102ee: 20               NOP
0102ef: 20               NOP
0102f0: 20               NOP
0102f1: 20               NOP
0102f2: 20               NOP
0102f3: 20               NOP
0102f4: 20               NOP
0102f5: 20               NOP
0102f6: 20               NOP
0102f7: 20               NOP
0102f8: 20               NOP
0102f9: 20               NOP
0102fa: 20               NOP
0102fb: 20               NOP
0102fc: 20               NOP
0102fd: 20               NOP
0102fe: 20               NOP
0102ff: 20               NOP
010300: 20               NOP
010301: 20               NOP
010302: 20               NOP
010303: 20               NOP
010304: 20               NOP
010305: 20               NOP
010306: 20               NOP
010307: 20               NOP
010308: 20               NOP
010309: 20               NOP
01030a: 20               NOP
01030b: 20               NOP
01030c: 20               NOP
01030d: 20               NOP
01030e: 20               NOP
01030f: 20               NOP
010310: 20               NOP
010311: 20               NOP
010312: 20               NOP
010313: 20               NOP
010314: 20               NOP
010315: 20               NOP
010316: 20               NOP
010317: 20               NOP
010318: 20               NOP
010319: 20               NOP
01031a: 20               NOP
01031b: 20               NOP
01031c: 20               NOP
01031d: 20               NOP
01031e: 20               NOP
01031f: 20               NOP
010320: 20               NOP
010321: 20               NOP
010322: 20               NOP
010323: 20               NOP
010324: 20               NOP
010325: 20               NOP
010326: 20               NOP
010327: 20               NOP
010328: 20               NOP
010329: 20               NOP
01032a: 20               NOP
01032b: 20               NOP
01032c: 20               NOP
01032d: 20               NOP
01032e: 20               NOP
01032f: 20               NOP
010330: 20               NOP
010331: 20               NOP
010332: 20               NOP
010333: 20               NOP
010334: 20               NOP
010335: 20               NOP
010336: 20               NOP
010337: 20               NOP
010338: 20               NOP
010339: 20               NOP
01033a: 20               NOP
01033b: 20               NOP
01033c: 20               NOP
01033d: 20               NOP
01033e: 20               NOP
01033f: 20               NOP
010340: 20               NOP
010341: 20               NOP
010342: 20               NOP
010343: 20               NOP
010344: 20               NOP
010345: 20               NOP
010346: 20               NOP
010347: 20               NOP
010348: 20               NOP
010349: 20               NOP
01034a: 20               NOP
01034b: 20               NOP
01034c: 20               NOP
01034d: 20               NOP
01034e: 20               NOP
01034f: 20               NOP
010350: 20               NOP
010351: 20               NOP
010352: 20               NOP
010353: 20               NOP
010354: 20               NOP
010355: 20               NOP
010356: 20               NOP
010357: 20               NOP
010358: 20               NOP
010359: 20               NOP
01035a: 20               NOP
01035b: 20               NOP
01035c: 20               NOP
01035d: 20               NOP
01035e: 20               NOP
01035f: 20               NOP
010360: 20               NOP
010361: 20               NOP
010362: 20               NOP
010363: 20               NOP
010364: 20               NOP
010365: 20               NOP
010366: 20               NOP
010367: 20               NOP
010368: 20               NOP
010369: 20               NOP
01036a: 20               NOP
01036b: 20               NOP
01036c: 20               NOP
01036d: 20               NOP
01036e: 20               NOP
01036f: 20               NOP
010370: 20               NOP
010371: 20               NOP
010372: 20               NOP
010373: 20               NOP
010374: 20               NOP
010375: 20               NOP
010376: 20               NOP
010377: 20               NOP
010378: 20               NOP
010379: 20               NOP
01037a: 20               NOP
01037b: 20               NOP
01037c: 20               NOP
01037d: 20               NOP
01037e: 20               NOP
01037f: 20               NOP
010380: 20               NOP
010381: 20               NOP
010382: 20               NOP
010383: 20               NOP
010384: 20               NOP
010385: 20               NOP
010386: 20               NOP
010387: 20               NOP
010388: 20               NOP
010389: 20               NOP
01038a: 20               NOP
01038b: 20               NOP
01038c: 20               NOP
01038d: 20               NOP
01038e: 20               NOP
01038f: 20               NOP
010390: 20               NOP
010391: 20               NOP
010392: 20               NOP
010393: 20               NOP
010394: 20               NOP
010395: 20               NOP
010396: 20               NOP
010397: 20               NOP
010398: 20               NOP
010399: 20               NOP
01039a: 20               NOP
01039b: 20               NOP
01039c: 20               NOP
01039d: 20               NOP
01039e: 20               NOP
01039f: 20               NOP
0103a0: 20               NOP
0103a1: 20               NOP
0103a2: 20               NOP
0103a3: 20               NOP
0103a4: 20               NOP
0103a5: 20               NOP
0103a6: 20               NOP
0103a7: 20               NOP
0103a8: 20               NOP
0103a9: 20               NOP
0103aa: 20               NOP
0103ab: 20               NOP
0103ac: 20               NOP
0103ad: 20               NOP
0103ae: 20               NOP
0103af: 20               NOP
0103b0: 20               NOP
0103b1: 20               NOP
0103b2: 20               NOP
0103b3: 20               NOP
0103b4: 20               NOP
0103b5: 20               NOP
0103b6: 20               NOP
0103b7: 20               NOP
0103b8: 20               NOP
0103b9: 20               NOP
0103ba: 20               NOP
0103bb: 20               NOP
0103bc: 20               NOP
0103bd: 20               NOP
0103be: 20               NOP
0103bf: 20               NOP
0103c0: 20               NOP
0103c1: 20               NOP
0103c2: 20               NOP
0103c3: 20               NOP
0103c4: 20               NOP
0103c5: 20               NOP
0103c6: 20               NOP
0103c7: 20               NOP
0103c8: 20               NOP
0103c9: 20               NOP
0103ca: 20               NOP
0103cb: 20               NOP
0103cc: 20               NOP
0103cd: 20               NOP
0103ce: 20               NOP
0103cf: 20               NOP
0103d0: 20               NOP
0103d1: 20               NOP
0103d2: 20               NOP
0103d3: 20               NOP
0103d4: 20               NOP
0103d5: 20               NOP
0103d6: 20               NOP
0103d7: 20               NOP
0103d8: 20               NOP
0103d9: 20               NOP
0103da: 20               NOP
0103db: 20               NOP
0103dc: 20               NOP
0103dd: 20               NOP
0103de: 20               NOP
0103df: 20               NOP
0103e0: 20               NOP
0103e1: 20               NOP
0103e2: 20               NOP
0103e3: 20               NOP
0103e4: 20               NOP
0103e5: 20               NOP
0103e6: 20               NOP
0103e7: 20               NOP
0103e8: 20               NOP
0103e9: 20               NOP
0103ea: 20               NOP
0103eb: 20               NOP
0103ec: 20               NOP
0103ed: 20               NOP
0103ee: 20               NOP
0103ef: 20               NOP
0103f0: 20               NOP
0103f1: 20               NOP
0103f2: 20               NOP
0103f3: 20               NOP
0103f4: 20               NOP
0103f5: 20               NOP
0103f6: 20               NOP
0103f7: 20               NOP
0103f8: 20               NOP
0103f9: 20               NOP
0103fa: 20               NOP
0103fb: 20               NOP
0103fc: 20               NOP
0103fd: 20               NOP
0103fe: 20               NOP
0103ff: 20               NOP
010400: 20               NOP
010401: 20               NOP
010402: 20               NOP
010403: 20               NOP
010404: 20               NOP
010405: 20               NOP
010406: 20               NOP
010407: 20               NOP
010408:               _g_r:
010408: 20               NOP
010409: 20               NOP
01040a: 20               NOP
01040b: 20               NOP
01040c: 20               NOP
01040d: 20               NOP
01040e: 20               NOP
01040f: 20               NOP
010410: 20               NOP
010411: 20               NOP
010412: 20               NOP
010413: 20               NOP
010414: 20               NOP
010415: 20               NOP
010416: 20               NOP
010417: 20               NOP
010418: 20               NOP
010419: 20               NOP
01041a: 20               NOP
01041b: 20               NOP
01041c: 20               NOP
01041d: 20               NOP
01041e: 20               NOP
01041f: 20               NOP
010420: 20               NOP
010421: 20               NOP
010422: 20               NOP
010423: 20               NOP
010424: 20               NOP
010425: 20               NOP
010426: 20               NOP
010427: 20               NOP
010428: 20               NOP
010429: 20               NOP
01042a: 20               NOP
01042b: 20               NOP
01042c: 20               NOP
01042d: 20               NOP
01042e: 20               NOP
01042f: 20               NOP
010430: 20               NOP
010431: 20               NOP
010432: 20               NOP
010433: 20               NOP
010434: 20               NOP
010435: 20               NOP
010436: 20               NOP
010437: 20               NOP
010438: 20               NOP
010439: 20               NOP
01043a: 20               NOP
01043b: 20               NOP
01043c: 20               NOP
01043d: 20               NOP
01043e: 20               NOP
01043f: 20               NOP
010440: 20               NOP
010441: 20               NOP
010442: 20               NOP
010443: 20               NOP
010444: 20               NOP
010445: 20               NOP
010446: 20               NOP
010447: 20               NOP
010448: 20               NOP
010449: 20               NOP
01044a: 20               NOP
01044b: 20               NOP
01044c: 20               NOP
01044d: 20               NOP
01044e: 20               NOP
01044f: 20               NOP
010450: 20               NOP
010451: 20               NOP
010452: 20               NOP
010453: 20               NOP
010454: 20               NOP
010455: 20               NOP
010456: 20               NOP
010457: 20               NOP
010458: 20               NOP
010459: 20               NOP
01045a: 20               NOP
01045b: 20               NOP
01045c: 20               NOP
01045d: 20               NOP
01045e: 20               NOP
01045f: 20               NOP
010460: 20               NOP
010461: 20               NOP
010462: 20               NOP
010463: 20               NOP
010464: 20               NOP
010465: 20               NOP
010466: 20               NOP
010467: 20               NOP
010468: 20               NOP
010469: 20               NOP
01046a: 20               NOP
01046b: 20               NOP
01046c: 20               NOP
01046d: 20               NOP
01046e: 20               NOP
01046f: 20               NOP
010470: 20               NOP
010471: 20               NOP
010472: 20               NOP
010473: 20               NOP
010474: 20               NOP
010475: 20               NOP
010476: 20               NOP
010477: 20               NOP
010478: 20               NOP
010479: 20               NOP
01047a: 20               NOP
01047b: 20               NOP
01047c: 20               NOP
01047d: 20               NOP
01047e: 20               NOP
01047f: 20               NOP
010480: 20               NOP
010481: 20               NOP
010482: 20               NOP
010483: 20               NOP
010484: 20               NOP
010485: 20               NOP
010486: 20               NOP
010487: 20               NOP
010488: 20               NOP
010489: 20               NOP
01048a: 20               NOP
01048b: 20               NOP
01048c: 20               NOP
01048d: 20               NOP
01048e: 20               NOP
01048f: 20               NOP
010490: 20               NOP
010491: 20               NOP
010492: 20               NOP
010493: 20               NOP
010494: 20               NOP
010495: 20               NOP
010496: 20               NOP
010497: 20               NOP
010498: 20               NOP
010499: 20               NOP
01049a: 20               NOP
01049b: 20               NOP
01049c: 20               NOP
01049d: 20               NOP
01049e: 20               NOP
01049f: 20               NOP
0104a0: 20               NOP
0104a1: 20               NOP
0104a2: 20               NOP
0104a3: 20               NOP
0104a4: 20               NOP
0104a5: 20               NOP
0104a6: 20               NOP
0104a7: 20               NOP
0104a8: 20               NOP
0104a9: 20               NOP
0104aa: 20               NOP
0104ab: 20               NOP
0104ac: 20               NOP
0104ad: 20               NOP
0104ae: 20               NOP
0104af: 20               NOP
0104b0: 20               NOP
0104b1: 20               NOP
0104b2: 20               NOP
0104b3: 20               NOP
0104b4: 20               NOP
0104b5: 20               NOP
0104b6: 20               NOP
0104b7: 20               NOP
0104b8: 20               NOP
0104b9: 20               NOP
0104ba: 20               NOP
0104bb: 20               NOP
0104bc: 20               NOP
0104bd: 20               NOP
0104be: 20               NOP
0104bf: 20               NOP
0104c0: 20               NOP
0104c1: 20               NOP
0104c2: 20               NOP
0104c3: 20               NOP
0104c4: 20               NOP
0104c5: 20               NOP
0104c6: 20               NOP
0104c7: 20               NOP
0104c8: 20               NOP
0104c9: 20               NOP
0104ca: 20               NOP
0104cb: 20               NOP
0104cc: 20               NOP
0104cd: 20               NOP
0104ce: 20               NOP
0104cf: 20               NOP
0104d0: 20               NOP
0104d1: 20               NOP
0104d2: 20               NOP
0104d3: 20               NOP
0104d4: 20               NOP
0104d5: 20               NOP
0104d6: 20               NOP
0104d7: 20               NOP
0104d8: 20               NOP
0104d9: 20               NOP
0104da: 20               NOP
0104db: 20               NOP
0104dc: 20               NOP
0104dd: 20               NOP
0104de: 20               NOP
0104df: 20               NOP
0104e0: 20               NOP
0104e1: 20               NOP
0104e2: 20               NOP
0104e3: 20               NOP
0104e4: 20               NOP
0104e5: 20               NOP
0104e6: 20               NOP
0104e7: 20               NOP
0104e8: 20               NOP
0104e9: 20               NOP
0104ea: 20               NOP
0104eb: 20               NOP
0104ec: 20               NOP
0104ed: 20               NOP
0104ee: 20               NOP
0104ef: 20               NOP
0104f0: 20               NOP
0104f1: 20               NOP
0104f2: 20               NOP
0104f3: 20               NOP
0104f4: 20               NOP
0104f5: 20               NOP
0104f6: 20               NOP
0104f7: 20               NOP
0104f8: 20               NOP
0104f9: 20               NOP
0104fa: 20               NOP
0104fb: 20               NOP
0104fc: 20               NOP
0104fd: 20               NOP
0104fe: 20               NOP
0104ff: 20               NOP
010500: 20               NOP
010501: 20               NOP
010502: 20               NOP
010503: 20               NOP
010504: 20               NOP
010505: 20               NOP
010506: 20               NOP
010507: 20               NOP
010508: 20               NOP
010509: 20               NOP
01050a: 20               NOP
01050b: 20               NOP
01050c: 20               NOP
01050d: 20               NOP
01050e: 20               NOP
01050f: 20               NOP
010510: 20               NOP
010511: 20               NOP
010512: 20               NOP
010513: 20               NOP
010514: 20               NOP
010515: 20               NOP
010516: 20               NOP
010517: 20               NOP
010518: 20               NOP
010519: 20               NOP
01051a: 20               NOP
01051b: 20               NOP
01051c: 20               NOP
01051d: 20               NOP
01051e: 20               NOP
01051f: 20               NOP
010520: 20               NOP
010521: 20               NOP
010522: 20               NOP
010523: 20               NOP
010524: 20               NOP
010525: 20               NOP
010526: 20               NOP
010527: 20               NOP
010528: 20               NOP
010529: 20               NOP
01052a: 20               NOP
01052b: 20               NOP
01052c: 20               NOP
01052d: 20               NOP
01052e: 20               NOP
01052f: 20               NOP
010530: 20               NOP
010531: 20               NOP
010532: 20               NOP
010533: 20               NOP
010534: 20               NOP
010535: 20               NOP
010536: 20               NOP
010537: 20               NOP
010538: 20               NOP
010539: 20               NOP
01053a: 20               NOP
01053b: 20               NOP
01053c: 20               NOP
01053d: 20               NOP
01053e: 20               NOP
01053f: 20               NOP
010540: 20               NOP
010541: 20               NOP
010542: 20               NOP
010543: 20               NOP
010544: 20               NOP
010545: 20               NOP
010546: 20               NOP
010547: 20               NOP
010548: 20               NOP
010549: 20               NOP
01054a: 20               NOP
01054b: 20               NOP
01054c: 20               NOP
01054d: 20               NOP
01054e: 20               NOP
01054f: 20               NOP
010550: 20               NOP
010551: 20               NOP
010552: 20               NOP
010553: 20               NOP
010554: 20               NOP
010555: 20               NOP
010556: 20               NOP
010557: 20               NOP
010558: 20               NOP
010559: 20               NOP
01055a: 20               NOP
01055b: 20               NOP
01055c: 20               NOP
01055d: 20               NOP
01055e: 20               NOP
01055f: 20               NOP
010560: 20               NOP
010561: 20               NOP
010562: 20               NOP
010563: 20               NOP
010564: 20               NOP
010565: 20               NOP
010566: 20               NOP
010567: 20               NOP
010568: 20               NOP
010569: 20               NOP
01056a: 20               NOP
01056b: 20               NOP
01056c: 20               NOP
01056d: 20               NOP
01056e: 20               NOP
01056f: 20               NOP
010570: 20               NOP
010571: 20               NOP
010572: 20               NOP
010573: 20               NOP
010574: 20               NOP
010575: 20               NOP
010576: 20               NOP
010577: 20               NOP
010578: 20               NOP
010579: 20               NOP
01057a: 20               NOP
01057b: 20               NOP
01057c: 20               NOP
01057d: 20               NOP
01057e: 20               NOP
01057f: 20               NOP
010580: 20               NOP
010581: 20               NOP
010582: 20               NOP
010583: 20               NOP
010584: 20               NOP
010585: 20               NOP
010586: 20               NOP
010587: 20               NOP
010588: 20               NOP
010589: 20               NOP
01058a: 20               NOP
01058b: 20               NOP
01058c: 20               NOP
01058d: 20               NOP
01058e: 20               NOP
01058f: 20               NOP
010590: 20               NOP
010591: 20               NOP
010592: 20               NOP
010593: 20               NOP
010594: 20               NOP
010595: 20               NOP
010596: 20               NOP
010597: 20               NOP
010598: 20               NOP
010599: 20               NOP
01059a: 20               NOP
01059b: 20               NOP
01059c: 20               NOP
01059d: 20               NOP
01059e: 20               NOP
01059f: 20               NOP
0105a0: 20               NOP
0105a1: 20               NOP
0105a2: 20               NOP
0105a3: 20               NOP
0105a4: 20               NOP
0105a5: 20               NOP
0105a6: 20               NOP
0105a7: 20               NOP
0105a8: 20               NOP
0105a9: 20               NOP
0105aa: 20               NOP
0105ab: 20               NOP
0105ac: 20               NOP
0105ad: 20               NOP
0105ae: 20               NOP
0105af: 20               NOP
0105b0: 20               NOP
0105b1: 20               NOP
0105b2: 20               NOP
0105b3: 20               NOP
0105b4: 20               NOP
0105b5: 20               NOP
0105b6: 20               NOP
0105b7: 20               NOP
0105b8: 20               NOP
0105b9: 20               NOP
0105ba: 20               NOP
0105bb: 20               NOP
0105bc: 20               NOP
0105bd: 20               NOP
0105be: 20               NOP
0105bf: 20               NOP
0105c0: 20               NOP
0105c1: 20               NOP
0105c2: 20               NOP
0105c3: 20               NOP
0105c4: 20               NOP
0105c5: 20               NOP
0105c6: 20               NOP
0105c7: 20               NOP
0105c8: 20               NOP
0105c9: 20               NOP
0105ca: 20               NOP
0105cb: 20               NOP
0105cc: 20               NOP
0105cd: 20               NOP
0105ce: 20               NOP
0105cf: 20               NOP
0105d0: 20               NOP
0105d1: 20               NOP
0105d2: 20               NOP
0105d3: 20               NOP
0105d4: 20               NOP
0105d5: 20               NOP
0105d6: 20               NOP
0105d7: 20               NOP
0105d8: 20               NOP
0105d9: 20               NOP
0105da: 20               NOP
0105db: 20               NOP
0105dc: 20               NOP
0105dd: 20               NOP
0105de: 20               NOP
0105df: 20               NOP
0105e0: 20               NOP
0105e1: 20               NOP
0105e2: 20               NOP
0105e3: 20               NOP
0105e4: 20               NOP
0105e5: 20               NOP
0105e6: 20               NOP
0105e7: 20               NOP
0105e8: 20               NOP
0105e9: 20               NOP
0105ea: 20               NOP
0105eb: 20               NOP
0105ec: 20               NOP
0105ed: 20               NOP
0105ee: 20               NOP
0105ef: 20               NOP
0105f0: 20               NOP
0105f1: 20               NOP
0105f2: 20               NOP
0105f3: 20               NOP
0105f4: 20               NOP
0105f5: 20               NOP
0105f6: 20               NOP
0105f7: 20               NOP
0105f8: 20               NOP
0105f9: 20               NOP
0105fa: 20               NOP
0105fb: 20               NOP
0105fc: 20               NOP
0105fd: 20               NOP
0105fe: 20               NOP
0105ff: 20               NOP
010600: 20               NOP
010601: 20               NOP
010602: 20               NOP
010603: 20               NOP
010604: 20               NOP
010605: 20               NOP
010606: 20               NOP
010607: 20               NOP
010608: 20               NOP
010609: 20               NOP
01060a: 20               NOP
01060b: 20               NOP
01060c: 20               NOP
01060d: 20               NOP
01060e: 20               NOP
01060f: 20               NOP
010610: 20               NOP
010611: 20               NOP
010612: 20               NOP
010613: 20               NOP
010614: 20               NOP
010615: 20               NOP
010616: 20               NOP
010617: 20               NOP
010618: 20               NOP
010619: 20               NOP
01061a: 20               NOP
01061b: 20               NOP
01061c: 20               NOP
01061d: 20               NOP
01061e: 20               NOP
01061f: 20               NOP
010620: 20               NOP
010621: 20               NOP
010622: 20               NOP
010623: 20               NOP
010624: 20               NOP
010625: 20               NOP
010626: 20               NOP
010627: 20               NOP
010628: 20               NOP
010629: 20               NOP
01062a: 20               NOP
01062b: 20               NOP
01062c: 20               NOP
01062d: 20               NOP
01062e: 20               NOP
01062f: 20               NOP
010630: 20               NOP
010631: 20               NOP
010632: 20               NOP
010633: 20               NOP
010634: 20               NOP
010635: 20               NOP
010636: 20               NOP
010637: 20               NOP
010638: 20               NOP
010639: 20               NOP
01063a: 20               NOP
01063b: 20               NOP
01063c: 20               NOP
01063d: 20               NOP
01063e: 20               NOP
01063f: 20               NOP
010640: 20               NOP
010641: 20               NOP
010642: 20               NOP
010643: 20               NOP
010644: 20               NOP
010645: 20               NOP
010646: 20               NOP
010647: 20               NOP
010648: 20               NOP
010649: 20               NOP
01064a: 20               NOP
01064b: 20               NOP
01064c: 20               NOP
01064d: 20               NOP
01064e: 20               NOP
01064f: 20               NOP
010650: 20               NOP
010651: 20               NOP
010652: 20               NOP
010653: 20               NOP
010654: 20               NOP
010655: 20               NOP
010656: 20               NOP
010657: 20               NOP
010658: 20               NOP
010659: 20               NOP
01065a: 20               NOP
01065b: 20               NOP
01065c: 20               NOP
01065d: 20               NOP
01065e: 20               NOP
01065f: 20               NOP
010660: 20               NOP
010661: 20               NOP
010662: 20               NOP
010663: 20               NOP
010664: 20               NOP
010665: 20               NOP
010666: 20               NOP
010667: 20               NOP
010668: 20               NOP
010669: 20               NOP
01066a: 20               NOP
01066b: 20               NOP
01066c: 20               NOP
01066d: 20               NOP
01066e: 20               NOP
01066f: 20               NOP
010670: 20               NOP
010671: 20               NOP
010672: 20               NOP
010673: 20               NOP
010674: 20               NOP
010675: 20               NOP
010676: 20               NOP
010677: 20               NOP
010678: 20               NOP
010679: 20               NOP
01067a: 20               NOP
01067b: 20               NOP
01067c: 20               NOP
01067d: 20               NOP
01067e: 20               NOP
01067f: 20               NOP
010680: 20               NOP
010681: 20               NOP
010682: 20               NOP
010683: 20               NOP
010684: 20               NOP
010685: 20               NOP
010686: 20               NOP
010687: 20               NOP
010688: 20               NOP
010689: 20               NOP
01068a: 20               NOP
01068b: 20               NOP
01068c: 20               NOP
01068d: 20               NOP
01068e: 20               NOP
01068f: 20               NOP
010690: 20               NOP
010691: 20               NOP
010692: 20               NOP
010693: 20               NOP
010694: 20               NOP
010695: 20               NOP
010696: 20               NOP
010697: 20               NOP
010698: 20               NOP
010699: 20               NOP
01069a: 20               NOP
01069b: 20               NOP
01069c: 20               NOP
01069d: 20               NOP
01069e: 20               NOP
01069f: 20               NOP
0106a0: 20               NOP
0106a1: 20               NOP
0106a2: 20               NOP
0106a3: 20               NOP
0106a4: 20               NOP
0106a5: 20               NOP
0106a6: 20               NOP
0106a7: 20               NOP
0106a8: 20               NOP
0106a9: 20               NOP
0106aa: 20               NOP
0106ab: 20               NOP
0106ac: 20               NOP
0106ad: 20               NOP
0106ae: 20               NOP
0106af: 20               NOP
0106b0: 20               NOP
0106b1: 20               NOP
0106b2: 20               NOP
0106b3: 20               NOP
0106b4: 20               NOP
0106b5: 20               NOP
0106b6: 20               NOP
0106b7: 20               NOP
0106b8: 20               NOP
0106b9: 20               NOP
0106ba: 20               NOP
0106bb: 20               NOP
0106bc: 20               NOP
0106bd: 20               NOP
0106be: 20               NOP
0106bf: 20               NOP
0106c0: 20               NOP
0106c1: 20               NOP
0106c2: 20               NOP
0106c3: 20               NOP
0106c4: 20               NOP
0106c5: 20               NOP
0106c6: 20               NOP
0106c7: 20               NOP
0106c8: 20               NOP
0106c9: 20               NOP
0106ca: 20               NOP
0106cb: 20               NOP
0106cc: 20               NOP
0106cd: 20               NOP
0106ce: 20               NOP
0106cf: 20               NOP
0106d0: 20               NOP
0106d1: 20               NOP
0106d2: 20               NOP
0106d3: 20               NOP
0106d4: 20               NOP
0106d5: 20               NOP
0106d6: 20               NOP
0106d7: 20               NOP
0106d8: 20               NOP
0106d9: 20               NOP
0106da: 20               NOP
0106db: 20               NOP
0106dc: 20               NOP
0106dd: 20               NOP
0106de: 20               NOP
0106df: 20               NOP
0106e0: 20               NOP
0106e1: 20               NOP
0106e2: 20               NOP
0106e3: 20               NOP
0106e4: 20               NOP
0106e5: 20               NOP
0106e6: 20               NOP
0106e7: 20               NOP
0106e8: 20               NOP
0106e9: 20               NOP
0106ea: 20               NOP
0106eb: 20               NOP
0106ec: 20               NOP
0106ed: 20               NOP
0106ee: 20               NOP
0106ef: 20               NOP
0106f0: 20               NOP
0106f1: 20               NOP
0106f2: 20               NOP
0106f3: 20               NOP
0106f4: 20               NOP
0106f5: 20               NOP
0106f6: 20               NOP
0106f7: 20               NOP
0106f8: 20               NOP
0106f9: 20               NOP
0106fa: 20               NOP
0106fb: 20               NOP
0106fc: 20               NOP
0106fd: 20               NOP
0106fe: 20               NOP
0106ff: 20               NOP
010700: 20               NOP
010701: 20               NOP
010702: 20               NOP
010703: 20               NOP
010704: 20               NOP
010705: 20               NOP
010706: 20               NOP
010707: 20               NOP
010708: 20               NOP
010709: 20               NOP
01070a: 20               NOP
01070b: 20               NOP
01070c: 20               NOP
01070d: 20               NOP
01070e: 20               NOP
01070f: 20               NOP
010710: 20               NOP
010711: 20               NOP
010712: 20               NOP
010713: 20               NOP
010714: 20               NOP
010715: 20               NOP
010716: 20               NOP
010717: 20               NOP
010718: 20               NOP
010719: 20               NOP
01071a: 20               NOP
01071b: 20               NOP
01071c: 20               NOP
01071d: 20               NOP
01071e: 20               NOP
01071f: 20               NOP
010720: 20               NOP
010721: 20               NOP
010722: 20               NOP
010723: 20               NOP
010724: 20               NOP
010725: 20               NOP
010726: 20               NOP
010727: 20               NOP
010728: 20               NOP
010729: 20               NOP
01072a: 20               NOP
01072b: 20               NOP
01072c: 20               NOP
01072d: 20               NOP
01072e: 20               NOP
01072f: 20               NOP
010730: 20               NOP
010731: 20               NOP
010732: 20               NOP
010733: 20               NOP
010734: 20               NOP
010735: 20               NOP
010736: 20               NOP
010737: 20               NOP
010738: 20               NOP
010739: 20               NOP
01073a: 20               NOP
01073b: 20               NOP
01073c: 20               NOP
01073d: 20               NOP
01073e: 20               NOP
01073f: 20               NOP
010740: 20               NOP
010741: 20               NOP
010742: 20               NOP
010743: 20               NOP
010744: 20               NOP
010745: 20               NOP
010746: 20               NOP
010747: 20               NOP
010748: 20               NOP
010749: 20               NOP
01074a: 20               NOP
01074b: 20               NOP
01074c: 20               NOP
01074d: 20               NOP
01074e: 20               NOP
01074f: 20               NOP
010750: 20               NOP
010751: 20               NOP
010752: 20               NOP
010753: 20               NOP
010754: 20               NOP
010755: 20               NOP
010756: 20               NOP
010757: 20               NOP
010758: 20               NOP
010759: 20               NOP
01075a: 20               NOP
01075b: 20               NOP
01075c: 20               NOP
01075d: 20               NOP
01075e: 20               NOP
01075f: 20               NOP
010760: 20               NOP
010761: 20               NOP
010762: 20               NOP
010763: 20               NOP
010764: 20               NOP
010765: 20               NOP
010766: 20               NOP
010767: 20               NOP
010768: 20               NOP
010769: 20               NOP
01076a: 20               NOP
01076b: 20               NOP
01076c: 20               NOP
01076d: 20               NOP
01076e: 20               NOP
01076f: 20               NOP
010770: 20               NOP
010771: 20               NOP
010772: 20               NOP
010773: 20               NOP
010774: 20               NOP
010775: 20               NOP
010776: 20               NOP
010777: 20               NOP
010778: 20               NOP
010779: 20               NOP
01077a: 20               NOP
01077b: 20               NOP
01077c: 20               NOP
01077d: 20               NOP
01077e: 20               NOP
01077f: 20               NOP
010780: 20               NOP
010781: 20               NOP
010782: 20               NOP
010783: 20               NOP
010784: 20               NOP
010785: 20               NOP
010786: 20               NOP
010787: 20               NOP
010788: 20               NOP
010789: 20               NOP
01078a: 20               NOP
01078b: 20               NOP
01078c: 20               NOP
01078d: 20               NOP
01078e: 20               NOP
01078f: 20               NOP
010790: 20               NOP
010791: 20               NOP
010792: 20               NOP
010793: 20               NOP
010794: 20               NOP
010795: 20               NOP
010796: 20               NOP
010797: 20               NOP
010798: 20               NOP
010799: 20               NOP
01079a: 20               NOP
01079b: 20               NOP
01079c: 20               NOP
01079d: 20               NOP
01079e: 20               NOP
01079f: 20               NOP
0107a0: 20               NOP
0107a1: 20               NOP
0107a2: 20               NOP
0107a3: 20               NOP
0107a4: 20               NOP
0107a5: 20               NOP
0107a6: 20               NOP
0107a7: 20               NOP
0107a8: 20               NOP
0107a9: 20               NOP
0107aa: 20               NOP
0107ab: 20               NOP
0107ac: 20               NOP
0107ad: 20               NOP
0107ae: 20               NOP
0107af: 20               NOP
0107b0: 20               NOP
0107b1: 20               NOP
0107b2: 20               NOP
0107b3: 20               NOP
0107b4: 20               NOP
0107b5: 20               NOP
0107b6: 20               NOP
0107b7: 20               NOP
0107b8: 20               NOP
0107b9: 20               NOP
0107ba: 20               NOP
0107bb: 20               NOP
0107bc: 20               NOP
0107bd: 20               NOP
0107be: 20               NOP
0107bf: 20               NOP
0107c0: 20               NOP
0107c1: 20               NOP
0107c2: 20               NOP
0107c3: 20               NOP
0107c4: 20               NOP
0107c5: 20               NOP
0107c6: 20               NOP
0107c7: 20               NOP
0107c8: 20               NOP
0107c9: 20               NOP
0107ca: 20               NOP
0107cb: 20               NOP
0107cc: 20               NOP
0107cd: 20               NOP
0107ce: 20               NOP
0107cf: 20               NOP
0107d0: 20               NOP
0107d1: 20               NOP
0107d2: 20               NOP
0107d3: 20               NOP
0107d4: 20               NOP
0107d5: 20               NOP
0107d6: 20               NOP
0107d7: 20               NOP
0107d8: 20               NOP
0107d9: 20               NOP
0107da: 20               NOP
0107db: 20               NOP
0107dc: 20               NOP
0107dd: 20               NOP
0107de: 20               NOP
0107df: 20               NOP
0107e0: 20               NOP
0107e1: 20               NOP
0107e2: 20               NOP
0107e3: 20               NOP
0107e4: 20               NOP
0107e5: 20               NOP
0107e6: 20               NOP
0107e7: 20               NOP
0107e8: 20               NOP
0107e9: 20               NOP
0107ea: 20               NOP
0107eb: 20               NOP
0107ec: 20               NOP
0107ed: 20               NOP
0107ee: 20               NOP
0107ef: 20               NOP
0107f0: 20               NOP
0107f1: 20               NOP
0107f2: 20               NOP
0107f3: 20               NOP
0107f4: 20               NOP
0107f5: 20               NOP
0107f6: 20               NOP
0107f7: 20               NOP
0107f8: 20               NOP
0107f9: 20               NOP
0107fa: 20               NOP
0107fb: 20               NOP
0107fc: 20               NOP
0107fd: 20               NOP
0107fe: 20               NOP
0107ff: 20               NOP
010800: 20               NOP
010801: 20               NOP
010802: 20               NOP
010803: 20               NOP
010804: 20               NOP
010805: 20               NOP
010806: 20               NOP
010807: 20               NOP
010808: 20               NOP
010809: 20               NOP
01080a: 20               NOP
01080b: 20               NOP
01080c: 20               NOP
01080d: 20               NOP
01080e: 20               NOP
01080f: 20               NOP
010810: 20               NOP
010811: 20               NOP
010812: 20               NOP
010813: 20               NOP
010814: 20               NOP
010815: 20               NOP
010816: 20               NOP
010817: 20               NOP
010818: 20               NOP
010819: 20               NOP
01081a: 20               NOP
01081b: 20               NOP
01081c: 20               NOP
01081d: 20               NOP
01081e: 20               NOP
01081f: 20               NOP
010820: 20               NOP
010821: 20               NOP
010822: 20               NOP
010823: 20               NOP
010824: 20               NOP
010825: 20               NOP
010826: 20               NOP
010827: 20               NOP
010828: 20               NOP
010829: 20               NOP
01082a: 20               NOP
01082b: 20               NOP
01082c: 20               NOP
01082d: 20               NOP
01082e: 20               NOP
01082f: 20               NOP
010830: 20               NOP
010831: 20               NOP
010832: 20               NOP
010833: 20               NOP
010834: 20               NOP
010835: 20               NOP
010836: 20               NOP
010837: 20               NOP
010838: 20               NOP
010839: 20               NOP
01083a: 20               NOP
01083b: 20               NOP
01083c: 20               NOP
01083d: 20               NOP
01083e: 20               NOP
01083f: 20               NOP
010840: 20               NOP
010841: 20               NOP
010842: 20               NOP
010843: 20               NOP
010844: 20               NOP
010845: 20               NOP
010846: 20               NOP
010847: 20               NOP
010848: 20               NOP
010849: 20               NOP
01084a: 20               NOP
01084b: 20               NOP
01084c: 20               NOP
01084d: 20               NOP
01084e: 20               NOP
01084f: 20               NOP
010850: 20               NOP
010851: 20               NOP
010852: 20               NOP
010853: 20               NOP
010854: 20               NOP
010855: 20               NOP
010856: 20               NOP
010857: 20               NOP
010858: 20               NOP
010859: 20               NOP
01085a: 20               NOP
01085b: 20               NOP
01085c: 20               NOP
01085d: 20               NOP
01085e: 20               NOP
01085f: 20               NOP
010860: 20               NOP
010861: 20               NOP
010862: 20               NOP
010863: 20               NOP
010864: 20               NOP
010865: 20               NOP
010866: 20               NOP
010867: 20               NOP
010868: 20               NOP
010869: 20               NOP
01086a: 20               NOP
01086b: 20               NOP
01086c: 20               NOP
01086d: 20               NOP
01086e: 20               NOP
01086f: 20               NOP
010870: 20               NOP
010871: 20               NOP
010872: 20               NOP
010873: 20               NOP
010874: 20               NOP
010875: 20               NOP
010876: 20               NOP
010877: 20               NOP
010878: 20               NOP
010879: 20               NOP
01087a: 20               NOP
01087b: 20               NOP
01087c: 20               NOP
01087d: 20               NOP
01087e: 20               NOP
01087f: 20               NOP
010880: 20               NOP
010881: 20               NOP
010882: 20               NOP
010883: 20               NOP
010884: 20               NOP
010885: 20               NOP
010886: 20               NOP
010887: 20               NOP
010888: 20               NOP
010889: 20               NOP
01088a: 20               NOP
01088b: 20               NOP
01088c: 20               NOP
01088d: 20               NOP
01088e: 20               NOP
01088f: 20               NOP
010890: 20               NOP
010891: 20               NOP
010892: 20               NOP
010893: 20               NOP
010894: 20               NOP
010895: 20               NOP
010896: 20               NOP
010897: 20               NOP
010898: 20               NOP
010899: 20               NOP
01089a: 20               NOP
01089b: 20               NOP
01089c: 20               NOP
01089d: 20               NOP
01089e: 20               NOP
01089f: 20               NOP
0108a0: 20               NOP
0108a1: 20               NOP
0108a2: 20               NOP
0108a3: 20               NOP
0108a4: 20               NOP
0108a5: 20               NOP
0108a6: 20               NOP
0108a7: 20               NOP
0108a8: 20               NOP
0108a9: 20               NOP
0108aa: 20               NOP
0108ab: 20               NOP
0108ac: 20               NOP
0108ad: 20               NOP
0108ae: 20               NOP
0108af: 20               NOP
0108b0: 20               NOP
0108b1: 20               NOP
0108b2: 20               NOP
0108b3: 20               NOP
0108b4: 20               NOP
0108b5: 20               NOP
0108b6: 20               NOP
0108b7: 20               NOP
0108b8: 20               NOP
0108b9: 20               NOP
0108ba: 20               NOP
0108bb: 20               NOP
0108bc: 20               NOP
0108bd: 20               NOP
0108be: 20               NOP
0108bf: 20               NOP
0108c0: 20               NOP
0108c1: 20               NOP
0108c2: 20               NOP
0108c3: 20               NOP
0108c4: 20               NOP
0108c5: 20               NOP
0108c6: 20               NOP
0108c7: 20               NOP
0108c8: 20               NOP
0108c9: 20               NOP
0108ca: 20               NOP
0108cb: 20               NOP
0108cc: 20               NOP
0108cd: 20               NOP
0108ce: 20               NOP
0108cf: 20               NOP
0108d0: 20               NOP
0108d1: 20               NOP
0108d2: 20               NOP
0108d3: 20               NOP
0108d4: 20               NOP
0108d5: 20               NOP
0108d6: 20               NOP
0108d7: 20               NOP
0108d8: 20               NOP
0108d9: 20               NOP
0108da: 20               NOP
0108db: 20               NOP
0108dc: 20               NOP
0108dd: 20               NOP
0108de: 20               NOP
0108df: 20               NOP
0108e0: 20               NOP
0108e1: 20               NOP
0108e2: 20               NOP
0108e3: 20               NOP
0108e4: 20               NOP
0108e5: 20               NOP
0108e6: 20               NOP
0108e7: 20               NOP
0108e8: 20               NOP
0108e9: 20               NOP
0108ea: 20               NOP
0108eb: 20               NOP
0108ec: 20               NOP
0108ed: 20               NOP
0108ee: 20               NOP
0108ef: 20               NOP
0108f0: 20               NOP
0108f1: 20               NOP
0108f2: 20               NOP
0108f3: 20               NOP
0108f4: 20               NOP
0108f5: 20               NOP
0108f6: 20               NOP
0108f7: 20               NOP
0108f8: 20               NOP
0108f9: 20               NOP
0108fa: 20               NOP
0108fb: 20               NOP
0108fc: 20               NOP
0108fd: 20               NOP
0108fe: 20               NOP
0108ff: 20               NOP
010900: 20               NOP
010901: 20               NOP
010902: 20               NOP
010903: 20               NOP
010904: 20               NOP
010905: 20               NOP
010906: 20               NOP
010907: 20               NOP
010908: 20               NOP
010909: 20               NOP
01090a: 20               NOP
01090b: 20               NOP
01090c: 20               NOP
01090d: 20               NOP
01090e: 20               NOP
01090f: 20               NOP
010910: 20               NOP
010911: 20               NOP
010912: 20               NOP
010913: 20               NOP
010914: 20               NOP
010915: 20               NOP
010916: 20               NOP
010917: 20               NOP
010918: 20               NOP
010919: 20               NOP
01091a: 20               NOP
01091b: 20               NOP
01091c: 20               NOP
01091d: 20               NOP
01091e: 20               NOP
01091f: 20               NOP
010920: 20               NOP
010921: 20               NOP
010922: 20               NOP
010923: 20               NOP
010924: 20               NOP
010925: 20               NOP
010926: 20               NOP
010927: 20               NOP
010928: 20               NOP
010929: 20               NOP
01092a: 20               NOP
01092b: 20               NOP
01092c: 20               NOP
01092d: 20               NOP
01092e: 20               NOP
01092f: 20               NOP
010930: 20               NOP
010931: 20               NOP
010932: 20               NOP
010933: 20               NOP
010934: 20               NOP
010935: 20               NOP
010936: 20               NOP
010937: 20               NOP
010938: 20               NOP
010939: 20               NOP
01093a: 20               NOP
01093b: 20               NOP
01093c: 20               NOP
01093d: 20               NOP
01093e: 20               NOP
01093f: 20               NOP
010940: 20               NOP
010941: 20               NOP
010942: 20               NOP
010943: 20               NOP
010944: 20               NOP
010945: 20               NOP
010946: 20               NOP
010947: 20               NOP
010948: 20               NOP
010949: 20               NOP
01094a: 20               NOP
01094b: 20               NOP
01094c: 20               NOP
01094d: 20               NOP
01094e: 20               NOP
01094f: 20               NOP
010950: 20               NOP
010951: 20               NOP
010952: 20               NOP
010953: 20               NOP
010954: 20               NOP
010955: 20               NOP
010956: 20               NOP
010957: 20               NOP
010958: 20               NOP
010959: 20               NOP
01095a: 20               NOP
01095b: 20               NOP
01095c: 20               NOP
01095d: 20               NOP
01095e: 20               NOP
01095f: 20               NOP
010960: 20               NOP
010961: 20               NOP
010962: 20               NOP
010963: 20               NOP
010964: 20               NOP
010965: 20               NOP
010966: 20               NOP
010967: 20               NOP
010968: 20               NOP
010969: 20               NOP
01096a: 20               NOP
01096b: 20               NOP
01096c: 20               NOP
01096d: 20               NOP
01096e: 20               NOP
01096f: 20               NOP
010970: 20               NOP
010971: 20               NOP
010972: 20               NOP
010973: 20               NOP
010974: 20               NOP
010975: 20               NOP
010976: 20               NOP
010977: 20               NOP
010978: 20               NOP
010979: 20               NOP
01097a: 20               NOP
01097b: 20               NOP
01097c: 20               NOP
01097d: 20               NOP
01097e: 20               NOP
01097f: 20               NOP
010980: 20               NOP
010981: 20               NOP
010982: 20               NOP
010983: 20               NOP
010984: 20               NOP
010985: 20               NOP
010986: 20               NOP
010987: 20               NOP
010988: 20               NOP
010989: 20               NOP
01098a: 20               NOP
01098b: 20               NOP
01098c: 20               NOP
01098d: 20               NOP
01098e: 20               NOP
01098f: 20               NOP
010990: 20               NOP
010991: 20               NOP
010992: 20               NOP
010993: 20               NOP
010994: 20               NOP
010995: 20               NOP
010996: 20               NOP
010997: 20               NOP
010998: 20               NOP
010999: 20               NOP
01099a: 20               NOP
01099b: 20               NOP
01099c: 20               NOP
01099d: 20               NOP
01099e: 20               NOP
01099f: 20               NOP
0109a0: 20               NOP
0109a1: 20               NOP
0109a2: 20               NOP
0109a3: 20               NOP
0109a4: 20               NOP
0109a5: 20               NOP
0109a6: 20               NOP
0109a7: 20               NOP
0109a8: 20               NOP
0109a9: 20               NOP
0109aa: 20               NOP
0109ab: 20               NOP
0109ac: 20               NOP
0109ad: 20               NOP
0109ae: 20               NOP
0109af: 20               NOP
0109b0: 20               NOP
0109b1: 20               NOP
0109b2: 20               NOP
0109b3: 20               NOP
0109b4: 20               NOP
0109b5: 20               NOP
0109b6: 20               NOP
0109b7: 20               NOP
0109b8: 20               NOP
0109b9: 20               NOP
0109ba: 20               NOP
0109bb: 20               NOP
0109bc: 20               NOP
0109bd: 20               NOP
0109be: 20               NOP
0109bf: 20               NOP
0109c0: 20               NOP
0109c1: 20               NOP
0109c2: 20               NOP
0109c3: 20               NOP
0109c4: 20               NOP
0109c5: 20               NOP
0109c6: 20               NOP
0109c7: 20               NOP
0109c8: 20               NOP
0109c9: 20               NOP
0109ca: 20               NOP
0109cb: 20               NOP
0109cc: 20               NOP
0109cd: 20               NOP
0109ce: 20               NOP
0109cf: 20               NOP
0109d0: 20               NOP
0109d1: 20               NOP
0109d2: 20               NOP
0109d3: 20               NOP
0109d4: 20               NOP
0109d5: 20               NOP
0109d6: 20               NOP
0109d7: 20               NOP
0109d8: 20               NOP
0109d9: 20               NOP
0109da: 20               NOP
0109db: 20               NOP
0109dc: 20               NOP
0109dd: 20               NOP
0109de: 20               NOP
0109df: 20               NOP
0109e0: 20               NOP
0109e1: 20               NOP
0109e2: 20               NOP
0109e3: 20               NOP
0109e4: 20               NOP
0109e5: 20               NOP
0109e6: 20               NOP
0109e7: 20               NOP
0109e8: 20               NOP
0109e9: 20               NOP
0109ea: 20               NOP
0109eb: 20               NOP
0109ec: 20               NOP
0109ed: 20               NOP
0109ee: 20               NOP
0109ef: 20               NOP
0109f0: 20               NOP
0109f1: 20               NOP
0109f2: 20               NOP
0109f3: 20               NOP
0109f4: 20               NOP
0109f5: 20               NOP
0109f6: 20               NOP
0109f7: 20               NOP
0109f8: 20               NOP
0109f9: 20               NOP
0109fa: 20               NOP
0109fb: 20               NOP
0109fc: 20               NOP
0109fd: 20               NOP
0109fe: 20               NOP
0109ff: 20               NOP
010a00: 20               NOP
010a01: 20               NOP
010a02: 20               NOP
010a03: 20               NOP
010a04: 20               NOP
010a05: 20               NOP
010a06: 20               NOP
010a07: 20               NOP
010a08: 20               NOP
010a09: 20               NOP
010a0a: 20               NOP
010a0b: 20               NOP
010a0c: 20               NOP
010a0d: 20               NOP
010a0e: 20               NOP
010a0f: 20               NOP
010a10: 20               NOP
010a11: 20               NOP
010a12: 20               NOP
010a13: 20               NOP
010a14: 20               NOP
010a15: 20               NOP
010a16: 20               NOP
010a17: 20               NOP
010a18: 20               NOP
010a19: 20               NOP
010a1a: 20               NOP
010a1b: 20               NOP
010a1c: 20               NOP
010a1d: 20               NOP
010a1e: 20               NOP
010a1f: 20               NOP
010a20: 20               NOP
010a21: 20               NOP
010a22: 20               NOP
010a23: 20               NOP
010a24: 20               NOP
010a25: 20               NOP
010a26: 20               NOP
010a27: 20               NOP
010a28: 20               NOP
010a29: 20               NOP
010a2a: 20               NOP
010a2b: 20               NOP
010a2c: 20               NOP
010a2d: 20               NOP
010a2e: 20               NOP
010a2f: 20               NOP
010a30: 20               NOP
010a31: 20               NOP
010a32: 20               NOP
010a33: 20               NOP
010a34: 20               NOP
010a35: 20               NOP
010a36: 20               NOP
010a37: 20               NOP
010a38: 20               NOP
010a39: 20               NOP
010a3a: 20               NOP
010a3b: 20               NOP
010a3c: 20               NOP
010a3d: 20               NOP
010a3e: 20               NOP
010a3f: 20               NOP
010a40: 20               NOP
010a41: 20               NOP
010a42: 20               NOP
010a43: 20               NOP
010a44: 20               NOP
010a45: 20               NOP
010a46: 20               NOP
010a47: 20               NOP
010a48: 20               NOP
010a49: 20               NOP
010a4a: 20               NOP
010a4b: 20               NOP
010a4c: 20               NOP
010a4d: 20               NOP
010a4e: 20               NOP
010a4f: 20               NOP
010a50: 20               NOP
010a51: 20               NOP
010a52: 20               NOP
010a53: 20               NOP
010a54: 20               NOP
010a55: 20               NOP
010a56: 20               NOP
010a57: 20               NOP
010a58: 20               NOP
010a59: 20               NOP
010a5a: 20               NOP
010a5b: 20               NOP
010a5c: 20               NOP
010a5d: 20               NOP
010a5e: 20               NOP
010a5f: 20               NOP
010a60: 20               NOP
010a61: 20               NOP
010a62: 20               NOP
010a63: 20               NOP
010a64: 20               NOP
010a65: 20               NOP
010a66: 20               NOP
010a67: 20               NOP
010a68: 20               NOP
010a69: 20               NOP
010a6a: 20               NOP
010a6b: 20               NOP
010a6c: 20               NOP
010a6d: 20               NOP
010a6e: 20               NOP
010a6f: 20               NOP
010a70: 20               NOP
010a71: 20               NOP
010a72: 20               NOP
010a73: 20               NOP
010a74: 20               NOP
010a75: 20               NOP
010a76: 20               NOP
010a77: 20               NOP
010a78: 20               NOP
010a79: 20               NOP
010a7a: 20               NOP
010a7b: 20               NOP
010a7c: 20               NOP
010a7d: 20               NOP
010a7e: 20               NOP
010a7f: 20               NOP
010a80: 20               NOP
010a81: 20               NOP
010a82: 20               NOP
010a83: 20               NOP
010a84: 20               NOP
010a85: 20               NOP
010a86: 20               NOP
010a87: 20               NOP
010a88: 20               NOP
010a89: 20               NOP
010a8a: 20               NOP
010a8b: 20               NOP
010a8c: 20               NOP
010a8d: 20               NOP
010a8e: 20               NOP
010a8f: 20               NOP
010a90: 20               NOP
010a91: 20               NOP
010a92: 20               NOP
010a93: 20               NOP
010a94: 20               NOP
010a95: 20               NOP
010a96: 20               NOP
010a97: 20               NOP
010a98: 20               NOP
010a99: 20               NOP
010a9a: 20               NOP
010a9b: 20               NOP
010a9c: 20               NOP
010a9d: 20               NOP
010a9e: 20               NOP
010a9f: 20               NOP
010aa0: 20               NOP
010aa1: 20               NOP
010aa2: 20               NOP
010aa3: 20               NOP
010aa4: 20               NOP
010aa5: 20               NOP
010aa6: 20               NOP
010aa7: 20               NOP
010aa8: 20               NOP
010aa9: 20               NOP
010aaa: 20               NOP
010aab: 20               NOP
010aac: 20               NOP
010aad: 20               NOP
010aae: 20               NOP
010aaf: 20               NOP
010ab0: 20               NOP
010ab1: 20               NOP
010ab2: 20               NOP
010ab3: 20               NOP
010ab4: 20               NOP
010ab5: 20               NOP
010ab6: 20               NOP
010ab7: 20               NOP
010ab8: 20               NOP
010ab9: 20               NOP
010aba: 20               NOP
010abb: 20               NOP
010abc: 20               NOP
010abd: 20               NOP
010abe: 20               NOP
010abf: 20               NOP
010ac0: 20               NOP
010ac1: 20               NOP
010ac2: 20               NOP
010ac3: 20               NOP
010ac4: 20               NOP
010ac5: 20               NOP
010ac6: 20               NOP
010ac7: 20               NOP
010ac8: 20               NOP
010ac9: 20               NOP
010aca: 20               NOP
010acb: 20               NOP
010acc: 20               NOP
010acd: 20               NOP
010ace: 20               NOP
010acf: 20               NOP
010ad0: 20               NOP
010ad1: 20               NOP
010ad2: 20               NOP
010ad3: 20               NOP
010ad4: 20               NOP
010ad5: 20               NOP
010ad6: 20               NOP
010ad7: 20               NOP
010ad8: 20               NOP
010ad9: 20               NOP
010ada: 20               NOP
010adb: 20               NOP
010adc: 20               NOP
010add: 20               NOP
010ade: 20               NOP
010adf: 20               NOP
010ae0: 20               NOP
010ae1: 20               NOP
010ae2: 20               NOP
010ae3: 20               NOP
010ae4: 20               NOP
010ae5: 20               NOP
010ae6: 20               NOP
010ae7: 20               NOP
010ae8: 20               NOP
010ae9: 20               NOP
010aea: 20               NOP
010aeb: 20               NOP
010aec: 20               NOP
010aed: 20               NOP
010aee: 20               NOP
010aef: 20               NOP
010af0: 20               NOP
010af1: 20               NOP
010af2: 20               NOP
010af3: 20               NOP
010af4: 20               NOP
010af5: 20               NOP
010af6: 20               NOP
010af7: 20               NOP
010af8: 20               NOP
010af9: 20               NOP
010afa: 20               NOP
010afb: 20               NOP
010afc: 20               NOP
010afd: 20               NOP
010afe: 20               NOP
010aff: 20               NOP
010b00: 20               NOP
010b01: 20               NOP
010b02: 20               NOP
010b03: 20               NOP
010b04: 20               NOP
010b05: 20               NOP
010b06: 20               NOP
010b07: 20               NOP
010b08: 20               NOP
010b09: 20               NOP
010b0a: 20               NOP
010b0b: 20               NOP
010b0c: 20               NOP
010b0d: 20               NOP
010b0e: 20               NOP
010b0f: 20               NOP
010b10: 20               NOP
010b11: 20               NOP
010b12: 20               NOP
010b13: 20               NOP
010b14: 20               NOP
010b15: 20               NOP
010b16: 20               NOP
010b17: 20               NOP
010b18: 20               NOP
010b19: 20               NOP
010b1a: 20               NOP
010b1b: 20               NOP
010b1c: 20               NOP
010b1d: 20               NOP
010b1e: 20               NOP
010b1f: 20               NOP
010b20: 20               NOP
010b21: 20               NOP
010b22: 20               NOP
010b23: 20               NOP
010b24: 20               NOP
010b25: 20               NOP
010b26: 20               NOP
010b27: 20               NOP
010b28: 20               NOP
010b29: 20               NOP
010b2a: 20               NOP
010b2b: 20               NOP
010b2c: 20               NOP
010b2d: 20               NOP
010b2e: 20               NOP
010b2f: 20               NOP
010b30: 20               NOP
010b31: 20               NOP
010b32: 20               NOP
010b33: 20               NOP
010b34: 20               NOP
010b35: 20               NOP
010b36: 20               NOP
010b37: 20               NOP
010b38: 20               NOP
010b39: 20               NOP
010b3a: 20               NOP
010b3b: 20               NOP
010b3c: 20               NOP
010b3d: 20               NOP
010b3e: 20               NOP
010b3f: 20               NOP
010b40: 20               NOP
010b41: 20               NOP
010b42: 20               NOP
010b43: 20               NOP
010b44: 20               NOP
010b45: 20               NOP
010b46: 20               NOP
010b47: 20               NOP
010b48: 20               NOP
010b49: 20               NOP
010b4a: 20               NOP
010b4b: 20               NOP
010b4c: 20               NOP
010b4d: 20               NOP
010b4e: 20               NOP
010b4f: 20               NOP
010b50: 20               NOP
010b51: 20               NOP
010b52: 20               NOP
010b53: 20               NOP
010b54: 20               NOP
010b55: 20               NOP
010b56: 20               NOP
010b57: 20               NOP
010b58: 20               NOP
010b59: 20               NOP
010b5a: 20               NOP
010b5b: 20               NOP
010b5c: 20               NOP
010b5d: 20               NOP
010b5e: 20               NOP
010b5f: 20               NOP
010b60: 20               NOP
010b61: 20               NOP
010b62: 20               NOP
010b63: 20               NOP
010b64: 20               NOP
010b65: 20               NOP
010b66: 20               NOP
010b67: 20               NOP
010b68: 20               NOP
010b69: 20               NOP
010b6a: 20               NOP
010b6b: 20               NOP
010b6c: 20               NOP
010b6d: 20               NOP
010b6e: 20               NOP
010b6f: 20               NOP
010b70: 20               NOP
010b71: 20               NOP
010b72: 20               NOP
010b73: 20               NOP
010b74: 20               NOP
010b75: 20               NOP
010b76: 20               NOP
010b77: 20               NOP
010b78: 20               NOP
010b79: 20               NOP
010b7a: 20               NOP
010b7b: 20               NOP
010b7c: 20               NOP
010b7d: 20               NOP
010b7e: 20               NOP
010b7f: 20               NOP
010b80: 20               NOP
010b81: 20               NOP
010b82: 20               NOP
010b83: 20               NOP
010b84: 20               NOP
010b85: 20               NOP
010b86: 20               NOP
010b87: 20               NOP
010b88: 20               NOP
010b89: 20               NOP
010b8a: 20               NOP
010b8b: 20               NOP
010b8c: 20               NOP
010b8d: 20               NOP
010b8e: 20               NOP
010b8f: 20               NOP
010b90: 20               NOP
010b91: 20               NOP
010b92: 20               NOP
010b93: 20               NOP
010b94: 20               NOP
010b95: 20               NOP
010b96: 20               NOP
010b97: 20               NOP
010b98: 20               NOP
010b99: 20               NOP
010b9a: 20               NOP
010b9b: 20               NOP
010b9c: 20               NOP
010b9d: 20               NOP
010b9e: 20               NOP
010b9f: 20               NOP
010ba0: 20               NOP
010ba1: 20               NOP
010ba2: 20               NOP
010ba3: 20               NOP
010ba4: 20               NOP
010ba5: 20               NOP
010ba6: 20               NOP
010ba7: 20               NOP
010ba8: 20               NOP
010ba9: 20               NOP
010baa: 20               NOP
010bab: 20               NOP
010bac: 20               NOP
010bad: 20               NOP
010bae: 20               NOP
010baf: 20               NOP
010bb0: 20               NOP
010bb1: 20               NOP
010bb2: 20               NOP
010bb3: 20               NOP
010bb4: 20               NOP
010bb5: 20               NOP
010bb6: 20               NOP
010bb7: 20               NOP
010bb8: 20               NOP
010bb9: 20               NOP
010bba: 20               NOP
010bbb: 20               NOP
010bbc: 20               NOP
010bbd: 20               NOP
010bbe: 20               NOP
010bbf: 20               NOP
010bc0: 20               NOP
010bc1: 20               NOP
010bc2: 20               NOP
010bc3: 20               NOP
010bc4: 20               NOP
010bc5: 20               NOP
010bc6: 20               NOP
010bc7: 20               NOP
010bc8: 20               NOP
010bc9: 20               NOP
010bca: 20               NOP
010bcb: 20               NOP
010bcc: 20               NOP
010bcd: 20               NOP
010bce: 20               NOP
010bcf: 20               NOP
010bd0: 20               NOP
010bd1: 20               NOP
010bd2: 20               NOP
010bd3: 20               NOP
010bd4: 20               NOP
010bd5: 20               NOP
010bd6: 20               NOP
010bd7: 20               NOP
010bd8: 20               NOP
010bd9: 20               NOP
010bda: 20               NOP
010bdb: 20               NOP
010bdc: 20               NOP
010bdd: 20               NOP
010bde: 20               NOP
010bdf: 20               NOP
010be0: 20               NOP
010be1: 20               NOP
010be2: 20               NOP
010be3: 20               NOP
010be4: 20               NOP
010be5: 20               NOP
010be6: 20               NOP
010be7: 20               NOP
010be8: 20               NOP
010be9: 20               NOP
010bea: 20               NOP
010beb: 20               NOP
010bec: 20               NOP
010bed: 20               NOP
010bee: 20               NOP
010bef: 20               NOP
010bf0: 20               NOP
010bf1: 20               NOP
010bf2: 20               NOP
010bf3: 20               NOP
010bf4: 20               NOP
010bf5: 20               NOP
010bf6: 20               NOP
010bf7: 20               NOP
010bf8: 20               NOP
010bf9: 20               NOP
010bfa: 20               NOP
010bfb: 20               NOP
010bfc: 20               NOP
010bfd: 20               NOP
010bfe: 20               NOP
010bff: 20               NOP
010c00: 20               NOP
010c01: 20               NOP
010c02: 20               NOP
010c03: 20               NOP
010c04: 20               NOP
010c05: 20               NOP
010c06: 20               NOP
010c07: 20               NOP
010c08: 20               NOP
010c09: 20               NOP
010c0a: 20               NOP
010c0b: 20               NOP
010c0c: 20               NOP
010c0d: 20               NOP
010c0e: 20               NOP
010c0f: 20               NOP
010c10: 20               NOP
010c11: 20               NOP
010c12: 20               NOP
010c13: 20               NOP
010c14: 20               NOP
010c15: 20               NOP
010c16: 20               NOP
010c17: 20               NOP
010c18: 20               NOP
010c19: 20               NOP
010c1a: 20               NOP
010c1b: 20               NOP
010c1c: 20               NOP
010c1d: 20               NOP
010c1e: 20               NOP
010c1f: 20               NOP
010c20: 20               NOP
010c21: 20               NOP
010c22: 20               NOP
010c23: 20               NOP
010c24: 20               NOP
010c25: 20               NOP
010c26: 20               NOP
010c27: 20               NOP
010c28: 20               NOP
010c29: 20               NOP
010c2a: 20               NOP
010c2b: 20               NOP
010c2c: 20               NOP
010c2d: 20               NOP
010c2e: 20               NOP
010c2f: 20               NOP
010c30: 20               NOP
010c31: 20               NOP
010c32: 20               NOP
010c33: 20               NOP
010c34: 20               NOP
010c35: 20               NOP
010c36: 20               NOP
010c37: 20               NOP
010c38: 20               NOP
010c39: 20               NOP
010c3a: 20               NOP
010c3b: 20               NOP
010c3c: 20               NOP
010c3d: 20               NOP
010c3e: 20               NOP
010c3f: 20               NOP
010c40: 20               NOP
010c41: 20               NOP
010c42: 20               NOP
010c43: 20               NOP
010c44: 20               NOP
010c45: 20               NOP
010c46: 20               NOP
010c47: 20               NOP
010c48: 20               NOP
010c49: 20               NOP
010c4a: 20               NOP
010c4b: 20               NOP
010c4c: 20               NOP
010c4d: 20               NOP
010c4e: 20               NOP
010c4f: 20               NOP
010c50: 20               NOP
010c51: 20               NOP
010c52: 20               NOP
010c53: 20               NOP
010c54: 20               NOP
010c55: 20               NOP
010c56: 20               NOP
010c57: 20               NOP
010c58: 20               NOP
010c59: 20               NOP
010c5a: 20               NOP
010c5b: 20               NOP
010c5c: 20               NOP
010c5d: 20               NOP
010c5e: 20               NOP
010c5f: 20               NOP
010c60: 20               NOP
010c61: 20               NOP
010c62: 20               NOP
010c63: 20               NOP
010c64: 20               NOP
010c65: 20               NOP
010c66: 20               NOP
010c67: 20               NOP
010c68: 20               NOP
010c69: 20               NOP
010c6a: 20               NOP
010c6b: 20               NOP
010c6c: 20               NOP
010c6d: 20               NOP
010c6e: 20               NOP
010c6f: 20               NOP
010c70: 20               NOP
010c71: 20               NOP
010c72: 20               NOP
010c73: 20               NOP
010c74: 20               NOP
010c75: 20               NOP
010c76: 20               NOP
010c77: 20               NOP
010c78: 20               NOP
010c79: 20               NOP
010c7a: 20               NOP
010c7b: 20               NOP
010c7c: 20               NOP
010c7d: 20               NOP
010c7e: 20               NOP
010c7f: 20               NOP
010c80: 20               NOP
010c81: 20               NOP
010c82: 20               NOP
010c83: 20               NOP
010c84: 20               NOP
010c85: 20               NOP
010c86: 20               NOP
010c87: 20               NOP
010c88: 20               NOP
010c89: 20               NOP
010c8a: 20               NOP
010c8b: 20               NOP
010c8c: 20               NOP
010c8d: 20               NOP
010c8e: 20               NOP
010c8f: 20               NOP
010c90: 20               NOP
010c91: 20               NOP
010c92: 20               NOP
010c93: 20               NOP
010c94: 20               NOP
010c95: 20               NOP
010c96: 20               NOP
010c97: 20               NOP
010c98: 20               NOP
010c99: 20               NOP
010c9a: 20               NOP
010c9b: 20               NOP
010c9c: 20               NOP
010c9d: 20               NOP
010c9e: 20               NOP
010c9f: 20               NOP
010ca0: 20               NOP
010ca1: 20               NOP
010ca2: 20               NOP
010ca3: 20               NOP
010ca4: 20               NOP
010ca5: 20               NOP
010ca6: 20               NOP
010ca7: 20               NOP
010ca8: 20               NOP
010ca9: 20               NOP
010caa: 20               NOP
010cab: 20               NOP
010cac: 20               NOP
010cad: 20               NOP
010cae: 20               NOP
010caf: 20               NOP
010cb0: 20               NOP
010cb1: 20               NOP
010cb2: 20               NOP
010cb3: 20               NOP
010cb4: 20               NOP
010cb5: 20               NOP
010cb6: 20               NOP
010cb7: 20               NOP
010cb8: 20               NOP
010cb9: 20               NOP
010cba: 20               NOP
010cbb: 20               NOP
010cbc: 20               NOP
010cbd: 20               NOP
010cbe: 20               NOP
010cbf: 20               NOP
010cc0: 20               NOP
010cc1: 20               NOP
010cc2: 20               NOP
010cc3: 20               NOP
010cc4: 20               NOP
010cc5: 20               NOP
010cc6: 20               NOP
010cc7: 20               NOP
010cc8: 20               NOP
010cc9: 20               NOP
010cca: 20               NOP
010ccb: 20               NOP
010ccc: 20               NOP
010ccd: 20               NOP
010cce: 20               NOP
010ccf: 20               NOP
010cd0: 20               NOP
010cd1: 20               NOP
010cd2: 20               NOP
010cd3: 20               NOP
010cd4: 20               NOP
010cd5: 20               NOP
010cd6: 20               NOP
010cd7: 20               NOP
010cd8: 20               NOP
010cd9: 20               NOP
010cda: 20               NOP
010cdb: 20               NOP
010cdc: 20               NOP
010cdd: 20               NOP
010cde: 20               NOP
010cdf: 20               NOP
010ce0: 20               NOP
010ce1: 20               NOP
010ce2: 20               NOP
010ce3: 20               NOP
010ce4: 20               NOP
010ce5: 20               NOP
010ce6: 20               NOP
010ce7: 20               NOP
010ce8: 20               NOP
010ce9: 20               NOP
010cea: 20               NOP
010ceb: 20               NOP
010cec: 20               NOP
010ced: 20               NOP
010cee: 20               NOP
010cef: 20               NOP
010cf0: 20               NOP
010cf1: 20               NOP
010cf2: 20               NOP
010cf3: 20               NOP
010cf4: 20               NOP
010cf5: 20               NOP
010cf6: 20               NOP
010cf7: 20               NOP
010cf8: 20               NOP
010cf9: 20               NOP
010cfa: 20               NOP
010cfb: 20               NOP
010cfc: 20               NOP
010cfd: 20               NOP
010cfe: 20               NOP
010cff: 20               NOP
010d00: 20               NOP
010d01: 20               NOP
010d02: 20               NOP
010d03: 20               NOP
010d04: 20               NOP
010d05: 20               NOP
010d06: 20               NOP
010d07: 20               NOP
010d08: 20               NOP
010d09: 20               NOP
010d0a: 20               NOP
010d0b: 20               NOP
010d0c: 20               NOP
010d0d: 20               NOP
010d0e: 20               NOP
010d0f: 20               NOP
010d10: 20               NOP
010d11: 20               NOP
010d12: 20               NOP
010d13: 20               NOP
010d14: 20               NOP
010d15: 20               NOP
010d16: 20               NOP
010d17: 20               NOP
010d18: 20               NOP
010d19: 20               NOP
010d1a: 20               NOP
010d1b: 20               NOP
010d1c: 20               NOP
010d1d: 20               NOP
010d1e: 20               NOP
010d1f: 20               NOP
010d20: 20               NOP
010d21: 20               NOP
010d22: 20               NOP
010d23: 20               NOP
010d24: 20               NOP
010d25: 20               NOP
010d26: 20               NOP
010d27: 20               NOP
010d28: 20               NOP
010d29: 20               NOP
010d2a: 20               NOP
010d2b: 20               NOP
010d2c: 20               NOP
010d2d: 20               NOP
010d2e: 20               NOP
010d2f: 20               NOP
010d30: 20               NOP
010d31: 20               NOP
010d32: 20               NOP
010d33: 20               NOP
010d34: 20               NOP
010d35: 20               NOP
010d36: 20               NOP
010d37: 20               NOP
010d38: 20               NOP
010d39: 20               NOP
010d3a: 20               NOP
010d3b: 20               NOP
010d3c: 20               NOP
010d3d: 20               NOP
010d3e: 20               NOP
010d3f: 20               NOP
010d40: 20               NOP
010d41: 20               NOP
010d42: 20               NOP
010d43: 20               NOP
010d44: 20               NOP
010d45: 20               NOP
010d46: 20               NOP
010d47: 20               NOP
010d48: 20               NOP
010d49: 20               NOP
010d4a: 20               NOP
010d4b: 20               NOP
010d4c: 20               NOP
010d4d: 20               NOP
010d4e: 20               NOP
010d4f: 20               NOP
010d50: 20               NOP
010d51: 20               NOP
010d52: 20               NOP
010d53: 20               NOP
010d54: 20               NOP
010d55: 20               NOP
010d56: 20               NOP
010d57: 20               NOP
010d58: 20               NOP
010d59: 20               NOP
010d5a: 20               NOP
010d5b: 20               NOP
010d5c: 20               NOP
010d5d: 20               NOP
010d5e: 20               NOP
010d5f: 20               NOP
010d60: 20               NOP
010d61: 20               NOP
010d62: 20               NOP
010d63: 20               NOP
010d64: 20               NOP
010d65: 20               NOP
010d66: 20               NOP
010d67: 20               NOP
010d68: 20               NOP
010d69: 20               NOP
010d6a: 20               NOP
010d6b: 20               NOP
010d6c: 20               NOP
010d6d: 20               NOP
010d6e: 20               NOP
010d6f: 20               NOP
010d70: 20               NOP
010d71: 20               NOP
010d72: 20               NOP
010d73: 20               NOP
010d74: 20               NOP
010d75: 20               NOP
010d76: 20               NOP
010d77: 20               NOP
010d78: 20               NOP
010d79: 20               NOP
010d7a: 20               NOP
010d7b: 20               NOP
010d7c: 20               NOP
010d7d: 20               NOP
010d7e: 20               NOP
010d7f: 20               NOP
010d80: 20               NOP
010d81: 20               NOP
010d82: 20               NOP
010d83: 20               NOP
010d84: 20               NOP
010d85: 20               NOP
010d86: 20               NOP
010d87: 20               NOP
010d88: 20               NOP
010d89: 20               NOP
010d8a: 20               NOP
010d8b: 20               NOP
010d8c: 20               NOP
010d8d: 20               NOP
010d8e: 20               NOP
010d8f: 20               NOP
010d90: 20               NOP
010d91: 20               NOP
010d92: 20               NOP
010d93: 20               NOP
010d94: 20               NOP
010d95: 20               NOP
010d96: 20               NOP
010d97: 20               NOP
010d98: 20               NOP
010d99: 20               NOP
010d9a: 20               NOP
010d9b: 20               NOP
010d9c: 20               NOP
010d9d: 20               NOP
010d9e: 20               NOP
010d9f: 20               NOP
010da0: 20               NOP
010da1: 20               NOP
010da2: 20               NOP
010da3: 20               NOP
010da4: 20               NOP
010da5: 20               NOP
010da6: 20               NOP
010da7: 20               NOP
010da8: 20               NOP
010da9: 20               NOP
010daa: 20               NOP
010dab: 20               NOP
010dac: 20               NOP
010dad: 20               NOP
010dae: 20               NOP
010daf: 20               NOP
010db0: 20               NOP
010db1: 20               NOP
010db2: 20               NOP
010db3: 20               NOP
010db4: 20               NOP
010db5: 20               NOP
010db6: 20               NOP
010db7: 20               NOP
010db8: 20               NOP
010db9: 20               NOP
010dba: 20               NOP
010dbb: 20               NOP
010dbc: 20               NOP
010dbd: 20               NOP
010dbe: 20               NOP
010dbf: 20               NOP
010dc0: 20               NOP
010dc1: 20               NOP
010dc2: 20               NOP
010dc3: 20               NOP
010dc4: 20               NOP
010dc5: 20               NOP
010dc6: 20               NOP
010dc7: 20               NOP
010dc8: 20               NOP
010dc9: 20               NOP
010dca: 20               NOP
010dcb: 20               NOP
010dcc: 20               NOP
010dcd: 20               NOP
010dce: 20               NOP
010dcf: 20               NOP
010dd0: 20               NOP
010dd1: 20               NOP
010dd2: 20               NOP
010dd3: 20               NOP
010dd4: 20               NOP
010dd5: 20               NOP
010dd6: 20               NOP
010dd7: 20               NOP
010dd8: 20               NOP
010dd9: 20               NOP
010dda: 20               NOP
010ddb: 20               NOP
010ddc: 20               NOP
010ddd: 20               NOP
010dde: 20               NOP
010ddf: 20               NOP
010de0: 20               NOP
010de1: 20               NOP
010de2: 20               NOP
010de3: 20               NOP
010de4: 20               NOP
010de5: 20               NOP
010de6: 20               NOP
010de7: 20               NOP
010de8: 20               NOP
010de9: 20               NOP
010dea: 20               NOP
010deb: 20               NOP
010dec: 20               NOP
010ded: 20               NOP
010dee: 20               NOP
010def: 20               NOP
010df0: 20               NOP
010df1: 20               NOP
010df2: 20               NOP
010df3: 20               NOP
010df4: 20               NOP
010df5: 20               NOP
010df6: 20               NOP
010df7: 20               NOP
010df8: 20               NOP
010df9: 20               NOP
010dfa: 20               NOP
010dfb: 20               NOP
010dfc: 20               NOP
010dfd: 20               NOP
010dfe: 20               NOP
010dff: 20               NOP
010e00: 20               NOP
010e01: 20               NOP
010e02: 20               NOP
010e03: 20               NOP
010e04: 20               NOP
010e05: 20               NOP
010e06: 20               NOP
010e07: 20               NOP
010e08: 20               NOP
010e09: 20               NOP
010e0a: 20               NOP
010e0b: 20               NOP
010e0c: 20               NOP
010e0d: 20               NOP
010e0e: 20               NOP
010e0f: 20               NOP
010e10: 20               NOP
010e11: 20               NOP
010e12: 20               NOP
010e13: 20               NOP
010e14: 20               NOP
010e15: 20               NOP
010e16: 20               NOP
010e17: 20               NOP
010e18: 20               NOP
010e19: 20               NOP
010e1a: 20               NOP
010e1b: 20               NOP
010e1c: 20               NOP
010e1d: 20               NOP
010e1e: 20               NOP
010e1f: 20               NOP
010e20: 20               NOP
010e21: 20               NOP
010e22: 20               NOP
010e23: 20               NOP
010e24: 20               NOP
010e25: 20               NOP
010e26: 20               NOP
010e27: 20               NOP
010e28: 20               NOP
010e29: 20               NOP
010e2a: 20               NOP
010e2b: 20               NOP
010e2c: 20               NOP
010e2d: 20               NOP
010e2e: 20               NOP
010e2f: 20               NOP
010e30: 20               NOP
010e31: 20               NOP
010e32: 20               NOP
010e33: 20               NOP
010e34: 20               NOP
010e35: 20               NOP
010e36: 20               NOP
010e37: 20               NOP
010e38: 20               NOP
010e39: 20               NOP
010e3a: 20               NOP
010e3b: 20               NOP
010e3c: 20               NOP
010e3d: 20               NOP
010e3e: 20               NOP
010e3f: 20               NOP
010e40: 20               NOP
010e41: 20               NOP
010e42: 20               NOP
010e43: 20               NOP
010e44: 20               NOP
010e45: 20               NOP
010e46: 20               NOP
010e47: 20               NOP
010e48: 20               NOP
010e49: 20               NOP
010e4a: 20               NOP
010e4b: 20               NOP
010e4c: 20               NOP
010e4d: 20               NOP
010e4e: 20               NOP
010e4f: 20               NOP
010e50: 20               NOP
010e51: 20               NOP
010e52: 20               NOP
010e53: 20               NOP
010e54: 20               NOP
010e55: 20               NOP
010e56: 20               NOP
010e57: 20               NOP
010e58: 20               NOP
010e59: 20               NOP
010e5a: 20               NOP
010e5b: 20               NOP
010e5c: 20               NOP
010e5d: 20               NOP
010e5e: 20               NOP
010e5f: 20               NOP
010e60: 20               NOP
010e61: 20               NOP
010e62: 20               NOP
010e63: 20               NOP
010e64: 20               NOP
010e65: 20               NOP
010e66: 20               NOP
010e67: 20               NOP
010e68: 20               NOP
010e69: 20               NOP
010e6a: 20               NOP
010e6b: 20               NOP
010e6c: 20               NOP
010e6d: 20               NOP
010e6e: 20               NOP
010e6f: 20               NOP
010e70: 20               NOP
010e71: 20               NOP
010e72: 20               NOP
010e73: 20               NOP
010e74: 20               NOP
010e75: 20               NOP
010e76: 20               NOP
010e77: 20               NOP
010e78: 20               NOP
010e79: 20               NOP
010e7a: 20               NOP
010e7b: 20               NOP
010e7c: 20               NOP
010e7d: 20               NOP
010e7e: 20               NOP
010e7f: 20               NOP
010e80: 20               NOP
010e81: 20               NOP
010e82: 20               NOP
010e83: 20               NOP
010e84: 20               NOP
010e85: 20               NOP
010e86: 20               NOP
010e87: 20               NOP
010e88: 20               NOP
010e89: 20               NOP
010e8a: 20               NOP
010e8b: 20               NOP
010e8c: 20               NOP
010e8d: 20               NOP
010e8e: 20               NOP
010e8f: 20               NOP
010e90: 20               NOP
010e91: 20               NOP
010e92: 20               NOP
010e93: 20               NOP
010e94: 20               NOP
010e95: 20               NOP
010e96: 20               NOP
010e97: 20               NOP
010e98: 20               NOP
010e99: 20               NOP
010e9a: 20               NOP
010e9b: 20               NOP
010e9c: 20               NOP
010e9d: 20               NOP
010e9e: 20               NOP
010e9f: 20               NOP
010ea0: 20               NOP
010ea1: 20               NOP
010ea2: 20               NOP
010ea3: 20               NOP
010ea4: 20               NOP
010ea5: 20               NOP
010ea6: 20               NOP
010ea7: 20               NOP
010ea8: 20               NOP
010ea9: 20               NOP
010eaa: 20               NOP
010eab: 20               NOP
010eac: 20               NOP
010ead: 20               NOP
010eae: 20               NOP
010eaf: 20               NOP
010eb0: 20               NOP
010eb1: 20               NOP
010eb2: 20               NOP
010eb3: 20               NOP
010eb4: 20               NOP
010eb5: 20               NOP
010eb6: 20               NOP
010eb7: 20               NOP
010eb8: 20               NOP
010eb9: 20               NOP
010eba: 20               NOP
010ebb: 20               NOP
010ebc: 20               NOP
010ebd: 20               NOP
010ebe: 20               NOP
010ebf: 20               NOP
010ec0: 20               NOP
010ec1: 20               NOP
010ec2: 20               NOP
010ec3: 20               NOP
010ec4: 20               NOP
010ec5: 20               NOP
010ec6: 20               NOP
010ec7: 20               NOP
010ec8: 20               NOP
010ec9: 20               NOP
010eca: 20               NOP
010ecb: 20               NOP
010ecc: 20               NOP
010ecd: 20               NOP
010ece: 20               NOP
010ecf: 20               NOP
010ed0: 20               NOP
010ed1: 20               NOP
010ed2: 20               NOP
010ed3: 20               NOP
010ed4: 20               NOP
010ed5: 20               NOP
010ed6: 20               NOP
010ed7: 20               NOP
010ed8: 20               NOP
010ed9: 20               NOP
010eda: 20               NOP
010edb: 20               NOP
010edc: 20               NOP
010edd: 20               NOP
010ede: 20               NOP
010edf: 20               NOP
010ee0: 20               NOP
010ee1: 20               NOP
010ee2: 20               NOP
010ee3: 20               NOP
010ee4: 20               NOP
010ee5: 20               NOP
010ee6: 20               NOP
010ee7: 20               NOP
010ee8: 20               NOP
010ee9: 20               NOP
010eea: 20               NOP
010eeb: 20               NOP
010eec: 20               NOP
010eed: 20               NOP
010eee: 20               NOP
010eef: 20               NOP
010ef0: 20               NOP
010ef1: 20               NOP
010ef2: 20               NOP
010ef3: 20               NOP
010ef4: 20               NOP
010ef5: 20               NOP
010ef6: 20               NOP
010ef7: 20               NOP
010ef8: 20               NOP
010ef9: 20               NOP
010efa: 20               NOP
010efb: 20               NOP
010efc: 20               NOP
010efd: 20               NOP
010efe: 20               NOP
010eff: 20               NOP
010f00: 20               NOP
010f01: 20               NOP
010f02: 20               NOP
010f03: 20               NOP
010f04: 20               NOP
010f05: 20               NOP
010f06: 20               NOP
010f07: 20               NOP
010f08: 20               NOP
010f09: 20               NOP
010f0a: 20               NOP
010f0b: 20               NOP
010f0c: 20               NOP
010f0d: 20               NOP
010f0e: 20               NOP
010f0f: 20               NOP
010f10: 20               NOP
010f11: 20               NOP
010f12: 20               NOP
010f13: 20               NOP
010f14: 20               NOP
010f15: 20               NOP
010f16: 20               NOP
010f17: 20               NOP
010f18: 20               NOP
010f19: 20               NOP
010f1a: 20               NOP
010f1b: 20               NOP
010f1c: 20               NOP
010f1d: 20               NOP
010f1e: 20               NOP
010f1f: 20               NOP
010f20: 20               NOP
010f21: 20               NOP
010f22: 20               NOP
010f23: 20               NOP
010f24: 20               NOP
010f25: 20               NOP
010f26: 20               NOP
010f27: 20               NOP
010f28: 20               NOP
010f29: 20               NOP
010f2a: 20               NOP
010f2b: 20               NOP
010f2c: 20               NOP
010f2d: 20               NOP
010f2e: 20               NOP
010f2f: 20               NOP
010f30: 20               NOP
010f31: 20               NOP
010f32: 20               NOP
010f33: 20               NOP
010f34: 20               NOP
010f35: 20               NOP
010f36: 20               NOP
010f37: 20               NOP
010f38: 20               NOP
010f39: 20               NOP
010f3a: 20               NOP
010f3b: 20               NOP
010f3c: 20               NOP
010f3d: 20               NOP
010f3e: 20               NOP
010f3f: 20               NOP
010f40: 20               NOP
010f41: 20               NOP
010f42: 20               NOP
010f43: 20               NOP
010f44: 20               NOP
010f45: 20               NOP
010f46: 20               NOP
010f47: 20               NOP
010f48: 20               NOP
010f49: 20               NOP
010f4a: 20               NOP
010f4b: 20               NOP
010f4c: 20               NOP
010f4d: 20               NOP
010f4e: 20               NOP
010f4f: 20               NOP
010f50: 20               NOP
010f51: 20               NOP
010f52: 20               NOP
010f53: 20               NOP
010f54: 20               NOP
010f55: 20               NOP
010f56: 20               NOP
010f57: 20               NOP
010f58: 20               NOP
010f59: 20               NOP
010f5a: 20               NOP
010f5b: 20               NOP
010f5c: 20               NOP
010f5d: 20               NOP
010f5e: 20               NOP
010f5f: 20               NOP
010f60: 20               NOP
010f61: 20               NOP
010f62: 20               NOP
010f63: 20               NOP
010f64: 20               NOP
010f65: 20               NOP
010f66: 20               NOP
010f67: 20               NOP
010f68: 20               NOP
010f69: 20               NOP
010f6a: 20               NOP
010f6b: 20               NOP
010f6c: 20               NOP
010f6d: 20               NOP
010f6e: 20               NOP
010f6f: 20               NOP
010f70: 20               NOP
010f71: 20               NOP
010f72: 20               NOP
010f73: 20               NOP
010f74: 20               NOP
010f75: 20               NOP
010f76: 20               NOP
010f77: 20               NOP
010f78: 20               NOP
010f79: 20               NOP
010f7a: 20               NOP
010f7b: 20               NOP
010f7c: 20               NOP
010f7d: 20               NOP
010f7e: 20               NOP
010f7f: 20               NOP
010f80: 20               NOP
010f81: 20               NOP
010f82: 20               NOP
010f83: 20               NOP
010f84: 20               NOP
010f85: 20               NOP
010f86: 20               NOP
010f87: 20               NOP
010f88: 20               NOP
010f89: 20               NOP
010f8a: 20               NOP
010f8b: 20               NOP
010f8c: 20               NOP
010f8d: 20               NOP
010f8e: 20               NOP
010f8f: 20               NOP
010f90: 20               NOP
010f91: 20               NOP
010f92: 20               NOP
010f93: 20               NOP
010f94: 20               NOP
010f95: 20               NOP
010f96: 20               NOP
010f97: 20               NOP
010f98: 20               NOP
010f99: 20               NOP
010f9a: 20               NOP
010f9b: 20               NOP
010f9c: 20               NOP
010f9d: 20               NOP
010f9e: 20               NOP
010f9f: 20               NOP
010fa0: 20               NOP
010fa1: 20               NOP
010fa2: 20               NOP
010fa3: 20               NOP
010fa4: 20               NOP
010fa5: 20               NOP
010fa6: 20               NOP
010fa7: 20               NOP
010fa8: 20               NOP
010fa9: 20               NOP
010faa: 20               NOP
010fab: 20               NOP
010fac: 20               NOP
010fad: 20               NOP
010fae: 20               NOP
010faf: 20               NOP
010fb0: 20               NOP
010fb1: 20               NOP
010fb2: 20               NOP
010fb3: 20               NOP
010fb4: 20               NOP
010fb5: 20               NOP
010fb6: 20               NOP
010fb7: 20               NOP
010fb8: 20               NOP
010fb9: 20               NOP
010fba: 20               NOP
010fbb: 20               NOP
010fbc: 20               NOP
010fbd: 20               NOP
010fbe: 20               NOP
010fbf: 20               NOP
010fc0: 20               NOP
010fc1: 20               NOP
010fc2: 20               NOP
010fc3: 20               NOP
010fc4: 20               NOP
010fc5: 20               NOP
010fc6: 20               NOP
010fc7: 20               NOP
010fc8: 20               NOP
010fc9: 20               NOP
010fca: 20               NOP
010fcb: 20               NOP
010fcc: 20               NOP
010fcd: 20               NOP
010fce: 20               NOP
010fcf: 20               NOP
010fd0: 20               NOP
010fd1: 20               NOP
010fd2: 20               NOP
010fd3: 20               NOP
010fd4: 20               NOP
010fd5: 20               NOP
010fd6: 20               NOP
010fd7: 20               NOP
010fd8: 20               NOP
010fd9: 20               NOP
010fda: 20               NOP
010fdb: 20               NOP
010fdc: 20               NOP
010fdd: 20               NOP
010fde: 20               NOP
010fdf: 20               NOP
010fe0: 20               NOP
010fe1: 20               NOP
010fe2: 20               NOP
010fe3: 20               NOP
010fe4: 20               NOP
010fe5: 20               NOP
010fe6: 20               NOP
010fe7: 20               NOP
010fe8: 20               NOP
010fe9: 20               NOP
010fea: 20               NOP
010feb: 20               NOP
010fec: 20               NOP
010fed: 20               NOP
010fee: 20               NOP
010fef: 20               NOP
010ff0: 20               NOP
010ff1: 20               NOP
010ff2: 20               NOP
010ff3: 20               NOP
010ff4: 20               NOP
010ff5: 20               NOP
010ff6: 20               NOP
010ff7: 20               NOP
010ff8: 20               NOP
010ff9: 20               NOP
010ffa: 20               NOP
010ffb: 20               NOP
010ffc: 20               NOP
010ffd: 20               NOP
010ffe: 20               NOP
010fff: 20               NOP
011000: 20               NOP
011001: 20               NOP
011002: 20               NOP
011003: 20               NOP
011004: 20               NOP
011005: 20               NOP
011006: 20               NOP
011007: 20               NOP
011008: 20               NOP
011009: 20               NOP
01100a: 20               NOP
01100b: 20               NOP
01100c: 20               NOP
01100d: 20               NOP
01100e: 20               NOP
01100f: 20               NOP
011010: 20               NOP
011011: 20               NOP
011012: 20               NOP
011013: 20               NOP
011014: 20               NOP
011015: 20               NOP
011016: 20               NOP
011017: 20               NOP
011018: 20               NOP
011019: 20               NOP
01101a: 20               NOP
01101b: 20               NOP
01101c: 20               NOP
01101d: 20               NOP
01101e: 20               NOP
01101f: 20               NOP
011020: 20               NOP
011021: 20               NOP
011022: 20               NOP
011023: 20               NOP
011024: 20               NOP
011025: 20               NOP
011026: 20               NOP
011027: 20               NOP
011028: 20               NOP
011029: 20               NOP
01102a: 20               NOP
01102b: 20               NOP
01102c: 20               NOP
01102d: 20               NOP
01102e: 20               NOP
01102f: 20               NOP
011030: 20               NOP
011031: 20               NOP
011032: 20               NOP
011033: 20               NOP
011034: 20               NOP
011035: 20               NOP
011036: 20               NOP
011037: 20               NOP
011038: 20               NOP
011039: 20               NOP
01103a: 20               NOP
01103b: 20               NOP
01103c: 20               NOP
01103d: 20               NOP
01103e: 20               NOP
01103f: 20               NOP
011040: 20               NOP
011041: 20               NOP
011042: 20               NOP
011043: 20               NOP
011044: 20               NOP
011045: 20               NOP
011046: 20               NOP
011047: 20               NOP
011048: 20               NOP
011049: 20               NOP
01104a: 20               NOP
01104b: 20               NOP
01104c: 20               NOP
01104d: 20               NOP
01104e: 20               NOP
01104f: 20               NOP
011050: 20               NOP
011051: 20               NOP
011052: 20               NOP
011053: 20               NOP
011054: 20               NOP
011055: 20               NOP
011056: 20               NOP
011057: 20               NOP
011058: 20               NOP
011059: 20               NOP
01105a: 20               NOP
01105b: 20               NOP
01105c: 20               NOP
01105d: 20               NOP
01105e: 20               NOP
01105f: 20               NOP
011060: 20               NOP
011061: 20               NOP
011062: 20               NOP
011063: 20               NOP
011064: 20               NOP
011065: 20               NOP
011066: 20               NOP
011067: 20               NOP
011068: 20               NOP
011069: 20               NOP
01106a: 20               NOP
01106b: 20               NOP
01106c: 20               NOP
01106d: 20               NOP
01106e: 20               NOP
01106f: 20               NOP
011070: 20               NOP
011071: 20               NOP
011072: 20               NOP
011073: 20               NOP
011074: 20               NOP
011075: 20               NOP
011076: 20               NOP
011077: 20               NOP
011078: 20               NOP
011079: 20               NOP
01107a: 20               NOP
01107b: 20               NOP
01107c: 20               NOP
01107d: 20               NOP
01107e: 20               NOP
01107f: 20               NOP
011080: 20               NOP
011081: 20               NOP
011082: 20               NOP
011083: 20               NOP
011084: 20               NOP
011085: 20               NOP
011086: 20               NOP
011087: 20               NOP
011088: 20               NOP
011089: 20               NOP
01108a: 20               NOP
01108b: 20               NOP
01108c: 20               NOP
01108d: 20               NOP
01108e: 20               NOP
01108f: 20               NOP
011090: 20               NOP
011091: 20               NOP
011092: 20               NOP
011093: 20               NOP
011094: 20               NOP
011095: 20               NOP
011096: 20               NOP
011097: 20               NOP
011098: 20               NOP
011099: 20               NOP
01109a: 20               NOP
01109b: 20               NOP
01109c: 20               NOP
01109d: 20               NOP
01109e: 20               NOP
01109f: 20               NOP
0110a0: 20               NOP
0110a1: 20               NOP
0110a2: 20               NOP
0110a3: 20               NOP
0110a4: 20               NOP
0110a5: 20               NOP
0110a6: 20               NOP
0110a7: 20               NOP
0110a8: 20               NOP
0110a9: 20               NOP
0110aa: 20               NOP
0110ab: 20               NOP
0110ac: 20               NOP
0110ad: 20               NOP
0110ae: 20               NOP
0110af: 20               NOP
0110b0: 20               NOP
0110b1: 20               NOP
0110b2: 20               NOP
0110b3: 20               NOP
0110b4: 20               NOP
0110b5: 20               NOP
0110b6: 20               NOP
0110b7: 20               NOP
0110b8: 20               NOP
0110b9: 20               NOP
0110ba: 20               NOP
0110bb: 20               NOP
0110bc: 20               NOP
0110bd: 20               NOP
0110be: 20               NOP
0110bf: 20               NOP
0110c0: 20               NOP
0110c1: 20               NOP
0110c2: 20               NOP
0110c3: 20               NOP
0110c4: 20               NOP
0110c5: 20               NOP
0110c6: 20               NOP
0110c7: 20               NOP
0110c8: 20               NOP
0110c9: 20               NOP
0110ca: 20               NOP
0110cb: 20               NOP
0110cc: 20               NOP
0110cd: 20               NOP
0110ce: 20               NOP
0110cf: 20               NOP
0110d0: 20               NOP
0110d1: 20               NOP
0110d2: 20               NOP
0110d3: 20               NOP
0110d4: 20               NOP
0110d5: 20               NOP
0110d6: 20               NOP
0110d7: 20               NOP
0110d8: 20               NOP
0110d9: 20               NOP
0110da: 20               NOP
0110db: 20               NOP
0110dc: 20               NOP
0110dd: 20               NOP
0110de: 20               NOP
0110df: 20               NOP
0110e0: 20               NOP
0110e1: 20               NOP
0110e2: 20               NOP
0110e3: 20               NOP
0110e4: 20               NOP
0110e5: 20               NOP
0110e6: 20               NOP
0110e7: 20               NOP
0110e8: 20               NOP
0110e9: 20               NOP
0110ea: 20               NOP
0110eb: 20               NOP
0110ec: 20               NOP
0110ed: 20               NOP
0110ee: 20               NOP
0110ef: 20               NOP
0110f0: 20               NOP
0110f1: 20               NOP
0110f2: 20               NOP
0110f3: 20               NOP
0110f4: 20               NOP
0110f5: 20               NOP
0110f6: 20               NOP
0110f7: 20               NOP
0110f8: 20               NOP
0110f9: 20               NOP
0110fa: 20               NOP
0110fb: 20               NOP
0110fc: 20               NOP
0110fd: 20               NOP
0110fe: 20               NOP
0110ff: 20               NOP
011100: 20               NOP
011101: 20               NOP
011102: 20               NOP
011103: 20               NOP
011104: 20               NOP
011105: 20               NOP
011106: 20               NOP
011107: 20               NOP
011108: 20               NOP
011109: 20               NOP
01110a: 20               NOP
01110b: 20               NOP
01110c: 20               NOP
01110d: 20               NOP
01110e: 20               NOP
01110f: 20               NOP
011110: 20               NOP
011111: 20               NOP
011112: 20               NOP
011113: 20               NOP
011114: 20               NOP
011115: 20               NOP
011116: 20               NOP
011117: 20               NOP
011118: 20               NOP
011119: 20               NOP
01111a: 20               NOP
01111b: 20               NOP
01111c: 20               NOP
01111d: 20               NOP
01111e: 20               NOP
01111f: 20               NOP
011120: 20               NOP
011121: 20               NOP
011122: 20               NOP
011123: 20               NOP
011124: 20               NOP
011125: 20               NOP
011126: 20               NOP
011127: 20               NOP
011128: 20               NOP
011129: 20               NOP
01112a: 20               NOP
01112b: 20               NOP
01112c: 20               NOP
01112d: 20               NOP
01112e: 20               NOP
01112f: 20               NOP
011130: 20               NOP
011131: 20               NOP
011132: 20               NOP
011133: 20               NOP
011134: 20               NOP
011135: 20               NOP
011136: 20               NOP
011137: 20               NOP
011138: 20               NOP
011139: 20               NOP
01113a: 20               NOP
01113b: 20               NOP
01113c: 20               NOP
01113d: 20               NOP
01113e: 20               NOP
01113f: 20               NOP
011140: 20               NOP
011141: 20               NOP
011142: 20               NOP
011143: 20               NOP
011144: 20               NOP
011145: 20               NOP
011146: 20               NOP
011147: 20               NOP
011148: 20               NOP
011149: 20               NOP
01114a: 20               NOP
01114b: 20               NOP
01114c: 20               NOP
01114d: 20               NOP
01114e: 20               NOP
01114f: 20               NOP
011150: 20               NOP
011151: 20               NOP
011152: 20               NOP
011153: 20               NOP
011154: 20               NOP
011155: 20               NOP
011156: 20               NOP
011157: 20               NOP
011158: 20               NOP
011159: 20               NOP
01115a: 20               NOP
01115b: 20               NOP
01115c: 20               NOP
01115d: 20               NOP
01115e: 20               NOP
01115f: 20               NOP
011160: 20               NOP
011161: 20               NOP
011162: 20               NOP
011163: 20               NOP
011164: 20               NOP
011165: 20               NOP
011166: 20               NOP
011167: 20               NOP
011168: 20               NOP
011169: 20               NOP
01116a: 20               NOP
01116b: 20               NOP
01116c: 20               NOP
01116d: 20               NOP
01116e: 20               NOP
01116f: 20               NOP
011170: 20               NOP
011171: 20               NOP
011172: 20               NOP
011173: 20               NOP
011174: 20               NOP
011175: 20               NOP
011176: 20               NOP
011177: 20               NOP
011178: 20               NOP
011179: 20               NOP
01117a: 20               NOP
01117b: 20               NOP
01117c: 20               NOP
01117d: 20               NOP
01117e: 20               NOP
01117f: 20               NOP
011180: 20               NOP
011181: 20               NOP
011182: 20               NOP
011183: 20               NOP
011184: 20               NOP
011185: 20               NOP
011186: 20               NOP
011187: 20               NOP
011188: 20               NOP
011189: 20               NOP
01118a: 20               NOP
01118b: 20               NOP
01118c: 20               NOP
01118d: 20               NOP
01118e: 20               NOP
01118f: 20               NOP
011190: 20               NOP
011191: 20               NOP
011192: 20               NOP
011193: 20               NOP
011194: 20               NOP
011195: 20               NOP
011196: 20               NOP
011197: 20               NOP
011198: 20               NOP
011199: 20               NOP
01119a: 20               NOP
01119b: 20               NOP
01119c: 20               NOP
01119d: 20               NOP
01119e: 20               NOP
01119f: 20               NOP
0111a0: 20               NOP
0111a1: 20               NOP
0111a2: 20               NOP
0111a3: 20               NOP
0111a4: 20               NOP
0111a5: 20               NOP
0111a6: 20               NOP
0111a7: 20               NOP
0111a8: 20               NOP
0111a9: 20               NOP
0111aa: 20               NOP
0111ab: 20               NOP
0111ac: 20               NOP
0111ad: 20               NOP
0111ae: 20               NOP
0111af: 20               NOP
0111b0: 20               NOP
0111b1: 20               NOP
0111b2: 20               NOP
0111b3: 20               NOP
0111b4: 20               NOP
0111b5: 20               NOP
0111b6: 20               NOP
0111b7: 20               NOP
0111b8: 20               NOP
0111b9: 20               NOP
0111ba: 20               NOP
0111bb: 20               NOP
0111bc: 20               NOP
0111bd: 20               NOP
0111be: 20               NOP
0111bf: 20               NOP
0111c0: 20               NOP
0111c1: 20               NOP
0111c2: 20               NOP
0111c3: 20               NOP
0111c4: 20               NOP
0111c5: 20               NOP
0111c6: 20               NOP
0111c7: 20               NOP
0111c8: 20               NOP
0111c9: 20               NOP
0111ca: 20               NOP
0111cb: 20               NOP
0111cc: 20               NOP
0111cd: 20               NOP
0111ce: 20               NOP
0111cf: 20               NOP
0111d0: 20               NOP
0111d1: 20               NOP
0111d2: 20               NOP
0111d3: 20               NOP
0111d4: 20               NOP
0111d5: 20               NOP
0111d6: 20               NOP
0111d7: 20               NOP
0111d8: 20               NOP
0111d9: 20               NOP
0111da: 20               NOP
0111db: 20               NOP
0111dc: 20               NOP
0111dd: 20               NOP
0111de: 20               NOP
0111df: 20               NOP
0111e0: 20               NOP
0111e1: 20               NOP
0111e2: 20               NOP
0111e3: 20               NOP
0111e4: 20               NOP
0111e5: 20               NOP
0111e6: 20               NOP
0111e7: 20               NOP
0111e8: 20               NOP
0111e9: 20               NOP
0111ea: 20               NOP
0111eb: 20               NOP
0111ec: 20               NOP
0111ed: 20               NOP
0111ee: 20               NOP
0111ef: 20               NOP
0111f0: 20               NOP
0111f1: 20               NOP
0111f2: 20               NOP
0111f3: 20               NOP
0111f4: 20               NOP
0111f5: 20               NOP
0111f6: 20               NOP
0111f7: 20               NOP
0111f8: 20               NOP
0111f9: 20               NOP
0111fa: 20               NOP
0111fb: 20               NOP
0111fc: 20               NOP
0111fd: 20               NOP
0111fe: 20               NOP
0111ff: 20               NOP
011200: 20               NOP
011201: 20               NOP
011202: 20               NOP
011203: 20               NOP
011204: 20               NOP
011205: 20               NOP
011206: 20               NOP
011207: 20               NOP
011208: 20               NOP
011209: 20               NOP
01120a: 20               NOP
01120b: 20               NOP
01120c: 20               NOP
01120d: 20               NOP
01120e: 20               NOP
01120f: 20               NOP
011210: 20               NOP
011211: 20               NOP
011212: 20               NOP
011213: 20               NOP
011214: 20               NOP
011215: 20               NOP
011216: 20               NOP
011217: 20               NOP
011218: 20               NOP
011219: 20               NOP
01121a: 20               NOP
01121b: 20               NOP
01121c: 20               NOP
01121d: 20               NOP
01121e: 20               NOP
01121f: 20               NOP
011220: 20               NOP
011221: 20               NOP
011222: 20               NOP
011223: 20               NOP
011224: 20               NOP
011225: 20               NOP
011226: 20               NOP
011227: 20               NOP
011228: 20               NOP
011229: 20               NOP
01122a: 20               NOP
01122b: 20               NOP
01122c: 20               NOP
01122d: 20               NOP
01122e: 20               NOP
01122f: 20               NOP
011230: 20               NOP
011231: 20               NOP
011232: 20               NOP
011233: 20               NOP
011234: 20               NOP
011235: 20               NOP
011236: 20               NOP
011237: 20               NOP
011238: 20               NOP
011239: 20               NOP
01123a: 20               NOP
01123b: 20               NOP
01123c: 20               NOP
01123d: 20               NOP
01123e: 20               NOP
01123f: 20               NOP
011240: 20               NOP
011241: 20               NOP
011242: 20               NOP
011243: 20               NOP
011244: 20               NOP
011245: 20               NOP
011246: 20               NOP
011247: 20               NOP
011248: 20               NOP
011249: 20               NOP
01124a: 20               NOP
01124b: 20               NOP
01124c: 20               NOP
01124d: 20               NOP
01124e: 20               NOP
01124f: 20               NOP
011250: 20               NOP
011251: 20               NOP
011252: 20               NOP
011253: 20               NOP
011254: 20               NOP
011255: 20               NOP
011256: 20               NOP
011257: 20               NOP
011258: 20               NOP
011259: 20               NOP
01125a: 20               NOP
01125b: 20               NOP
01125c: 20               NOP
01125d: 20               NOP
01125e: 20               NOP
01125f: 20               NOP
011260: 20               NOP
011261: 20               NOP
011262: 20               NOP
011263: 20               NOP
011264: 20               NOP
011265: 20               NOP
011266: 20               NOP
011267: 20               NOP
011268: 20               NOP
011269: 20               NOP
01126a: 20               NOP
01126b: 20               NOP
01126c: 20               NOP
01126d: 20               NOP
01126e: 20               NOP
01126f: 20               NOP
011270: 20               NOP
011271: 20               NOP
011272: 20               NOP
011273: 20               NOP
011274: 20               NOP
011275: 20               NOP
011276: 20               NOP
011277: 20               NOP
011278: 20               NOP
011279: 20               NOP
01127a: 20               NOP
01127b: 20               NOP
01127c: 20               NOP
01127d: 20               NOP
01127e: 20               NOP
01127f: 20               NOP
011280: 20               NOP
011281: 20               NOP
011282: 20               NOP
011283: 20               NOP
011284: 20               NOP
011285: 20               NOP
011286: 20               NOP
011287: 20               NOP
011288: 20               NOP
011289: 20               NOP
01128a: 20               NOP
01128b: 20               NOP
01128c: 20               NOP
01128d: 20               NOP
01128e: 20               NOP
01128f: 20               NOP
011290: 20               NOP
011291: 20               NOP
011292: 20               NOP
011293: 20               NOP
011294: 20               NOP
011295: 20               NOP
011296: 20               NOP
011297: 20               NOP
011298: 20               NOP
011299: 20               NOP
01129a: 20               NOP
01129b: 20               NOP
01129c: 20               NOP
01129d: 20               NOP
01129e: 20               NOP
01129f: 20               NOP
0112a0: 20               NOP
0112a1: 20               NOP
0112a2: 20               NOP
0112a3: 20               NOP
0112a4: 20               NOP
0112a5: 20               NOP
0112a6: 20               NOP
0112a7: 20               NOP
0112a8: 20               NOP
0112a9: 20               NOP
0112aa: 20               NOP
0112ab: 20               NOP
0112ac: 20               NOP
0112ad: 20               NOP
0112ae: 20               NOP
0112af: 20               NOP
0112b0: 20               NOP
0112b1: 20               NOP
0112b2: 20               NOP
0112b3: 20               NOP
0112b4: 20               NOP
0112b5: 20               NOP
0112b6: 20               NOP
0112b7: 20               NOP
0112b8: 20               NOP
0112b9: 20               NOP
0112ba: 20               NOP
0112bb: 20               NOP
0112bc: 20               NOP
0112bd: 20               NOP
0112be: 20               NOP
0112bf: 20               NOP
0112c0: 20               NOP
0112c1: 20               NOP
0112c2: 20               NOP
0112c3: 20               NOP
0112c4: 20               NOP
0112c5: 20               NOP
0112c6: 20               NOP
0112c7: 20               NOP
0112c8: 20               NOP
0112c9: 20               NOP
0112ca: 20               NOP
0112cb: 20               NOP
0112cc: 20               NOP
0112cd: 20               NOP
0112ce: 20               NOP
0112cf: 20               NOP
0112d0: 20               NOP
0112d1: 20               NOP
0112d2: 20               NOP
0112d3: 20               NOP
0112d4: 20               NOP
0112d5: 20               NOP
0112d6: 20               NOP
0112d7: 20               NOP
0112d8: 20               NOP
0112d9: 20               NOP
0112da: 20               NOP
0112db: 20               NOP
0112dc: 20               NOP
0112dd: 20               NOP
0112de: 20               NOP
0112df: 20               NOP
0112e0: 20               NOP
0112e1: 20               NOP
0112e2: 20               NOP
0112e3: 20               NOP
0112e4: 20               NOP
0112e5: 20               NOP
0112e6: 20               NOP
0112e7: 20               NOP
0112e8: 20               NOP
0112e9: 20               NOP
0112ea: 20               NOP
0112eb: 20               NOP
0112ec: 20               NOP
0112ed: 20               NOP
0112ee: 20               NOP
0112ef: 20               NOP
0112f0: 20               NOP
0112f1: 20               NOP
0112f2: 20               NOP
0112f3: 20               NOP
0112f4: 20               NOP
0112f5: 20               NOP
0112f6: 20               NOP
0112f7: 20               NOP
0112f8: 20               NOP
0112f9: 20               NOP
0112fa: 20               NOP
0112fb: 20               NOP
0112fc: 20               NOP
0112fd: 20               NOP
0112fe: 20               NOP
0112ff: 20               NOP
011300: 20               NOP
011301: 20               NOP
011302: 20               NOP
011303: 20               NOP
011304: 20               NOP
011305: 20               NOP
011306: 20               NOP
011307: 20               NOP
011308: 20               NOP
011309: 20               NOP
01130a: 20               NOP
01130b: 20               NOP
01130c: 20               NOP
01130d: 20               NOP
01130e: 20               NOP
01130f: 20               NOP
011310: 20               NOP
011311: 20               NOP
011312: 20               NOP
011313: 20               NOP
011314: 20               NOP
011315: 20               NOP
011316: 20               NOP
011317: 20               NOP
011318: 20               NOP
011319: 20               NOP
01131a: 20               NOP
01131b: 20               NOP
01131c: 20               NOP
01131d: 20               NOP
01131e: 20               NOP
01131f: 20               NOP
011320: 20               NOP
011321: 20               NOP
011322: 20               NOP
011323: 20               NOP
011324: 20               NOP
011325: 20               NOP
011326: 20               NOP
011327: 20               NOP
011328: 20               NOP
011329: 20               NOP
01132a: 20               NOP
01132b: 20               NOP
01132c: 20               NOP
01132d: 20               NOP
01132e: 20               NOP
01132f: 20               NOP
011330: 20               NOP
011331: 20               NOP
011332: 20               NOP
011333: 20               NOP
011334: 20               NOP
011335: 20               NOP
011336: 20               NOP
011337: 20               NOP
011338: 20               NOP
011339: 20               NOP
01133a: 20               NOP
01133b: 20               NOP
01133c: 20               NOP
01133d: 20               NOP
01133e: 20               NOP
01133f: 20               NOP
011340: 20               NOP
011341: 20               NOP
011342: 20               NOP
011343: 20               NOP
011344: 20               NOP
011345: 20               NOP
011346: 20               NOP
011347: 20               NOP
011348: 20               NOP
011349: 20               NOP
01134a: 20               NOP
01134b: 20               NOP
01134c: 20               NOP
01134d: 20               NOP
01134e: 20               NOP
01134f: 20               NOP
011350: 20               NOP
011351: 20               NOP
011352: 20               NOP
011353: 20               NOP
011354: 20               NOP
011355: 20               NOP
011356: 20               NOP
011357: 20               NOP
011358: 20               NOP
011359: 20               NOP
01135a: 20               NOP
01135b: 20               NOP
01135c: 20               NOP
01135d: 20               NOP
01135e: 20               NOP
01135f: 20               NOP
011360: 20               NOP
011361: 20               NOP
011362: 20               NOP
011363: 20               NOP
011364: 20               NOP
011365: 20               NOP
011366: 20               NOP
011367: 20               NOP
011368: 20               NOP
011369: 20               NOP
01136a: 20               NOP
01136b: 20               NOP
01136c: 20               NOP
01136d: 20               NOP
01136e: 20               NOP
01136f: 20               NOP
011370: 20               NOP
011371: 20               NOP
011372: 20               NOP
011373: 20               NOP
011374: 20               NOP
011375: 20               NOP
011376: 20               NOP
011377: 20               NOP
011378: 20               NOP
011379: 20               NOP
01137a: 20               NOP
01137b: 20               NOP
01137c: 20               NOP
01137d: 20               NOP
01137e: 20               NOP
01137f: 20               NOP
011380: 20               NOP
011381: 20               NOP
011382: 20               NOP
011383: 20               NOP
011384: 20               NOP
011385: 20               NOP
011386: 20               NOP
011387: 20               NOP
011388: 20               NOP
011389: 20               NOP
01138a: 20               NOP
01138b: 20               NOP
01138c: 20               NOP
01138d: 20               NOP
01138e: 20               NOP
01138f: 20               NOP
011390: 20               NOP
011391: 20               NOP
011392: 20               NOP
011393: 20               NOP
011394: 20               NOP
011395: 20               NOP
011396: 20               NOP
011397: 20               NOP
011398: 20               NOP
011399: 20               NOP
01139a: 20               NOP
01139b: 20               NOP
01139c: 20               NOP
01139d: 20               NOP
01139e: 20               NOP
01139f: 20               NOP
0113a0: 20               NOP
0113a1: 20               NOP
0113a2: 20               NOP
0113a3: 20               NOP
0113a4: 20               NOP
0113a5: 20               NOP
0113a6: 20               NOP
0113a7: 20               NOP
0113a8: 20               NOP
0113a9: 20               NOP
0113aa: 20               NOP
0113ab: 20               NOP
0113ac: 20               NOP
0113ad: 20               NOP
0113ae: 20               NOP
0113af: 20               NOP
0113b0: 20               NOP
0113b1: 20               NOP
0113b2: 20               NOP
0113b3: 20               NOP
0113b4: 20               NOP
0113b5: 20               NOP
0113b6: 20               NOP
0113b7: 20               NOP
0113b8: 20               NOP
0113b9: 20               NOP
0113ba: 20               NOP
0113bb: 20               NOP
0113bc: 20               NOP
0113bd: 20               NOP
0113be: 20               NOP
0113bf: 20               NOP
0113c0: 20               NOP
0113c1: 20               NOP
0113c2: 20               NOP
0113c3: 20               NOP
0113c4: 20               NOP
0113c5: 20               NOP
0113c6: 20               NOP
0113c7: 20               NOP
0113c8: 20               NOP
0113c9: 20               NOP
0113ca: 20               NOP
0113cb: 20               NOP
0113cc: 20               NOP
0113cd: 20               NOP
0113ce: 20               NOP
0113cf: 20               NOP
0113d0: 20               NOP
0113d1: 20               NOP
0113d2: 20               NOP
0113d3: 20               NOP
0113d4: 20               NOP
0113d5: 20               NOP
0113d6: 20               NOP
0113d7: 20               NOP
0113d8: 20               NOP
0113d9: 20               NOP
0113da: 20               NOP
0113db: 20               NOP
0113dc: 20               NOP
0113dd: 20               NOP
0113de: 20               NOP
0113df: 20               NOP
0113e0: 20               NOP
0113e1: 20               NOP
0113e2: 20               NOP
0113e3: 20               NOP
0113e4: 20               NOP
0113e5: 20               NOP
0113e6: 20               NOP
0113e7: 20               NOP
0113e8: 20               NOP
0113e9: 20               NOP
0113ea: 20               NOP
0113eb: 20               NOP
0113ec: 20               NOP
0113ed: 20               NOP
0113ee: 20               NOP
0113ef: 20               NOP
0113f0: 20               NOP
0113f1: 20               NOP
0113f2: 20               NOP
0113f3: 20               NOP
0113f4: 20               NOP
0113f5: 20               NOP
0113f6: 20               NOP
0113f7: 20               NOP
0113f8: 20               NOP
0113f9: 20               NOP
0113fa: 20               NOP
0113fb: 20               NOP
0113fc: 20               NOP
0113fd: 20               NOP
0113fe: 20               NOP
0113ff: 20               NOP
011400: 20               NOP
011401: 20               NOP
011402: 20               NOP
011403: 20               NOP
011404: 20               NOP
011405: 20               NOP
011406: 20               NOP
011407: 20               NOP
011408: 20               NOP
011409: 20               NOP
01140a: 20               NOP
01140b: 20               NOP
01140c: 20               NOP
01140d: 20               NOP
01140e: 20               NOP
01140f: 20               NOP
011410: 20               NOP
011411: 20               NOP
011412: 20               NOP
011413: 20               NOP
011414: 20               NOP
011415: 20               NOP
011416: 20               NOP
011417: 20               NOP
011418: 20               NOP
011419: 20               NOP
01141a: 20               NOP
01141b: 20               NOP
01141c: 20               NOP
01141d: 20               NOP
01141e: 20               NOP
01141f: 20               NOP
011420: 20               NOP
011421: 20               NOP
011422: 20               NOP
011423: 20               NOP
011424: 20               NOP
011425: 20               NOP
011426: 20               NOP
011427: 20               NOP
011428: 20               NOP
011429: 20               NOP
01142a: 20               NOP
01142b: 20               NOP
01142c: 20               NOP
01142d: 20               NOP
01142e: 20               NOP
01142f: 20               NOP
011430: 20               NOP
011431: 20               NOP
011432: 20               NOP
011433: 20               NOP
011434: 20               NOP
011435: 20               NOP
011436: 20               NOP
011437: 20               NOP
011438: 20               NOP
011439: 20               NOP
01143a: 20               NOP
01143b: 20               NOP
01143c: 20               NOP
01143d: 20               NOP
01143e: 20               NOP
01143f: 20               NOP
011440: 20               NOP
011441: 20               NOP
011442: 20               NOP
011443: 20               NOP
011444: 20               NOP
011445: 20               NOP
011446: 20               NOP
011447: 20               NOP
011448: 20               NOP
011449: 20               NOP
01144a: 20               NOP
01144b: 20               NOP
01144c: 20               NOP
01144d: 20               NOP
01144e: 20               NOP
01144f: 20               NOP
011450: 20               NOP
011451: 20               NOP
011452: 20               NOP
011453: 20               NOP
011454: 20               NOP
011455: 20               NOP
011456: 20               NOP
011457: 20               NOP
011458: 20               NOP
011459: 20               NOP
01145a: 20               NOP
01145b: 20               NOP
01145c: 20               NOP
01145d: 20               NOP
01145e: 20               NOP
01145f: 20               NOP
011460: 20               NOP
011461: 20               NOP
011462: 20               NOP
011463: 20               NOP
011464: 20               NOP
011465: 20               NOP
011466: 20               NOP
011467: 20               NOP
011468: 20               NOP
011469: 20               NOP
01146a: 20               NOP
01146b: 20               NOP
01146c: 20               NOP
01146d: 20               NOP
01146e: 20               NOP
01146f: 20               NOP
011470: 20               NOP
011471: 20               NOP
011472: 20               NOP
011473: 20               NOP
011474: 20               NOP
011475: 20               NOP
011476: 20               NOP
011477: 20               NOP
011478: 20               NOP
011479: 20               NOP
01147a: 20               NOP
01147b: 20               NOP
01147c: 20               NOP
01147d: 20               NOP
01147e: 20               NOP
01147f: 20               NOP
011480: 20               NOP
011481: 20               NOP
011482: 20               NOP
011483: 20               NOP
011484: 20               NOP
011485: 20               NOP
011486: 20               NOP
011487: 20               NOP
011488: 20               NOP
011489: 20               NOP
01148a: 20               NOP
01148b: 20               NOP
01148c: 20               NOP
01148d: 20               NOP
01148e: 20               NOP
01148f: 20               NOP
011490: 20               NOP
011491: 20               NOP
011492: 20               NOP
011493: 20               NOP
011494: 20               NOP
011495: 20               NOP
011496: 20               NOP
011497: 20               NOP
011498: 20               NOP
011499: 20               NOP
01149a: 20               NOP
01149b: 20               NOP
01149c: 20               NOP
01149d: 20               NOP
01149e: 20               NOP
01149f: 20               NOP
0114a0: 20               NOP
0114a1: 20               NOP
0114a2: 20               NOP
0114a3: 20               NOP
0114a4: 20               NOP
0114a5: 20               NOP
0114a6: 20               NOP
0114a7: 20               NOP
0114a8: 20               NOP
0114a9: 20               NOP
0114aa: 20               NOP
0114ab: 20               NOP
0114ac: 20               NOP
0114ad: 20               NOP
0114ae: 20               NOP
0114af: 20               NOP
0114b0: 20               NOP
0114b1: 20               NOP
0114b2: 20               NOP
0114b3: 20               NOP
0114b4: 20               NOP
0114b5: 20               NOP
0114b6: 20               NOP
0114b7: 20               NOP
0114b8: 20               NOP
0114b9: 20               NOP
0114ba: 20               NOP
0114bb: 20               NOP
0114bc: 20               NOP
0114bd: 20               NOP
0114be: 20               NOP
0114bf: 20               NOP
0114c0: 20               NOP
0114c1: 20               NOP
0114c2: 20               NOP
0114c3: 20               NOP
0114c4: 20               NOP
0114c5: 20               NOP
0114c6: 20               NOP
0114c7: 20               NOP
0114c8: 20               NOP
0114c9: 20               NOP
0114ca: 20               NOP
0114cb: 20               NOP
0114cc: 20               NOP
0114cd: 20               NOP
0114ce: 20               NOP
0114cf: 20               NOP
0114d0: 20               NOP
0114d1: 20               NOP
0114d2: 20               NOP
0114d3: 20               NOP
0114d4: 20               NOP
0114d5: 20               NOP
0114d6: 20               NOP
0114d7: 20               NOP
0114d8: 20               NOP
0114d9: 20               NOP
0114da: 20               NOP
0114db: 20               NOP
0114dc: 20               NOP
0114dd: 20               NOP
0114de: 20               NOP
0114df: 20               NOP
0114e0: 20               NOP
0114e1: 20               NOP
0114e2: 20               NOP
0114e3: 20               NOP
0114e4: 20               NOP
0114e5: 20               NOP
0114e6: 20               NOP
0114e7: 20               NOP
0114e8: 20               NOP
0114e9: 20               NOP
0114ea: 20               NOP
0114eb: 20               NOP
0114ec: 20               NOP
0114ed: 20               NOP
0114ee: 20               NOP
0114ef: 20               NOP
0114f0: 20               NOP
0114f1: 20               NOP
0114f2: 20               NOP
0114f3: 20               NOP
0114f4: 20               NOP
0114f5: 20               NOP
0114f6: 20               NOP
0114f7: 20               NOP
0114f8: 20               NOP
0114f9: 20               NOP
0114fa: 20               NOP
0114fb: 20               NOP
0114fc: 20               NOP
0114fd: 20               NOP
0114fe: 20               NOP
0114ff: 20               NOP
011500: 20               NOP
011501: 20               NOP
011502: 20               NOP
011503: 20               NOP
011504: 20               NOP
011505: 20               NOP
011506: 20               NOP
011507: 20               NOP
011508: 20               NOP
011509: 20               NOP
01150a: 20               NOP
01150b: 20               NOP
01150c: 20               NOP
01150d: 20               NOP
01150e: 20               NOP
01150f: 20               NOP
011510: 20               NOP
011511: 20               NOP
011512: 20               NOP
011513: 20               NOP
011514: 20               NOP
011515: 20               NOP
011516: 20               NOP
011517: 20               NOP
011518: 20               NOP
011519: 20               NOP
01151a: 20               NOP
01151b: 20               NOP
01151c: 20               NOP
01151d: 20               NOP
01151e: 20               NOP
01151f: 20               NOP
011520: 20               NOP
011521: 20               NOP
011522: 20               NOP
011523: 20               NOP
011524: 20               NOP
011525: 20               NOP
011526: 20               NOP
011527: 20               NOP
011528: 20               NOP
011529: 20               NOP
01152a: 20               NOP
01152b: 20               NOP
01152c: 20               NOP
01152d: 20               NOP
01152e: 20               NOP
01152f: 20               NOP
011530: 20               NOP
011531: 20               NOP
011532: 20               NOP
011533: 20               NOP
011534: 20               NOP
011535: 20               NOP
011536: 20               NOP
011537: 20               NOP
011538: 20               NOP
011539: 20               NOP
01153a: 20               NOP
01153b: 20               NOP
01153c: 20               NOP
01153d: 20               NOP
01153e: 20               NOP
01153f: 20               NOP
011540: 20               NOP
011541: 20               NOP
011542: 20               NOP
011543: 20               NOP
011544: 20               NOP
011545: 20               NOP
011546: 20               NOP
011547: 20               NOP
011548: 20               NOP
011549: 20               NOP
01154a: 20               NOP
01154b: 20               NOP
01154c: 20               NOP
01154d: 20               NOP
01154e: 20               NOP
01154f: 20               NOP
011550: 20               NOP
011551: 20               NOP
011552: 20               NOP
011553: 20               NOP
011554: 20               NOP
011555: 20               NOP
011556: 20               NOP
011557: 20               NOP
011558: 20               NOP
011559: 20               NOP
01155a: 20               NOP
01155b: 20               NOP
01155c: 20               NOP
01155d: 20               NOP
01155e: 20               NOP
01155f: 20               NOP
011560: 20               NOP
011561: 20               NOP
011562: 20               NOP
011563: 20               NOP
011564: 20               NOP
011565: 20               NOP
011566: 20               NOP
011567: 20               NOP
011568: 20               NOP
011569: 20               NOP
01156a: 20               NOP
01156b: 20               NOP
01156c: 20               NOP
01156d: 20               NOP
01156e: 20               NOP
01156f: 20               NOP
011570: 20               NOP
011571: 20               NOP
011572: 20               NOP
011573: 20               NOP
011574: 20               NOP
011575: 20               NOP
011576: 20               NOP
011577: 20               NOP
011578: 20               NOP
011579: 20               NOP
01157a: 20               NOP
01157b: 20               NOP
01157c: 20               NOP
01157d: 20               NOP
01157e: 20               NOP
01157f: 20               NOP
011580: 20               NOP
011581: 20               NOP
011582: 20               NOP
011583: 20               NOP
011584: 20               NOP
011585: 20               NOP
011586: 20               NOP
011587: 20               NOP
011588: 20               NOP
011589: 20               NOP
01158a: 20               NOP
01158b: 20               NOP
01158c: 20               NOP
01158d: 20               NOP
01158e: 20               NOP
01158f: 20               NOP
011590: 20               NOP
011591: 20               NOP
011592: 20               NOP
011593: 20               NOP
011594: 20               NOP
011595: 20               NOP
011596: 20               NOP
011597: 20               NOP
011598: 20               NOP
011599: 20               NOP
01159a: 20               NOP
01159b: 20               NOP
01159c: 20               NOP
01159d: 20               NOP
01159e: 20               NOP
01159f: 20               NOP
0115a0: 20               NOP
0115a1: 20               NOP
0115a2: 20               NOP
0115a3: 20               NOP
0115a4: 20               NOP
0115a5: 20               NOP
0115a6: 20               NOP
0115a7: 20               NOP
0115a8: 20               NOP
0115a9: 20               NOP
0115aa: 20               NOP
0115ab: 20               NOP
0115ac: 20               NOP
0115ad: 20               NOP
0115ae: 20               NOP
0115af: 20               NOP
0115b0: 20               NOP
0115b1: 20               NOP
0115b2: 20               NOP
0115b3: 20               NOP
0115b4: 20               NOP
0115b5: 20               NOP
0115b6: 20               NOP
0115b7: 20               NOP
0115b8: 20               NOP
0115b9: 20               NOP
0115ba: 20               NOP
0115bb: 20               NOP
0115bc: 20               NOP
0115bd: 20               NOP
0115be: 20               NOP
0115bf: 20               NOP
0115c0: 20               NOP
0115c1: 20               NOP
0115c2: 20               NOP
0115c3: 20               NOP
0115c4: 20               NOP
0115c5: 20               NOP
0115c6: 20               NOP
0115c7: 20               NOP
0115c8: 20               NOP
0115c9: 20               NOP
0115ca: 20               NOP
0115cb: 20               NOP
0115cc: 20               NOP
0115cd: 20               NOP
0115ce: 20               NOP
0115cf: 20               NOP
0115d0: 20               NOP
0115d1: 20               NOP
0115d2: 20               NOP
0115d3: 20               NOP
0115d4: 20               NOP
0115d5: 20               NOP
0115d6: 20               NOP
0115d7: 20               NOP
0115d8: 20               NOP
0115d9: 20               NOP
0115da: 20               NOP
0115db: 20               NOP
0115dc: 20               NOP
0115dd: 20               NOP
0115de: 20               NOP
0115df: 20               NOP
0115e0: 20               NOP
0115e1: 20               NOP
0115e2: 20               NOP
0115e3: 20               NOP
0115e4: 20               NOP
0115e5: 20               NOP
0115e6: 20               NOP
0115e7: 20               NOP
0115e8: 20               NOP
0115e9: 20               NOP
0115ea: 20               NOP
0115eb: 20               NOP
0115ec: 20               NOP
0115ed: 20               NOP
0115ee: 20               NOP
0115ef: 20               NOP
0115f0: 20               NOP
0115f1: 20               NOP
0115f2: 20               NOP
0115f3: 20               NOP
0115f4: 20               NOP
0115f5: 20               NOP
0115f6: 20               NOP
0115f7: 20               NOP
0115f8: 20               NOP
0115f9: 20               NOP
0115fa: 20               NOP
0115fb: 20               NOP
0115fc: 20               NOP
0115fd: 20               NOP
0115fe: 20               NOP
0115ff: 20               NOP
011600: 20               NOP
011601: 20               NOP
011602: 20               NOP
011603: 20               NOP
011604: 20               NOP
011605: 20               NOP
011606: 20               NOP
011607: 20               NOP
011608: 20               NOP
011609: 20               NOP
01160a: 20               NOP
01160b: 20               NOP
01160c: 20               NOP
01160d: 20               NOP
01160e: 20               NOP
01160f: 20               NOP
011610: 20               NOP
011611: 20               NOP
011612: 20               NOP
011613: 20               NOP
011614: 20               NOP
011615: 20               NOP
011616: 20               NOP
011617: 20               NOP
011618: 20               NOP
011619: 20               NOP
01161a: 20               NOP
01161b: 20               NOP
01161c: 20               NOP
01161d: 20               NOP
01161e: 20               NOP
01161f: 20               NOP
011620: 20               NOP
011621: 20               NOP
011622: 20               NOP
011623: 20               NOP
011624: 20               NOP
011625: 20               NOP
011626: 20               NOP
011627: 20               NOP
011628: 20               NOP
011629: 20               NOP
01162a: 20               NOP
01162b: 20               NOP
01162c: 20               NOP
01162d: 20               NOP
01162e: 20               NOP
01162f: 20               NOP
011630: 20               NOP
011631: 20               NOP
011632: 20               NOP
011633: 20               NOP
011634: 20               NOP
011635: 20               NOP
011636: 20               NOP
011637: 20               NOP
011638: 20               NOP
011639: 20               NOP
01163a: 20               NOP
01163b: 20               NOP
01163c: 20               NOP
01163d: 20               NOP
01163e: 20               NOP
01163f: 20               NOP
011640: 20               NOP
011641: 20               NOP
011642: 20               NOP
011643: 20               NOP
011644: 20               NOP
011645: 20               NOP
011646: 20               NOP
011647: 20               NOP
011648: 20               NOP
011649: 20               NOP
01164a: 20               NOP
01164b: 20               NOP
01164c: 20               NOP
01164d: 20               NOP
01164e: 20               NOP
01164f: 20               NOP
011650: 20               NOP
011651: 20               NOP
011652: 20               NOP
011653: 20               NOP
011654: 20               NOP
011655: 20               NOP
011656: 20               NOP
011657: 20               NOP
011658: 20               NOP
011659: 20               NOP
01165a: 20               NOP
01165b: 20               NOP
01165c: 20               NOP
01165d: 20               NOP
01165e: 20               NOP
01165f: 20               NOP
011660: 20               NOP
011661: 20               NOP
011662: 20               NOP
011663: 20               NOP
011664: 20               NOP
011665: 20               NOP
011666: 20               NOP
011667: 20               NOP
011668: 20               NOP
011669: 20               NOP
01166a: 20               NOP
01166b: 20               NOP
01166c: 20               NOP
01166d: 20               NOP
01166e: 20               NOP
01166f: 20               NOP
011670: 20               NOP
011671: 20               NOP
011672: 20               NOP
011673: 20               NOP
011674: 20               NOP
011675: 20               NOP
011676: 20               NOP
011677: 20               NOP
011678: 20               NOP
011679: 20               NOP
01167a: 20               NOP
01167b: 20               NOP
01167c: 20               NOP
01167d: 20               NOP
01167e: 20               NOP
01167f: 20               NOP
011680: 20               NOP
011681: 20               NOP
011682: 20               NOP
011683: 20               NOP
011684: 20               NOP
011685: 20               NOP
011686: 20               NOP
011687: 20               NOP
011688: 20               NOP
011689: 20               NOP
01168a: 20               NOP
01168b: 20               NOP
01168c: 20               NOP
01168d: 20               NOP
01168e: 20               NOP
01168f: 20               NOP
011690: 20               NOP
011691: 20               NOP
011692: 20               NOP
011693: 20               NOP
011694: 20               NOP
011695: 20               NOP
011696: 20               NOP
011697: 20               NOP
011698: 20               NOP
011699: 20               NOP
01169a: 20               NOP
01169b: 20               NOP
01169c: 20               NOP
01169d: 20               NOP
01169e: 20               NOP
01169f: 20               NOP
0116a0: 20               NOP
0116a1: 20               NOP
0116a2: 20               NOP
0116a3: 20               NOP
0116a4: 20               NOP
0116a5: 20               NOP
0116a6: 20               NOP
0116a7: 20               NOP
0116a8: 20               NOP
0116a9: 20               NOP
0116aa: 20               NOP
0116ab: 20               NOP
0116ac: 20               NOP
0116ad: 20               NOP
0116ae: 20               NOP
0116af: 20               NOP
0116b0: 20               NOP
0116b1: 20               NOP
0116b2: 20               NOP
0116b3: 20               NOP
0116b4: 20               NOP
0116b5: 20               NOP
0116b6: 20               NOP
0116b7: 20               NOP
0116b8: 20               NOP
0116b9: 20               NOP
0116ba: 20               NOP
0116bb: 20               NOP
0116bc: 20               NOP
0116bd: 20               NOP
0116be: 20               NOP
0116bf: 20               NOP
0116c0: 20               NOP
0116c1: 20               NOP
0116c2: 20               NOP
0116c3: 20               NOP
0116c4: 20               NOP
0116c5: 20               NOP
0116c6: 20               NOP
0116c7: 20               NOP
0116c8: 20               NOP
0116c9: 20               NOP
0116ca: 20               NOP
0116cb: 20               NOP
0116cc: 20               NOP
0116cd: 20               NOP
0116ce: 20               NOP
0116cf: 20               NOP
0116d0: 20               NOP
0116d1: 20               NOP
0116d2: 20               NOP
0116d3: 20               NOP
0116d4: 20               NOP
0116d5: 20               NOP
0116d6: 20               NOP
0116d7: 20               NOP
0116d8: 20               NOP
0116d9: 20               NOP
0116da: 20               NOP
0116db: 20               NOP
0116dc: 20               NOP
0116dd: 20               NOP
0116de: 20               NOP
0116df: 20               NOP
0116e0: 20               NOP
0116e1: 20               NOP
0116e2: 20               NOP
0116e3: 20               NOP
0116e4: 20               NOP
0116e5: 20               NOP
0116e6: 20               NOP
0116e7: 20               NOP
0116e8: 20               NOP
0116e9: 20               NOP
0116ea: 20               NOP
0116eb: 20               NOP
0116ec: 20               NOP
0116ed: 20               NOP
0116ee: 20               NOP
0116ef: 20               NOP
0116f0: 20               NOP
0116f1: 20               NOP
0116f2: 20               NOP
0116f3: 20               NOP
0116f4: 20               NOP
0116f5: 20               NOP
0116f6: 20               NOP
0116f7: 20               NOP
0116f8: 20               NOP
0116f9: 20               NOP
0116fa: 20               NOP
0116fb: 20               NOP
0116fc: 20               NOP
0116fd: 20               NOP
0116fe: 20               NOP
0116ff: 20               NOP
011700: 20               NOP
011701: 20               NOP
011702: 20               NOP
011703: 20               NOP
011704: 20               NOP
011705: 20               NOP
011706: 20               NOP
011707: 20               NOP
011708: 20               NOP
011709: 20               NOP
01170a: 20               NOP
01170b: 20               NOP
01170c: 20               NOP
01170d: 20               NOP
01170e: 20               NOP
01170f: 20               NOP
011710: 20               NOP
011711: 20               NOP
011712: 20               NOP
011713: 20               NOP
011714: 20               NOP
011715: 20               NOP
011716: 20               NOP
011717: 20               NOP
011718: 20               NOP
011719: 20               NOP
01171a: 20               NOP
01171b: 20               NOP
01171c: 20               NOP
01171d: 20               NOP
01171e: 20               NOP
01171f: 20               NOP
011720: 20               NOP
011721: 20               NOP
011722: 20               NOP
011723: 20               NOP
011724: 20               NOP
011725: 20               NOP
011726: 20               NOP
011727: 20               NOP
011728: 20               NOP
011729: 20               NOP
01172a: 20               NOP
01172b: 20               NOP
01172c: 20               NOP
01172d: 20               NOP
01172e: 20               NOP
01172f: 20               NOP
011730: 20               NOP
011731: 20               NOP
011732: 20               NOP
011733: 20               NOP
011734: 20               NOP
011735: 20               NOP
011736: 20               NOP
011737: 20               NOP
011738: 20               NOP
011739: 20               NOP
01173a: 20               NOP
01173b: 20               NOP
01173c: 20               NOP
01173d: 20               NOP
01173e: 20               NOP
01173f: 20               NOP
011740: 20               NOP
011741: 20               NOP
011742: 20               NOP
011743: 20               NOP
011744: 20               NOP
011745: 20               NOP
011746: 20               NOP
011747: 20               NOP
011748: 20               NOP
011749: 20               NOP
01174a: 20               NOP
01174b: 20               NOP
01174c: 20               NOP
01174d: 20               NOP
01174e: 20               NOP
01174f: 20               NOP
011750: 20               NOP
011751: 20               NOP
011752: 20               NOP
011753: 20               NOP
011754: 20               NOP
011755: 20               NOP
011756: 20               NOP
011757: 20               NOP
011758: 20               NOP
011759: 20               NOP
01175a: 20               NOP
01175b: 20               NOP
01175c: 20               NOP
01175d: 20               NOP
01175e: 20               NOP
01175f: 20               NOP
011760: 20               NOP
011761: 20               NOP
011762: 20               NOP
011763: 20               NOP
011764: 20               NOP
011765: 20               NOP
011766: 20               NOP
011767: 20               NOP
011768: 20               NOP
011769: 20               NOP
01176a: 20               NOP
01176b: 20               NOP
01176c: 20               NOP
01176d: 20               NOP
01176e: 20               NOP
01176f: 20               NOP
011770: 20               NOP
011771: 20               NOP
011772: 20               NOP
011773: 20               NOP
011774: 20               NOP
011775: 20               NOP
011776: 20               NOP
011777: 20               NOP
011778: 20               NOP
011779: 20               NOP
01177a: 20               NOP
01177b: 20               NOP
01177c: 20               NOP
01177d: 20               NOP
01177e: 20               NOP
01177f: 20               NOP
011780: 20               NOP
011781: 20               NOP
011782: 20               NOP
011783: 20               NOP
011784: 20               NOP
011785: 20               NOP
011786: 20               NOP
011787: 20               NOP
011788: 20               NOP
011789: 20               NOP
01178a: 20               NOP
01178b: 20               NOP
01178c: 20               NOP
01178d: 20               NOP
01178e: 20               NOP
01178f: 20               NOP
011790: 20               NOP
011791: 20               NOP
011792: 20               NOP
011793: 20               NOP
011794: 20               NOP
011795: 20               NOP
011796: 20               NOP
011797: 20               NOP
011798: 20               NOP
011799: 20               NOP
01179a: 20               NOP
01179b: 20               NOP
01179c: 20               NOP
01179d: 20               NOP
01179e: 20               NOP
01179f: 20               NOP
0117a0: 20               NOP
0117a1: 20               NOP
0117a2: 20               NOP
0117a3: 20               NOP
0117a4: 20               NOP
0117a5: 20               NOP
0117a6: 20               NOP
0117a7: 20               NOP
0117a8: 20               NOP
0117a9: 20               NOP
0117aa: 20               NOP
0117ab: 20               NOP
0117ac: 20               NOP
0117ad: 20               NOP
0117ae: 20               NOP
0117af: 20               NOP
0117b0: 20               NOP
0117b1: 20               NOP
0117b2: 20               NOP
0117b3: 20               NOP
0117b4: 20               NOP
0117b5: 20               NOP
0117b6: 20               NOP
0117b7: 20               NOP
0117b8: 20               NOP
0117b9: 20               NOP
0117ba: 20               NOP
0117bb: 20               NOP
0117bc: 20               NOP
0117bd: 20               NOP
0117be: 20               NOP
0117bf: 20               NOP
0117c0: 20               NOP
0117c1: 20               NOP
0117c2: 20               NOP
0117c3: 20               NOP
0117c4: 20               NOP
0117c5: 20               NOP
0117c6: 20               NOP
0117c7: 20               NOP
0117c8: 20               NOP
0117c9: 20               NOP
0117ca: 20               NOP
0117cb: 20               NOP
0117cc: 20               NOP
0117cd: 20               NOP
0117ce: 20               NOP
0117cf: 20               NOP
0117d0: 20               NOP
0117d1: 20               NOP
0117d2: 20               NOP
0117d3: 20               NOP
0117d4: 20               NOP
0117d5: 20               NOP
0117d6: 20               NOP
0117d7: 20               NOP
0117d8: 20               NOP
0117d9: 20               NOP
0117da: 20               NOP
0117db: 20               NOP
0117dc: 20               NOP
0117dd: 20               NOP
0117de: 20               NOP
0117df: 20               NOP
0117e0: 20               NOP
0117e1: 20               NOP
0117e2: 20               NOP
0117e3: 20               NOP
0117e4: 20               NOP
0117e5: 20               NOP
0117e6: 20               NOP
0117e7: 20               NOP
0117e8: 20               NOP
0117e9: 20               NOP
0117ea: 20               NOP
0117eb: 20               NOP
0117ec: 20               NOP
0117ed: 20               NOP
0117ee: 20               NOP
0117ef: 20               NOP
0117f0: 20               NOP
0117f1: 20               NOP
0117f2: 20               NOP
0117f3: 20               NOP
0117f4: 20               NOP
0117f5: 20               NOP
0117f6: 20               NOP
0117f7: 20               NOP
0117f8: 20               NOP
0117f9: 20               NOP
0117fa: 20               NOP
0117fb: 20               NOP
0117fc: 20               NOP
0117fd: 20               NOP
0117fe: 20               NOP
0117ff: 20               NOP
011800: 20               NOP
011801: 20               NOP
011802: 20               NOP
011803: 20               NOP
011804: 20               NOP
011805: 20               NOP
011806: 20               NOP
011807: 20               NOP
011808: 20               NOP
011809: 20               NOP
01180a: 20               NOP
01180b: 20               NOP
01180c: 20               NOP
01180d: 20               NOP
01180e: 20               NOP
01180f: 20               NOP
011810: 20               NOP
011811: 20               NOP
011812: 20               NOP
011813: 20               NOP
011814: 20               NOP
011815: 20               NOP
011816: 20               NOP
011817: 20               NOP
011818: 20               NOP
011819: 20               NOP
01181a: 20               NOP
01181b: 20               NOP
01181c: 20               NOP
01181d: 20               NOP
01181e: 20               NOP
01181f: 20               NOP
011820: 20               NOP
011821: 20               NOP
011822: 20               NOP
011823: 20               NOP
011824: 20               NOP
011825: 20               NOP
011826: 20               NOP
011827: 20               NOP
011828: 20               NOP
011829: 20               NOP
01182a: 20               NOP
01182b: 20               NOP
01182c: 20               NOP
01182d: 20               NOP
01182e: 20               NOP
01182f: 20               NOP
011830: 20               NOP
011831: 20               NOP
011832: 20               NOP
011833: 20               NOP
011834: 20               NOP
011835: 20               NOP
011836: 20               NOP
011837: 20               NOP
011838: 20               NOP
011839: 20               NOP
01183a: 20               NOP
01183b: 20               NOP
01183c: 20               NOP
01183d: 20               NOP
01183e: 20               NOP
01183f: 20               NOP
011840: 20               NOP
011841: 20               NOP
011842: 20               NOP
011843: 20               NOP
011844: 20               NOP
011845: 20               NOP
011846: 20               NOP
011847: 20               NOP
011848: 20               NOP
011849: 20               NOP
01184a: 20               NOP
01184b: 20               NOP
01184c: 20               NOP
01184d: 20               NOP
01184e: 20               NOP
01184f: 20               NOP
011850: 20               NOP
011851: 20               NOP
011852: 20               NOP
011853: 20               NOP
011854: 20               NOP
011855: 20               NOP
011856: 20               NOP
011857: 20               NOP
011858: 20               NOP
011859: 20               NOP
01185a: 20               NOP
01185b: 20               NOP
01185c: 20               NOP
01185d: 20               NOP
01185e: 20               NOP
01185f: 20               NOP
011860: 20               NOP
011861: 20               NOP
011862: 20               NOP
011863: 20               NOP
011864: 20               NOP
011865: 20               NOP
011866: 20               NOP
011867: 20               NOP
011868: 20               NOP
011869: 20               NOP
01186a: 20               NOP
01186b: 20               NOP
01186c: 20               NOP
01186d: 20               NOP
01186e: 20               NOP
01186f: 20               NOP
011870: 20               NOP
011871: 20               NOP
011872: 20               NOP
011873: 20               NOP
011874: 20               NOP
011875: 20               NOP
011876: 20               NOP
011877: 20               NOP
011878: 20               NOP
011879: 20               NOP
01187a: 20               NOP
01187b: 20               NOP
01187c: 20               NOP
01187d: 20               NOP
01187e: 20               NOP
01187f: 20               NOP
011880: 20               NOP
011881: 20               NOP
011882: 20               NOP
011883: 20               NOP
011884: 20               NOP
011885: 20               NOP
011886: 20               NOP
011887: 20               NOP
011888: 20               NOP
011889: 20               NOP
01188a: 20               NOP
01188b: 20               NOP
01188c: 20               NOP
01188d: 20               NOP
01188e: 20               NOP
01188f: 20               NOP
011890: 20               NOP
011891: 20               NOP
011892: 20               NOP
011893: 20               NOP
011894: 20               NOP
011895: 20               NOP
011896: 20               NOP
011897: 20               NOP
011898: 20               NOP
011899: 20               NOP
01189a: 20               NOP
01189b: 20               NOP
01189c: 20               NOP
01189d: 20               NOP
01189e: 20               NOP
01189f: 20               NOP
0118a0: 20               NOP
0118a1: 20               NOP
0118a2: 20               NOP
0118a3: 20               NOP
0118a4: 20               NOP
0118a5: 20               NOP
0118a6: 20               NOP
0118a7: 20               NOP
0118a8: 20               NOP
0118a9: 20               NOP
0118aa: 20               NOP
0118ab: 20               NOP
0118ac: 20               NOP
0118ad: 20               NOP
0118ae: 20               NOP
0118af: 20               NOP
0118b0: 20               NOP
0118b1: 20               NOP
0118b2: 20               NOP
0118b3: 20               NOP
0118b4: 20               NOP
0118b5: 20               NOP
0118b6: 20               NOP
0118b7: 20               NOP
0118b8: 20               NOP
0118b9: 20               NOP
0118ba: 20               NOP
0118bb: 20               NOP
0118bc: 20               NOP
0118bd: 20               NOP
0118be: 20               NOP
0118bf: 20               NOP
0118c0: 20               NOP
0118c1: 20               NOP
0118c2: 20               NOP
0118c3: 20               NOP
0118c4: 20               NOP
0118c5: 20               NOP
0118c6: 20               NOP
0118c7: 20               NOP
0118c8: 20               NOP
0118c9: 20               NOP
0118ca: 20               NOP
0118cb: 20               NOP
0118cc: 20               NOP
0118cd: 20               NOP
0118ce: 20               NOP
0118cf: 20               NOP
0118d0: 20               NOP
0118d1: 20               NOP
0118d2: 20               NOP
0118d3: 20               NOP
0118d4: 20               NOP
0118d5: 20               NOP
0118d6: 20               NOP
0118d7: 20               NOP
0118d8: 20               NOP
0118d9: 20               NOP
0118da: 20               NOP
0118db: 20               NOP
0118dc: 20               NOP
0118dd: 20               NOP
0118de: 20               NOP
0118df: 20               NOP
0118e0: 20               NOP
0118e1: 20               NOP
0118e2: 20               NOP
0118e3: 20               NOP
0118e4: 20               NOP
0118e5: 20               NOP
0118e6: 20               NOP
0118e7: 20               NOP
0118e8: 20               NOP
0118e9: 20               NOP
0118ea: 20               NOP
0118eb: 20               NOP
0118ec: 20               NOP
0118ed: 20               NOP
0118ee: 20               NOP
0118ef: 20               NOP
0118f0: 20               NOP
0118f1: 20               NOP
0118f2: 20               NOP
0118f3: 20               NOP
0118f4: 20               NOP
0118f5: 20               NOP
0118f6: 20               NOP
0118f7: 20               NOP
0118f8: 20               NOP
0118f9: 20               NOP
0118fa: 20               NOP
0118fb: 20               NOP
0118fc: 20               NOP
0118fd: 20               NOP
0118fe: 20               NOP
0118ff: 20               NOP
011900: 20               NOP
011901: 20               NOP
011902: 20               NOP
011903: 20               NOP
011904: 20               NOP
011905: 20               NOP
011906: 20               NOP
011907: 20               NOP
011908: 20               NOP
011909: 20               NOP
01190a: 20               NOP
01190b: 20               NOP
01190c: 20               NOP
01190d: 20               NOP
01190e: 20               NOP
01190f: 20               NOP
011910: 20               NOP
011911: 20               NOP
011912: 20               NOP
011913: 20               NOP
011914: 20               NOP
011915: 20               NOP
011916: 20               NOP
011917: 20               NOP
011918: 20               NOP
011919: 20               NOP
01191a: 20               NOP
01191b: 20               NOP
01191c: 20               NOP
01191d: 20               NOP
01191e: 20               NOP
01191f: 20               NOP
011920: 20               NOP
011921: 20               NOP
011922: 20               NOP
011923: 20               NOP
011924: 20               NOP
011925: 20               NOP
011926: 20               NOP
011927: 20               NOP
011928: 20               NOP
011929: 20               NOP
01192a: 20               NOP
01192b: 20               NOP
01192c: 20               NOP
01192d: 20               NOP
01192e: 20               NOP
01192f: 20               NOP
011930: 20               NOP
011931: 20               NOP
011932: 20               NOP
011933: 20               NOP
011934: 20               NOP
011935: 20               NOP
011936: 20               NOP
011937: 20               NOP
011938: 20               NOP
011939: 20               NOP
01193a: 20               NOP
01193b: 20               NOP
01193c: 20               NOP
01193d: 20               NOP
01193e: 20               NOP
01193f: 20               NOP
011940: 20               NOP
011941: 20               NOP
011942: 20               NOP
011943: 20               NOP
011944: 20               NOP
011945: 20               NOP
011946: 20               NOP
011947: 20               NOP
011948: 20               NOP
011949: 20               NOP
01194a: 20               NOP
01194b: 20               NOP
01194c: 20               NOP
01194d: 20               NOP
01194e: 20               NOP
01194f: 20               NOP
011950: 20               NOP
011951: 20               NOP
011952: 20               NOP
011953: 20               NOP
011954: 20               NOP
011955: 20               NOP
011956: 20               NOP
011957: 20               NOP
011958: 20               NOP
011959: 20               NOP
01195a: 20               NOP
01195b: 20               NOP
01195c: 20               NOP
01195d: 20               NOP
01195e: 20               NOP
01195f: 20               NOP
011960: 20               NOP
011961: 20               NOP
011962: 20               NOP
011963: 20               NOP
011964: 20               NOP
011965: 20               NOP
011966: 20               NOP
011967: 20               NOP
011968: 20               NOP
011969: 20               NOP
01196a: 20               NOP
01196b: 20               NOP
01196c: 20               NOP
01196d: 20               NOP
01196e: 20               NOP
01196f: 20               NOP
011970: 20               NOP
011971: 20               NOP
011972: 20               NOP
011973: 20               NOP
011974: 20               NOP
011975: 20               NOP
011976: 20               NOP
011977: 20               NOP
011978: 20               NOP
011979: 20               NOP
01197a: 20               NOP
01197b: 20               NOP
01197c: 20               NOP
01197d: 20               NOP
01197e: 20               NOP
01197f: 20               NOP
011980: 20               NOP
011981: 20               NOP
011982: 20               NOP
011983: 20               NOP
011984: 20               NOP
011985: 20               NOP
011986: 20               NOP
011987: 20               NOP
011988: 20               NOP
011989: 20               NOP
01198a: 20               NOP
01198b: 20               NOP
01198c: 20               NOP
01198d: 20               NOP
01198e: 20               NOP
01198f: 20               NOP
011990: 20               NOP
011991: 20               NOP
011992: 20               NOP
011993: 20               NOP
011994: 20               NOP
011995: 20               NOP
011996: 20               NOP
011997: 20               NOP
011998: 20               NOP
011999: 20               NOP
01199a: 20               NOP
01199b: 20               NOP
01199c: 20               NOP
01199d: 20               NOP
01199e: 20               NOP
01199f: 20               NOP
0119a0: 20               NOP
0119a1: 20               NOP
0119a2: 20               NOP
0119a3: 20               NOP
0119a4: 20               NOP
0119a5: 20               NOP
0119a6: 20               NOP
0119a7: 20               NOP
0119a8: 20               NOP
0119a9: 20               NOP
0119aa: 20               NOP
0119ab: 20               NOP
0119ac: 20               NOP
0119ad: 20               NOP
0119ae: 20               NOP
0119af: 20               NOP
0119b0: 20               NOP
0119b1: 20               NOP
0119b2: 20               NOP
0119b3: 20               NOP
0119b4: 20               NOP
0119b5: 20               NOP
0119b6: 20               NOP
0119b7: 20               NOP
0119b8: 20               NOP
0119b9: 20               NOP
0119ba: 20               NOP
0119bb: 20               NOP
0119bc: 20               NOP
0119bd: 20               NOP
0119be: 20               NOP
0119bf: 20               NOP
0119c0: 20               NOP
0119c1: 20               NOP
0119c2: 20               NOP
0119c3: 20               NOP
0119c4: 20               NOP
0119c5: 20               NOP
0119c6: 20               NOP
0119c7: 20               NOP
0119c8: 20               NOP
0119c9: 20               NOP
0119ca: 20               NOP
0119cb: 20               NOP
0119cc: 20               NOP
0119cd: 20               NOP
0119ce: 20               NOP
0119cf: 20               NOP
0119d0: 20               NOP
0119d1: 20               NOP
0119d2: 20               NOP
0119d3: 20               NOP
0119d4: 20               NOP
0119d5: 20               NOP
0119d6: 20               NOP
0119d7: 20               NOP
0119d8: 20               NOP
0119d9: 20               NOP
0119da: 20               NOP
0119db: 20               NOP
0119dc: 20               NOP
0119dd: 20               NOP
0119de: 20               NOP
0119df: 20               NOP
0119e0: 20               NOP
0119e1: 20               NOP
0119e2: 20               NOP
0119e3: 20               NOP
0119e4: 20               NOP
0119e5: 20               NOP
0119e6: 20               NOP
0119e7: 20               NOP
0119e8: 20               NOP
0119e9: 20               NOP
0119ea: 20               NOP
0119eb: 20               NOP
0119ec: 20               NOP
0119ed: 20               NOP
0119ee: 20               NOP
0119ef: 20               NOP
0119f0: 20               NOP
0119f1: 20               NOP
0119f2: 20               NOP
0119f3: 20               NOP
0119f4: 20               NOP
0119f5: 20               NOP
0119f6: 20               NOP
0119f7: 20               NOP
0119f8: 20               NOP
0119f9: 20               NOP
0119fa: 20               NOP
0119fb: 20               NOP
0119fc: 20               NOP
0119fd: 20               NOP
0119fe: 20               NOP
0119ff: 20               NOP
011a00: 20               NOP
011a01: 20               NOP
011a02: 20               NOP
011a03: 20               NOP
011a04: 20               NOP
011a05: 20               NOP
011a06: 20               NOP
011a07: 20               NOP
011a08: 20               NOP
011a09: 20               NOP
011a0a: 20               NOP
011a0b: 20               NOP
011a0c: 20               NOP
011a0d: 20               NOP
011a0e: 20               NOP
011a0f: 20               NOP
011a10: 20               NOP
011a11: 20               NOP
011a12: 20               NOP
011a13: 20               NOP
011a14: 20               NOP
011a15: 20               NOP
011a16: 20               NOP
011a17: 20               NOP
011a18: 20               NOP
011a19: 20               NOP
011a1a: 20               NOP
011a1b: 20               NOP
011a1c: 20               NOP
011a1d: 20               NOP
011a1e: 20               NOP
011a1f: 20               NOP
011a20: 20               NOP
011a21: 20               NOP
011a22: 20               NOP
011a23: 20               NOP
011a24: 20               NOP
011a25: 20               NOP
011a26: 20               NOP
011a27: 20               NOP
011a28: 20               NOP
011a29: 20               NOP
011a2a: 20               NOP
011a2b: 20               NOP
011a2c: 20               NOP
011a2d: 20               NOP
011a2e: 20               NOP
011a2f: 20               NOP
011a30: 20               NOP
011a31: 20               NOP
011a32: 20               NOP
011a33: 20               NOP
011a34: 20               NOP
011a35: 20               NOP
011a36: 20               NOP
011a37: 20               NOP
011a38: 20               NOP
011a39: 20               NOP
011a3a: 20               NOP
011a3b: 20               NOP
011a3c: 20               NOP
011a3d: 20               NOP
011a3e: 20               NOP
011a3f: 20               NOP
011a40: 20               NOP
011a41: 20               NOP
011a42: 20               NOP
011a43: 20               NOP
011a44: 20               NOP
011a45: 20               NOP
011a46: 20               NOP
011a47: 20               NOP
011a48: 20               NOP
011a49: 20               NOP
011a4a: 20               NOP
011a4b: 20               NOP
011a4c: 20               NOP
011a4d: 20               NOP
011a4e: 20               NOP
011a4f: 20               NOP
011a50: 20               NOP
011a51: 20               NOP
011a52: 20               NOP
011a53: 20               NOP
011a54: 20               NOP
011a55: 20               NOP
011a56: 20               NOP
011a57: 20               NOP
011a58: 20               NOP
011a59: 20               NOP
011a5a: 20               NOP
011a5b: 20               NOP
011a5c: 20               NOP
011a5d: 20               NOP
011a5e: 20               NOP
011a5f: 20               NOP
011a60: 20               NOP
011a61: 20               NOP
011a62: 20               NOP
011a63: 20               NOP
011a64: 20               NOP
011a65: 20               NOP
011a66: 20               NOP
011a67: 20               NOP
011a68: 20               NOP
011a69: 20               NOP
011a6a: 20               NOP
011a6b: 20               NOP
011a6c: 20               NOP
011a6d: 20               NOP
011a6e: 20               NOP
011a6f: 20               NOP
011a70: 20               NOP
011a71: 20               NOP
011a72: 20               NOP
011a73: 20               NOP
011a74: 20               NOP
011a75: 20               NOP
011a76: 20               NOP
011a77: 20               NOP
011a78: 20               NOP
011a79: 20               NOP
011a7a: 20               NOP
011a7b: 20               NOP
011a7c: 20               NOP
011a7d: 20               NOP
011a7e: 20               NOP
011a7f: 20               NOP
011a80: 20               NOP
011a81: 20               NOP
011a82: 20               NOP
011a83: 20               NOP
011a84: 20               NOP
011a85: 20               NOP
011a86: 20               NOP
011a87: 20               NOP
011a88: 20               NOP
011a89: 20               NOP
011a8a: 20               NOP
011a8b: 20               NOP
011a8c: 20               NOP
011a8d: 20               NOP
011a8e: 20               NOP
011a8f: 20               NOP
011a90: 20               NOP
011a91: 20               NOP
011a92: 20               NOP
011a93: 20               NOP
011a94: 20               NOP
011a95: 20               NOP
011a96: 20               NOP
011a97: 20               NOP
011a98: 20               NOP
011a99: 20               NOP
011a9a: 20               NOP
011a9b: 20               NOP
011a9c: 20               NOP
011a9d: 20               NOP
011a9e: 20               NOP
011a9f: 20               NOP
011aa0: 20               NOP
011aa1: 20               NOP
011aa2: 20               NOP
011aa3: 20               NOP
011aa4: 20               NOP
011aa5: 20               NOP
011aa6: 20               NOP
011aa7: 20               NOP
011aa8: 20               NOP
011aa9: 20               NOP
011aaa: 20               NOP
011aab: 20               NOP
011aac: 20               NOP
011aad: 20               NOP
011aae: 20               NOP
011aaf: 20               NOP
011ab0: 20               NOP
011ab1: 20               NOP
011ab2: 20               NOP
011ab3: 20               NOP
011ab4: 20               NOP
011ab5: 20               NOP
011ab6: 20               NOP
011ab7: 20               NOP
011ab8: 20               NOP
011ab9: 20               NOP
011aba: 20               NOP
011abb: 20               NOP
011abc: 20               NOP
011abd: 20               NOP
011abe: 20               NOP
011abf: 20               NOP
011ac0: 20               NOP
011ac1: 20               NOP
011ac2: 20               NOP
011ac3: 20               NOP
011ac4: 20               NOP
011ac5: 20               NOP
011ac6: 20               NOP
011ac7: 20               NOP
011ac8: 20               NOP
011ac9: 20               NOP
011aca: 20               NOP
011acb: 20               NOP
011acc: 20               NOP
011acd: 20               NOP
011ace: 20               NOP
011acf: 20               NOP
011ad0: 20               NOP
011ad1: 20               NOP
011ad2: 20               NOP
011ad3: 20               NOP
011ad4: 20               NOP
011ad5: 20               NOP
011ad6: 20               NOP
011ad7: 20               NOP
011ad8: 20               NOP
011ad9: 20               NOP
011ada: 20               NOP
011adb: 20               NOP
011adc: 20               NOP
011add: 20               NOP
011ade: 20               NOP
011adf: 20               NOP
011ae0: 20               NOP
011ae1: 20               NOP
011ae2: 20               NOP
011ae3: 20               NOP
011ae4: 20               NOP
011ae5: 20               NOP
011ae6: 20               NOP
011ae7: 20               NOP
011ae8: 20               NOP
011ae9: 20               NOP
011aea: 20               NOP
011aeb: 20               NOP
011aec: 20               NOP
011aed: 20               NOP
011aee: 20               NOP
011aef: 20               NOP
011af0: 20               NOP
011af1: 20               NOP
011af2: 20               NOP
011af3: 20               NOP
011af4: 20               NOP
011af5: 20               NOP
011af6: 20               NOP
011af7: 20               NOP
011af8: 20               NOP
011af9: 20               NOP
011afa: 20               NOP
011afb: 20               NOP
011afc: 20               NOP
011afd: 20               NOP
011afe: 20               NOP
011aff: 20               NOP
011b00: 20               NOP
011b01: 20               NOP
011b02: 20               NOP
011b03: 20               NOP
011b04: 20               NOP
011b05: 20               NOP
011b06: 20               NOP
011b07: 20               NOP
011b08: 20               NOP
011b09: 20               NOP
011b0a: 20               NOP
011b0b: 20               NOP
011b0c: 20               NOP
011b0d: 20               NOP
011b0e: 20               NOP
011b0f: 20               NOP
011b10: 20               NOP
011b11: 20               NOP
011b12: 20               NOP
011b13: 20               NOP
011b14: 20               NOP
011b15: 20               NOP
011b16: 20               NOP
011b17: 20               NOP
011b18: 20               NOP
011b19: 20               NOP
011b1a: 20               NOP
011b1b: 20               NOP
011b1c: 20               NOP
011b1d: 20               NOP
011b1e: 20               NOP
011b1f: 20               NOP
011b20: 20               NOP
011b21: 20               NOP
011b22: 20               NOP
011b23: 20               NOP
011b24: 20               NOP
011b25: 20               NOP
011b26: 20               NOP
011b27: 20               NOP
011b28: 20               NOP
011b29: 20               NOP
011b2a: 20               NOP
011b2b: 20               NOP
011b2c: 20               NOP
011b2d: 20               NOP
011b2e: 20               NOP
011b2f: 20               NOP
011b30: 20               NOP
011b31: 20               NOP
011b32: 20               NOP
011b33: 20               NOP
011b34: 20               NOP
011b35: 20               NOP
011b36: 20               NOP
011b37: 20               NOP
011b38: 20               NOP
011b39: 20               NOP
011b3a: 20               NOP
011b3b: 20               NOP
011b3c: 20               NOP
011b3d: 20               NOP
011b3e: 20               NOP
011b3f: 20               NOP
011b40: 20               NOP
011b41: 20               NOP
011b42: 20               NOP
011b43: 20               NOP
011b44: 20               NOP
011b45: 20               NOP
011b46: 20               NOP
011b47: 20               NOP
011b48: 20               NOP
011b49: 20               NOP
011b4a: 20               NOP
011b4b: 20               NOP
011b4c: 20               NOP
011b4d: 20               NOP
011b4e: 20               NOP
011b4f: 20               NOP
011b50: 20               NOP
011b51: 20               NOP
011b52: 20               NOP
011b53: 20               NOP
011b54: 20               NOP
011b55: 20               NOP
011b56: 20               NOP
011b57: 20               NOP
011b58: 20               NOP
011b59: 20               NOP
011b5a: 20               NOP
011b5b: 20               NOP
011b5c: 20               NOP
011b5d: 20               NOP
011b5e: 20               NOP
011b5f: 20               NOP
011b60: 20               NOP
011b61: 20               NOP
011b62: 20               NOP
011b63: 20               NOP
011b64: 20               NOP
011b65: 20               NOP
011b66: 20               NOP
011b67: 20               NOP
011b68: 20               NOP
011b69: 20               NOP
011b6a: 20               NOP
011b6b: 20               NOP
011b6c: 20               NOP
011b6d: 20               NOP
011b6e: 20               NOP
011b6f: 20               NOP
011b70: 20               NOP
011b71: 20               NOP
011b72: 20               NOP
011b73: 20               NOP
011b74: 20               NOP
011b75: 20               NOP
011b76: 20               NOP
011b77: 20               NOP
011b78: 20               NOP
011b79: 20               NOP
011b7a: 20               NOP
011b7b: 20               NOP
011b7c: 20               NOP
011b7d: 20               NOP
011b7e: 20               NOP
011b7f: 20               NOP
011b80: 20               NOP
011b81: 20               NOP
011b82: 20               NOP
011b83: 20               NOP
011b84: 20               NOP
011b85: 20               NOP
011b86: 20               NOP
011b87: 20               NOP
011b88: 20               NOP
011b89: 20               NOP
011b8a: 20               NOP
011b8b: 20               NOP
011b8c: 20               NOP
011b8d: 20               NOP
011b8e: 20               NOP
011b8f: 20               NOP
011b90: 20               NOP
011b91: 20               NOP
011b92: 20               NOP
011b93: 20               NOP
011b94: 20               NOP
011b95: 20               NOP
011b96: 20               NOP
011b97: 20               NOP
011b98: 20               NOP
011b99: 20               NOP
011b9a: 20               NOP
011b9b: 20               NOP
011b9c: 20               NOP
011b9d: 20               NOP
011b9e: 20               NOP
011b9f: 20               NOP
011ba0: 20               NOP
011ba1: 20               NOP
011ba2: 20               NOP
011ba3: 20               NOP
011ba4: 20               NOP
011ba5: 20               NOP
011ba6: 20               NOP
011ba7: 20               NOP
011ba8: 20               NOP
011ba9: 20               NOP
011baa: 20               NOP
011bab: 20               NOP
011bac: 20               NOP
011bad: 20               NOP
011bae: 20               NOP
011baf: 20               NOP
011bb0: 20               NOP
011bb1: 20               NOP
011bb2: 20               NOP
011bb3: 20               NOP
011bb4: 20               NOP
011bb5: 20               NOP
011bb6: 20               NOP
011bb7: 20               NOP
011bb8: 20               NOP
011bb9: 20               NOP
011bba: 20               NOP
011bbb: 20               NOP
011bbc: 20               NOP
011bbd: 20               NOP
011bbe: 20               NOP
011bbf: 20               NOP
011bc0: 20               NOP
011bc1: 20               NOP
011bc2: 20               NOP
011bc3: 20               NOP
011bc4: 20               NOP
011bc5: 20               NOP
011bc6: 20               NOP
011bc7: 20               NOP
011bc8: 20               NOP
011bc9: 20               NOP
011bca: 20               NOP
011bcb: 20               NOP
011bcc: 20               NOP
011bcd: 20               NOP
011bce: 20               NOP
011bcf: 20               NOP
011bd0: 20               NOP
011bd1: 20               NOP
011bd2: 20               NOP
011bd3: 20               NOP
011bd4: 20               NOP
011bd5: 20               NOP
011bd6: 20               NOP
011bd7: 20               NOP
011bd8: 20               NOP
011bd9: 20               NOP
011bda: 20               NOP
011bdb: 20               NOP
011bdc: 20               NOP
011bdd: 20               NOP
011bde: 20               NOP
011bdf: 20               NOP
011be0: 20               NOP
011be1: 20               NOP
011be2: 20               NOP
011be3: 20               NOP
011be4: 20               NOP
011be5: 20               NOP
011be6: 20               NOP
011be7: 20               NOP
011be8: 20               NOP
011be9: 20               NOP
011bea: 20               NOP
011beb: 20               NOP
011bec: 20               NOP
011bed: 20               NOP
011bee: 20               NOP
011bef: 20               NOP
011bf0: 20               NOP
011bf1: 20               NOP
011bf2: 20               NOP
011bf3: 20               NOP
011bf4: 20               NOP
011bf5: 20               NOP
011bf6: 20               NOP
011bf7: 20               NOP
011bf8: 20               NOP
011bf9: 20               NOP
011bfa: 20               NOP
011bfb: 20               NOP
011bfc: 20               NOP
011bfd: 20               NOP
011bfe: 20               NOP
011bff: 20               NOP
011c00: 20               NOP
011c01: 20               NOP
011c02: 20               NOP
011c03: 20               NOP
011c04: 20               NOP
011c05: 20               NOP
011c06: 20               NOP
011c07: 20               NOP
011c08: 20               NOP
011c09: 20               NOP
011c0a: 20               NOP
011c0b: 20               NOP
011c0c: 20               NOP
011c0d: 20               NOP
011c0e: 20               NOP
011c0f: 20               NOP
011c10: 20               NOP
011c11: 20               NOP
011c12: 20               NOP
011c13: 20               NOP
011c14: 20               NOP
011c15: 20               NOP
011c16: 20               NOP
011c17: 20               NOP
011c18: 20               NOP
011c19: 20               NOP
011c1a: 20               NOP
011c1b: 20               NOP
011c1c: 20               NOP
011c1d: 20               NOP
011c1e: 20               NOP
011c1f: 20               NOP
011c20: 20               NOP
011c21: 20               NOP
011c22: 20               NOP
011c23: 20               NOP
011c24: 20               NOP
011c25: 20               NOP
011c26: 20               NOP
011c27: 20               NOP
011c28: 20               NOP
011c29: 20               NOP
011c2a: 20               NOP
011c2b: 20               NOP
011c2c: 20               NOP
011c2d: 20               NOP
011c2e: 20               NOP
011c2f: 20               NOP
011c30: 20               NOP
011c31: 20               NOP
011c32: 20               NOP
011c33: 20               NOP
011c34: 20               NOP
011c35: 20               NOP
011c36: 20               NOP
011c37: 20               NOP
011c38: 20               NOP
011c39: 20               NOP
011c3a: 20               NOP
011c3b: 20               NOP
011c3c: 20               NOP
011c3d: 20               NOP
011c3e: 20               NOP
011c3f: 20               NOP
011c40: 20               NOP
011c41: 20               NOP
011c42: 20               NOP
011c43: 20               NOP
011c44: 20               NOP
011c45: 20               NOP
011c46: 20               NOP
011c47: 20               NOP
011c48: 20               NOP
011c49: 20               NOP
011c4a: 20               NOP
011c4b: 20               NOP
011c4c: 20               NOP
011c4d: 20               NOP
011c4e: 20               NOP
011c4f: 20               NOP
011c50: 20               NOP
011c51: 20               NOP
011c52: 20               NOP
011c53: 20               NOP
011c54: 20               NOP
011c55: 20               NOP
011c56: 20               NOP
011c57: 20               NOP
011c58: 20               NOP
011c59: 20               NOP
011c5a: 20               NOP
011c5b: 20               NOP
011c5c: 20               NOP
011c5d: 20               NOP
011c5e: 20               NOP
011c5f: 20               NOP
011c60: 20               NOP
011c61: 20               NOP
011c62: 20               NOP
011c63: 20               NOP
011c64: 20               NOP
011c65: 20               NOP
011c66: 20               NOP
011c67: 20               NOP
011c68: 20               NOP
011c69: 20               NOP
011c6a: 20               NOP
011c6b: 20               NOP
011c6c: 20               NOP
011c6d: 20               NOP
011c6e: 20               NOP
011c6f: 20               NOP
011c70: 20               NOP
011c71: 20               NOP
011c72: 20               NOP
011c73: 20               NOP
011c74: 20               NOP
011c75: 20               NOP
011c76: 20               NOP
011c77: 20               NOP
011c78: 20               NOP
011c79: 20               NOP
011c7a: 20               NOP
011c7b: 20               NOP
011c7c: 20               NOP
011c7d: 20               NOP
011c7e: 20               NOP
011c7f: 20               NOP
011c80: 20               NOP
011c81: 20               NOP
011c82: 20               NOP
011c83: 20               NOP
011c84: 20               NOP
011c85: 20               NOP
011c86: 20               NOP
011c87: 20               NOP
011c88: 20               NOP
011c89: 20               NOP
011c8a: 20               NOP
011c8b: 20               NOP
011c8c: 20               NOP
011c8d: 20               NOP
011c8e: 20               NOP
011c8f: 20               NOP
011c90: 20               NOP
011c91: 20               NOP
011c92: 20               NOP
011c93: 20               NOP
011c94: 20               NOP
011c95: 20               NOP
011c96: 20               NOP
011c97: 20               NOP
011c98: 20               NOP
011c99: 20               NOP
011c9a: 20               NOP
011c9b: 20               NOP
011c9c: 20               NOP
011c9d: 20               NOP
011c9e: 20               NOP
011c9f: 20               NOP
011ca0: 20               NOP
011ca1: 20               NOP
011ca2: 20               NOP
011ca3: 20               NOP
011ca4: 20               NOP
011ca5: 20               NOP
011ca6: 20               NOP
011ca7: 20               NOP
011ca8: 20               NOP
011ca9: 20               NOP
011caa: 20               NOP
011cab: 20               NOP
011cac: 20               NOP
011cad: 20               NOP
011cae: 20               NOP
011caf: 20               NOP
011cb0: 20               NOP
011cb1: 20               NOP
011cb2: 20               NOP
011cb3: 20               NOP
011cb4: 20               NOP
011cb5: 20               NOP
011cb6: 20               NOP
011cb7: 20               NOP
011cb8: 20               NOP
011cb9: 20               NOP
011cba: 20               NOP
011cbb: 20               NOP
011cbc: 20               NOP
011cbd: 20               NOP
011cbe: 20               NOP
011cbf: 20               NOP
011cc0: 20               NOP
011cc1: 20               NOP
011cc2: 20               NOP
011cc3: 20               NOP
011cc4: 20               NOP
011cc5: 20               NOP
011cc6: 20               NOP
011cc7: 20               NOP
011cc8: 20               NOP
011cc9: 20               NOP
011cca: 20               NOP
011ccb: 20               NOP
011ccc: 20               NOP
011ccd: 20               NOP
011cce: 20               NOP
011ccf: 20               NOP
011cd0: 20               NOP
011cd1: 20               NOP
011cd2: 20               NOP
011cd3: 20               NOP
011cd4: 20               NOP
011cd5: 20               NOP
011cd6: 20               NOP
011cd7: 20               NOP
011cd8: 20               NOP
011cd9: 20               NOP
011cda: 20               NOP
011cdb: 20               NOP
011cdc: 20               NOP
011cdd: 20               NOP
011cde: 20               NOP
011cdf: 20               NOP
011ce0: 20               NOP
011ce1: 20               NOP
011ce2: 20               NOP
011ce3: 20               NOP
011ce4: 20               NOP
011ce5: 20               NOP
011ce6: 20               NOP
011ce7: 20               NOP
011ce8: 20               NOP
011ce9: 20               NOP
011cea: 20               NOP
011ceb: 20               NOP
011cec: 20               NOP
011ced: 20               NOP
011cee: 20               NOP
011cef: 20               NOP
011cf0: 20               NOP
011cf1: 20               NOP
011cf2: 20               NOP
011cf3: 20               NOP
011cf4: 20               NOP
011cf5: 20               NOP
011cf6: 20               NOP
011cf7: 20               NOP
011cf8: 20               NOP
011cf9: 20               NOP
011cfa: 20               NOP
011cfb: 20               NOP
011cfc: 20               NOP
011cfd: 20               NOP
011cfe: 20               NOP
011cff: 20               NOP
011d00: 20               NOP
011d01: 20               NOP
011d02: 20               NOP
011d03: 20               NOP
011d04: 20               NOP
011d05: 20               NOP
011d06: 20               NOP
011d07: 20               NOP
011d08: 20               NOP
011d09: 20               NOP
011d0a: 20               NOP
011d0b: 20               NOP
011d0c: 20               NOP
011d0d: 20               NOP
011d0e: 20               NOP
011d0f: 20               NOP
011d10: 20               NOP
011d11: 20               NOP
011d12: 20               NOP
011d13: 20               NOP
011d14: 20               NOP
011d15: 20               NOP
011d16: 20               NOP
011d17: 20               NOP
011d18: 20               NOP
011d19: 20               NOP
011d1a: 20               NOP
011d1b: 20               NOP
011d1c: 20               NOP
011d1d: 20               NOP
011d1e: 20               NOP
011d1f: 20               NOP
011d20: 20               NOP
011d21: 20               NOP
011d22: 20               NOP
011d23: 20               NOP
011d24: 20               NOP
011d25: 20               NOP
011d26: 20               NOP
011d27: 20               NOP
011d28: 20               NOP
011d29: 20               NOP
011d2a: 20               NOP
011d2b: 20               NOP
011d2c: 20               NOP
011d2d: 20               NOP
011d2e: 20               NOP
011d2f: 20               NOP
011d30: 20               NOP
011d31: 20               NOP
011d32: 20               NOP
011d33: 20               NOP
011d34: 20               NOP
011d35: 20               NOP
011d36: 20               NOP
011d37: 20               NOP
011d38: 20               NOP
011d39: 20               NOP
011d3a: 20               NOP
011d3b: 20               NOP
011d3c: 20               NOP
011d3d: 20               NOP
011d3e: 20               NOP
011d3f: 20               NOP
011d40: 20               NOP
011d41: 20               NOP
011d42: 20               NOP
011d43: 20               NOP
011d44: 20               NOP
011d45: 20               NOP
011d46: 20               NOP
011d47: 20               NOP
011d48: 20               NOP
011d49: 20               NOP
011d4a: 20               NOP
011d4b: 20               NOP
011d4c: 20               NOP
011d4d: 20               NOP
011d4e: 20               NOP
011d4f: 20               NOP
011d50: 20               NOP
011d51: 20               NOP
011d52: 20               NOP
011d53: 20               NOP
011d54: 20               NOP
011d55: 20               NOP
011d56: 20               NOP
011d57: 20               NOP
011d58: 20               NOP
011d59: 20               NOP
011d5a: 20               NOP
011d5b: 20               NOP
011d5c: 20               NOP
011d5d: 20               NOP
011d5e: 20               NOP
011d5f: 20               NOP
011d60: 20               NOP
011d61: 20               NOP
011d62: 20               NOP
011d63: 20               NOP
011d64: 20               NOP
011d65: 20               NOP
011d66: 20               NOP
011d67: 20               NOP
011d68: 20               NOP
011d69: 20               NOP
011d6a: 20               NOP
011d6b: 20               NOP
011d6c: 20               NOP
011d6d: 20               NOP
011d6e: 20               NOP
011d6f: 20               NOP
011d70: 20               NOP
011d71: 20               NOP
011d72: 20               NOP
011d73: 20               NOP
011d74: 20               NOP
011d75: 20               NOP
011d76: 20               NOP
011d77: 20               NOP
011d78: 20               NOP
011d79: 20               NOP
011d7a: 20               NOP
011d7b: 20               NOP
011d7c: 20               NOP
011d7d: 20               NOP
011d7e: 20               NOP
011d7f: 20               NOP
011d80: 20               NOP
011d81: 20               NOP
011d82: 20               NOP
011d83: 20               NOP
011d84: 20               NOP
011d85: 20               NOP
011d86: 20               NOP
011d87: 20               NOP
011d88: 20               NOP
011d89: 20               NOP
011d8a: 20               NOP
011d8b: 20               NOP
011d8c: 20               NOP
011d8d: 20               NOP
011d8e: 20               NOP
011d8f: 20               NOP
011d90: 20               NOP
011d91: 20               NOP
011d92: 20               NOP
011d93: 20               NOP
011d94: 20               NOP
011d95: 20               NOP
011d96: 20               NOP
011d97: 20               NOP
011d98: 20               NOP
011d99: 20               NOP
011d9a: 20               NOP
011d9b: 20               NOP
011d9c: 20               NOP
011d9d: 20               NOP
011d9e: 20               NOP
011d9f: 20               NOP
011da0: 20               NOP
011da1: 20               NOP
011da2: 20               NOP
011da3: 20               NOP
011da4: 20               NOP
011da5: 20               NOP
011da6: 20               NOP
011da7: 20               NOP
011da8: 20               NOP
011da9: 20               NOP
011daa: 20               NOP
011dab: 20               NOP
011dac: 20               NOP
011dad: 20               NOP
011dae: 20               NOP
011daf: 20               NOP
011db0: 20               NOP
011db1: 20               NOP
011db2: 20               NOP
011db3: 20               NOP
011db4: 20               NOP
011db5: 20               NOP
011db6: 20               NOP
011db7: 20               NOP
011db8: 20               NOP
011db9: 20               NOP
011dba: 20               NOP
011dbb: 20               NOP
011dbc: 20               NOP
011dbd: 20               NOP
011dbe: 20               NOP
011dbf: 20               NOP
011dc0: 20               NOP
011dc1: 20               NOP
011dc2: 20               NOP
011dc3: 20               NOP
011dc4: 20               NOP
011dc5: 20               NOP
011dc6: 20               NOP
011dc7: 20               NOP
011dc8: 20               NOP
011dc9: 20               NOP
011dca: 20               NOP
011dcb: 20               NOP
011dcc: 20               NOP
011dcd: 20               NOP
011dce: 20               NOP
011dcf: 20               NOP
011dd0: 20               NOP
011dd1: 20               NOP
011dd2: 20               NOP
011dd3: 20               NOP
011dd4: 20               NOP
011dd5: 20               NOP
011dd6: 20               NOP
011dd7: 20               NOP
011dd8: 20               NOP
011dd9: 20               NOP
011dda: 20               NOP
011ddb: 20               NOP
011ddc: 20               NOP
011ddd: 20               NOP
011dde: 20               NOP
011ddf: 20               NOP
011de0: 20               NOP
011de1: 20               NOP
011de2: 20               NOP
011de3: 20               NOP
011de4: 20               NOP
011de5: 20               NOP
011de6: 20               NOP
011de7: 20               NOP
011de8: 20               NOP
011de9: 20               NOP
011dea: 20               NOP
011deb: 20               NOP
011dec: 20               NOP
011ded: 20               NOP
011dee: 20               NOP
011def: 20               NOP
011df0: 20               NOP
011df1: 20               NOP
011df2: 20               NOP
011df3: 20               NOP
011df4: 20               NOP
011df5: 20               NOP
011df6: 20               NOP
011df7: 20               NOP
011df8: 20               NOP
011df9: 20               NOP
011dfa: 20               NOP
011dfb: 20               NOP
011dfc: 20               NOP
011dfd: 20               NOP
011dfe: 20               NOP
011dff: 20               NOP
011e00: 20               NOP
011e01: 20               NOP
011e02: 20               NOP
011e03: 20               NOP
011e04: 20               NOP
011e05: 20               NOP
011e06: 20               NOP
011e07: 20               NOP
011e08: 20               NOP
011e09: 20               NOP
011e0a: 20               NOP
011e0b: 20               NOP
011e0c: 20               NOP
011e0d: 20               NOP
011e0e: 20               NOP
011e0f: 20               NOP
011e10: 20               NOP
011e11: 20               NOP
011e12: 20               NOP
011e13: 20               NOP
011e14: 20               NOP
011e15: 20               NOP
011e16: 20               NOP
011e17: 20               NOP
011e18: 20               NOP
011e19: 20               NOP
011e1a: 20               NOP
011e1b: 20               NOP
011e1c: 20               NOP
011e1d: 20               NOP
011e1e: 20               NOP
011e1f: 20               NOP
011e20: 20               NOP
011e21: 20               NOP
011e22: 20               NOP
011e23: 20               NOP
011e24: 20               NOP
011e25: 20               NOP
011e26: 20               NOP
011e27: 20               NOP
011e28: 20               NOP
011e29: 20               NOP
011e2a: 20               NOP
011e2b: 20               NOP
011e2c: 20               NOP
011e2d: 20               NOP
011e2e: 20               NOP
011e2f: 20               NOP
011e30: 20               NOP
011e31: 20               NOP
011e32: 20               NOP
011e33: 20               NOP
011e34: 20               NOP
011e35: 20               NOP
011e36: 20               NOP
011e37: 20               NOP
011e38: 20               NOP
011e39: 20               NOP
011e3a: 20               NOP
011e3b: 20               NOP
011e3c: 20               NOP
011e3d: 20               NOP
011e3e: 20               NOP
011e3f: 20               NOP
011e40: 20               NOP
011e41: 20               NOP
011e42: 20               NOP
011e43: 20               NOP
011e44: 20               NOP
011e45: 20               NOP
011e46: 20               NOP
011e47: 20               NOP
011e48: 20               NOP
011e49: 20               NOP
011e4a: 20               NOP
011e4b: 20               NOP
011e4c: 20               NOP
011e4d: 20               NOP
011e4e: 20               NOP
011e4f: 20               NOP
011e50: 20               NOP
011e51: 20               NOP
011e52: 20               NOP
011e53: 20               NOP
011e54: 20               NOP
011e55: 20               NOP
011e56: 20               NOP
011e57: 20               NOP
011e58: 20               NOP
011e59: 20               NOP
011e5a: 20               NOP
011e5b: 20               NOP
011e5c: 20               NOP
011e5d: 20               NOP
011e5e: 20               NOP
011e5f: 20               NOP
011e60: 20               NOP
011e61: 20               NOP
011e62: 20               NOP
011e63: 20               NOP
011e64: 20               NOP
011e65: 20               NOP
011e66: 20               NOP
011e67: 20               NOP
011e68: 20               NOP
011e69: 20               NOP
011e6a: 20               NOP
011e6b: 20               NOP
011e6c: 20               NOP
011e6d: 20               NOP
011e6e: 20               NOP
011e6f: 20               NOP
011e70: 20               NOP
011e71: 20               NOP
011e72: 20               NOP
011e73: 20               NOP
011e74: 20               NOP
011e75: 20               NOP
011e76: 20               NOP
011e77: 20               NOP
011e78: 20               NOP
011e79: 20               NOP
011e7a: 20               NOP
011e7b: 20               NOP
011e7c: 20               NOP
011e7d: 20               NOP
011e7e: 20               NOP
011e7f: 20               NOP
011e80: 20               NOP
011e81: 20               NOP
011e82: 20               NOP
011e83: 20               NOP
011e84: 20               NOP
011e85: 20               NOP
011e86: 20               NOP
011e87: 20               NOP
011e88: 20               NOP
011e89: 20               NOP
011e8a: 20               NOP
011e8b: 20               NOP
011e8c: 20               NOP
011e8d: 20               NOP
011e8e: 20               NOP
011e8f: 20               NOP
011e90: 20               NOP
011e91: 20               NOP
011e92: 20               NOP
011e93: 20               NOP
011e94: 20               NOP
011e95: 20               NOP
011e96: 20               NOP
011e97: 20               NOP
011e98: 20               NOP
011e99: 20               NOP
011e9a: 20               NOP
011e9b: 20               NOP
011e9c: 20               NOP
011e9d: 20               NOP
011e9e: 20               NOP
011e9f: 20               NOP
011ea0: 20               NOP
011ea1: 20               NOP
011ea2: 20               NOP
011ea3: 20               NOP
011ea4: 20               NOP
011ea5: 20               NOP
011ea6: 20               NOP
011ea7: 20               NOP
011ea8: 20               NOP
011ea9: 20               NOP
011eaa: 20               NOP
011eab: 20               NOP
011eac: 20               NOP
011ead: 20               NOP
011eae: 20               NOP
011eaf: 20               NOP
011eb0: 20               NOP
011eb1: 20               NOP
011eb2: 20               NOP
011eb3: 20               NOP
011eb4: 20               NOP
011eb5: 20               NOP
011eb6: 20               NOP
011eb7: 20               NOP
011eb8: 20               NOP
011eb9: 20               NOP
011eba: 20               NOP
011ebb: 20               NOP
011ebc: 20               NOP
011ebd: 20               NOP
011ebe: 20               NOP
011ebf: 20               NOP
011ec0: 20               NOP
011ec1: 20               NOP
011ec2: 20               NOP
011ec3: 20               NOP
011ec4: 20               NOP
011ec5: 20               NOP
011ec6: 20               NOP
011ec7: 20               NOP
011ec8: 20               NOP
011ec9: 20               NOP
011eca: 20               NOP
011ecb: 20               NOP
011ecc: 20               NOP
011ecd: 20               NOP
011ece: 20               NOP
011ecf: 20               NOP
011ed0: 20               NOP
011ed1: 20               NOP
011ed2: 20               NOP
011ed3: 20               NOP
011ed4: 20               NOP
011ed5: 20               NOP
011ed6: 20               NOP
011ed7: 20               NOP
011ed8: 20               NOP
011ed9: 20               NOP
011eda: 20               NOP
011edb: 20               NOP
011edc: 20               NOP
011edd: 20               NOP
011ede: 20               NOP
011edf: 20               NOP
011ee0: 20               NOP
011ee1: 20               NOP
011ee2: 20               NOP
011ee3: 20               NOP
011ee4: 20               NOP
011ee5: 20               NOP
011ee6: 20               NOP
011ee7: 20               NOP
011ee8: 20               NOP
011ee9: 20               NOP
011eea: 20               NOP
011eeb: 20               NOP
011eec: 20               NOP
011eed: 20               NOP
011eee: 20               NOP
011eef: 20               NOP
011ef0: 20               NOP
011ef1: 20               NOP
011ef2: 20               NOP
011ef3: 20               NOP
011ef4: 20               NOP
011ef5: 20               NOP
011ef6: 20               NOP
011ef7: 20               NOP
011ef8: 20               NOP
011ef9: 20               NOP
011efa: 20               NOP
011efb: 20               NOP
011efc: 20               NOP
011efd: 20               NOP
011efe: 20               NOP
011eff: 20               NOP
011f00: 20               NOP
011f01: 20               NOP
011f02: 20               NOP
011f03: 20               NOP
011f04: 20               NOP
011f05: 20               NOP
011f06: 20               NOP
011f07: 20               NOP
011f08: 20               NOP
011f09: 20               NOP
011f0a: 20               NOP
011f0b: 20               NOP
011f0c: 20               NOP
011f0d: 20               NOP
011f0e: 20               NOP
011f0f: 20               NOP
011f10: 20               NOP
011f11: 20               NOP
011f12: 20               NOP
011f13: 20               NOP
011f14: 20               NOP
011f15: 20               NOP
011f16: 20               NOP
011f17: 20               NOP
011f18: 20               NOP
011f19: 20               NOP
011f1a: 20               NOP
011f1b: 20               NOP
011f1c: 20               NOP
011f1d: 20               NOP
011f1e: 20               NOP
011f1f: 20               NOP
011f20: 20               NOP
011f21: 20               NOP
011f22: 20               NOP
011f23: 20               NOP
011f24: 20               NOP
011f25: 20               NOP
011f26: 20               NOP
011f27: 20               NOP
011f28: 20               NOP
011f29: 20               NOP
011f2a: 20               NOP
011f2b: 20               NOP
011f2c: 20               NOP
011f2d: 20               NOP
011f2e: 20               NOP
011f2f: 20               NOP
011f30: 20               NOP
011f31: 20               NOP
011f32: 20               NOP
011f33: 20               NOP
011f34: 20               NOP
011f35: 20               NOP
011f36: 20               NOP
011f37: 20               NOP
011f38: 20               NOP
011f39: 20               NOP
011f3a: 20               NOP
011f3b: 20               NOP
011f3c: 20               NOP
011f3d: 20               NOP
011f3e: 20               NOP
011f3f: 20               NOP
011f40: 20               NOP
011f41: 20               NOP
011f42: 20               NOP
011f43: 20               NOP
011f44: 20               NOP
011f45: 20               NOP
011f46: 20               NOP
011f47: 20               NOP
011f48: 20               NOP
011f49: 20               NOP
011f4a: 20               NOP
011f4b: 20               NOP
011f4c: 20               NOP
011f4d: 20               NOP
011f4e: 20               NOP
011f4f: 20               NOP
011f50: 20               NOP
011f51: 20               NOP
011f52: 20               NOP
011f53: 20               NOP
011f54: 20               NOP
011f55: 20               NOP
011f56: 20               NOP
011f57: 20               NOP
011f58: 20               NOP
011f59: 20               NOP
011f5a: 20               NOP
011f5b: 20               NOP
011f5c: 20               NOP
011f5d: 20               NOP
011f5e: 20               NOP
011f5f: 20               NOP
011f60: 20               NOP
011f61: 20               NOP
011f62: 20               NOP
011f63: 20               NOP
011f64: 20               NOP
011f65: 20               NOP
011f66: 20               NOP
011f67: 20               NOP
011f68: 20               NOP
011f69: 20               NOP
011f6a: 20               NOP
011f6b: 20               NOP
011f6c: 20               NOP
011f6d: 20               NOP
011f6e: 20               NOP
011f6f: 20               NOP
011f70: 20               NOP
011f71: 20               NOP
011f72: 20               NOP
011f73: 20               NOP
011f74: 20               NOP
011f75: 20               NOP
011f76: 20               NOP
011f77: 20               NOP
011f78: 20               NOP
011f79: 20               NOP
011f7a: 20               NOP
011f7b: 20               NOP
011f7c: 20               NOP
011f7d: 20               NOP
011f7e: 20               NOP
011f7f: 20               NOP
011f80: 20               NOP
011f81: 20               NOP
011f82: 20               NOP
011f83: 20               NOP
011f84: 20               NOP
011f85: 20               NOP
011f86: 20               NOP
011f87: 20               NOP
011f88: 20               NOP
011f89: 20               NOP
011f8a: 20               NOP
011f8b: 20               NOP
011f8c: 20               NOP
011f8d: 20               NOP
011f8e: 20               NOP
011f8f: 20               NOP
011f90: 20               NOP
011f91: 20               NOP
011f92: 20               NOP
011f93: 20               NOP
011f94: 20               NOP
011f95: 20               NOP
011f96: 20               NOP
011f97: 20               NOP
011f98: 20               NOP
011f99: 20               NOP
011f9a: 20               NOP
011f9b: 20               NOP
011f9c: 20               NOP
011f9d: 20               NOP
011f9e: 20               NOP
011f9f: 20               NOP
011fa0: 20               NOP
011fa1: 20               NOP
011fa2: 20               NOP
011fa3: 20               NOP
011fa4: 20               NOP
011fa5: 20               NOP
011fa6: 20               NOP
011fa7: 20               NOP
011fa8: 20               NOP
011fa9: 20               NOP
011faa: 20               NOP
011fab: 20               NOP
011fac: 20               NOP
011fad: 20               NOP
011fae: 20               NOP
011faf: 20               NOP
011fb0: 20               NOP
011fb1: 20               NOP
011fb2: 20               NOP
011fb3: 20               NOP
011fb4: 20               NOP
011fb5: 20               NOP
011fb6: 20               NOP
011fb7: 20               NOP
011fb8: 20               NOP
011fb9: 20               NOP
011fba: 20               NOP
011fbb: 20               NOP
011fbc: 20               NOP
011fbd: 20               NOP
011fbe: 20               NOP
011fbf: 20               NOP
011fc0: 20               NOP
011fc1: 20               NOP
011fc2: 20               NOP
011fc3: 20               NOP
011fc4: 20               NOP
011fc5: 20               NOP
011fc6: 20               NOP
011fc7: 20               NOP
011fc8: 20               NOP
011fc9: 20               NOP
011fca: 20               NOP
011fcb: 20               NOP
011fcc: 20               NOP
011fcd: 20               NOP
011fce: 20               NOP
011fcf: 20               NOP
011fd0: 20               NOP
011fd1: 20               NOP
011fd2: 20               NOP
011fd3: 20               NOP
011fd4: 20               NOP
011fd5: 20               NOP
011fd6: 20               NOP
011fd7: 20               NOP
011fd8: 20               NOP
011fd9: 20               NOP
011fda: 20               NOP
011fdb: 20               NOP
011fdc: 20               NOP
011fdd: 20               NOP
011fde: 20               NOP
011fdf: 20               NOP
011fe0: 20               NOP
011fe1: 20               NOP
011fe2: 20               NOP
011fe3: 20               NOP
011fe4: 20               NOP
011fe5: 20               NOP
011fe6: 20               NOP
011fe7: 20               NOP
011fe8: 20               NOP
011fe9: 20               NOP
011fea: 20               NOP
011feb: 20               NOP
011fec: 20               NOP
011fed: 20               NOP
011fee: 20               NOP
011fef: 20               NOP
011ff0: 20               NOP
011ff1: 20               NOP
011ff2: 20               NOP
011ff3: 20               NOP
011ff4: 20               NOP
011ff5: 20               NOP
011ff6: 20               NOP
011ff7: 20               NOP
011ff8: 20               NOP
011ff9: 20               NOP
011ffa: 20               NOP
011ffb: 20               NOP
011ffc: 20               NOP
011ffd: 20               NOP
011ffe: 20               NOP
011fff: 20               NOP
012000: 20               NOP
012001: 20               NOP
012002: 20               NOP
012003: 20               NOP
012004: 20               NOP
012005: 20               NOP
012006: 20               NOP
012007: 20               NOP
012008: 20               NOP
012009: 20               NOP
01200a: 20               NOP
01200b: 20               NOP
01200c: 20               NOP
01200d: 20               NOP
01200e: 20               NOP
01200f: 20               NOP
012010: 20               NOP
012011: 20               NOP
012012: 20               NOP
012013: 20               NOP
012014: 20               NOP
012015: 20               NOP
012016: 20               NOP
012017: 20               NOP
012018: 20               NOP
012019: 20               NOP
01201a: 20               NOP
01201b: 20               NOP
01201c: 20               NOP
01201d: 20               NOP
01201e: 20               NOP
01201f: 20               NOP
012020: 20               NOP
012021: 20               NOP
012022: 20               NOP
012023: 20               NOP
012024: 20               NOP
012025: 20               NOP
012026: 20               NOP
012027: 20               NOP
012028: 20               NOP
012029: 20               NOP
01202a: 20               NOP
01202b: 20               NOP
01202c: 20               NOP
01202d: 20               NOP
01202e: 20               NOP
01202f: 20               NOP
012030: 20               NOP
012031: 20               NOP
012032: 20               NOP
012033: 20               NOP
012034: 20               NOP
012035: 20               NOP
012036: 20               NOP
012037: 20               NOP
012038: 20               NOP
012039: 20               NOP
01203a: 20               NOP
01203b: 20               NOP
01203c: 20               NOP
01203d: 20               NOP
01203e: 20               NOP
01203f: 20               NOP
012040: 20               NOP
012041: 20               NOP
012042: 20               NOP
012043: 20               NOP
012044: 20               NOP
012045: 20               NOP
012046: 20               NOP
012047: 20               NOP
012048: 20               NOP
012049: 20               NOP
01204a: 20               NOP
01204b: 20               NOP
01204c: 20               NOP
01204d: 20               NOP
01204e: 20               NOP
01204f: 20               NOP
012050: 20               NOP
012051: 20               NOP
012052: 20               NOP
012053: 20               NOP
012054: 20               NOP
012055: 20               NOP
012056: 20               NOP
012057: 20               NOP
012058: 20               NOP
012059: 20               NOP
01205a: 20               NOP
01205b: 20               NOP
01205c: 20               NOP
01205d: 20               NOP
01205e: 20               NOP
01205f: 20               NOP
012060: 20               NOP
012061: 20               NOP
012062: 20               NOP
012063: 20               NOP
012064: 20               NOP
012065: 20               NOP
012066: 20               NOP
012067: 20               NOP
012068: 20               NOP
012069: 20               NOP
01206a: 20               NOP
01206b: 20               NOP
01206c: 20               NOP
01206d: 20               NOP
01206e: 20               NOP
01206f: 20               NOP
012070: 20               NOP
012071: 20               NOP
012072: 20               NOP
012073: 20               NOP
012074: 20               NOP
012075: 20               NOP
012076: 20               NOP
012077: 20               NOP
012078: 20               NOP
012079: 20               NOP
01207a: 20               NOP
01207b: 20               NOP
01207c: 20               NOP
01207d: 20               NOP
01207e: 20               NOP
01207f: 20               NOP
012080: 20               NOP
012081: 20               NOP
012082: 20               NOP
012083: 20               NOP
012084: 20               NOP
012085: 20               NOP
012086: 20               NOP
012087: 20               NOP
012088: 20               NOP
012089: 20               NOP
01208a: 20               NOP
01208b: 20               NOP
01208c: 20               NOP
01208d: 20               NOP
01208e: 20               NOP
01208f: 20               NOP
012090: 20               NOP
012091: 20               NOP
012092: 20               NOP
012093: 20               NOP
012094: 20               NOP
012095: 20               NOP
012096: 20               NOP
012097: 20               NOP
012098: 20               NOP
012099: 20               NOP
01209a: 20               NOP
01209b: 20               NOP
01209c: 20               NOP
01209d: 20               NOP
01209e: 20               NOP
01209f: 20               NOP
0120a0: 20               NOP
0120a1: 20               NOP
0120a2: 20               NOP
0120a3: 20               NOP
0120a4: 20               NOP
0120a5: 20               NOP
0120a6: 20               NOP
0120a7: 20               NOP
0120a8: 20               NOP
0120a9: 20               NOP
0120aa: 20               NOP
0120ab: 20               NOP
0120ac: 20               NOP
0120ad: 20               NOP
0120ae: 20               NOP
0120af: 20               NOP
0120b0: 20               NOP
0120b1: 20               NOP
0120b2: 20               NOP
0120b3: 20               NOP
0120b4: 20               NOP
0120b5: 20               NOP
0120b6: 20               NOP
0120b7: 20               NOP
0120b8: 20               NOP
0120b9: 20               NOP
0120ba: 20               NOP
0120bb: 20               NOP
0120bc: 20               NOP
0120bd: 20               NOP
0120be: 20               NOP
0120bf: 20               NOP
0120c0: 20               NOP
0120c1: 20               NOP
0120c2: 20               NOP
0120c3: 20               NOP
0120c4: 20               NOP
0120c5: 20               NOP
0120c6: 20               NOP
0120c7: 20               NOP
0120c8: 20               NOP
0120c9: 20               NOP
0120ca: 20               NOP
0120cb: 20               NOP
0120cc: 20               NOP
0120cd: 20               NOP
0120ce: 20               NOP
0120cf: 20               NOP
0120d0: 20               NOP
0120d1: 20               NOP
0120d2: 20               NOP
0120d3: 20               NOP
0120d4: 20               NOP
0120d5: 20               NOP
0120d6: 20               NOP
0120d7: 20               NOP
0120d8: 20               NOP
0120d9: 20               NOP
0120da: 20               NOP
0120db: 20               NOP
0120dc: 20               NOP
0120dd: 20               NOP
0120de: 20               NOP
0120df: 20               NOP
0120e0: 20               NOP
0120e1: 20               NOP
0120e2: 20               NOP
0120e3: 20               NOP
0120e4: 20               NOP
0120e5: 20               NOP
0120e6: 20               NOP
0120e7: 20               NOP
0120e8: 20               NOP
0120e9: 20               NOP
0120ea: 20               NOP
0120eb: 20               NOP
0120ec: 20               NOP
0120ed: 20               NOP
0120ee: 20               NOP
0120ef: 20               NOP
0120f0: 20               NOP
0120f1: 20               NOP
0120f2: 20               NOP
0120f3: 20               NOP
0120f4: 20               NOP
0120f5: 20               NOP
0120f6: 20               NOP
0120f7: 20               NOP
0120f8: 20               NOP
0120f9: 20               NOP
0120fa: 20               NOP
0120fb: 20               NOP
0120fc: 20               NOP
0120fd: 20               NOP
0120fe: 20               NOP
0120ff: 20               NOP
012100: 20               NOP
012101: 20               NOP
012102: 20               NOP
012103: 20               NOP
012104: 20               NOP
012105: 20               NOP
012106: 20               NOP
012107: 20               NOP
012108: 20               NOP
012109: 20               NOP
01210a: 20               NOP
01210b: 20               NOP
01210c: 20               NOP
01210d: 20               NOP
01210e: 20               NOP
01210f: 20               NOP
012110: 20               NOP
012111: 20               NOP
012112: 20               NOP
012113: 20               NOP
012114: 20               NOP
012115: 20               NOP
012116: 20               NOP
012117: 20               NOP
012118: 20               NOP
012119: 20               NOP
01211a: 20               NOP
01211b: 20               NOP
01211c: 20               NOP
01211d: 20               NOP
01211e: 20               NOP
01211f: 20               NOP
012120: 20               NOP
012121: 20               NOP
012122: 20               NOP
012123: 20               NOP
012124: 20               NOP
012125: 20               NOP
012126: 20               NOP
012127: 20               NOP
012128: 20               NOP
012129: 20               NOP
01212a: 20               NOP
01212b: 20               NOP
01212c: 20               NOP
01212d: 20               NOP
01212e: 20               NOP
01212f: 20               NOP
012130: 20               NOP
012131: 20               NOP
012132: 20               NOP
012133: 20               NOP
012134: 20               NOP
012135: 20               NOP
012136: 20               NOP
012137: 20               NOP
012138: 20               NOP
012139: 20               NOP
01213a: 20               NOP
01213b: 20               NOP
01213c: 20               NOP
01213d: 20               NOP
01213e: 20               NOP
01213f: 20               NOP
012140: 20               NOP
012141: 20               NOP
012142: 20               NOP
012143: 20               NOP
012144: 20               NOP
012145: 20               NOP
012146: 20               NOP
012147: 20               NOP
012148: 20               NOP
012149: 20               NOP
01214a: 20               NOP
01214b: 20               NOP
01214c: 20               NOP
01214d: 20               NOP
01214e: 20               NOP
01214f: 20               NOP
012150: 20               NOP
012151: 20               NOP
012152: 20               NOP
012153: 20               NOP
012154: 20               NOP
012155: 20               NOP
012156: 20               NOP
012157: 20               NOP
012158: 20               NOP
012159: 20               NOP
01215a: 20               NOP
01215b: 20               NOP
01215c: 20               NOP
01215d: 20               NOP
01215e: 20               NOP
01215f: 20               NOP
012160: 20               NOP
012161: 20               NOP
012162: 20               NOP
012163: 20               NOP
012164: 20               NOP
012165: 20               NOP
012166: 20               NOP
012167: 20               NOP
012168: 20               NOP
012169: 20               NOP
01216a: 20               NOP
01216b: 20               NOP
01216c: 20               NOP
01216d: 20               NOP
01216e: 20               NOP
01216f: 20               NOP
012170: 20               NOP
012171: 20               NOP
012172: 20               NOP
012173: 20               NOP
012174: 20               NOP
012175: 20               NOP
012176: 20               NOP
012177: 20               NOP
012178: 20               NOP
012179: 20               NOP
01217a: 20               NOP
01217b: 20               NOP
01217c: 20               NOP
01217d: 20               NOP
01217e: 20               NOP
01217f: 20               NOP
012180: 20               NOP
012181: 20               NOP
012182: 20               NOP
012183: 20               NOP
012184: 20               NOP
012185: 20               NOP
012186: 20               NOP
012187: 20               NOP
012188: 20               NOP
012189: 20               NOP
01218a: 20               NOP
01218b: 20               NOP
01218c: 20               NOP
01218d: 20               NOP
01218e: 20               NOP
01218f: 20               NOP
012190: 20               NOP
012191: 20               NOP
012192: 20               NOP
012193: 20               NOP
012194: 20               NOP
012195: 20               NOP
012196: 20               NOP
012197: 20               NOP
012198: 20               NOP
012199: 20               NOP
01219a: 20               NOP
01219b: 20               NOP
01219c: 20               NOP
01219d: 20               NOP
01219e: 20               NOP
01219f: 20               NOP
0121a0: 20               NOP
0121a1: 20               NOP
0121a2: 20               NOP
0121a3: 20               NOP
0121a4: 20               NOP
0121a5: 20               NOP
0121a6: 20               NOP
0121a7: 20               NOP
0121a8: 20               NOP
0121a9: 20               NOP
0121aa: 20               NOP
0121ab: 20               NOP
0121ac: 20               NOP
0121ad: 20               NOP
0121ae: 20               NOP
0121af: 20               NOP
0121b0: 20               NOP
0121b1: 20               NOP
0121b2: 20               NOP
0121b3: 20               NOP
0121b4: 20               NOP
0121b5: 20               NOP
0121b6: 20               NOP
0121b7: 20               NOP
0121b8: 20               NOP
0121b9: 20               NOP
0121ba: 20               NOP
0121bb: 20               NOP
0121bc: 20               NOP
0121bd: 20               NOP
0121be: 20               NOP
0121bf: 20               NOP
0121c0: 20               NOP
0121c1: 20               NOP
0121c2: 20               NOP
0121c3: 20               NOP
0121c4: 20               NOP
0121c5: 20               NOP
0121c6: 20               NOP
0121c7: 20               NOP
0121c8: 20               NOP
0121c9: 20               NOP
0121ca: 20               NOP
0121cb: 20               NOP
0121cc: 20               NOP
0121cd: 20               NOP
0121ce: 20               NOP
0121cf: 20               NOP
0121d0: 20               NOP
0121d1: 20               NOP
0121d2: 20               NOP
0121d3: 20               NOP
0121d4: 20               NOP
0121d5: 20               NOP
0121d6: 20               NOP
0121d7: 20               NOP
0121d8: 20               NOP
0121d9: 20               NOP
0121da: 20               NOP
0121db: 20               NOP
0121dc: 20               NOP
0121dd: 20               NOP
0121de: 20               NOP
0121df: 20               NOP
0121e0: 20               NOP
0121e1: 20               NOP
0121e2: 20               NOP
0121e3: 20               NOP
0121e4: 20               NOP
0121e5: 20               NOP
0121e6: 20               NOP
0121e7: 20               NOP
0121e8: 20               NOP
0121e9: 20               NOP
0121ea: 20               NOP
0121eb: 20               NOP
0121ec: 20               NOP
0121ed: 20               NOP
0121ee: 20               NOP
0121ef: 20               NOP
0121f0: 20               NOP
0121f1: 20               NOP
0121f2: 20               NOP
0121f3: 20               NOP
0121f4: 20               NOP
0121f5: 20               NOP
0121f6: 20               NOP
0121f7: 20               NOP
0121f8: 20               NOP
0121f9: 20               NOP
0121fa: 20               NOP
0121fb: 20               NOP
0121fc: 20               NOP
0121fd: 20               NOP
0121fe: 20               NOP
0121ff: 20               NOP
012200: 20               NOP
012201: 20               NOP
012202: 20               NOP
012203: 20               NOP
012204: 20               NOP
012205: 20               NOP
012206: 20               NOP
012207: 20               NOP
012208: 20               NOP
012209: 20               NOP
01220a: 20               NOP
01220b: 20               NOP
01220c: 20               NOP
01220d: 20               NOP
01220e: 20               NOP
01220f: 20               NOP
012210: 20               NOP
012211: 20               NOP
012212: 20               NOP
012213: 20               NOP
012214: 20               NOP
012215: 20               NOP
012216: 20               NOP
012217: 20               NOP
012218: 20               NOP
012219: 20               NOP
01221a: 20               NOP
01221b: 20               NOP
01221c: 20               NOP
01221d: 20               NOP
01221e: 20               NOP
01221f: 20               NOP
012220: 20               NOP
012221: 20               NOP
012222: 20               NOP
012223: 20               NOP
012224: 20               NOP
012225: 20               NOP
012226: 20               NOP
012227: 20               NOP
012228: 20               NOP
012229: 20               NOP
01222a: 20               NOP
01222b: 20               NOP
01222c: 20               NOP
01222d: 20               NOP
01222e: 20               NOP
01222f: 20               NOP
012230: 20               NOP
012231: 20               NOP
012232: 20               NOP
012233: 20               NOP
012234: 20               NOP
012235: 20               NOP
012236: 20               NOP
012237: 20               NOP
012238: 20               NOP
012239: 20               NOP
01223a: 20               NOP
01223b: 20               NOP
01223c: 20               NOP
01223d: 20               NOP
01223e: 20               NOP
01223f: 20               NOP
012240: 20               NOP
012241: 20               NOP
012242: 20               NOP
012243: 20               NOP
012244: 20               NOP
012245: 20               NOP
012246: 20               NOP
012247: 20               NOP
012248: 20               NOP
012249: 20               NOP
01224a: 20               NOP
01224b: 20               NOP
01224c: 20               NOP
01224d: 20               NOP
01224e: 20               NOP
01224f: 20               NOP
012250: 20               NOP
012251: 20               NOP
012252: 20               NOP
012253: 20               NOP
012254: 20               NOP
012255: 20               NOP
012256: 20               NOP
012257: 20               NOP
012258: 20               NOP
012259: 20               NOP
01225a: 20               NOP
01225b: 20               NOP
01225c: 20               NOP
01225d: 20               NOP
01225e: 20               NOP
01225f: 20               NOP
012260: 20               NOP
012261: 20               NOP
012262: 20               NOP
012263: 20               NOP
012264: 20               NOP
012265: 20               NOP
012266: 20               NOP
012267: 20               NOP
012268: 20               NOP
012269: 20               NOP
01226a: 20               NOP
01226b: 20               NOP
01226c: 20               NOP
01226d: 20               NOP
01226e: 20               NOP
01226f: 20               NOP
012270: 20               NOP
012271: 20               NOP
012272: 20               NOP
012273: 20               NOP
012274: 20               NOP
012275: 20               NOP
012276: 20               NOP
012277: 20               NOP
012278: 20               NOP
012279: 20               NOP
01227a: 20               NOP
01227b: 20               NOP
01227c: 20               NOP
01227d: 20               NOP
01227e: 20               NOP
01227f: 20               NOP
012280: 20               NOP
012281: 20               NOP
012282: 20               NOP
012283: 20               NOP
012284: 20               NOP
012285: 20               NOP
012286: 20               NOP
012287: 20               NOP
012288: 20               NOP
012289: 20               NOP
01228a: 20               NOP
01228b: 20               NOP
01228c: 20               NOP
01228d: 20               NOP
01228e: 20               NOP
01228f: 20               NOP
012290: 20               NOP
012291: 20               NOP
012292: 20               NOP
012293: 20               NOP
012294: 20               NOP
012295: 20               NOP
012296: 20               NOP
012297: 20               NOP
012298: 20               NOP
012299: 20               NOP
01229a: 20               NOP
01229b: 20               NOP
01229c: 20               NOP
01229d: 20               NOP
01229e: 20               NOP
01229f: 20               NOP
0122a0: 20               NOP
0122a1: 20               NOP
0122a2: 20               NOP
0122a3: 20               NOP
0122a4: 20               NOP
0122a5: 20               NOP
0122a6: 20               NOP
0122a7: 20               NOP
0122a8: 20               NOP
0122a9: 20               NOP
0122aa: 20               NOP
0122ab: 20               NOP
0122ac: 20               NOP
0122ad: 20               NOP
0122ae: 20               NOP
0122af: 20               NOP
0122b0: 20               NOP
0122b1: 20               NOP
0122b2: 20               NOP
0122b3: 20               NOP
0122b4: 20               NOP
0122b5: 20               NOP
0122b6: 20               NOP
0122b7: 20               NOP
0122b8: 20               NOP
0122b9: 20               NOP
0122ba: 20               NOP
0122bb: 20               NOP
0122bc: 20               NOP
0122bd: 20               NOP
0122be: 20               NOP
0122bf: 20               NOP
0122c0: 20               NOP
0122c1: 20               NOP
0122c2: 20               NOP
0122c3: 20               NOP
0122c4: 20               NOP
0122c5: 20               NOP
0122c6: 20               NOP
0122c7: 20               NOP
0122c8: 20               NOP
0122c9: 20               NOP
0122ca: 20               NOP
0122cb: 20               NOP
0122cc: 20               NOP
0122cd: 20               NOP
0122ce: 20               NOP
0122cf: 20               NOP
0122d0: 20               NOP
0122d1: 20               NOP
0122d2: 20               NOP
0122d3: 20               NOP
0122d4: 20               NOP
0122d5: 20               NOP
0122d6: 20               NOP
0122d7: 20               NOP
0122d8: 20               NOP
0122d9: 20               NOP
0122da: 20               NOP
0122db: 20               NOP
0122dc: 20               NOP
0122dd: 20               NOP
0122de: 20               NOP
0122df: 20               NOP
0122e0: 20               NOP
0122e1: 20               NOP
0122e2: 20               NOP
0122e3: 20               NOP
0122e4: 20               NOP
0122e5: 20               NOP
0122e6: 20               NOP
0122e7: 20               NOP
0122e8: 20               NOP
0122e9: 20               NOP
0122ea: 20               NOP
0122eb: 20               NOP
0122ec: 20               NOP
0122ed: 20               NOP
0122ee: 20               NOP
0122ef: 20               NOP
0122f0: 20               NOP
0122f1: 20               NOP
0122f2: 20               NOP
0122f3: 20               NOP
0122f4: 20               NOP
0122f5: 20               NOP
0122f6: 20               NOP
0122f7: 20               NOP
0122f8: 20               NOP
0122f9: 20               NOP
0122fa: 20               NOP
0122fb: 20               NOP
0122fc: 20               NOP
0122fd: 20               NOP
0122fe: 20               NOP
0122ff: 20               NOP
012300: 20               NOP
012301: 20               NOP
012302: 20               NOP
012303: 20               NOP
012304: 20               NOP
012305: 20               NOP
012306: 20               NOP
012307: 20               NOP
012308: 20               NOP
012309: 20               NOP
01230a: 20               NOP
01230b: 20               NOP
01230c: 20               NOP
01230d: 20               NOP
01230e: 20               NOP
01230f: 20               NOP
012310: 20               NOP
012311: 20               NOP
012312: 20               NOP
012313: 20               NOP
012314: 20               NOP
012315: 20               NOP
012316: 20               NOP
012317: 20               NOP
012318: 20               NOP
012319: 20               NOP
01231a: 20               NOP
01231b: 20               NOP
01231c: 20               NOP
01231d: 20               NOP
01231e: 20               NOP
01231f: 20               NOP
012320: 20               NOP
012321: 20               NOP
012322: 20               NOP
012323: 20               NOP
012324: 20               NOP
012325: 20               NOP
012326: 20               NOP
012327: 20               NOP
012328: 20               NOP
012329: 20               NOP
01232a: 20               NOP
01232b: 20               NOP
01232c: 20               NOP
01232d: 20               NOP
01232e: 20               NOP
01232f: 20               NOP
012330: 20               NOP
012331: 20               NOP
012332: 20               NOP
012333: 20               NOP
012334: 20               NOP
012335: 20               NOP
012336: 20               NOP
012337: 20               NOP
012338: 20               NOP
012339: 20               NOP
01233a: 20               NOP
01233b: 20               NOP
01233c: 20               NOP
01233d: 20               NOP
01233e: 20               NOP
01233f: 20               NOP
012340: 20               NOP
012341: 20               NOP
012342: 20               NOP
012343: 20               NOP
012344: 20               NOP
012345: 20               NOP
012346: 20               NOP
012347: 20               NOP
012348: 20               NOP
012349: 20               NOP
01234a: 20               NOP
01234b: 20               NOP
01234c: 20               NOP
01234d: 20               NOP
01234e: 20               NOP
01234f: 20               NOP
012350: 20               NOP
012351: 20               NOP
012352: 20               NOP
012353: 20               NOP
012354: 20               NOP
012355: 20               NOP
012356: 20               NOP
012357: 20               NOP
012358: 20               NOP
012359: 20               NOP
01235a: 20               NOP
01235b: 20               NOP
01235c: 20               NOP
01235d: 20               NOP
01235e: 20               NOP
01235f: 20               NOP
012360: 20               NOP
012361: 20               NOP
012362: 20               NOP
012363: 20               NOP
012364: 20               NOP
012365: 20               NOP
012366: 20               NOP
012367: 20               NOP
012368: 20               NOP
012369: 20               NOP
01236a: 20               NOP
01236b: 20               NOP
01236c: 20               NOP
01236d: 20               NOP
01236e: 20               NOP
01236f: 20               NOP
012370: 20               NOP
012371: 20               NOP
012372: 20               NOP
012373: 20               NOP
012374: 20               NOP
012375: 20               NOP
012376: 20               NOP
012377: 20               NOP
012378: 20               NOP
012379: 20               NOP
01237a: 20               NOP
01237b: 20               NOP
01237c: 20               NOP
01237d: 20               NOP
01237e: 20               NOP
01237f: 20               NOP
012380: 20               NOP
012381: 20               NOP
012382: 20               NOP
012383: 20               NOP
012384: 20               NOP
012385: 20               NOP
012386: 20               NOP
012387: 20               NOP
012388: 20               NOP
012389: 20               NOP
01238a: 20               NOP
01238b: 20               NOP
01238c: 20               NOP
01238d: 20               NOP
01238e: 20               NOP
01238f: 20               NOP
012390: 20               NOP
012391: 20               NOP
012392: 20               NOP
012393: 20               NOP
012394: 20               NOP
012395: 20               NOP
012396: 20               NOP
012397: 20               NOP
012398: 20               NOP
012399: 20               NOP
01239a: 20               NOP
01239b: 20               NOP
01239c: 20               NOP
01239d: 20               NOP
01239e: 20               NOP
01239f: 20               NOP
0123a0: 20               NOP
0123a1: 20               NOP
0123a2: 20               NOP
0123a3: 20               NOP
0123a4: 20               NOP
0123a5: 20               NOP
0123a6: 20               NOP
0123a7: 20               NOP
0123a8: 20               NOP
0123a9: 20               NOP
0123aa: 20               NOP
0123ab: 20               NOP
0123ac: 20               NOP
0123ad: 20               NOP
0123ae: 20               NOP
0123af: 20               NOP
0123b0: 20               NOP
0123b1: 20               NOP
0123b2: 20               NOP
0123b3: 20               NOP
0123b4: 20               NOP
0123b5: 20               NOP
0123b6: 20               NOP
0123b7: 20               NOP
0123b8: 20               NOP
0123b9: 20               NOP
0123ba: 20               NOP
0123bb: 20               NOP
0123bc: 20               NOP
0123bd: 20               NOP
0123be: 20               NOP
0123bf: 20               NOP
0123c0: 20               NOP
0123c1: 20               NOP
0123c2: 20               NOP
0123c3: 20               NOP
0123c4: 20               NOP
0123c5: 20               NOP
0123c6: 20               NOP
0123c7: 20               NOP
0123c8: 20               NOP
0123c9: 20               NOP
0123ca: 20               NOP
0123cb: 20               NOP
0123cc: 20               NOP
0123cd: 20               NOP
0123ce: 20               NOP
0123cf: 20               NOP
0123d0: 20               NOP
0123d1: 20               NOP
0123d2: 20               NOP
0123d3: 20               NOP
0123d4: 20               NOP
0123d5: 20               NOP
0123d6: 20               NOP
0123d7: 20               NOP
0123d8: 20               NOP
0123d9: 20               NOP
0123da: 20               NOP
0123db: 20               NOP
0123dc: 20               NOP
0123dd: 20               NOP
0123de: 20               NOP
0123df: 20               NOP
0123e0: 20               NOP
0123e1: 20               NOP
0123e2: 20               NOP
0123e3: 20               NOP
0123e4: 20               NOP
0123e5: 20               NOP
0123e6: 20               NOP
0123e7: 20               NOP
0123e8: 20               NOP
0123e9: 20               NOP
0123ea: 20               NOP
0123eb: 20               NOP
0123ec: 20               NOP
0123ed: 20               NOP
0123ee: 20               NOP
0123ef: 20               NOP
0123f0: 20               NOP
0123f1: 20               NOP
0123f2: 20               NOP
0123f3: 20               NOP
0123f4: 20               NOP
0123f5: 20               NOP
0123f6: 20               NOP
0123f7: 20               NOP
0123f8: 20               NOP
0123f9: 20               NOP
0123fa: 20               NOP
0123fb: 20               NOP
0123fc: 20               NOP
0123fd: 20               NOP
0123fe: 20               NOP
0123ff: 20               NOP
012400: 20               NOP
012401: 20               NOP
012402: 20               NOP
012403: 20               NOP
012404: 20               NOP
012405: 20               NOP
012406: 20               NOP
012407: 20               NOP
012408: 20               NOP
012409: 20               NOP
01240a: 20               NOP
01240b: 20               NOP
01240c: 20               NOP
01240d: 20               NOP
01240e: 20               NOP
01240f: 20               NOP
012410: 20               NOP
012411: 20               NOP
012412: 20               NOP
012413: 20               NOP
012414: 20               NOP
012415: 20               NOP
012416: 20               NOP
012417: 20               NOP
012418: 20               NOP
012419: 20               NOP
01241a: 20               NOP
01241b: 20               NOP
01241c: 20               NOP
01241d: 20               NOP
01241e: 20               NOP
01241f: 20               NOP
012420: 20               NOP
012421: 20               NOP
012422: 20               NOP
012423: 20               NOP
012424: 20               NOP
012425: 20               NOP
012426: 20               NOP
012427: 20               NOP
012428: 20               NOP
012429: 20               NOP
01242a: 20               NOP
01242b: 20               NOP
01242c: 20               NOP
01242d: 20               NOP
01242e: 20               NOP
01242f: 20               NOP
012430: 20               NOP
012431: 20               NOP
012432: 20               NOP
012433: 20               NOP
012434: 20               NOP
012435: 20               NOP
012436: 20               NOP
012437: 20               NOP
012438: 20               NOP
012439: 20               NOP
01243a: 20               NOP
01243b: 20               NOP
01243c: 20               NOP
01243d: 20               NOP
01243e: 20               NOP
01243f: 20               NOP
012440: 20               NOP
012441: 20               NOP
012442: 20               NOP
012443: 20               NOP
012444: 20               NOP
012445: 20               NOP
012446: 20               NOP
012447: 20               NOP
012448: 20               NOP
012449: 20               NOP
01244a: 20               NOP
01244b: 20               NOP
01244c: 20               NOP
01244d: 20               NOP
01244e: 20               NOP
01244f: 20               NOP
012450: 20               NOP
012451: 20               NOP
012452: 20               NOP
012453: 20               NOP
012454: 20               NOP
012455: 20               NOP
012456: 20               NOP
012457: 20               NOP
012458: 20               NOP
012459: 20               NOP
01245a: 20               NOP
01245b: 20               NOP
01245c: 20               NOP
01245d: 20               NOP
01245e: 20               NOP
01245f: 20               NOP
012460: 20               NOP
012461: 20               NOP
012462: 20               NOP
012463: 20               NOP
012464: 20               NOP
012465: 20               NOP
012466: 20               NOP
012467: 20               NOP
012468: 20               NOP
012469: 20               NOP
01246a: 20               NOP
01246b: 20               NOP
01246c: 20               NOP
01246d: 20               NOP
01246e: 20               NOP
01246f: 20               NOP
012470: 20               NOP
012471: 20               NOP
012472: 20               NOP
012473: 20               NOP
012474: 20               NOP
012475: 20               NOP
012476: 20               NOP
012477: 20               NOP
012478: 20               NOP
012479: 20               NOP
01247a: 20               NOP
01247b: 20               NOP
01247c: 20               NOP
01247d: 20               NOP
01247e: 20               NOP
01247f: 20               NOP
012480: 20               NOP
012481: 20               NOP
012482: 20               NOP
012483: 20               NOP
012484: 20               NOP
012485: 20               NOP
012486: 20               NOP
012487: 20               NOP
012488: 20               NOP
012489: 20               NOP
01248a: 20               NOP
01248b: 20               NOP
01248c: 20               NOP
01248d: 20               NOP
01248e: 20               NOP
01248f: 20               NOP
012490: 20               NOP
012491: 20               NOP
012492: 20               NOP
012493: 20               NOP
012494: 20               NOP
012495: 20               NOP
012496: 20               NOP
012497: 20               NOP
012498: 20               NOP
012499: 20               NOP
01249a: 20               NOP
01249b: 20               NOP
01249c: 20               NOP
01249d: 20               NOP
01249e: 20               NOP
01249f: 20               NOP
0124a0: 20               NOP
0124a1: 20               NOP
0124a2: 20               NOP
0124a3: 20               NOP
0124a4: 20               NOP
0124a5: 20               NOP
0124a6: 20               NOP
0124a7: 20               NOP
0124a8: 20               NOP
0124a9: 20               NOP
0124aa: 20               NOP
0124ab: 20               NOP
0124ac: 20               NOP
0124ad: 20               NOP
0124ae: 20               NOP
0124af: 20               NOP
0124b0: 20               NOP
0124b1: 20               NOP
0124b2: 20               NOP
0124b3: 20               NOP
0124b4: 20               NOP
0124b5: 20               NOP
0124b6: 20               NOP
0124b7: 20               NOP
0124b8: 20               NOP
0124b9: 20               NOP
0124ba: 20               NOP
0124bb: 20               NOP
0124bc: 20               NOP
0124bd: 20               NOP
0124be: 20               NOP
0124bf: 20               NOP
0124c0: 20               NOP
0124c1: 20               NOP
0124c2: 20               NOP
0124c3: 20               NOP
0124c4: 20               NOP
0124c5: 20               NOP
0124c6: 20               NOP
0124c7: 20               NOP
0124c8: 20               NOP
0124c9: 20               NOP
0124ca: 20               NOP
0124cb: 20               NOP
0124cc: 20               NOP
0124cd: 20               NOP
0124ce: 20               NOP
0124cf: 20               NOP
0124d0: 20               NOP
0124d1: 20               NOP
0124d2: 20               NOP
0124d3: 20               NOP
0124d4: 20               NOP
0124d5: 20               NOP
0124d6: 20               NOP
0124d7: 20               NOP
0124d8: 20               NOP
0124d9: 20               NOP
0124da: 20               NOP
0124db: 20               NOP
0124dc: 20               NOP
0124dd: 20               NOP
0124de: 20               NOP
0124df: 20               NOP
0124e0: 20               NOP
0124e1: 20               NOP
0124e2: 20               NOP
0124e3: 20               NOP
0124e4: 20               NOP
0124e5: 20               NOP
0124e6: 20               NOP
0124e7: 20               NOP
0124e8: 20               NOP
0124e9: 20               NOP
0124ea: 20               NOP
0124eb: 20               NOP
0124ec: 20               NOP
0124ed: 20               NOP
0124ee: 20               NOP
0124ef: 20               NOP
0124f0: 20               NOP
0124f1: 20               NOP
0124f2: 20               NOP
0124f3: 20               NOP
0124f4: 20               NOP
0124f5: 20               NOP
0124f6: 20               NOP
0124f7: 20               NOP
0124f8: 20               NOP
0124f9: 20               NOP
0124fa: 20               NOP
0124fb: 20               NOP
0124fc: 20               NOP
0124fd: 20               NOP
0124fe: 20               NOP
0124ff: 20               NOP
012500: 20               NOP
012501: 20               NOP
012502: 20               NOP
012503: 20               NOP
012504: 20               NOP
012505: 20               NOP
012506: 20               NOP
012507: 20               NOP
012508: 20               NOP
012509: 20               NOP
01250a: 20               NOP
01250b: 20               NOP
01250c: 20               NOP
01250d: 20               NOP
01250e: 20               NOP
01250f: 20               NOP
012510: 20               NOP
012511: 20               NOP
012512: 20               NOP
012513: 20               NOP
012514: 20               NOP
012515: 20               NOP
012516: 20               NOP
012517: 20               NOP
012518: 20               NOP
012519: 20               NOP
01251a: 20               NOP
01251b: 20               NOP
01251c: 20               NOP
01251d: 20               NOP
01251e: 20               NOP
01251f: 20               NOP
012520: 20               NOP
012521: 20               NOP
012522: 20               NOP
012523: 20               NOP
012524: 20               NOP
012525: 20               NOP
012526: 20               NOP
012527: 20               NOP
012528: 20               NOP
012529: 20               NOP
01252a: 20               NOP
01252b: 20               NOP
01252c: 20               NOP
01252d: 20               NOP
01252e: 20               NOP
01252f: 20               NOP
012530: 20               NOP
012531: 20               NOP
012532: 20               NOP
012533: 20               NOP
012534: 20               NOP
012535: 20               NOP
012536: 20               NOP
012537: 20               NOP
012538: 20               NOP
012539: 20               NOP
01253a: 20               NOP
01253b: 20               NOP
01253c: 20               NOP
01253d: 20               NOP
01253e: 20               NOP
01253f: 20               NOP
012540: 20               NOP
012541: 20               NOP
012542: 20               NOP
012543: 20               NOP
012544: 20               NOP
012545: 20               NOP
012546: 20               NOP
012547: 20               NOP
012548: 20               NOP
012549: 20               NOP
01254a: 20               NOP
01254b: 20               NOP
01254c: 20               NOP
01254d: 20               NOP
01254e: 20               NOP
01254f: 20               NOP
012550: 20               NOP
012551: 20               NOP
012552: 20               NOP
012553: 20               NOP
012554: 20               NOP
012555: 20               NOP
012556: 20               NOP
012557: 20               NOP
012558: 20               NOP
012559: 20               NOP
01255a: 20               NOP
01255b: 20               NOP
01255c: 20               NOP
01255d: 20               NOP
01255e: 20               NOP
01255f: 20               NOP
012560: 20               NOP
012561: 20               NOP
012562: 20               NOP
012563: 20               NOP
012564: 20               NOP
012565: 20               NOP
012566: 20               NOP
012567: 20               NOP
012568: 20               NOP
012569: 20               NOP
01256a: 20               NOP
01256b: 20               NOP
01256c: 20               NOP
01256d: 20               NOP
01256e: 20               NOP
01256f: 20               NOP
012570: 20               NOP
012571: 20               NOP
012572: 20               NOP
012573: 20               NOP
012574: 20               NOP
012575: 20               NOP
012576: 20               NOP
012577: 20               NOP
012578: 20               NOP
012579: 20               NOP
01257a: 20               NOP
01257b: 20               NOP
01257c: 20               NOP
01257d: 20               NOP
01257e: 20               NOP
01257f: 20               NOP
012580: 20               NOP
012581: 20               NOP
012582: 20               NOP
012583: 20               NOP
012584: 20               NOP
012585: 20               NOP
012586: 20               NOP
012587: 20               NOP
012588: 20               NOP
012589: 20               NOP
01258a: 20               NOP
01258b: 20               NOP
01258c: 20               NOP
01258d: 20               NOP
01258e: 20               NOP
01258f: 20               NOP
012590: 20               NOP
012591: 20               NOP
012592: 20               NOP
012593: 20               NOP
012594: 20               NOP
012595: 20               NOP
012596: 20               NOP
012597: 20               NOP
012598: 20               NOP
012599: 20               NOP
01259a: 20               NOP
01259b: 20               NOP
01259c: 20               NOP
01259d: 20               NOP
01259e: 20               NOP
01259f: 20               NOP
0125a0: 20               NOP
0125a1: 20               NOP
0125a2: 20               NOP
0125a3: 20               NOP
0125a4: 20               NOP
0125a5: 20               NOP
0125a6: 20               NOP
0125a7: 20               NOP
0125a8: 20               NOP
0125a9: 20               NOP
0125aa: 20               NOP
0125ab: 20               NOP
0125ac: 20               NOP
0125ad: 20               NOP
0125ae: 20               NOP
0125af: 20               NOP
0125b0: 20               NOP
0125b1: 20               NOP
0125b2: 20               NOP
0125b3: 20               NOP
0125b4: 20               NOP
0125b5: 20               NOP
0125b6: 20               NOP
0125b7: 20               NOP
0125b8: 20               NOP
0125b9: 20               NOP
0125ba: 20               NOP
0125bb: 20               NOP
0125bc: 20               NOP
0125bd: 20               NOP
0125be: 20               NOP
0125bf: 20               NOP
0125c0: 20               NOP
0125c1: 20               NOP
0125c2: 20               NOP
0125c3: 20               NOP
0125c4: 20               NOP
0125c5: 20               NOP
0125c6: 20               NOP
0125c7: 20               NOP
0125c8: 20               NOP
0125c9: 20               NOP
0125ca: 20               NOP
0125cb: 20               NOP
0125cc: 20               NOP
0125cd: 20               NOP
0125ce: 20               NOP
0125cf: 20               NOP
0125d0: 20               NOP
0125d1: 20               NOP
0125d2: 20               NOP
0125d3: 20               NOP
0125d4: 20               NOP
0125d5: 20               NOP
0125d6: 20               NOP
0125d7: 20               NOP
0125d8: 20               NOP
0125d9: 20               NOP
0125da: 20               NOP
0125db: 20               NOP
0125dc: 20               NOP
0125dd: 20               NOP
0125de: 20               NOP
0125df: 20               NOP
0125e0: 20               NOP
0125e1: 20               NOP
0125e2: 20               NOP
0125e3: 20               NOP
0125e4: 20               NOP
0125e5: 20               NOP
0125e6: 20               NOP
0125e7: 20               NOP
0125e8: 20               NOP
0125e9: 20               NOP
0125ea: 20               NOP
0125eb: 20               NOP
0125ec: 20               NOP
0125ed: 20               NOP
0125ee: 20               NOP
0125ef: 20               NOP
0125f0: 20               NOP
0125f1: 20               NOP
0125f2: 20               NOP
0125f3: 20               NOP
0125f4: 20               NOP
0125f5: 20               NOP
0125f6: 20               NOP
0125f7: 20               NOP
0125f8: 20               NOP
0125f9: 20               NOP
0125fa: 20               NOP
0125fb: 20               NOP
0125fc: 20               NOP
0125fd: 20               NOP
0125fe: 20               NOP
0125ff: 20               NOP
012600: 20               NOP
012601: 20               NOP
012602: 20               NOP
012603: 20               NOP
012604: 20               NOP
012605: 20               NOP
012606: 20               NOP
012607: 20               NOP
012608: 20               NOP
012609: 20               NOP
01260a: 20               NOP
01260b: 20               NOP
01260c: 20               NOP
01260d: 20               NOP
01260e: 20               NOP
01260f: 20               NOP
012610: 20               NOP
012611: 20               NOP
012612: 20               NOP
012613: 20               NOP
012614: 20               NOP
012615: 20               NOP
012616: 20               NOP
012617: 20               NOP
012618: 20               NOP
012619: 20               NOP
01261a: 20               NOP
01261b: 20               NOP
01261c: 20               NOP
01261d: 20               NOP
01261e: 20               NOP
01261f: 20               NOP
012620: 20               NOP
012621: 20               NOP
012622: 20               NOP
012623: 20               NOP
012624: 20               NOP
012625: 20               NOP
012626: 20               NOP
012627: 20               NOP
012628: 20               NOP
012629: 20               NOP
01262a: 20               NOP
01262b: 20               NOP
01262c: 20               NOP
01262d: 20               NOP
01262e: 20               NOP
01262f: 20               NOP
012630: 20               NOP
012631: 20               NOP
012632: 20               NOP
012633: 20               NOP
012634: 20               NOP
012635: 20               NOP
012636: 20               NOP
012637: 20               NOP
012638: 20               NOP
012639: 20               NOP
01263a: 20               NOP
01263b: 20               NOP
01263c: 20               NOP
01263d: 20               NOP
01263e: 20               NOP
01263f: 20               NOP
012640: 20               NOP
012641: 20               NOP
012642: 20               NOP
012643: 20               NOP
012644: 20               NOP
012645: 20               NOP
012646: 20               NOP
012647: 20               NOP
012648: 20               NOP
012649: 20               NOP
01264a: 20               NOP
01264b: 20               NOP
01264c: 20               NOP
01264d: 20               NOP
01264e: 20               NOP
01264f: 20               NOP
012650: 20               NOP
012651: 20               NOP
012652: 20               NOP
012653: 20               NOP
012654: 20               NOP
012655: 20               NOP
012656: 20               NOP
012657: 20               NOP
012658: 20               NOP
012659: 20               NOP
01265a: 20               NOP
01265b: 20               NOP
01265c: 20               NOP
01265d: 20               NOP
01265e: 20               NOP
01265f: 20               NOP
012660: 20               NOP
012661: 20               NOP
012662: 20               NOP
012663: 20               NOP
012664: 20               NOP
012665: 20               NOP
012666: 20               NOP
012667: 20               NOP
012668: 20               NOP
012669: 20               NOP
01266a: 20               NOP
01266b: 20               NOP
01266c: 20               NOP
01266d: 20               NOP
01266e: 20               NOP
01266f: 20               NOP
012670: 20               NOP
012671: 20               NOP
012672: 20               NOP
012673: 20               NOP
012674: 20               NOP
012675: 20               NOP
012676: 20               NOP
012677: 20               NOP
012678: 20               NOP
012679: 20               NOP
01267a: 20               NOP
01267b: 20               NOP
01267c: 20               NOP
01267d: 20               NOP
01267e: 20               NOP
01267f: 20               NOP
012680: 20               NOP
012681: 20               NOP
012682: 20               NOP
012683: 20               NOP
012684: 20               NOP
012685: 20               NOP
012686: 20               NOP
012687: 20               NOP
012688: 20               NOP
012689: 20               NOP
01268a: 20               NOP
01268b: 20               NOP
01268c: 20               NOP
01268d: 20               NOP
01268e: 20               NOP
01268f: 20               NOP
012690: 20               NOP
012691: 20               NOP
012692: 20               NOP
012693: 20               NOP
012694: 20               NOP
012695: 20               NOP
012696: 20               NOP
012697: 20               NOP
012698: 20               NOP
012699: 20               NOP
01269a: 20               NOP
01269b: 20               NOP
01269c: 20               NOP
01269d: 20               NOP
01269e: 20               NOP
01269f: 20               NOP
0126a0: 20               NOP
0126a1: 20               NOP
0126a2: 20               NOP
0126a3: 20               NOP
0126a4: 20               NOP
0126a5: 20               NOP
0126a6: 20               NOP
0126a7: 20               NOP
0126a8: 20               NOP
0126a9: 20               NOP
0126aa: 20               NOP
0126ab: 20               NOP
0126ac: 20               NOP
0126ad: 20               NOP
0126ae: 20               NOP
0126af: 20               NOP
0126b0: 20               NOP
0126b1: 20               NOP
0126b2: 20               NOP
0126b3: 20               NOP
0126b4: 20               NOP
0126b5: 20               NOP
0126b6: 20               NOP
0126b7: 20               NOP
0126b8: 20               NOP
0126b9: 20               NOP
0126ba: 20               NOP
0126bb: 20               NOP
0126bc: 20               NOP
0126bd: 20               NOP
0126be: 20               NOP
0126bf: 20               NOP
0126c0: 20               NOP
0126c1: 20               NOP
0126c2: 20               NOP
0126c3: 20               NOP
0126c4: 20               NOP
0126c5: 20               NOP
0126c6: 20               NOP
0126c7: 20               NOP
0126c8: 20               NOP
0126c9: 20               NOP
0126ca: 20               NOP
0126cb: 20               NOP
0126cc: 20               NOP
0126cd: 20               NOP
0126ce: 20               NOP
0126cf: 20               NOP
0126d0: 20               NOP
0126d1: 20               NOP
0126d2: 20               NOP
0126d3: 20               NOP
0126d4: 20               NOP
0126d5: 20               NOP
0126d6: 20               NOP
0126d7: 20               NOP
0126d8: 20               NOP
0126d9: 20               NOP
0126da: 20               NOP
0126db: 20               NOP
0126dc: 20               NOP
0126dd: 20               NOP
0126de: 20               NOP
0126df: 20               NOP
0126e0: 20               NOP
0126e1: 20               NOP
0126e2: 20               NOP
0126e3: 20               NOP
0126e4: 20               NOP
0126e5: 20               NOP
0126e6: 20               NOP
0126e7: 20               NOP
0126e8: 20               NOP
0126e9: 20               NOP
0126ea: 20               NOP
0126eb: 20               NOP
0126ec: 20               NOP
0126ed: 20               NOP
0126ee: 20               NOP
0126ef: 20               NOP
0126f0: 20               NOP
0126f1: 20               NOP
0126f2: 20               NOP
0126f3: 20               NOP
0126f4: 20               NOP
0126f5: 20               NOP
0126f6: 20               NOP
0126f7: 20               NOP
0126f8: 20               NOP
0126f9: 20               NOP
0126fa: 20               NOP
0126fb: 20               NOP
0126fc: 20               NOP
0126fd: 20               NOP
0126fe: 20               NOP
0126ff: 20               NOP
012700: 20               NOP
012701: 20               NOP
012702: 20               NOP
012703: 20               NOP
012704: 20               NOP
012705: 20               NOP
012706: 20               NOP
012707: 20               NOP
012708: 20               NOP
012709: 20               NOP
01270a: 20               NOP
01270b: 20               NOP
01270c: 20               NOP
01270d: 20               NOP
01270e: 20               NOP
01270f: 20               NOP
012710: 20               NOP
012711: 20               NOP
012712: 20               NOP
012713: 20               NOP
012714: 20               NOP
012715: 20               NOP
012716: 20               NOP
012717: 20               NOP
012718: 20               NOP
012719: 20               NOP
01271a: 20               NOP
01271b: 20               NOP
01271c: 20               NOP
01271d: 20               NOP
01271e: 20               NOP
01271f: 20               NOP
012720: 20               NOP
012721: 20               NOP
012722: 20               NOP
012723: 20               NOP
012724: 20               NOP
012725: 20               NOP
012726: 20               NOP
012727: 20               NOP
012728: 20               NOP
012729: 20               NOP
01272a: 20               NOP
01272b: 20               NOP
01272c: 20               NOP
01272d: 20               NOP
01272e: 20               NOP
01272f: 20               NOP
012730: 20               NOP
012731: 20               NOP
012732: 20               NOP
012733: 20               NOP
012734: 20               NOP
012735: 20               NOP
012736: 20               NOP
012737: 20               NOP
012738: 20               NOP
012739: 20               NOP
01273a: 20               NOP
01273b: 20               NOP
01273c: 20               NOP
01273d: 20               NOP
01273e: 20               NOP
01273f: 20               NOP
012740: 20               NOP
012741: 20               NOP
012742: 20               NOP
012743: 20               NOP
012744: 20               NOP
012745: 20               NOP
012746: 20               NOP
012747: 20               NOP
012748: 20               NOP
012749: 20               NOP
01274a: 20               NOP
01274b: 20               NOP
01274c: 20               NOP
01274d: 20               NOP
01274e: 20               NOP
01274f: 20               NOP
012750: 20               NOP
012751: 20               NOP
012752: 20               NOP
012753: 20               NOP
012754: 20               NOP
012755: 20               NOP
012756: 20               NOP
012757: 20               NOP
012758: 20               NOP
012759: 20               NOP
01275a: 20               NOP
01275b: 20               NOP
01275c: 20               NOP
01275d: 20               NOP
01275e: 20               NOP
01275f: 20               NOP
012760: 20               NOP
012761: 20               NOP
012762: 20               NOP
012763: 20               NOP
012764: 20               NOP
012765: 20               NOP
012766: 20               NOP
012767: 20               NOP
012768: 20               NOP
012769: 20               NOP
01276a: 20               NOP
01276b: 20               NOP
01276c: 20               NOP
01276d: 20               NOP
01276e: 20               NOP
01276f: 20               NOP
012770: 20               NOP
012771: 20               NOP
012772: 20               NOP
012773: 20               NOP
012774: 20               NOP
012775: 20               NOP
012776: 20               NOP
012777: 20               NOP
012778: 20               NOP
012779: 20               NOP
01277a: 20               NOP
01277b: 20               NOP
01277c: 20               NOP
01277d: 20               NOP
01277e: 20               NOP
01277f: 20               NOP
012780: 20               NOP
012781: 20               NOP
012782: 20               NOP
012783: 20               NOP
012784: 20               NOP
012785: 20               NOP
012786: 20               NOP
012787: 20               NOP
012788: 20               NOP
012789: 20               NOP
01278a: 20               NOP
01278b: 20               NOP
01278c: 20               NOP
01278d: 20               NOP
01278e: 20               NOP
01278f: 20               NOP
012790: 20               NOP
012791: 20               NOP
012792: 20               NOP
012793: 20               NOP
012794: 20               NOP
012795: 20               NOP
012796: 20               NOP
012797: 20               NOP
012798: 20               NOP
012799: 20               NOP
01279a: 20               NOP
01279b: 20               NOP
01279c: 20               NOP
01279d: 20               NOP
01279e: 20               NOP
01279f: 20               NOP
0127a0: 20               NOP
0127a1: 20               NOP
0127a2: 20               NOP
0127a3: 20               NOP
0127a4: 20               NOP
0127a5: 20               NOP
0127a6: 20               NOP
0127a7: 20               NOP
0127a8: 20               NOP
0127a9: 20               NOP
0127aa: 20               NOP
0127ab: 20               NOP
0127ac: 20               NOP
0127ad: 20               NOP
0127ae: 20               NOP
0127af: 20               NOP
0127b0: 20               NOP
0127b1: 20               NOP
0127b2: 20               NOP
0127b3: 20               NOP
0127b4: 20               NOP
0127b5: 20               NOP
0127b6: 20               NOP
0127b7: 20               NOP
0127b8: 20               NOP
0127b9: 20               NOP
0127ba: 20               NOP
0127bb: 20               NOP
0127bc: 20               NOP
0127bd: 20               NOP
0127be: 20               NOP
0127bf: 20               NOP
0127c0: 20               NOP
0127c1: 20               NOP
0127c2: 20               NOP
0127c3: 20               NOP
0127c4: 20               NOP
0127c5: 20               NOP
0127c6: 20               NOP
0127c7: 20               NOP
0127c8: 20               NOP
0127c9: 20               NOP
0127ca: 20               NOP
0127cb: 20               NOP
0127cc: 20               NOP
0127cd: 20               NOP
0127ce: 20               NOP
0127cf: 20               NOP
0127d0: 20               NOP
0127d1: 20               NOP
0127d2: 20               NOP
0127d3: 20               NOP
0127d4: 20               NOP
0127d5: 20               NOP
0127d6: 20               NOP
0127d7: 20               NOP
0127d8: 20               NOP
0127d9: 20               NOP
0127da: 20               NOP
0127db: 20               NOP
0127dc: 20               NOP
0127dd: 20               NOP
0127de: 20               NOP
0127df: 20               NOP
0127e0: 20               NOP
0127e1: 20               NOP
0127e2: 20               NOP
0127e3: 20               NOP
0127e4: 20               NOP
0127e5: 20               NOP
0127e6: 20               NOP
0127e7: 20               NOP
0127e8: 20               NOP
0127e9: 20               NOP
0127ea: 20               NOP
0127eb: 20               NOP
0127ec: 20               NOP
0127ed: 20               NOP
0127ee: 20               NOP
0127ef: 20               NOP
0127f0: 20               NOP
0127f1: 20               NOP
0127f2: 20               NOP
0127f3: 20               NOP
0127f4: 20               NOP
0127f5: 20               NOP
0127f6: 20               NOP
0127f7: 20               NOP
0127f8: 20               NOP
0127f9: 20               NOP
0127fa: 20               NOP
0127fb: 20               NOP
0127fc: 20               NOP
0127fd: 20               NOP
0127fe: 20               NOP
0127ff: 20               NOP
012800: 20               NOP
012801: 20               NOP
012802: 20               NOP
012803: 20               NOP
012804: 20               NOP
012805: 20               NOP
012806: 20               NOP
012807: 20               NOP
012808: 20               NOP
012809: 20               NOP
01280a: 20               NOP
01280b: 20               NOP
01280c: 20               NOP
01280d: 20               NOP
01280e: 20               NOP
01280f: 20               NOP
012810: 20               NOP
012811: 20               NOP
012812: 20               NOP
012813: 20               NOP
012814: 20               NOP
012815: 20               NOP
012816: 20               NOP
012817: 20               NOP
012818: 20               NOP
012819: 20               NOP
01281a: 20               NOP
01281b: 20               NOP
01281c: 20               NOP
01281d: 20               NOP
01281e: 20               NOP
01281f: 20               NOP
012820: 20               NOP
012821: 20               NOP
012822: 20               NOP
012823: 20               NOP
012824: 20               NOP
012825: 20               NOP
012826: 20               NOP
012827: 20               NOP
012828: 20               NOP
012829: 20               NOP
01282a: 20               NOP
01282b: 20               NOP
01282c: 20               NOP
01282d: 20               NOP
01282e: 20               NOP
01282f: 20               NOP
012830: 20               NOP
012831: 20               NOP
012832: 20               NOP
012833: 20               NOP
012834: 20               NOP
012835: 20               NOP
012836: 20               NOP
012837: 20               NOP
012838: 20               NOP
012839: 20               NOP
01283a: 20               NOP
01283b: 20               NOP
01283c: 20               NOP
01283d: 20               NOP
01283e: 20               NOP
01283f: 20               NOP
012840: 20               NOP
012841: 20               NOP
012842: 20               NOP
012843: 20               NOP
012844: 20               NOP
012845: 20               NOP
012846: 20               NOP
012847: 20               NOP
012848: 20               NOP
012849: 20               NOP
01284a: 20               NOP
01284b: 20               NOP
01284c: 20               NOP
01284d: 20               NOP
01284e: 20               NOP
01284f: 20               NOP
012850: 20               NOP
012851: 20               NOP
012852: 20               NOP
012853: 20               NOP
012854: 20               NOP
012855: 20               NOP
012856: 20               NOP
012857: 20               NOP
012858: 20               NOP
012859: 20               NOP
01285a: 20               NOP
01285b: 20               NOP
01285c: 20               NOP
01285d: 20               NOP
01285e: 20               NOP
01285f: 20               NOP
012860: 20               NOP
012861: 20               NOP
012862: 20               NOP
012863: 20               NOP
012864: 20               NOP
012865: 20               NOP
012866: 20               NOP
012867: 20               NOP
012868: 20               NOP
012869: 20               NOP
01286a: 20               NOP
01286b: 20               NOP
01286c: 20               NOP
01286d: 20               NOP
01286e: 20               NOP
01286f: 20               NOP
012870: 20               NOP
012871: 20               NOP
012872: 20               NOP
012873: 20               NOP
012874: 20               NOP
012875: 20               NOP
012876: 20               NOP
012877: 20               NOP
012878: 20               NOP
012879: 20               NOP
01287a: 20               NOP
01287b: 20               NOP
01287c: 20               NOP
01287d: 20               NOP
01287e: 20               NOP
01287f: 20               NOP
012880: 20               NOP
012881: 20               NOP
012882: 20               NOP
012883: 20               NOP
012884: 20               NOP
012885: 20               NOP
012886: 20               NOP
012887: 20               NOP
012888: 20               NOP
012889: 20               NOP
01288a: 20               NOP
01288b: 20               NOP
01288c: 20               NOP
01288d: 20               NOP
01288e: 20               NOP
01288f: 20               NOP
012890: 20               NOP
012891: 20               NOP
012892: 20               NOP
012893: 20               NOP
012894: 20               NOP
012895: 20               NOP
012896: 20               NOP
012897: 20               NOP
012898: 20               NOP
012899: 20               NOP
01289a: 20               NOP
01289b: 20               NOP
01289c: 20               NOP
01289d: 20               NOP
01289e: 20               NOP
01289f: 20               NOP
0128a0: 20               NOP
0128a1: 20               NOP
0128a2: 20               NOP
0128a3: 20               NOP
0128a4: 20               NOP
0128a5: 20               NOP
0128a6: 20               NOP
0128a7: 20               NOP
0128a8: 20               NOP
0128a9: 20               NOP
0128aa: 20               NOP
0128ab: 20               NOP
0128ac: 20               NOP
0128ad: 20               NOP
0128ae: 20               NOP
0128af: 20               NOP
0128b0: 20               NOP
0128b1: 20               NOP
0128b2: 20               NOP
0128b3: 20               NOP
0128b4: 20               NOP
0128b5: 20               NOP
0128b6: 20               NOP
0128b7: 20               NOP
0128b8: 20               NOP
0128b9: 20               NOP
0128ba: 20               NOP
0128bb: 20               NOP
0128bc: 20               NOP
0128bd: 20               NOP
0128be: 20               NOP
0128bf: 20               NOP
0128c0: 20               NOP
0128c1: 20               NOP
0128c2: 20               NOP
0128c3: 20               NOP
0128c4: 20               NOP
0128c5: 20               NOP
0128c6: 20               NOP
0128c7: 20               NOP
0128c8: 20               NOP
0128c9: 20               NOP
0128ca: 20               NOP
0128cb: 20               NOP
0128cc: 20               NOP
0128cd: 20               NOP
0128ce: 20               NOP
0128cf: 20               NOP
0128d0: 20               NOP
0128d1: 20               NOP
0128d2: 20               NOP
0128d3: 20               NOP
0128d4: 20               NOP
0128d5: 20               NOP
0128d6: 20               NOP
0128d7: 20               NOP
0128d8: 20               NOP
0128d9: 20               NOP
0128da: 20               NOP
0128db: 20               NOP
0128dc: 20               NOP
0128dd: 20               NOP
0128de: 20               NOP
0128df: 20               NOP
0128e0: 20               NOP
0128e1: 20               NOP
0128e2: 20               NOP
0128e3: 20               NOP
0128e4: 20               NOP
0128e5: 20               NOP
0128e6: 20               NOP
0128e7: 20               NOP
0128e8: 20               NOP
0128e9: 20               NOP
0128ea: 20               NOP
0128eb: 20               NOP
0128ec: 20               NOP
0128ed: 20               NOP
0128ee: 20               NOP
0128ef: 20               NOP
0128f0: 20               NOP
0128f1: 20               NOP
0128f2: 20               NOP
0128f3: 20               NOP
0128f4: 20               NOP
0128f5: 20               NOP
0128f6: 20               NOP
0128f7: 20               NOP
0128f8: 20               NOP
0128f9: 20               NOP
0128fa: 20               NOP
0128fb: 20               NOP
0128fc: 20               NOP
0128fd: 20               NOP
0128fe: 20               NOP
0128ff: 20               NOP
012900: 20               NOP
012901: 20               NOP
012902: 20               NOP
012903: 20               NOP
012904: 20               NOP
012905: 20               NOP
012906: 20               NOP
012907: 20               NOP
012908: 20               NOP
012909: 20               NOP
01290a: 20               NOP
01290b: 20               NOP
01290c: 20               NOP
01290d: 20               NOP
01290e: 20               NOP
01290f: 20               NOP
012910: 20               NOP
012911: 20               NOP
012912: 20               NOP
012913: 20               NOP
012914: 20               NOP
012915: 20               NOP
012916: 20               NOP
012917: 20               NOP
012918: 20               NOP
012919: 20               NOP
01291a: 20               NOP
01291b: 20               NOP
01291c: 20               NOP
01291d: 20               NOP
01291e: 20               NOP
01291f: 20               NOP
012920: 20               NOP
012921: 20               NOP
012922: 20               NOP
012923: 20               NOP
012924: 20               NOP
012925: 20               NOP
012926: 20               NOP
012927: 20               NOP
012928: 20               NOP
012929: 20               NOP
01292a: 20               NOP
01292b: 20               NOP
01292c: 20               NOP
01292d: 20               NOP
01292e: 20               NOP
01292f: 20               NOP
012930: 20               NOP
012931: 20               NOP
012932: 20               NOP
012933: 20               NOP
012934: 20               NOP
012935: 20               NOP
012936: 20               NOP
012937: 20               NOP
012938: 20               NOP
012939: 20               NOP
01293a: 20               NOP
01293b: 20               NOP
01293c: 20               NOP
01293d: 20               NOP
01293e: 20               NOP
01293f: 20               NOP
012940: 20               NOP
012941: 20               NOP
012942: 20               NOP
012943: 20               NOP
012944: 20               NOP
012945: 20               NOP
012946: 20               NOP
012947: 20               NOP
012948: 20               NOP
012949: 20               NOP
01294a: 20               NOP
01294b: 20               NOP
01294c: 20               NOP
01294d: 20               NOP
01294e: 20               NOP
01294f: 20               NOP
012950: 20               NOP
012951: 20               NOP
012952: 20               NOP
012953: 20               NOP
012954: 20               NOP
012955: 20               NOP
012956: 20               NOP
012957: 20               NOP
012958: 20               NOP
012959: 20               NOP
01295a: 20               NOP
01295b: 20               NOP
01295c: 20               NOP
01295d: 20               NOP
01295e: 20               NOP
01295f: 20               NOP
012960: 20               NOP
012961: 20               NOP
012962: 20               NOP
012963: 20               NOP
012964: 20               NOP
012965: 20               NOP
012966: 20               NOP
012967: 20               NOP
012968: 20               NOP
012969: 20               NOP
01296a: 20               NOP
01296b: 20               NOP
01296c: 20               NOP
01296d: 20               NOP
01296e: 20               NOP
01296f: 20               NOP
012970: 20               NOP
012971: 20               NOP
012972: 20               NOP
012973: 20               NOP
012974: 20               NOP
012975: 20               NOP
012976: 20               NOP
012977: 20               NOP
012978: 20               NOP
012979: 20               NOP
01297a: 20               NOP
01297b: 20               NOP
01297c: 20               NOP
01297d: 20               NOP
01297e: 20               NOP
01297f: 20               NOP
012980: 20               NOP
012981: 20               NOP
012982: 20               NOP
012983: 20               NOP
012984: 20               NOP
012985: 20               NOP
012986: 20               NOP
012987: 20               NOP
012988: 20               NOP
012989: 20               NOP
01298a: 20               NOP
01298b: 20               NOP
01298c: 20               NOP
01298d: 20               NOP
01298e: 20               NOP
01298f: 20               NOP
012990: 20               NOP
012991: 20               NOP
012992: 20               NOP
012993: 20               NOP
012994: 20               NOP
012995: 20               NOP
012996: 20               NOP
012997: 20               NOP
012998: 20               NOP
012999: 20               NOP
01299a: 20               NOP
01299b: 20               NOP
01299c: 20               NOP
01299d: 20               NOP
01299e: 20               NOP
01299f: 20               NOP
0129a0: 20               NOP
0129a1: 20               NOP
0129a2: 20               NOP
0129a3: 20               NOP
0129a4: 20               NOP
0129a5: 20               NOP
0129a6: 20               NOP
0129a7: 20               NOP
0129a8: 20               NOP
0129a9: 20               NOP
0129aa: 20               NOP
0129ab: 20               NOP
0129ac: 20               NOP
0129ad: 20               NOP
0129ae: 20               NOP
0129af: 20               NOP
0129b0: 20               NOP
0129b1: 20               NOP
0129b2: 20               NOP
0129b3: 20               NOP
0129b4: 20               NOP
0129b5: 20               NOP
0129b6: 20               NOP
0129b7: 20               NOP
0129b8: 20               NOP
0129b9: 20               NOP
0129ba: 20               NOP
0129bb: 20               NOP
0129bc: 20               NOP
0129bd: 20               NOP
0129be: 20               NOP
0129bf: 20               NOP
0129c0: 20               NOP
0129c1: 20               NOP
0129c2: 20               NOP
0129c3: 20               NOP
0129c4: 20               NOP
0129c5: 20               NOP
0129c6: 20               NOP
0129c7: 20               NOP
0129c8: 20               NOP
0129c9: 20               NOP
0129ca: 20               NOP
0129cb: 20               NOP
0129cc: 20               NOP
0129cd: 20               NOP
0129ce: 20               NOP
0129cf: 20               NOP
0129d0: 20               NOP
0129d1: 20               NOP
0129d2: 20               NOP
0129d3: 20               NOP
0129d4: 20               NOP
0129d5: 20               NOP
0129d6: 20               NOP
0129d7: 20               NOP
0129d8: 20               NOP
0129d9: 20               NOP
0129da: 20               NOP
0129db: 20               NOP
0129dc: 20               NOP
0129dd: 20               NOP
0129de: 20               NOP
0129df: 20               NOP
0129e0: 20               NOP
0129e1: 20               NOP
0129e2: 20               NOP
0129e3: 20               NOP
0129e4: 20               NOP
0129e5: 20               NOP
0129e6: 20               NOP
0129e7: 20               NOP
0129e8: 20               NOP
0129e9: 20               NOP
0129ea: 20               NOP
0129eb: 20               NOP
0129ec: 20               NOP
0129ed: 20               NOP
0129ee: 20               NOP
0129ef: 20               NOP
0129f0: 20               NOP
0129f1: 20               NOP
0129f2: 20               NOP
0129f3: 20               NOP
0129f4: 20               NOP
0129f5: 20               NOP
0129f6: 20               NOP
0129f7: 20               NOP
0129f8: 20               NOP
0129f9: 20               NOP
0129fa: 20               NOP
0129fb: 20               NOP
0129fc: 20               NOP
0129fd: 20               NOP
0129fe: 20               NOP
0129ff: 20               NOP
012a00: 20               NOP
012a01: 20               NOP
012a02: 20               NOP
012a03: 20               NOP
012a04: 20               NOP
012a05: 20               NOP
012a06: 20               NOP
012a07: 20               NOP
012a08: 20               NOP
012a09: 20               NOP
012a0a: 20               NOP
012a0b: 20               NOP
012a0c: 20               NOP
012a0d: 20               NOP
012a0e: 20               NOP
012a0f: 20               NOP
012a10: 20               NOP
012a11: 20               NOP
012a12: 20               NOP
012a13: 20               NOP
012a14: 20               NOP
012a15: 20               NOP
012a16: 20               NOP
012a17: 20               NOP
012a18: 20               NOP
012a19: 20               NOP
012a1a: 20               NOP
012a1b: 20               NOP
012a1c: 20               NOP
012a1d: 20               NOP
012a1e: 20               NOP
012a1f: 20               NOP
012a20: 20               NOP
012a21: 20               NOP
012a22: 20               NOP
012a23: 20               NOP
012a24: 20               NOP
012a25: 20               NOP
012a26: 20               NOP
012a27: 20               NOP
012a28: 20               NOP
012a29: 20               NOP
012a2a: 20               NOP
012a2b: 20               NOP
012a2c: 20               NOP
012a2d: 20               NOP
012a2e: 20               NOP
012a2f: 20               NOP
012a30: 20               NOP
012a31: 20               NOP
012a32: 20               NOP
012a33: 20               NOP
012a34: 20               NOP
012a35: 20               NOP
012a36: 20               NOP
012a37: 20               NOP
012a38: 20               NOP
012a39: 20               NOP
012a3a: 20               NOP
012a3b: 20               NOP
012a3c: 20               NOP
012a3d: 20               NOP
012a3e: 20               NOP
012a3f: 20               NOP
012a40: 20               NOP
012a41: 20               NOP
012a42: 20               NOP
012a43: 20               NOP
012a44: 20               NOP
012a45: 20               NOP
012a46: 20               NOP
012a47: 20               NOP
012a48: 20               NOP
012a49: 20               NOP
012a4a: 20               NOP
012a4b: 20               NOP
012a4c: 20               NOP
012a4d: 20               NOP
012a4e: 20               NOP
012a4f: 20               NOP
012a50: 20               NOP
012a51: 20               NOP
012a52: 20               NOP
012a53: 20               NOP
012a54: 20               NOP
012a55: 20               NOP
012a56: 20               NOP
012a57: 20               NOP
012a58: 20               NOP
012a59: 20               NOP
012a5a: 20               NOP
012a5b: 20               NOP
012a5c: 20               NOP
012a5d: 20               NOP
012a5e: 20               NOP
012a5f: 20               NOP
012a60: 20               NOP
012a61: 20               NOP
012a62: 20               NOP
012a63: 20               NOP
012a64: 20               NOP
012a65: 20               NOP
012a66: 20               NOP
012a67: 20               NOP
012a68: 20               NOP
012a69: 20               NOP
012a6a: 20               NOP
012a6b: 20               NOP
012a6c: 20               NOP
012a6d: 20               NOP
012a6e: 20               NOP
012a6f: 20               NOP
012a70: 20               NOP
012a71: 20               NOP
012a72: 20               NOP
012a73: 20               NOP
012a74: 20               NOP
012a75: 20               NOP
012a76: 20               NOP
012a77: 20               NOP
012a78: 20               NOP
012a79: 20               NOP
012a7a: 20               NOP
012a7b: 20               NOP
012a7c: 20               NOP
012a7d: 20               NOP
012a7e: 20               NOP
012a7f: 20               NOP
012a80: 20               NOP
012a81: 20               NOP
012a82: 20               NOP
012a83: 20               NOP
012a84: 20               NOP
012a85: 20               NOP
012a86: 20               NOP
012a87: 20               NOP
012a88: 20               NOP
012a89: 20               NOP
012a8a: 20               NOP
012a8b: 20               NOP
012a8c: 20               NOP
012a8d: 20               NOP
012a8e: 20               NOP
012a8f: 20               NOP
012a90: 20               NOP
012a91: 20               NOP
012a92: 20               NOP
012a93: 20               NOP
012a94: 20               NOP
012a95: 20               NOP
012a96: 20               NOP
012a97: 20               NOP
012a98: 20               NOP
012a99: 20               NOP
012a9a: 20               NOP
012a9b: 20               NOP
012a9c: 20               NOP
012a9d: 20               NOP
012a9e: 20               NOP
012a9f: 20               NOP
012aa0: 20               NOP
012aa1: 20               NOP
012aa2: 20               NOP
012aa3: 20               NOP
012aa4: 20               NOP
012aa5: 20               NOP
012aa6: 20               NOP
012aa7: 20               NOP
012aa8: 20               NOP
012aa9: 20               NOP
012aaa: 20               NOP
012aab: 20               NOP
012aac: 20               NOP
012aad: 20               NOP
012aae: 20               NOP
012aaf: 20               NOP
012ab0: 20               NOP
012ab1: 20               NOP
012ab2: 20               NOP
012ab3: 20               NOP
012ab4: 20               NOP
012ab5: 20               NOP
012ab6: 20               NOP
012ab7: 20               NOP
012ab8: 20               NOP
012ab9: 20               NOP
012aba: 20               NOP
012abb: 20               NOP
012abc: 20               NOP
012abd: 20               NOP
012abe: 20               NOP
012abf: 20               NOP
012ac0: 20               NOP
012ac1: 20               NOP
012ac2: 20               NOP
012ac3: 20               NOP
012ac4: 20               NOP
012ac5: 20               NOP
012ac6: 20               NOP
012ac7: 20               NOP
012ac8: 20               NOP
012ac9: 20               NOP
012aca: 20               NOP
012acb: 20               NOP
012acc: 20               NOP
012acd: 20               NOP
012ace: 20               NOP
012acf: 20               NOP
012ad0: 20               NOP
012ad1: 20               NOP
012ad2: 20               NOP
012ad3: 20               NOP
012ad4: 20               NOP
012ad5: 20               NOP
012ad6: 20               NOP
012ad7: 20               NOP
012ad8: 20               NOP
012ad9: 20               NOP
012ada: 20               NOP
012adb: 20               NOP
012adc: 20               NOP
012add: 20               NOP
012ade: 20               NOP
012adf: 20               NOP
012ae0: 20               NOP
012ae1: 20               NOP
012ae2: 20               NOP
012ae3: 20               NOP
012ae4: 20               NOP
012ae5: 20               NOP
012ae6: 20               NOP
012ae7: 20               NOP
012ae8: 20               NOP
012ae9: 20               NOP
012aea: 20               NOP
012aeb: 20               NOP
012aec: 20               NOP
012aed: 20               NOP
012aee: 20               NOP
012aef: 20               NOP
012af0: 20               NOP
012af1: 20               NOP
012af2: 20               NOP
012af3: 20               NOP
012af4: 20               NOP
012af5: 20               NOP
012af6: 20               NOP
012af7: 20               NOP
012af8: 20               NOP
012af9: 20               NOP
012afa: 20               NOP
012afb: 20               NOP
012afc: 20               NOP
012afd: 20               NOP
012afe: 20               NOP
012aff: 20               NOP
012b00: 20               NOP
012b01: 20               NOP
012b02: 20               NOP
012b03: 20               NOP
012b04: 20               NOP
012b05: 20               NOP
012b06: 20               NOP
012b07: 20               NOP
012b08: 20               NOP
012b09: 20               NOP
012b0a: 20               NOP
012b0b: 20               NOP
012b0c: 20               NOP
012b0d: 20               NOP
012b0e: 20               NOP
012b0f: 20               NOP
012b10: 20               NOP
012b11: 20               NOP
012b12: 20               NOP
012b13: 20               NOP
012b14: 20               NOP
012b15: 20               NOP
012b16: 20               NOP
012b17: 20               NOP
012b18: 20               NOP
012b19: 20               NOP
012b1a: 20               NOP
012b1b: 20               NOP
012b1c: 20               NOP
012b1d: 20               NOP
012b1e: 20               NOP
012b1f: 20               NOP
012b20: 20               NOP
012b21: 20               NOP
012b22: 20               NOP
012b23: 20               NOP
012b24: 20               NOP
012b25: 20               NOP
012b26: 20               NOP
012b27: 20               NOP
012b28: 20               NOP
012b29: 20               NOP
012b2a: 20               NOP
012b2b: 20               NOP
012b2c: 20               NOP
012b2d: 20               NOP
012b2e: 20               NOP
012b2f: 20               NOP
012b30: 20               NOP
012b31: 20               NOP
012b32: 20               NOP
012b33: 20               NOP
012b34: 20               NOP
012b35: 20               NOP
012b36: 20               NOP
012b37: 20               NOP
012b38: 20               NOP
012b39: 20               NOP
012b3a: 20               NOP
012b3b: 20               NOP
012b3c: 20               NOP
012b3d: 20               NOP
012b3e: 20               NOP
012b3f: 20               NOP
012b40: 20               NOP
012b41: 20               NOP
012b42: 20               NOP
012b43: 20               NOP
012b44: 20               NOP
012b45: 20               NOP
012b46: 20               NOP
012b47: 20               NOP
012b48: 20               NOP
012b49: 20               NOP
012b4a: 20               NOP
012b4b: 20               NOP
012b4c: 20               NOP
012b4d: 20               NOP
012b4e: 20               NOP
012b4f: 20               NOP
012b50: 20               NOP
012b51: 20               NOP
012b52: 20               NOP
012b53: 20               NOP
012b54: 20               NOP
012b55: 20               NOP
012b56: 20               NOP
012b57: 20               NOP
012b58: 20               NOP
012b59: 20               NOP
012b5a: 20               NOP
012b5b: 20               NOP
012b5c: 20               NOP
012b5d: 20               NOP
012b5e: 20               NOP
012b5f: 20               NOP
012b60: 20               NOP
012b61: 20               NOP
012b62: 20               NOP
012b63: 20               NOP
012b64: 20               NOP
012b65: 20               NOP
012b66: 20               NOP
012b67: 20               NOP
012b68: 20               NOP
012b69: 20               NOP
012b6a: 20               NOP
012b6b: 20               NOP
012b6c: 20               NOP
012b6d: 20               NOP
012b6e: 20               NOP
012b6f: 20               NOP
012b70: 20               NOP
012b71: 20               NOP
012b72: 20               NOP
012b73: 20               NOP
012b74: 20               NOP
012b75: 20               NOP
012b76: 20               NOP
012b77: 20               NOP
012b78: 20               NOP
012b79: 20               NOP
012b7a: 20               NOP
012b7b: 20               NOP
012b7c: 20               NOP
012b7d: 20               NOP
012b7e: 20               NOP
012b7f: 20               NOP
012b80: 20               NOP
012b81: 20               NOP
012b82: 20               NOP
012b83: 20               NOP
012b84: 20               NOP
012b85: 20               NOP
012b86: 20               NOP
012b87: 20               NOP
012b88: 20               NOP
012b89: 20               NOP
012b8a: 20               NOP
012b8b: 20               NOP
012b8c: 20               NOP
012b8d: 20               NOP
012b8e: 20               NOP
012b8f: 20               NOP
012b90: 20               NOP
012b91: 20               NOP
012b92: 20               NOP
012b93: 20               NOP
012b94: 20               NOP
012b95: 20               NOP
012b96: 20               NOP
012b97: 20               NOP
012b98: 20               NOP
012b99: 20               NOP
012b9a: 20               NOP
012b9b: 20               NOP
012b9c: 20               NOP
012b9d: 20               NOP
012b9e: 20               NOP
012b9f: 20               NOP
012ba0: 20               NOP
012ba1: 20               NOP
012ba2: 20               NOP
012ba3: 20               NOP
012ba4: 20               NOP
012ba5: 20               NOP
012ba6: 20               NOP
012ba7: 20               NOP
012ba8: 20               NOP
012ba9: 20               NOP
012baa: 20               NOP
012bab: 20               NOP
012bac: 20               NOP
012bad: 20               NOP
012bae: 20               NOP
012baf: 20               NOP
012bb0: 20               NOP
012bb1: 20               NOP
012bb2: 20               NOP
012bb3: 20               NOP
012bb4: 20               NOP
012bb5: 20               NOP
012bb6: 20               NOP
012bb7: 20               NOP
012bb8: 20               NOP
012bb9: 20               NOP
012bba: 20               NOP
012bbb: 20               NOP
012bbc: 20               NOP
012bbd: 20               NOP
012bbe: 20               NOP
012bbf: 20               NOP
012bc0: 20               NOP
012bc1: 20               NOP
012bc2: 20               NOP
012bc3: 20               NOP
012bc4: 20               NOP
012bc5: 20               NOP
012bc6: 20               NOP
012bc7: 20               NOP
012bc8: 20               NOP
012bc9: 20               NOP
012bca: 20               NOP
012bcb: 20               NOP
012bcc: 20               NOP
012bcd: 20               NOP
012bce: 20               NOP
012bcf: 20               NOP
012bd0: 20               NOP
012bd1: 20               NOP
012bd2: 20               NOP
012bd3: 20               NOP
012bd4: 20               NOP
012bd5: 20               NOP
012bd6: 20               NOP
012bd7: 20               NOP
012bd8: 20               NOP
012bd9: 20               NOP
012bda: 20               NOP
012bdb: 20               NOP
012bdc: 20               NOP
012bdd: 20               NOP
012bde: 20               NOP
012bdf: 20               NOP
012be0: 20               NOP
012be1: 20               NOP
012be2: 20               NOP
012be3: 20               NOP
012be4: 20               NOP
012be5: 20               NOP
012be6: 20               NOP
012be7: 20               NOP
012be8: 20               NOP
012be9: 20               NOP
012bea: 20               NOP
012beb: 20               NOP
012bec: 20               NOP
012bed: 20               NOP
012bee: 20               NOP
012bef: 20               NOP
012bf0: 20               NOP
012bf1: 20               NOP
012bf2: 20               NOP
012bf3: 20               NOP
012bf4: 20               NOP
012bf5: 20               NOP
012bf6: 20               NOP
012bf7: 20               NOP
012bf8: 20               NOP
012bf9: 20               NOP
012bfa: 20               NOP
012bfb: 20               NOP
012bfc: 20               NOP
012bfd: 20               NOP
012bfe: 20               NOP
012bff: 20               NOP
012c00: 20               NOP
012c01: 20               NOP
012c02: 20               NOP
012c03: 20               NOP
012c04: 20               NOP
012c05: 20               NOP
012c06: 20               NOP
012c07: 20               NOP
012c08: 20               NOP
012c09: 20               NOP
012c0a: 20               NOP
012c0b: 20               NOP
012c0c: 20               NOP
012c0d: 20               NOP
012c0e: 20               NOP
012c0f: 20               NOP
012c10: 20               NOP
012c11: 20               NOP
012c12: 20               NOP
012c13: 20               NOP
012c14: 20               NOP
012c15: 20               NOP
012c16: 20               NOP
012c17: 20               NOP
012c18: 20               NOP
012c19: 20               NOP
012c1a: 20               NOP
012c1b: 20               NOP
012c1c: 20               NOP
012c1d: 20               NOP
012c1e: 20               NOP
012c1f: 20               NOP
012c20: 20               NOP
012c21: 20               NOP
012c22: 20               NOP
012c23: 20               NOP
012c24: 20               NOP
012c25: 20               NOP
012c26: 20               NOP
012c27: 20               NOP
012c28: 20               NOP
012c29: 20               NOP
012c2a: 20               NOP
012c2b: 20               NOP
012c2c: 20               NOP
012c2d: 20               NOP
012c2e: 20               NOP
012c2f: 20               NOP
012c30: 20               NOP
012c31: 20               NOP
012c32: 20               NOP
012c33: 20               NOP
012c34: 20               NOP
012c35: 20               NOP
012c36: 20               NOP
012c37: 20               NOP
012c38: 20               NOP
012c39: 20               NOP
012c3a: 20               NOP
012c3b: 20               NOP
012c3c: 20               NOP
012c3d: 20               NOP
012c3e: 20               NOP
012c3f: 20               NOP
012c40: 20               NOP
012c41: 20               NOP
012c42: 20               NOP
012c43: 20               NOP
012c44: 20               NOP
012c45: 20               NOP
012c46: 20               NOP
012c47: 20               NOP
012c48: 20               NOP
012c49: 20               NOP
012c4a: 20               NOP
012c4b: 20               NOP
012c4c: 20               NOP
012c4d: 20               NOP
012c4e: 20               NOP
012c4f: 20               NOP
012c50: 20               NOP
012c51: 20               NOP
012c52: 20               NOP
012c53: 20               NOP
012c54: 20               NOP
012c55: 20               NOP
012c56: 20               NOP
012c57: 20               NOP
012c58: 20               NOP
012c59: 20               NOP
012c5a: 20               NOP
012c5b: 20               NOP
012c5c: 20               NOP
012c5d: 20               NOP
012c5e: 20               NOP
012c5f: 20               NOP
012c60: 20               NOP
012c61: 20               NOP
012c62: 20               NOP
012c63: 20               NOP
012c64: 20               NOP
012c65: 20               NOP
012c66: 20               NOP
012c67: 20               NOP
012c68: 20               NOP
012c69: 20               NOP
012c6a: 20               NOP
012c6b: 20               NOP
012c6c: 20               NOP
012c6d: 20               NOP
012c6e: 20               NOP
012c6f: 20               NOP
012c70: 20               NOP
012c71: 20               NOP
012c72: 20               NOP
012c73: 20               NOP
012c74: 20               NOP
012c75: 20               NOP
012c76: 20               NOP
012c77: 20               NOP
012c78: 20               NOP
012c79: 20               NOP
012c7a: 20               NOP
012c7b: 20               NOP
012c7c: 20               NOP
012c7d: 20               NOP
012c7e: 20               NOP
012c7f: 20               NOP
012c80: 20               NOP
012c81: 20               NOP
012c82: 20               NOP
012c83: 20               NOP
012c84: 20               NOP
012c85: 20               NOP
012c86: 20               NOP
012c87: 20               NOP
012c88: 20               NOP
012c89: 20               NOP
012c8a: 20               NOP
012c8b: 20               NOP
012c8c: 20               NOP
012c8d: 20               NOP
012c8e: 20               NOP
012c8f: 20               NOP
012c90: 20               NOP
012c91: 20               NOP
012c92: 20               NOP
012c93: 20               NOP
012c94: 20               NOP
012c95: 20               NOP
012c96: 20               NOP
012c97: 20               NOP
012c98: 20               NOP
012c99: 20               NOP
012c9a: 20               NOP
012c9b: 20               NOP
012c9c: 20               NOP
012c9d: 20               NOP
012c9e: 20               NOP
012c9f: 20               NOP
012ca0: 20               NOP
012ca1: 20               NOP
012ca2: 20               NOP
012ca3: 20               NOP
012ca4: 20               NOP
012ca5: 20               NOP
012ca6: 20               NOP
012ca7: 20               NOP
012ca8: 20               NOP
012ca9: 20               NOP
012caa: 20               NOP
012cab: 20               NOP
012cac: 20               NOP
012cad: 20               NOP
012cae: 20               NOP
012caf: 20               NOP
012cb0: 20               NOP
012cb1: 20               NOP
012cb2: 20               NOP
012cb3: 20               NOP
012cb4: 20               NOP
012cb5: 20               NOP
012cb6: 20               NOP
012cb7: 20               NOP
012cb8: 20               NOP
012cb9: 20               NOP
012cba: 20               NOP
012cbb: 20               NOP
012cbc: 20               NOP
012cbd: 20               NOP
012cbe: 20               NOP
012cbf: 20               NOP
012cc0: 20               NOP
012cc1: 20               NOP
012cc2: 20               NOP
012cc3: 20               NOP
012cc4: 20               NOP
012cc5: 20               NOP
012cc6: 20               NOP
012cc7: 20               NOP
012cc8: 20               NOP
012cc9: 20               NOP
012cca: 20               NOP
012ccb: 20               NOP
012ccc: 20               NOP
012ccd: 20               NOP
012cce: 20               NOP
012ccf: 20               NOP
012cd0: 20               NOP
012cd1: 20               NOP
012cd2: 20               NOP
012cd3: 20               NOP
012cd4: 20               NOP
012cd5: 20               NOP
012cd6: 20               NOP
012cd7: 20               NOP
012cd8: 20               NOP
012cd9: 20               NOP
012cda: 20               NOP
012cdb: 20               NOP
012cdc: 20               NOP
012cdd: 20               NOP
012cde: 20               NOP
012cdf: 20               NOP
012ce0: 20               NOP
012ce1: 20               NOP
012ce2: 20               NOP
012ce3: 20               NOP
012ce4: 20               NOP
012ce5: 20               NOP
012ce6: 20               NOP
012ce7: 20               NOP
012ce8: 20               NOP
012ce9: 20               NOP
012cea: 20               NOP
012ceb: 20               NOP
012cec: 20               NOP
012ced: 20               NOP
012cee: 20               NOP
012cef: 20               NOP
012cf0: 20               NOP
012cf1: 20               NOP
012cf2: 20               NOP
012cf3: 20               NOP
012cf4: 20               NOP
012cf5: 20               NOP
012cf6: 20               NOP
012cf7: 20               NOP
012cf8: 20               NOP
012cf9: 20               NOP
012cfa: 20               NOP
012cfb: 20               NOP
012cfc: 20               NOP
012cfd: 20               NOP
012cfe: 20               NOP
012cff: 20               NOP
012d00: 20               NOP
012d01: 20               NOP
012d02: 20               NOP
012d03: 20               NOP
012d04: 20               NOP
012d05: 20               NOP
012d06: 20               NOP
012d07: 20               NOP
012d08: 20               NOP
012d09: 20               NOP
012d0a: 20               NOP
012d0b: 20               NOP
012d0c: 20               NOP
012d0d: 20               NOP
012d0e: 20               NOP
012d0f: 20               NOP
012d10: 20               NOP
012d11: 20               NOP
012d12: 20               NOP
012d13: 20               NOP
012d14: 20               NOP
012d15: 20               NOP
012d16: 20               NOP
012d17: 20               NOP
012d18: 20               NOP
012d19: 20               NOP
012d1a: 20               NOP
012d1b: 20               NOP
012d1c: 20               NOP
012d1d: 20               NOP
012d1e: 20               NOP
012d1f: 20               NOP
012d20: 20               NOP
012d21: 20               NOP
012d22: 20               NOP
012d23: 20               NOP
012d24: 20               NOP
012d25: 20               NOP
012d26: 20               NOP
012d27: 20               NOP
012d28: 20               NOP
012d29: 20               NOP
012d2a: 20               NOP
012d2b: 20               NOP
012d2c: 20               NOP
012d2d: 20               NOP
012d2e: 20               NOP
012d2f: 20               NOP
012d30: 20               NOP
012d31: 20               NOP
012d32: 20               NOP
012d33: 20               NOP
012d34: 20               NOP
012d35: 20               NOP
012d36: 20               NOP
012d37: 20               NOP
012d38: 20               NOP
012d39: 20               NOP
012d3a: 20               NOP
012d3b: 20               NOP
012d3c: 20               NOP
012d3d: 20               NOP
012d3e: 20               NOP
012d3f: 20               NOP
012d40: 20               NOP
012d41: 20               NOP
012d42: 20               NOP
012d43: 20               NOP
012d44: 20               NOP
012d45: 20               NOP
012d46: 20               NOP
012d47: 20               NOP
012d48: 20               NOP
012d49: 20               NOP
012d4a: 20               NOP
012d4b: 20               NOP
012d4c: 20               NOP
012d4d: 20               NOP
012d4e: 20               NOP
012d4f: 20               NOP
012d50: 20               NOP
012d51: 20               NOP
012d52: 20               NOP
012d53: 20               NOP
012d54: 20               NOP
012d55: 20               NOP
012d56: 20               NOP
012d57: 20               NOP
012d58: 20               NOP
012d59: 20               NOP
012d5a: 20               NOP
012d5b: 20               NOP
012d5c: 20               NOP
012d5d: 20               NOP
012d5e: 20               NOP
012d5f: 20               NOP
012d60: 20               NOP
012d61: 20               NOP
012d62: 20               NOP
012d63: 20               NOP
012d64: 20               NOP
012d65: 20               NOP
012d66: 20               NOP
012d67: 20               NOP
012d68: 20               NOP
012d69: 20               NOP
012d6a: 20               NOP
012d6b: 20               NOP
012d6c: 20               NOP
012d6d: 20               NOP
012d6e: 20               NOP
012d6f: 20               NOP
012d70: 20               NOP
012d71: 20               NOP
012d72: 20               NOP
012d73: 20               NOP
012d74: 20               NOP
012d75: 20               NOP
012d76: 20               NOP
012d77: 20               NOP
012d78: 20               NOP
012d79: 20               NOP
012d7a: 20               NOP
012d7b: 20               NOP
012d7c: 20               NOP
012d7d: 20               NOP
012d7e: 20               NOP
012d7f: 20               NOP
012d80: 20               NOP
012d81: 20               NOP
012d82: 20               NOP
012d83: 20               NOP
012d84: 20               NOP
012d85: 20               NOP
012d86: 20               NOP
012d87: 20               NOP
012d88: 20               NOP
012d89: 20               NOP
012d8a: 20               NOP
012d8b: 20               NOP
012d8c: 20               NOP
012d8d: 20               NOP
012d8e: 20               NOP
012d8f: 20               NOP
012d90: 20               NOP
012d91: 20               NOP
012d92: 20               NOP
012d93: 20               NOP
012d94: 20               NOP
012d95: 20               NOP
012d96: 20               NOP
012d97: 20               NOP
012d98: 20               NOP
012d99: 20               NOP
012d9a: 20               NOP
012d9b: 20               NOP
012d9c: 20               NOP
012d9d: 20               NOP
012d9e: 20               NOP
012d9f: 20               NOP
012da0: 20               NOP
012da1: 20               NOP
012da2: 20               NOP
012da3: 20               NOP
012da4: 20               NOP
012da5: 20               NOP
012da6: 20               NOP
012da7: 20               NOP
012da8: 20               NOP
012da9: 20               NOP
012daa: 20               NOP
012dab: 20               NOP
012dac: 20               NOP
012dad: 20               NOP
012dae: 20               NOP
012daf: 20               NOP
012db0: 20               NOP
012db1: 20               NOP
012db2: 20               NOP
012db3: 20               NOP
012db4: 20               NOP
012db5: 20               NOP
012db6: 20               NOP
012db7: 20               NOP
012db8: 20               NOP
012db9: 20               NOP
012dba: 20               NOP
012dbb: 20               NOP
012dbc: 20               NOP
012dbd: 20               NOP
012dbe: 20               NOP
012dbf: 20               NOP
012dc0: 20               NOP
012dc1: 20               NOP
012dc2: 20               NOP
012dc3: 20               NOP
012dc4: 20               NOP
012dc5: 20               NOP
012dc6: 20               NOP
012dc7: 20               NOP
012dc8: 20               NOP
012dc9: 20               NOP
012dca: 20               NOP
012dcb: 20               NOP
012dcc: 20               NOP
012dcd: 20               NOP
012dce: 20               NOP
012dcf: 20               NOP
012dd0: 20               NOP
012dd1: 20               NOP
012dd2: 20               NOP
012dd3: 20               NOP
012dd4: 20               NOP
012dd5: 20               NOP
012dd6: 20               NOP
012dd7: 20               NOP
012dd8: 20               NOP
012dd9: 20               NOP
012dda: 20               NOP
012ddb: 20               NOP
012ddc: 20               NOP
012ddd: 20               NOP
012dde: 20               NOP
012ddf: 20               NOP
012de0: 20               NOP
012de1: 20               NOP
012de2: 20               NOP
012de3: 20               NOP
012de4: 20               NOP
012de5: 20               NOP
012de6: 20               NOP
012de7: 20               NOP
012de8: 20               NOP
012de9: 20               NOP
012dea: 20               NOP
012deb: 20               NOP
012dec: 20               NOP
012ded: 20               NOP
012dee: 20               NOP
012def: 20               NOP
012df0: 20               NOP
012df1: 20               NOP
012df2: 20               NOP
012df3: 20               NOP
012df4: 20               NOP
012df5: 20               NOP
012df6: 20               NOP
012df7: 20               NOP
012df8: 20               NOP
012df9: 20               NOP
012dfa: 20               NOP
012dfb: 20               NOP
012dfc: 20               NOP
012dfd: 20               NOP
012dfe: 20               NOP
012dff: 20               NOP
012e00: 20               NOP
012e01: 20               NOP
012e02: 20               NOP
012e03: 20               NOP
012e04: 20               NOP
012e05: 20               NOP
012e06: 20               NOP
012e07: 20               NOP
012e08: 20               NOP
012e09: 20               NOP
012e0a: 20               NOP
012e0b: 20               NOP
012e0c: 20               NOP
012e0d: 20               NOP
012e0e: 20               NOP
012e0f: 20               NOP
012e10: 20               NOP
012e11: 20               NOP
012e12: 20               NOP
012e13: 20               NOP
012e14: 20               NOP
012e15: 20               NOP
012e16: 20               NOP
012e17: 20               NOP
012e18: 20               NOP
012e19: 20               NOP
012e1a: 20               NOP
012e1b: 20               NOP
012e1c: 20               NOP
012e1d: 20               NOP
012e1e: 20               NOP
012e1f: 20               NOP
012e20: 20               NOP
012e21: 20               NOP
012e22: 20               NOP
012e23: 20               NOP
012e24: 20               NOP
012e25: 20               NOP
012e26: 20               NOP
012e27: 20               NOP
012e28: 20               NOP
012e29: 20               NOP
012e2a: 20               NOP
012e2b: 20               NOP
012e2c: 20               NOP
012e2d: 20               NOP
012e2e: 20               NOP
012e2f: 20               NOP
012e30: 20               NOP
012e31: 20               NOP
012e32: 20               NOP
012e33: 20               NOP
012e34: 20               NOP
012e35: 20               NOP
012e36: 20               NOP
012e37: 20               NOP
012e38: 20               NOP
012e39: 20               NOP
012e3a: 20               NOP
012e3b: 20               NOP
012e3c: 20               NOP
012e3d: 20               NOP
012e3e: 20               NOP
012e3f: 20               NOP
012e40: 20               NOP
012e41: 20               NOP
012e42: 20               NOP
012e43: 20               NOP
012e44: 20               NOP
012e45: 20               NOP
012e46: 20               NOP
012e47: 20               NOP
012e48: 20               NOP
012e49: 20               NOP
012e4a: 20               NOP
012e4b: 20               NOP
012e4c: 20               NOP
012e4d: 20               NOP
012e4e: 20               NOP
012e4f: 20               NOP
012e50: 20               NOP
012e51: 20               NOP
012e52: 20               NOP
012e53: 20               NOP
012e54: 20               NOP
012e55: 20               NOP
012e56: 20               NOP
012e57: 20               NOP
012e58: 20               NOP
012e59: 20               NOP
012e5a: 20               NOP
012e5b: 20               NOP
012e5c: 20               NOP
012e5d: 20               NOP
012e5e: 20               NOP
012e5f: 20               NOP
012e60: 20               NOP
012e61: 20               NOP
012e62: 20               NOP
012e63: 20               NOP
012e64: 20               NOP
012e65: 20               NOP
012e66: 20               NOP
012e67: 20               NOP
012e68: 20               NOP
012e69: 20               NOP
012e6a: 20               NOP
012e6b: 20               NOP
012e6c: 20               NOP
012e6d: 20               NOP
012e6e: 20               NOP
012e6f: 20               NOP
012e70: 20               NOP
012e71: 20               NOP
012e72: 20               NOP
012e73: 20               NOP
012e74: 20               NOP
012e75: 20               NOP
012e76: 20               NOP
012e77: 20               NOP
012e78: 20               NOP
012e79: 20               NOP
012e7a: 20               NOP
012e7b: 20               NOP
012e7c: 20               NOP
012e7d: 20               NOP
012e7e: 20               NOP
012e7f: 20               NOP
012e80: 20               NOP
012e81: 20               NOP
012e82: 20               NOP
012e83: 20               NOP
012e84: 20               NOP
012e85: 20               NOP
012e86: 20               NOP
012e87: 20               NOP
012e88: 20               NOP
012e89: 20               NOP
012e8a: 20               NOP
012e8b: 20               NOP
012e8c: 20               NOP
012e8d: 20               NOP
012e8e: 20               NOP
012e8f: 20               NOP
012e90: 20               NOP
012e91: 20               NOP
012e92: 20               NOP
012e93: 20               NOP
012e94: 20               NOP
012e95: 20               NOP
012e96: 20               NOP
012e97: 20               NOP
012e98: 20               NOP
012e99: 20               NOP
012e9a: 20               NOP
012e9b: 20               NOP
012e9c: 20               NOP
012e9d: 20               NOP
012e9e: 20               NOP
012e9f: 20               NOP
012ea0: 20               NOP
012ea1: 20               NOP
012ea2: 20               NOP
012ea3: 20               NOP
012ea4: 20               NOP
012ea5: 20               NOP
012ea6: 20               NOP
012ea7: 20               NOP
012ea8: 20               NOP
012ea9: 20               NOP
012eaa: 20               NOP
012eab: 20               NOP
012eac: 20               NOP
012ead: 20               NOP
012eae: 20               NOP
012eaf: 20               NOP
012eb0: 20               NOP
012eb1: 20               NOP
012eb2: 20               NOP
012eb3: 20               NOP
012eb4: 20               NOP
012eb5: 20               NOP
012eb6: 20               NOP
012eb7: 20               NOP
012eb8: 20               NOP
012eb9: 20               NOP
012eba: 20               NOP
012ebb: 20               NOP
012ebc: 20               NOP
012ebd: 20               NOP
012ebe: 20               NOP
012ebf: 20               NOP
012ec0: 20               NOP
012ec1: 20               NOP
012ec2: 20               NOP
012ec3: 20               NOP
012ec4: 20               NOP
012ec5: 20               NOP
012ec6: 20               NOP
012ec7: 20               NOP
012ec8: 20               NOP
012ec9: 20               NOP
012eca: 20               NOP
012ecb: 20               NOP
012ecc: 20               NOP
012ecd: 20               NOP
012ece: 20               NOP
012ecf: 20               NOP
012ed0: 20               NOP
012ed1: 20               NOP
012ed2: 20               NOP
012ed3: 20               NOP
012ed4: 20               NOP
012ed5: 20               NOP
012ed6: 20               NOP
012ed7: 20               NOP
012ed8: 20               NOP
012ed9: 20               NOP
012eda: 20               NOP
012edb: 20               NOP
012edc: 20               NOP
012edd: 20               NOP
012ede: 20               NOP
012edf: 20               NOP
012ee0: 20               NOP
012ee1: 20               NOP
012ee2: 20               NOP
012ee3: 20               NOP
012ee4: 20               NOP
012ee5: 20               NOP
012ee6: 20               NOP
012ee7: 20               NOP
012ee8: 20               NOP
012ee9: 20               NOP
012eea: 20               NOP
012eeb: 20               NOP
012eec: 20               NOP
012eed: 20               NOP
012eee: 20               NOP
012eef: 20               NOP
012ef0: 20               NOP
012ef1: 20               NOP
012ef2: 20               NOP
012ef3: 20               NOP
012ef4: 20               NOP
012ef5: 20               NOP
012ef6: 20               NOP
012ef7: 20               NOP
012ef8: 20               NOP
012ef9: 20               NOP
012efa: 20               NOP
012efb: 20               NOP
012efc: 20               NOP
012efd: 20               NOP
012efe: 20               NOP
012eff: 20               NOP
012f00: 20               NOP
012f01: 20               NOP
012f02: 20               NOP
012f03: 20               NOP
012f04: 20               NOP
012f05: 20               NOP
012f06: 20               NOP
012f07: 20               NOP
012f08: 20               NOP
012f09: 20               NOP
012f0a: 20               NOP
012f0b: 20               NOP
012f0c: 20               NOP
012f0d: 20               NOP
012f0e: 20               NOP
012f0f: 20               NOP
012f10: 20               NOP
012f11: 20               NOP
012f12: 20               NOP
012f13: 20               NOP
012f14: 20               NOP
012f15: 20               NOP
012f16: 20               NOP
012f17: 20               NOP
012f18: 20               NOP
012f19: 20               NOP
012f1a: 20               NOP
012f1b: 20               NOP
012f1c: 20               NOP
012f1d: 20               NOP
012f1e: 20               NOP
012f1f: 20               NOP
012f20: 20               NOP
012f21: 20               NOP
012f22: 20               NOP
012f23: 20               NOP
012f24: 20               NOP
012f25: 20               NOP
012f26: 20               NOP
012f27: 20               NOP
012f28: 20               NOP
012f29: 20               NOP
012f2a: 20               NOP
012f2b: 20               NOP
012f2c: 20               NOP
012f2d: 20               NOP
012f2e: 20               NOP
012f2f: 20               NOP
012f30: 20               NOP
012f31: 20               NOP
012f32: 20               NOP
012f33: 20               NOP
012f34: 20               NOP
012f35: 20               NOP
012f36: 20               NOP
012f37: 20               NOP
012f38: 20               NOP
012f39: 20               NOP
012f3a: 20               NOP
012f3b: 20               NOP
012f3c: 20               NOP
012f3d: 20               NOP
012f3e: 20               NOP
012f3f: 20               NOP
012f40: 20               NOP
012f41: 20               NOP
012f42: 20               NOP
012f43: 20               NOP
012f44: 20               NOP
012f45: 20               NOP
012f46: 20               NOP
012f47: 20               NOP
012f48: 20               NOP
012f49: 20               NOP
012f4a: 20               NOP
012f4b: 20               NOP
012f4c: 20               NOP
012f4d: 20               NOP
012f4e: 20               NOP
012f4f: 20               NOP
012f50: 20               NOP
012f51: 20               NOP
012f52: 20               NOP
012f53: 20               NOP
012f54: 20               NOP
012f55: 20               NOP
012f56: 20               NOP
012f57: 20               NOP
012f58: 20               NOP
012f59: 20               NOP
012f5a: 20               NOP
012f5b: 20               NOP
012f5c: 20               NOP
012f5d: 20               NOP
012f5e: 20               NOP
012f5f: 20               NOP
012f60: 20               NOP
012f61: 20               NOP
012f62: 20               NOP
012f63: 20               NOP
012f64: 20               NOP
012f65: 20               NOP
012f66: 20               NOP
012f67: 20               NOP
012f68: 20               NOP
012f69: 20               NOP
012f6a: 20               NOP
012f6b: 20               NOP
012f6c: 20               NOP
012f6d: 20               NOP
012f6e: 20               NOP
012f6f: 20               NOP
012f70: 20               NOP
012f71: 20               NOP
012f72: 20               NOP
012f73: 20               NOP
012f74: 20               NOP
012f75: 20               NOP
012f76: 20               NOP
012f77: 20               NOP
012f78: 20               NOP
012f79: 20               NOP
012f7a: 20               NOP
012f7b: 20               NOP
012f7c: 20               NOP
012f7d: 20               NOP
012f7e: 20               NOP
012f7f: 20               NOP
012f80: 20               NOP
012f81: 20               NOP
012f82: 20               NOP
012f83: 20               NOP
012f84: 20               NOP
012f85: 20               NOP
012f86: 20               NOP
012f87: 20               NOP
012f88: 20               NOP
012f89: 20               NOP
012f8a: 20               NOP
012f8b: 20               NOP
012f8c: 20               NOP
012f8d: 20               NOP
012f8e: 20               NOP
012f8f: 20               NOP
012f90: 20               NOP
012f91: 20               NOP
012f92: 20               NOP
012f93: 20               NOP
012f94: 20               NOP
012f95: 20               NOP
012f96: 20               NOP
012f97: 20               NOP
012f98: 20               NOP
012f99: 20               NOP
012f9a: 20               NOP
012f9b: 20               NOP
012f9c: 20               NOP
012f9d: 20               NOP
012f9e: 20               NOP
012f9f: 20               NOP
012fa0: 20               NOP
012fa1: 20               NOP
012fa2: 20               NOP
012fa3: 20               NOP
012fa4: 20               NOP
012fa5: 20               NOP
012fa6: 20               NOP
012fa7: 20               NOP
012fa8: 20               NOP
012fa9: 20               NOP
012faa: 20               NOP
012fab: 20               NOP
012fac: 20               NOP
012fad: 20               NOP
012fae: 20               NOP
012faf: 20               NOP
012fb0: 20               NOP
012fb1: 20               NOP
012fb2: 20               NOP
012fb3: 20               NOP
012fb4: 20               NOP
012fb5: 20               NOP
012fb6: 20               NOP
012fb7: 20               NOP
012fb8: 20               NOP
012fb9: 20               NOP
012fba: 20               NOP
012fbb: 20               NOP
012fbc: 20               NOP
012fbd: 20               NOP
012fbe: 20               NOP
012fbf: 20               NOP
012fc0: 20               NOP
012fc1: 20               NOP
012fc2: 20               NOP
012fc3: 20               NOP
012fc4: 20               NOP
012fc5: 20               NOP
012fc6: 20               NOP
012fc7: 20               NOP
012fc8: 20               NOP
012fc9: 20               NOP
012fca: 20               NOP
012fcb: 20               NOP
012fcc: 20               NOP
012fcd: 20               NOP
012fce: 20               NOP
012fcf: 20               NOP
012fd0: 20               NOP
012fd1: 20               NOP
012fd2: 20               NOP
012fd3: 20               NOP
012fd4: 20               NOP
012fd5: 20               NOP
012fd6: 20               NOP
012fd7: 20               NOP
012fd8: 20               NOP
012fd9: 20               NOP
012fda: 20               NOP
012fdb: 20               NOP
012fdc: 20               NOP
012fdd: 20               NOP
012fde: 20               NOP
012fdf: 20               NOP
012fe0: 20               NOP
012fe1: 20               NOP
012fe2: 20               NOP
012fe3: 20               NOP
012fe4: 20               NOP
012fe5: 20               NOP
012fe6: 20               NOP
012fe7: 20               NOP
012fe8: 20               NOP
012fe9: 20               NOP
012fea: 20               NOP
012feb: 20               NOP
012fec: 20               NOP
012fed: 20               NOP
012fee: 20               NOP
012fef: 20               NOP
012ff0: 20               NOP
012ff1: 20               NOP
012ff2: 20               NOP
012ff3: 20               NOP
012ff4: 20               NOP
012ff5: 20               NOP
012ff6: 20               NOP
012ff7: 20               NOP
012ff8: 20               NOP
012ff9: 20               NOP
012ffa: 20               NOP
012ffb: 20               NOP
012ffc: 20               NOP
012ffd: 20               NOP
012ffe: 20               NOP
012fff: 20               NOP
013000: 20               NOP
013001: 20               NOP
013002: 20               NOP
013003: 20               NOP
013004: 20               NOP
013005: 20               NOP
013006: 20               NOP
013007: 20               NOP
013008: 20               NOP
013009: 20               NOP
01300a: 20               NOP
01300b: 20               NOP
01300c: 20               NOP
01300d: 20               NOP
01300e: 20               NOP
01300f: 20               NOP
013010: 20               NOP
013011: 20               NOP
013012: 20               NOP
013013: 20               NOP
013014: 20               NOP
013015: 20               NOP
013016: 20               NOP
013017: 20               NOP
013018: 20               NOP
013019: 20               NOP
01301a: 20               NOP
01301b: 20               NOP
01301c: 20               NOP
01301d: 20               NOP
01301e: 20               NOP
01301f: 20               NOP
013020: 20               NOP
013021: 20               NOP
013022: 20               NOP
013023: 20               NOP
013024: 20               NOP
013025: 20               NOP
013026: 20               NOP
013027: 20               NOP
013028: 20               NOP
013029: 20               NOP
01302a: 20               NOP
01302b: 20               NOP
01302c: 20               NOP
01302d: 20               NOP
01302e: 20               NOP
01302f: 20               NOP
013030: 20               NOP
013031: 20               NOP
013032: 20               NOP
013033: 20               NOP
013034: 20               NOP
013035: 20               NOP
013036: 20               NOP
013037: 20               NOP
013038: 20               NOP
013039: 20               NOP
01303a: 20               NOP
01303b: 20               NOP
01303c: 20               NOP
01303d: 20               NOP
01303e: 20               NOP
01303f: 20               NOP
013040: 20               NOP
013041: 20               NOP
013042: 20               NOP
013043: 20               NOP
013044: 20               NOP
013045: 20               NOP
013046: 20               NOP
013047: 20               NOP
013048: 20               NOP
013049: 20               NOP
01304a: 20               NOP
01304b: 20               NOP
01304c: 20               NOP
01304d: 20               NOP
01304e: 20               NOP
01304f: 20               NOP
013050: 20               NOP
013051: 20               NOP
013052: 20               NOP
013053: 20               NOP
013054: 20               NOP
013055: 20               NOP
013056: 20               NOP
013057: 20               NOP
013058: 20               NOP
013059: 20               NOP
01305a: 20               NOP
01305b: 20               NOP
01305c: 20               NOP
01305d: 20               NOP
01305e: 20               NOP
01305f: 20               NOP
013060: 20               NOP
013061: 20               NOP
013062: 20               NOP
013063: 20               NOP
013064: 20               NOP
013065: 20               NOP
013066: 20               NOP
013067: 20               NOP
013068: 20               NOP
013069: 20               NOP
01306a: 20               NOP
01306b: 20               NOP
01306c: 20               NOP
01306d: 20               NOP
01306e: 20               NOP
01306f: 20               NOP
013070: 20               NOP
013071: 20               NOP
013072: 20               NOP
013073: 20               NOP
013074: 20               NOP
013075: 20               NOP
013076: 20               NOP
013077: 20               NOP
013078: 20               NOP
013079: 20               NOP
01307a: 20               NOP
01307b: 20               NOP
01307c: 20               NOP
01307d: 20               NOP
01307e: 20               NOP
01307f: 20               NOP
013080: 20               NOP
013081: 20               NOP
013082: 20               NOP
013083: 20               NOP
013084: 20               NOP
013085: 20               NOP
013086: 20               NOP
013087: 20               NOP
013088: 20               NOP
013089: 20               NOP
01308a: 20               NOP
01308b: 20               NOP
01308c: 20               NOP
01308d: 20               NOP
01308e: 20               NOP
01308f: 20               NOP
013090: 20               NOP
013091: 20               NOP
013092: 20               NOP
013093: 20               NOP
013094: 20               NOP
013095: 20               NOP
013096: 20               NOP
013097: 20               NOP
013098: 20               NOP
013099: 20               NOP
01309a: 20               NOP
01309b: 20               NOP
01309c: 20               NOP
01309d: 20               NOP
01309e: 20               NOP
01309f: 20               NOP
0130a0: 20               NOP
0130a1: 20               NOP
0130a2: 20               NOP
0130a3: 20               NOP
0130a4: 20               NOP
0130a5: 20               NOP
0130a6: 20               NOP
0130a7: 20               NOP
0130a8: 20               NOP
0130a9: 20               NOP
0130aa: 20               NOP
0130ab: 20               NOP
0130ac: 20               NOP
0130ad: 20               NOP
0130ae: 20               NOP
0130af: 20               NOP
0130b0: 20               NOP
0130b1: 20               NOP
0130b2: 20               NOP
0130b3: 20               NOP
0130b4: 20               NOP
0130b5: 20               NOP
0130b6: 20               NOP
0130b7: 20               NOP
0130b8: 20               NOP
0130b9: 20               NOP
0130ba: 20               NOP
0130bb: 20               NOP
0130bc: 20               NOP
0130bd: 20               NOP
0130be: 20               NOP
0130bf: 20               NOP
0130c0: 20               NOP
0130c1: 20               NOP
0130c2: 20               NOP
0130c3: 20               NOP
0130c4: 20               NOP
0130c5: 20               NOP
0130c6: 20               NOP
0130c7: 20               NOP
0130c8: 20               NOP
0130c9: 20               NOP
0130ca: 20               NOP
0130cb: 20               NOP
0130cc: 20               NOP
0130cd: 20               NOP
0130ce: 20               NOP
0130cf: 20               NOP
0130d0: 20               NOP
0130d1: 20               NOP
0130d2: 20               NOP
0130d3: 20               NOP
0130d4: 20               NOP
0130d5: 20               NOP
0130d6: 20               NOP
0130d7: 20               NOP
0130d8: 20               NOP
0130d9: 20               NOP
0130da: 20               NOP
0130db: 20               NOP
0130dc: 20               NOP
0130dd: 20               NOP
0130de: 20               NOP
0130df: 20               NOP
0130e0: 20               NOP
0130e1: 20               NOP
0130e2: 20               NOP
0130e3: 20               NOP
0130e4: 20               NOP
0130e5: 20               NOP
0130e6: 20               NOP
0130e7: 20               NOP
0130e8: 20               NOP
0130e9: 20               NOP
0130ea: 20               NOP
0130eb: 20               NOP
0130ec: 20               NOP
0130ed: 20               NOP
0130ee: 20               NOP
0130ef: 20               NOP
0130f0: 20               NOP
0130f1: 20               NOP
0130f2: 20               NOP
0130f3: 20               NOP
0130f4: 20               NOP
0130f5: 20               NOP
0130f6: 20               NOP
0130f7: 20               NOP
0130f8: 20               NOP
0130f9: 20               NOP
0130fa: 20               NOP
0130fb: 20               NOP
0130fc: 20               NOP
0130fd: 20               NOP
0130fe: 20               NOP
0130ff: 20               NOP
013100: 20               NOP
013101: 20               NOP
013102: 20               NOP
013103: 20               NOP
013104: 20               NOP
013105: 20               NOP
013106: 20               NOP
013107: 20               NOP
013108: 20               NOP
013109: 20               NOP
01310a: 20               NOP
01310b: 20               NOP
01310c: 20               NOP
01310d: 20               NOP
01310e: 20               NOP
01310f: 20               NOP
013110: 20               NOP
013111: 20               NOP
013112: 20               NOP
013113: 20               NOP
013114: 20               NOP
013115: 20               NOP
013116: 20               NOP
013117: 20               NOP
013118: 20               NOP
013119: 20               NOP
01311a: 20               NOP
01311b: 20               NOP
01311c: 20               NOP
01311d: 20               NOP
01311e: 20               NOP
01311f: 20               NOP
013120: 20               NOP
013121: 20               NOP
013122: 20               NOP
013123: 20               NOP
013124: 20               NOP
013125: 20               NOP
013126: 20               NOP
013127: 20               NOP
013128: 20               NOP
013129: 20               NOP
01312a: 20               NOP
01312b: 20               NOP
01312c: 20               NOP
01312d: 20               NOP
01312e: 20               NOP
01312f: 20               NOP
013130: 20               NOP
013131: 20               NOP
013132: 20               NOP
013133: 20               NOP
013134: 20               NOP
013135: 20               NOP
013136: 20               NOP
013137: 20               NOP
013138: 20               NOP
013139: 20               NOP
01313a: 20               NOP
01313b: 20               NOP
01313c: 20               NOP
01313d: 20               NOP
01313e: 20               NOP
01313f: 20               NOP
013140: 20               NOP
013141: 20               NOP
013142: 20               NOP
013143: 20               NOP
013144: 20               NOP
013145: 20               NOP
013146: 20               NOP
013147: 20               NOP
013148: 20               NOP
013149: 20               NOP
01314a: 20               NOP
01314b: 20               NOP
01314c: 20               NOP
01314d: 20               NOP
01314e: 20               NOP
01314f: 20               NOP
013150: 20               NOP
013151: 20               NOP
013152: 20               NOP
013153: 20               NOP
013154: 20               NOP
013155: 20               NOP
013156: 20               NOP
013157: 20               NOP
013158: 20               NOP
013159: 20               NOP
01315a: 20               NOP
01315b: 20               NOP
01315c: 20               NOP
01315d: 20               NOP
01315e: 20               NOP
01315f: 20               NOP
013160: 20               NOP
013161: 20               NOP
013162: 20               NOP
013163: 20               NOP
013164: 20               NOP
013165: 20               NOP
013166: 20               NOP
013167: 20               NOP
013168: 20               NOP
013169: 20               NOP
01316a: 20               NOP
01316b: 20               NOP
01316c: 20               NOP
01316d: 20               NOP
01316e: 20               NOP
01316f: 20               NOP
013170: 20               NOP
013171: 20               NOP
013172: 20               NOP
013173: 20               NOP
013174: 20               NOP
013175: 20               NOP
013176: 20               NOP
013177: 20               NOP
013178: 20               NOP
013179: 20               NOP
01317a: 20               NOP
01317b: 20               NOP
01317c: 20               NOP
01317d: 20               NOP
01317e: 20               NOP
01317f: 20               NOP
013180: 20               NOP
013181: 20               NOP
013182: 20               NOP
013183: 20               NOP
013184: 20               NOP
013185: 20               NOP
013186: 20               NOP
013187: 20               NOP
013188: 20               NOP
013189: 20               NOP
01318a: 20               NOP
01318b: 20               NOP
01318c: 20               NOP
01318d: 20               NOP
01318e: 20               NOP
01318f: 20               NOP
013190: 20               NOP
013191: 20               NOP
013192: 20               NOP
013193: 20               NOP
013194: 20               NOP
013195: 20               NOP
013196: 20               NOP
013197: 20               NOP
013198: 20               NOP
013199: 20               NOP
01319a: 20               NOP
01319b: 20               NOP
01319c: 20               NOP
01319d: 20               NOP
01319e: 20               NOP
01319f: 20               NOP
0131a0: 20               NOP
0131a1: 20               NOP
0131a2: 20               NOP
0131a3: 20               NOP
0131a4: 20               NOP
0131a5: 20               NOP
0131a6: 20               NOP
0131a7: 20               NOP
0131a8: 20               NOP
0131a9: 20               NOP
0131aa: 20               NOP
0131ab: 20               NOP
0131ac: 20               NOP
0131ad: 20               NOP
0131ae: 20               NOP
0131af: 20               NOP
0131b0: 20               NOP
0131b1: 20               NOP
0131b2: 20               NOP
0131b3: 20               NOP
0131b4: 20               NOP
0131b5: 20               NOP
0131b6: 20               NOP
0131b7: 20               NOP
0131b8: 20               NOP
0131b9: 20               NOP
0131ba: 20               NOP
0131bb: 20               NOP
0131bc: 20               NOP
0131bd: 20               NOP
0131be: 20               NOP
0131bf: 20               NOP
0131c0: 20               NOP
0131c1: 20               NOP
0131c2: 20               NOP
0131c3: 20               NOP
0131c4: 20               NOP
0131c5: 20               NOP
0131c6: 20               NOP
0131c7: 20               NOP
0131c8: 20               NOP
0131c9: 20               NOP
0131ca: 20               NOP
0131cb: 20               NOP
0131cc: 20               NOP
0131cd: 20               NOP
0131ce: 20               NOP
0131cf: 20               NOP
0131d0: 20               NOP
0131d1: 20               NOP
0131d2: 20               NOP
0131d3: 20               NOP
0131d4: 20               NOP
0131d5: 20               NOP
0131d6: 20               NOP
0131d7: 20               NOP
0131d8: 20               NOP
0131d9: 20               NOP
0131da: 20               NOP
0131db: 20               NOP
0131dc: 20               NOP
0131dd: 20               NOP
0131de: 20               NOP
0131df: 20               NOP
0131e0: 20               NOP
0131e1: 20               NOP
0131e2: 20               NOP
0131e3: 20               NOP
0131e4: 20               NOP
0131e5: 20               NOP
0131e6: 20               NOP
0131e7: 20               NOP
0131e8: 20               NOP
0131e9: 20               NOP
0131ea: 20               NOP
0131eb: 20               NOP
0131ec: 20               NOP
0131ed: 20               NOP
0131ee: 20               NOP
0131ef: 20               NOP
0131f0: 20               NOP
0131f1: 20               NOP
0131f2: 20               NOP
0131f3: 20               NOP
0131f4: 20               NOP
0131f5: 20               NOP
0131f6: 20               NOP
0131f7: 20               NOP
0131f8: 20               NOP
0131f9: 20               NOP
0131fa: 20               NOP
0131fb: 20               NOP
0131fc: 20               NOP
0131fd: 20               NOP
0131fe: 20               NOP
0131ff: 20               NOP
013200: 20               NOP
013201: 20               NOP
013202: 20               NOP
013203: 20               NOP
013204: 20               NOP
013205: 20               NOP
013206: 20               NOP
013207: 20               NOP
013208: 20               NOP
013209: 20               NOP
01320a: 20               NOP
01320b: 20               NOP
01320c: 20               NOP
01320d: 20               NOP
01320e: 20               NOP
01320f: 20               NOP
013210: 20               NOP
013211: 20               NOP
013212: 20               NOP
013213: 20               NOP
013214: 20               NOP
013215: 20               NOP
013216: 20               NOP
013217: 20               NOP
013218: 20               NOP
013219: 20               NOP
01321a: 20               NOP
01321b: 20               NOP
01321c: 20               NOP
01321d: 20               NOP
01321e: 20               NOP
01321f: 20               NOP
013220: 20               NOP
013221: 20               NOP
013222: 20               NOP
013223: 20               NOP
013224: 20               NOP
013225: 20               NOP
013226: 20               NOP
013227: 20               NOP
013228: 20               NOP
013229: 20               NOP
01322a: 20               NOP
01322b: 20               NOP
01322c: 20               NOP
01322d: 20               NOP
01322e: 20               NOP
01322f: 20               NOP
013230: 20               NOP
013231: 20               NOP
013232: 20               NOP
013233: 20               NOP
013234: 20               NOP
013235: 20               NOP
013236: 20               NOP
013237: 20               NOP
013238: 20               NOP
013239: 20               NOP
01323a: 20               NOP
01323b: 20               NOP
01323c: 20               NOP
01323d: 20               NOP
01323e: 20               NOP
01323f: 20               NOP
013240: 20               NOP
013241: 20               NOP
013242: 20               NOP
013243: 20               NOP
013244: 20               NOP
013245: 20               NOP
013246: 20               NOP
013247: 20               NOP
013248: 20               NOP
013249: 20               NOP
01324a: 20               NOP
01324b: 20               NOP
01324c: 20               NOP
01324d: 20               NOP
01324e: 20               NOP
01324f: 20               NOP
013250: 20               NOP
013251: 20               NOP
013252: 20               NOP
013253: 20               NOP
013254: 20               NOP
013255: 20               NOP
013256: 20               NOP
013257: 20               NOP
013258: 20               NOP
013259: 20               NOP
01325a: 20               NOP
01325b: 20               NOP
01325c: 20               NOP
01325d: 20               NOP
01325e: 20               NOP
01325f: 20               NOP
013260: 20               NOP
013261: 20               NOP
013262: 20               NOP
013263: 20               NOP
013264: 20               NOP
013265: 20               NOP
013266: 20               NOP
013267: 20               NOP
013268: 20               NOP
013269: 20               NOP
01326a: 20               NOP
01326b: 20               NOP
01326c: 20               NOP
01326d: 20               NOP
01326e: 20               NOP
01326f: 20               NOP
013270: 20               NOP
013271: 20               NOP
013272: 20               NOP
013273: 20               NOP
013274: 20               NOP
013275: 20               NOP
013276: 20               NOP
013277: 20               NOP
013278: 20               NOP
013279: 20               NOP
01327a: 20               NOP
01327b: 20               NOP
01327c: 20               NOP
01327d: 20               NOP
01327e: 20               NOP
01327f: 20               NOP
013280: 20               NOP
013281: 20               NOP
013282: 20               NOP
013283: 20               NOP
013284: 20               NOP
013285: 20               NOP
013286: 20               NOP
013287: 20               NOP
013288: 20               NOP
013289: 20               NOP
01328a: 20               NOP
01328b: 20               NOP
01328c: 20               NOP
01328d: 20               NOP
01328e: 20               NOP
01328f: 20               NOP
013290: 20               NOP
013291: 20               NOP
013292: 20               NOP
013293: 20               NOP
013294: 20               NOP
013295: 20               NOP
013296: 20               NOP
013297: 20               NOP
013298: 20               NOP
013299: 20               NOP
01329a: 20               NOP
01329b: 20               NOP
01329c: 20               NOP
01329d: 20               NOP
01329e: 20               NOP
01329f: 20               NOP
0132a0: 20               NOP
0132a1: 20               NOP
0132a2: 20               NOP
0132a3: 20               NOP
0132a4: 20               NOP
0132a5: 20               NOP
0132a6: 20               NOP
0132a7: 20               NOP
0132a8: 20               NOP
0132a9: 20               NOP
0132aa: 20               NOP
0132ab: 20               NOP
0132ac: 20               NOP
0132ad: 20               NOP
0132ae: 20               NOP
0132af: 20               NOP
0132b0: 20               NOP
0132b1: 20               NOP
0132b2: 20               NOP
0132b3: 20               NOP
0132b4: 20               NOP
0132b5: 20               NOP
0132b6: 20               NOP
0132b7: 20               NOP
0132b8: 20               NOP
0132b9: 20               NOP
0132ba: 20               NOP
0132bb: 20               NOP
0132bc: 20               NOP
0132bd: 20               NOP
0132be: 20               NOP
0132bf: 20               NOP
0132c0: 20               NOP
0132c1: 20               NOP
0132c2: 20               NOP
0132c3: 20               NOP
0132c4: 20               NOP
0132c5: 20               NOP
0132c6: 20               NOP
0132c7: 20               NOP
0132c8: 20               NOP
0132c9: 20               NOP
0132ca: 20               NOP
0132cb: 20               NOP
0132cc: 20               NOP
0132cd: 20               NOP
0132ce: 20               NOP
0132cf: 20               NOP
0132d0: 20               NOP
0132d1: 20               NOP
0132d2: 20               NOP
0132d3: 20               NOP
0132d4: 20               NOP
0132d5: 20               NOP
0132d6: 20               NOP
0132d7: 20               NOP
0132d8: 20               NOP
0132d9: 20               NOP
0132da: 20               NOP
0132db: 20               NOP
0132dc: 20               NOP
0132dd: 20               NOP
0132de: 20               NOP
0132df: 20               NOP
0132e0: 20               NOP
0132e1: 20               NOP
0132e2: 20               NOP
0132e3: 20               NOP
0132e4: 20               NOP
0132e5: 20               NOP
0132e6: 20               NOP
0132e7: 20               NOP
0132e8: 20               NOP
0132e9: 20               NOP
0132ea: 20               NOP
0132eb: 20               NOP
0132ec: 20               NOP
0132ed: 20               NOP
0132ee: 20               NOP
0132ef: 20               NOP
0132f0: 20               NOP
0132f1: 20               NOP
0132f2: 20               NOP
0132f3: 20               NOP
0132f4: 20               NOP
0132f5: 20               NOP
0132f6: 20               NOP
0132f7: 20               NOP
0132f8: 20               NOP
0132f9: 20               NOP
0132fa: 20               NOP
0132fb: 20               NOP
0132fc: 20               NOP
0132fd: 20               NOP
0132fe: 20               NOP
0132ff: 20               NOP
013300: 20               NOP
013301: 20               NOP
013302: 20               NOP
013303: 20               NOP
013304: 20               NOP
013305: 20               NOP
013306: 20               NOP
013307: 20               NOP
013308: 20               NOP
013309: 20               NOP
01330a: 20               NOP
01330b: 20               NOP
01330c: 20               NOP
01330d: 20               NOP
01330e: 20               NOP
01330f: 20               NOP
013310: 20               NOP
013311: 20               NOP
013312: 20               NOP
013313: 20               NOP
013314: 20               NOP
013315: 20               NOP
013316: 20               NOP
013317: 20               NOP
013318: 20               NOP
013319: 20               NOP
01331a: 20               NOP
01331b: 20               NOP
01331c: 20               NOP
01331d: 20               NOP
01331e: 20               NOP
01331f: 20               NOP
013320: 20               NOP
013321: 20               NOP
013322: 20               NOP
013323: 20               NOP
013324: 20               NOP
013325: 20               NOP
013326: 20               NOP
013327: 20               NOP
013328: 20               NOP
013329: 20               NOP
01332a: 20               NOP
01332b: 20               NOP
01332c: 20               NOP
01332d: 20               NOP
01332e: 20               NOP
01332f: 20               NOP
013330: 20               NOP
013331: 20               NOP
013332: 20               NOP
013333: 20               NOP
013334: 20               NOP
013335: 20               NOP
013336: 20               NOP
013337: 20               NOP
013338: 20               NOP
013339: 20               NOP
01333a: 20               NOP
01333b: 20               NOP
01333c: 20               NOP
01333d: 20               NOP
01333e: 20               NOP
01333f: 20               NOP
013340: 20               NOP
013341: 20               NOP
013342: 20               NOP
013343: 20               NOP
013344: 20               NOP
013345: 20               NOP
013346: 20               NOP
013347: 20               NOP
013348: 20               NOP
013349: 20               NOP
01334a: 20               NOP
01334b: 20               NOP
01334c: 20               NOP
01334d: 20               NOP
01334e: 20               NOP
01334f: 20               NOP
013350: 20               NOP
013351: 20               NOP
013352: 20               NOP
013353: 20               NOP
013354: 20               NOP
013355: 20               NOP
013356: 20               NOP
013357: 20               NOP
013358: 20               NOP
013359: 20               NOP
01335a: 20               NOP
01335b: 20               NOP
01335c: 20               NOP
01335d: 20               NOP
01335e: 20               NOP
01335f: 20               NOP
013360: 20               NOP
013361: 20               NOP
013362: 20               NOP
013363: 20               NOP
013364: 20               NOP
013365: 20               NOP
013366: 20               NOP
013367: 20               NOP
013368: 20               NOP
013369: 20               NOP
01336a: 20               NOP
01336b: 20               NOP
01336c: 20               NOP
01336d: 20               NOP
01336e: 20               NOP
01336f: 20               NOP
013370: 20               NOP
013371: 20               NOP
013372: 20               NOP
013373: 20               NOP
013374: 20               NOP
013375: 20               NOP
013376: 20               NOP
013377: 20               NOP
013378: 20               NOP
013379: 20               NOP
01337a: 20               NOP
01337b: 20               NOP
01337c: 20               NOP
01337d: 20               NOP
01337e: 20               NOP
01337f: 20               NOP
013380: 20               NOP
013381: 20               NOP
013382: 20               NOP
013383: 20               NOP
013384: 20               NOP
013385: 20               NOP
013386: 20               NOP
013387: 20               NOP
013388: 20               NOP
013389: 20               NOP
01338a: 20               NOP
01338b: 20               NOP
01338c: 20               NOP
01338d: 20               NOP
01338e: 20               NOP
01338f: 20               NOP
013390: 20               NOP
013391: 20               NOP
013392: 20               NOP
013393: 20               NOP
013394: 20               NOP
013395: 20               NOP
013396: 20               NOP
013397: 20               NOP
013398: 20               NOP
013399: 20               NOP
01339a: 20               NOP
01339b: 20               NOP
01339c: 20               NOP
01339d: 20               NOP
01339e: 20               NOP
01339f: 20               NOP
0133a0: 20               NOP
0133a1: 20               NOP
0133a2: 20               NOP
0133a3: 20               NOP
0133a4: 20               NOP
0133a5: 20               NOP
0133a6: 20               NOP
0133a7: 20               NOP
0133a8: 20               NOP
0133a9: 20               NOP
0133aa: 20               NOP
0133ab: 20               NOP
0133ac: 20               NOP
0133ad: 20               NOP
0133ae: 20               NOP
0133af: 20               NOP
0133b0: 20               NOP
0133b1: 20               NOP
0133b2: 20               NOP
0133b3: 20               NOP
0133b4: 20               NOP
0133b5: 20               NOP
0133b6: 20               NOP
0133b7: 20               NOP
0133b8: 20               NOP
0133b9: 20               NOP
0133ba: 20               NOP
0133bb: 20               NOP
0133bc: 20               NOP
0133bd: 20               NOP
0133be: 20               NOP
0133bf: 20               NOP
0133c0: 20               NOP
0133c1: 20               NOP
0133c2: 20               NOP
0133c3: 20               NOP
0133c4: 20               NOP
0133c5: 20               NOP
0133c6: 20               NOP
0133c7: 20               NOP
0133c8: 20               NOP
0133c9: 20               NOP
0133ca: 20               NOP
0133cb: 20               NOP
0133cc: 20               NOP
0133cd: 20               NOP
0133ce: 20               NOP
0133cf: 20               NOP
0133d0: 20               NOP
0133d1: 20               NOP
0133d2: 20               NOP
0133d3: 20               NOP
0133d4: 20               NOP
0133d5: 20               NOP
0133d6: 20               NOP
0133d7: 20               NOP
0133d8: 20               NOP
0133d9: 20               NOP
0133da: 20               NOP
0133db: 20               NOP
0133dc: 20               NOP
0133dd: 20               NOP
0133de: 20               NOP
0133df: 20               NOP
0133e0: 20               NOP
0133e1: 20               NOP
0133e2: 20               NOP
0133e3: 20               NOP
0133e4: 20               NOP
0133e5: 20               NOP
0133e6: 20               NOP
0133e7: 20               NOP
0133e8: 20               NOP
0133e9: 20               NOP
0133ea: 20               NOP
0133eb: 20               NOP
0133ec: 20               NOP
0133ed: 20               NOP
0133ee: 20               NOP
0133ef: 20               NOP
0133f0: 20               NOP
0133f1: 20               NOP
0133f2: 20               NOP
0133f3: 20               NOP
0133f4: 20               NOP
0133f5: 20               NOP
0133f6: 20               NOP
0133f7: 20               NOP
0133f8: 20               NOP
0133f9: 20               NOP
0133fa: 20               NOP
0133fb: 20               NOP
0133fc: 20               NOP
0133fd: 20               NOP
0133fe: 20               NOP
0133ff: 20               NOP
013400: 20               NOP
013401: 20               NOP
013402: 20               NOP
013403: 20               NOP
013404: 20               NOP
013405: 20               NOP
013406: 20               NOP
013407: 20               NOP
013408: 20               NOP
013409: 20               NOP
01340a: 20               NOP
01340b: 20               NOP
01340c: 20               NOP
01340d: 20               NOP
01340e: 20               NOP
01340f: 20               NOP
013410: 20               NOP
013411: 20               NOP
013412: 20               NOP
013413: 20               NOP
013414: 20               NOP
013415: 20               NOP
013416: 20               NOP
013417: 20               NOP
013418: 20               NOP
013419: 20               NOP
01341a: 20               NOP
01341b: 20               NOP
01341c: 20               NOP
01341d: 20               NOP
01341e: 20               NOP
01341f: 20               NOP
013420: 20               NOP
013421: 20               NOP
013422: 20               NOP
013423: 20               NOP
013424: 20               NOP
013425: 20               NOP
013426: 20               NOP
013427: 20               NOP
013428: 20               NOP
013429: 20               NOP
01342a: 20               NOP
01342b: 20               NOP
01342c: 20               NOP
01342d: 20               NOP
01342e: 20               NOP
01342f: 20               NOP
013430: 20               NOP
013431: 20               NOP
013432: 20               NOP
013433: 20               NOP
013434: 20               NOP
013435: 20               NOP
013436: 20               NOP
013437: 20               NOP
013438: 20               NOP
013439: 20               NOP
01343a: 20               NOP
01343b: 20               NOP
01343c: 20               NOP
01343d: 20               NOP
01343e: 20               NOP
01343f: 20               NOP
013440: 20               NOP
013441: 20               NOP
013442: 20               NOP
013443: 20               NOP
013444: 20               NOP
013445: 20               NOP
013446: 20               NOP
013447: 20               NOP
013448: 20               NOP
013449: 20               NOP
01344a: 20               NOP
01344b: 20               NOP
01344c: 20               NOP
01344d: 20               NOP
01344e: 20               NOP
01344f: 20               NOP
013450: 20               NOP
013451: 20               NOP
013452: 20               NOP
013453: 20               NOP
013454: 20               NOP
013455: 20               NOP
013456: 20               NOP
013457: 20               NOP
013458: 20               NOP
013459: 20               NOP
01345a: 20               NOP
01345b: 20               NOP
01345c: 20               NOP
01345d: 20               NOP
01345e: 20               NOP
01345f: 20               NOP
013460: 20               NOP
013461: 20               NOP
013462: 20               NOP
013463: 20               NOP
013464: 20               NOP
013465: 20               NOP
013466: 20               NOP
013467: 20               NOP
013468: 20               NOP
013469: 20               NOP
01346a: 20               NOP
01346b: 20               NOP
01346c: 20               NOP
01346d: 20               NOP
01346e: 20               NOP
01346f: 20               NOP
013470: 20               NOP
013471: 20               NOP
013472: 20               NOP
013473: 20               NOP
013474: 20               NOP
013475: 20               NOP
013476: 20               NOP
013477: 20               NOP
013478: 20               NOP
013479: 20               NOP
01347a: 20               NOP
01347b: 20               NOP
01347c: 20               NOP
01347d: 20               NOP
01347e: 20               NOP
01347f: 20               NOP
013480: 20               NOP
013481: 20               NOP
013482: 20               NOP
013483: 20               NOP
013484: 20               NOP
013485: 20               NOP
013486: 20               NOP
013487: 20               NOP
013488: 20               NOP
013489: 20               NOP
01348a: 20               NOP
01348b: 20               NOP
01348c: 20               NOP
01348d: 20               NOP
01348e: 20               NOP
01348f: 20               NOP
013490: 20               NOP
013491: 20               NOP
013492: 20               NOP
013493: 20               NOP
013494: 20               NOP
013495: 20               NOP
013496: 20               NOP
013497: 20               NOP
013498: 20               NOP
013499: 20               NOP
01349a: 20               NOP
01349b: 20               NOP
01349c: 20               NOP
01349d: 20               NOP
01349e: 20               NOP
01349f: 20               NOP
0134a0: 20               NOP
0134a1: 20               NOP
0134a2: 20               NOP
0134a3: 20               NOP
0134a4: 20               NOP
0134a5: 20               NOP
0134a6: 20               NOP
0134a7: 20               NOP
0134a8: 20               NOP
0134a9: 20               NOP
0134aa: 20               NOP
0134ab: 20               NOP
0134ac: 20               NOP
0134ad: 20               NOP
0134ae: 20               NOP
0134af: 20               NOP
0134b0: 20               NOP
0134b1: 20               NOP
0134b2: 20               NOP
0134b3: 20               NOP
0134b4: 20               NOP
0134b5: 20               NOP
0134b6: 20               NOP
0134b7: 20               NOP
0134b8: 20               NOP
0134b9: 20               NOP
0134ba: 20               NOP
0134bb: 20               NOP
0134bc: 20               NOP
0134bd: 20               NOP
0134be: 20               NOP
0134bf: 20               NOP
0134c0: 20               NOP
0134c1: 20               NOP
0134c2: 20               NOP
0134c3: 20               NOP
0134c4: 20               NOP
0134c5: 20               NOP
0134c6: 20               NOP
0134c7: 20               NOP
0134c8: 20               NOP
0134c9: 20               NOP
0134ca: 20               NOP
0134cb: 20               NOP
0134cc: 20               NOP
0134cd: 20               NOP
0134ce: 20               NOP
0134cf: 20               NOP
0134d0: 20               NOP
0134d1: 20               NOP
0134d2: 20               NOP
0134d3: 20               NOP
0134d4: 20               NOP
0134d5: 20               NOP
0134d6: 20               NOP
0134d7: 20               NOP
0134d8: 20               NOP
0134d9: 20               NOP
0134da: 20               NOP
0134db: 20               NOP
0134dc: 20               NOP
0134dd: 20               NOP
0134de: 20               NOP
0134df: 20               NOP
0134e0: 20               NOP
0134e1: 20               NOP
0134e2: 20               NOP
0134e3: 20               NOP
0134e4: 20               NOP
0134e5: 20               NOP
0134e6: 20               NOP
0134e7: 20               NOP
0134e8: 20               NOP
0134e9: 20               NOP
0134ea: 20               NOP
0134eb: 20               NOP
0134ec: 20               NOP
0134ed: 20               NOP
0134ee: 20               NOP
0134ef: 20               NOP
0134f0: 20               NOP
0134f1: 20               NOP
0134f2: 20               NOP
0134f3: 20               NOP
0134f4: 20               NOP
0134f5: 20               NOP
0134f6: 20               NOP
0134f7: 20               NOP
0134f8: 20               NOP
0134f9: 20               NOP
0134fa: 20               NOP
0134fb: 20               NOP
0134fc: 20               NOP
0134fd: 20               NOP
0134fe: 20               NOP
0134ff: 20               NOP
013500: 20               NOP
013501: 20               NOP
013502: 20               NOP
013503: 20               NOP
013504: 20               NOP
013505: 20               NOP
013506: 20               NOP
013507: 20               NOP
013508: 20               NOP
013509: 20               NOP
01350a: 20               NOP
01350b: 20               NOP
01350c: 20               NOP
01350d: 20               NOP
01350e: 20               NOP
01350f: 20               NOP
013510: 20               NOP
013511: 20               NOP
013512: 20               NOP
013513: 20               NOP
013514: 20               NOP
013515: 20               NOP
013516: 20               NOP
013517: 20               NOP
013518: 20               NOP
013519: 20               NOP
01351a: 20               NOP
01351b: 20               NOP
01351c: 20               NOP
01351d: 20               NOP
01351e: 20               NOP
01351f: 20               NOP
013520: 20               NOP
013521: 20               NOP
013522: 20               NOP
013523: 20               NOP
013524: 20               NOP
013525: 20               NOP
013526: 20               NOP
013527: 20               NOP
013528: 20               NOP
013529: 20               NOP
01352a: 20               NOP
01352b: 20               NOP
01352c: 20               NOP
01352d: 20               NOP
01352e: 20               NOP
01352f: 20               NOP
013530: 20               NOP
013531: 20               NOP
013532: 20               NOP
013533: 20               NOP
013534: 20               NOP
013535: 20               NOP
013536: 20               NOP
013537: 20               NOP
013538: 20               NOP
013539: 20               NOP
01353a: 20               NOP
01353b: 20               NOP
01353c: 20               NOP
01353d: 20               NOP
01353e: 20               NOP
01353f: 20               NOP
013540: 20               NOP
013541: 20               NOP
013542: 20               NOP
013543: 20               NOP
013544: 20               NOP
013545: 20               NOP
013546: 20               NOP
013547: 20               NOP
013548: 20               NOP
013549: 20               NOP
01354a: 20               NOP
01354b: 20               NOP
01354c: 20               NOP
01354d: 20               NOP
01354e: 20               NOP
01354f: 20               NOP
013550: 20               NOP
013551: 20               NOP
013552: 20               NOP
013553: 20               NOP
013554: 20               NOP
013555: 20               NOP
013556: 20               NOP
013557: 20               NOP
013558: 20               NOP
013559: 20               NOP
01355a: 20               NOP
01355b: 20               NOP
01355c: 20               NOP
01355d: 20               NOP
01355e: 20               NOP
01355f: 20               NOP
013560: 20               NOP
013561: 20               NOP
013562: 20               NOP
013563: 20               NOP
013564: 20               NOP
013565: 20               NOP
013566: 20               NOP
013567: 20               NOP
013568: 20               NOP
013569: 20               NOP
01356a: 20               NOP
01356b: 20               NOP
01356c: 20               NOP
01356d: 20               NOP
01356e: 20               NOP
01356f: 20               NOP
013570: 20               NOP
013571: 20               NOP
013572: 20               NOP
013573: 20               NOP
013574: 20               NOP
013575: 20               NOP
013576: 20               NOP
013577: 20               NOP
013578: 20               NOP
013579: 20               NOP
01357a: 20               NOP
01357b: 20               NOP
01357c: 20               NOP
01357d: 20               NOP
01357e: 20               NOP
01357f: 20               NOP
013580: 20               NOP
013581: 20               NOP
013582: 20               NOP
013583: 20               NOP
013584: 20               NOP
013585: 20               NOP
013586: 20               NOP
013587: 20               NOP
013588: 20               NOP
013589: 20               NOP
01358a: 20               NOP
01358b: 20               NOP
01358c: 20               NOP
01358d: 20               NOP
01358e: 20               NOP
01358f: 20               NOP
013590: 20               NOP
013591: 20               NOP
013592: 20               NOP
013593: 20               NOP
013594: 20               NOP
013595: 20               NOP
013596: 20               NOP
013597: 20               NOP
013598: 20               NOP
013599: 20               NOP
01359a: 20               NOP
01359b: 20               NOP
01359c: 20               NOP
01359d: 20               NOP
01359e: 20               NOP
01359f: 20               NOP
0135a0: 20               NOP
0135a1: 20               NOP
0135a2: 20               NOP
0135a3: 20               NOP
0135a4: 20               NOP
0135a5: 20               NOP
0135a6: 20               NOP
0135a7: 20               NOP
0135a8: 20               NOP
0135a9: 20               NOP
0135aa: 20               NOP
0135ab: 20               NOP
0135ac: 20               NOP
0135ad: 20               NOP
0135ae: 20               NOP
0135af: 20               NOP
0135b0: 20               NOP
0135b1: 20               NOP
0135b2: 20               NOP
0135b3: 20               NOP
0135b4: 20               NOP
0135b5: 20               NOP
0135b6: 20               NOP
0135b7: 20               NOP
0135b8: 20               NOP
0135b9: 20               NOP
0135ba: 20               NOP
0135bb: 20               NOP
0135bc: 20               NOP
0135bd: 20               NOP
0135be: 20               NOP
0135bf: 20               NOP
0135c0: 20               NOP
0135c1: 20               NOP
0135c2: 20               NOP
0135c3: 20               NOP
0135c4: 20               NOP
0135c5: 20               NOP
0135c6: 20               NOP
0135c7: 20               NOP
0135c8: 20               NOP
0135c9: 20               NOP
0135ca: 20               NOP
0135cb: 20               NOP
0135cc: 20               NOP
0135cd: 20               NOP
0135ce: 20               NOP
0135cf: 20               NOP
0135d0: 20               NOP
0135d1: 20               NOP
0135d2: 20               NOP
0135d3: 20               NOP
0135d4: 20               NOP
0135d5: 20               NOP
0135d6: 20               NOP
0135d7: 20               NOP
0135d8: 20               NOP
0135d9: 20               NOP
0135da: 20               NOP
0135db: 20               NOP
0135dc: 20               NOP
0135dd: 20               NOP
0135de: 20               NOP
0135df: 20               NOP
0135e0: 20               NOP
0135e1: 20               NOP
0135e2: 20               NOP
0135e3: 20               NOP
0135e4: 20               NOP
0135e5: 20               NOP
0135e6: 20               NOP
0135e7: 20               NOP
0135e8: 20               NOP
0135e9: 20               NOP
0135ea: 20               NOP
0135eb: 20               NOP
0135ec: 20               NOP
0135ed: 20               NOP
0135ee: 20               NOP
0135ef: 20               NOP
0135f0: 20               NOP
0135f1: 20               NOP
0135f2: 20               NOP
0135f3: 20               NOP
0135f4: 20               NOP
0135f5: 20               NOP
0135f6: 20               NOP
0135f7: 20               NOP
0135f8: 20               NOP
0135f9: 20               NOP
0135fa: 20               NOP
0135fb: 20               NOP
0135fc: 20               NOP
0135fd: 20               NOP
0135fe: 20               NOP
0135ff: 20               NOP
013600: 20               NOP
013601: 20               NOP
013602: 20               NOP
013603: 20               NOP
013604: 20               NOP
013605: 20               NOP
013606: 20               NOP
013607: 20               NOP
013608: 20               NOP
013609: 20               NOP
01360a: 20               NOP
01360b: 20               NOP
01360c: 20               NOP
01360d: 20               NOP
01360e: 20               NOP
01360f: 20               NOP
013610: 20               NOP
013611: 20               NOP
013612: 20               NOP
013613: 20               NOP
013614: 20               NOP
013615: 20               NOP
013616: 20               NOP
013617: 20               NOP
013618: 20               NOP
013619: 20               NOP
01361a: 20               NOP
01361b: 20               NOP
01361c: 20               NOP
01361d: 20               NOP
01361e: 20               NOP
01361f: 20               NOP
013620: 20               NOP
013621: 20               NOP
013622: 20               NOP
013623: 20               NOP
013624: 20               NOP
013625: 20               NOP
013626: 20               NOP
013627: 20               NOP
013628: 20               NOP
013629: 20               NOP
01362a: 20               NOP
01362b: 20               NOP
01362c: 20               NOP
01362d: 20               NOP
01362e: 20               NOP
01362f: 20               NOP
013630: 20               NOP
013631: 20               NOP
013632: 20               NOP
013633: 20               NOP
013634: 20               NOP
013635: 20               NOP
013636: 20               NOP
013637: 20               NOP
013638: 20               NOP
013639: 20               NOP
01363a: 20               NOP
01363b: 20               NOP
01363c: 20               NOP
01363d: 20               NOP
01363e: 20               NOP
01363f: 20               NOP
013640: 20               NOP
013641: 20               NOP
013642: 20               NOP
013643: 20               NOP
013644: 20               NOP
013645: 20               NOP
013646: 20               NOP
013647: 20               NOP
013648: 20               NOP
013649: 20               NOP
01364a: 20               NOP
01364b: 20               NOP
01364c: 20               NOP
01364d: 20               NOP
01364e: 20               NOP
01364f: 20               NOP
013650: 20               NOP
013651: 20               NOP
013652: 20               NOP
013653: 20               NOP
013654: 20               NOP
013655: 20               NOP
013656: 20               NOP
013657: 20               NOP
013658: 20               NOP
013659: 20               NOP
01365a: 20               NOP
01365b: 20               NOP
01365c: 20               NOP
01365d: 20               NOP
01365e: 20               NOP
01365f: 20               NOP
013660: 20               NOP
013661: 20               NOP
013662: 20               NOP
013663: 20               NOP
013664: 20               NOP
013665: 20               NOP
013666: 20               NOP
013667: 20               NOP
013668: 20               NOP
013669: 20               NOP
01366a: 20               NOP
01366b: 20               NOP
01366c: 20               NOP
01366d: 20               NOP
01366e: 20               NOP
01366f: 20               NOP
013670: 20               NOP
013671: 20               NOP
013672: 20               NOP
013673: 20               NOP
013674: 20               NOP
013675: 20               NOP
013676: 20               NOP
013677: 20               NOP
013678: 20               NOP
013679: 20               NOP
01367a: 20               NOP
01367b: 20               NOP
01367c: 20               NOP
01367d: 20               NOP
01367e: 20               NOP
01367f: 20               NOP
013680: 20               NOP
013681: 20               NOP
013682: 20               NOP
013683: 20               NOP
013684: 20               NOP
013685: 20               NOP
013686: 20               NOP
013687: 20               NOP
013688: 20               NOP
013689: 20               NOP
01368a: 20               NOP
01368b: 20               NOP
01368c: 20               NOP
01368d: 20               NOP
01368e: 20               NOP
01368f: 20               NOP
013690: 20               NOP
013691: 20               NOP
013692: 20               NOP
013693: 20               NOP
013694: 20               NOP
013695: 20               NOP
013696: 20               NOP
013697: 20               NOP
013698: 20               NOP
013699: 20               NOP
01369a: 20               NOP
01369b: 20               NOP
01369c: 20               NOP
01369d: 20               NOP
01369e: 20               NOP
01369f: 20               NOP
0136a0: 20               NOP
0136a1: 20               NOP
0136a2: 20               NOP
0136a3: 20               NOP
0136a4: 20               NOP
0136a5: 20               NOP
0136a6: 20               NOP
0136a7: 20               NOP
0136a8: 20               NOP
0136a9: 20               NOP
0136aa: 20               NOP
0136ab: 20               NOP
0136ac: 20               NOP
0136ad: 20               NOP
0136ae: 20               NOP
0136af: 20               NOP
0136b0: 20               NOP
0136b1: 20               NOP
0136b2: 20               NOP
0136b3: 20               NOP
0136b4: 20               NOP
0136b5: 20               NOP
0136b6: 20               NOP
0136b7: 20               NOP
0136b8: 20               NOP
0136b9: 20               NOP
0136ba: 20               NOP
0136bb: 20               NOP
0136bc: 20               NOP
0136bd: 20               NOP
0136be: 20               NOP
0136bf: 20               NOP
0136c0: 20               NOP
0136c1: 20               NOP
0136c2: 20               NOP
0136c3: 20               NOP
0136c4: 20               NOP
0136c5: 20               NOP
0136c6: 20               NOP
0136c7: 20               NOP
0136c8: 20               NOP
0136c9: 20               NOP
0136ca: 20               NOP
0136cb: 20               NOP
0136cc: 20               NOP
0136cd: 20               NOP
0136ce: 20               NOP
0136cf: 20               NOP
0136d0: 20               NOP
0136d1: 20               NOP
0136d2: 20               NOP
0136d3: 20               NOP
0136d4: 20               NOP
0136d5: 20               NOP
0136d6: 20               NOP
0136d7: 20               NOP
0136d8: 20               NOP
0136d9: 20               NOP
0136da: 20               NOP
0136db: 20               NOP
0136dc: 20               NOP
0136dd: 20               NOP
0136de: 20               NOP
0136df: 20               NOP
0136e0: 20               NOP
0136e1: 20               NOP
0136e2: 20               NOP
0136e3: 20               NOP
0136e4: 20               NOP
0136e5: 20               NOP
0136e6: 20               NOP
0136e7: 20               NOP
0136e8: 20               NOP
0136e9: 20               NOP
0136ea: 20               NOP
0136eb: 20               NOP
0136ec: 20               NOP
0136ed: 20               NOP
0136ee: 20               NOP
0136ef: 20               NOP
0136f0: 20               NOP
0136f1: 20               NOP
0136f2: 20               NOP
0136f3: 20               NOP
0136f4: 20               NOP
0136f5: 20               NOP
0136f6: 20               NOP
0136f7: 20               NOP
0136f8: 20               NOP
0136f9: 20               NOP
0136fa: 20               NOP
0136fb: 20               NOP
0136fc: 20               NOP
0136fd: 20               NOP
0136fe: 20               NOP
0136ff: 20               NOP
013700: 20               NOP
013701: 20               NOP
013702: 20               NOP
013703: 20               NOP
013704: 20               NOP
013705: 20               NOP
013706: 20               NOP
013707: 20               NOP
013708: 20               NOP
013709: 20               NOP
01370a: 20               NOP
01370b: 20               NOP
01370c: 20               NOP
01370d: 20               NOP
01370e: 20               NOP
01370f: 20               NOP
013710: 20               NOP
013711: 20               NOP
013712: 20               NOP
013713: 20               NOP
013714: 20               NOP
013715: 20               NOP
013716: 20               NOP
013717: 20               NOP
013718: 20               NOP
013719: 20               NOP
01371a: 20               NOP
01371b: 20               NOP
01371c: 20               NOP
01371d: 20               NOP
01371e: 20               NOP
01371f: 20               NOP
013720: 20               NOP
013721: 20               NOP
013722: 20               NOP
013723: 20               NOP
013724: 20               NOP
013725: 20               NOP
013726: 20               NOP
013727: 20               NOP
013728: 20               NOP
013729: 20               NOP
01372a: 20               NOP
01372b: 20               NOP
01372c: 20               NOP
01372d: 20               NOP
01372e: 20               NOP
01372f: 20               NOP
013730: 20               NOP
013731: 20               NOP
013732: 20               NOP
013733: 20               NOP
013734: 20               NOP
013735: 20               NOP
013736: 20               NOP
013737: 20               NOP
013738: 20               NOP
013739: 20               NOP
01373a: 20               NOP
01373b: 20               NOP
01373c: 20               NOP
01373d: 20               NOP
01373e: 20               NOP
01373f: 20               NOP
013740: 20               NOP
013741: 20               NOP
013742: 20               NOP
013743: 20               NOP
013744: 20               NOP
013745: 20               NOP
013746: 20               NOP
013747: 20               NOP
013748: 20               NOP
013749: 20               NOP
01374a: 20               NOP
01374b: 20               NOP
01374c: 20               NOP
01374d: 20               NOP
01374e: 20               NOP
01374f: 20               NOP
013750: 20               NOP
013751: 20               NOP
013752: 20               NOP
013753: 20               NOP
013754: 20               NOP
013755: 20               NOP
013756: 20               NOP
013757: 20               NOP
013758: 20               NOP
013759: 20               NOP
01375a: 20               NOP
01375b: 20               NOP
01375c: 20               NOP
01375d: 20               NOP
01375e: 20               NOP
01375f: 20               NOP
013760: 20               NOP
013761: 20               NOP
013762: 20               NOP
013763: 20               NOP
013764: 20               NOP
013765: 20               NOP
013766: 20               NOP
013767: 20               NOP
013768: 20               NOP
013769: 20               NOP
01376a: 20               NOP
01376b: 20               NOP
01376c: 20               NOP
01376d: 20               NOP
01376e: 20               NOP
01376f: 20               NOP
013770: 20               NOP
013771: 20               NOP
013772: 20               NOP
013773: 20               NOP
013774: 20               NOP
013775: 20               NOP
013776: 20               NOP
013777: 20               NOP
013778: 20               NOP
013779: 20               NOP
01377a: 20               NOP
01377b: 20               NOP
01377c: 20               NOP
01377d: 20               NOP
01377e: 20               NOP
01377f: 20               NOP
013780: 20               NOP
013781: 20               NOP
013782: 20               NOP
013783: 20               NOP
013784: 20               NOP
013785: 20               NOP
013786: 20               NOP
013787: 20               NOP
013788: 20               NOP
013789: 20               NOP
01378a: 20               NOP
01378b: 20               NOP
01378c: 20               NOP
01378d: 20               NOP
01378e: 20               NOP
01378f: 20               NOP
013790: 20               NOP
013791: 20               NOP
013792: 20               NOP
013793: 20               NOP
013794: 20               NOP
013795: 20               NOP
013796: 20               NOP
013797: 20               NOP
013798: 20               NOP
013799: 20               NOP
01379a: 20               NOP
01379b: 20               NOP
01379c: 20               NOP
01379d: 20               NOP
01379e: 20               NOP
01379f: 20               NOP
0137a0: 20               NOP
0137a1: 20               NOP
0137a2: 20               NOP
0137a3: 20               NOP
0137a4: 20               NOP
0137a5: 20               NOP
0137a6: 20               NOP
0137a7: 20               NOP
0137a8: 20               NOP
0137a9: 20               NOP
0137aa: 20               NOP
0137ab: 20               NOP
0137ac: 20               NOP
0137ad: 20               NOP
0137ae: 20               NOP
0137af: 20               NOP
0137b0: 20               NOP
0137b1: 20               NOP
0137b2: 20               NOP
0137b3: 20               NOP
0137b4: 20               NOP
0137b5: 20               NOP
0137b6: 20               NOP
0137b7: 20               NOP
0137b8: 20               NOP
0137b9: 20               NOP
0137ba: 20               NOP
0137bb: 20               NOP
0137bc: 20               NOP
0137bd: 20               NOP
0137be: 20               NOP
0137bf: 20               NOP
0137c0: 20               NOP
0137c1: 20               NOP
0137c2: 20               NOP
0137c3: 20               NOP
0137c4: 20               NOP
0137c5: 20               NOP
0137c6: 20               NOP
0137c7: 20               NOP
0137c8: 20               NOP
0137c9: 20               NOP
0137ca: 20               NOP
0137cb: 20               NOP
0137cc: 20               NOP
0137cd: 20               NOP
0137ce: 20               NOP
0137cf: 20               NOP
0137d0: 20               NOP
0137d1: 20               NOP
0137d2: 20               NOP
0137d3: 20               NOP
0137d4: 20               NOP
0137d5: 20               NOP
0137d6: 20               NOP
0137d7: 20               NOP
0137d8: 20               NOP
0137d9: 20               NOP
0137da: 20               NOP
0137db: 20               NOP
0137dc: 20               NOP
0137dd: 20               NOP
0137de: 20               NOP
0137df: 20               NOP
0137e0: 20               NOP
0137e1: 20               NOP
0137e2: 20               NOP
0137e3: 20               NOP
0137e4: 20               NOP
0137e5: 20               NOP
0137e6: 20               NOP
0137e7: 20               NOP
0137e8: 20               NOP
0137e9: 20               NOP
0137ea: 20               NOP
0137eb: 20               NOP
0137ec: 20               NOP
0137ed: 20               NOP
0137ee: 20               NOP
0137ef: 20               NOP
0137f0: 20               NOP
0137f1: 20               NOP
0137f2: 20               NOP
0137f3: 20               NOP
0137f4: 20               NOP
0137f5: 20               NOP
0137f6: 20               NOP
0137f7: 20               NOP
0137f8: 20               NOP
0137f9: 20               NOP
0137fa: 20               NOP
0137fb: 20               NOP
0137fc: 20               NOP
0137fd: 20               NOP
0137fe: 20               NOP
0137ff: 20               NOP
013800: 20               NOP
013801: 20               NOP
013802: 20               NOP
013803: 20               NOP
013804: 20               NOP
013805: 20               NOP
013806: 20               NOP
013807: 20               NOP
013808: 20               NOP
013809: 20               NOP
01380a: 20               NOP
01380b: 20               NOP
01380c: 20               NOP
01380d: 20               NOP
01380e: 20               NOP
01380f: 20               NOP
013810: 20               NOP
013811: 20               NOP
013812: 20               NOP
013813: 20               NOP
013814: 20               NOP
013815: 20               NOP
013816: 20               NOP
013817: 20               NOP
013818: 20               NOP
013819: 20               NOP
01381a: 20               NOP
01381b: 20               NOP
01381c: 20               NOP
01381d: 20               NOP
01381e: 20               NOP
01381f: 20               NOP
013820: 20               NOP
013821: 20               NOP
013822: 20               NOP
013823: 20               NOP
013824: 20               NOP
013825: 20               NOP
013826: 20               NOP
013827: 20               NOP
013828: 20               NOP
013829: 20               NOP
01382a: 20               NOP
01382b: 20               NOP
01382c: 20               NOP
01382d: 20               NOP
01382e: 20               NOP
01382f: 20               NOP
013830: 20               NOP
013831: 20               NOP
013832: 20               NOP
013833: 20               NOP
013834: 20               NOP
013835: 20               NOP
013836: 20               NOP
013837: 20               NOP
013838: 20               NOP
013839: 20               NOP
01383a: 20               NOP
01383b: 20               NOP
01383c: 20               NOP
01383d: 20               NOP
01383e: 20               NOP
01383f: 20               NOP
013840: 20               NOP
013841: 20               NOP
013842: 20               NOP
013843: 20               NOP
013844: 20               NOP
013845: 20               NOP
013846: 20               NOP
013847: 20               NOP
013848: 20               NOP
013849: 20               NOP
01384a: 20               NOP
01384b: 20               NOP
01384c: 20               NOP
01384d: 20               NOP
01384e: 20               NOP
01384f: 20               NOP
013850: 20               NOP
013851: 20               NOP
013852: 20               NOP
013853: 20               NOP
013854: 20               NOP
013855: 20               NOP
013856: 20               NOP
013857: 20               NOP
013858: 20               NOP
013859: 20               NOP
01385a: 20               NOP
01385b: 20               NOP
01385c: 20               NOP
01385d: 20               NOP
01385e: 20               NOP
01385f: 20               NOP
013860: 20               NOP
013861: 20               NOP
013862: 20               NOP
013863: 20               NOP
013864: 20               NOP
013865: 20               NOP
013866: 20               NOP
013867: 20               NOP
013868: 20               NOP
013869: 20               NOP
01386a: 20               NOP
01386b: 20               NOP
01386c: 20               NOP
01386d: 20               NOP
01386e: 20               NOP
01386f: 20               NOP
013870: 20               NOP
013871: 20               NOP
013872: 20               NOP
013873: 20               NOP
013874: 20               NOP
013875: 20               NOP
013876: 20               NOP
013877: 20               NOP
013878: 20               NOP
013879: 20               NOP
01387a: 20               NOP
01387b: 20               NOP
01387c: 20               NOP
01387d: 20               NOP
01387e: 20               NOP
01387f: 20               NOP
013880: 20               NOP
013881: 20               NOP
013882: 20               NOP
013883: 20               NOP
013884: 20               NOP
013885: 20               NOP
013886: 20               NOP
013887: 20               NOP
013888: 20               NOP
013889: 20               NOP
01388a: 20               NOP
01388b: 20               NOP
01388c: 20               NOP
01388d: 20               NOP
01388e: 20               NOP
01388f: 20               NOP
013890: 20               NOP
013891: 20               NOP
013892: 20               NOP
013893: 20               NOP
013894: 20               NOP
013895: 20               NOP
013896: 20               NOP
013897: 20               NOP
013898: 20               NOP
013899: 20               NOP
01389a: 20               NOP
01389b: 20               NOP
01389c: 20               NOP
01389d: 20               NOP
01389e: 20               NOP
01389f: 20               NOP
0138a0: 20               NOP
0138a1: 20               NOP
0138a2: 20               NOP
0138a3: 20               NOP
0138a4: 20               NOP
0138a5: 20               NOP
0138a6: 20               NOP
0138a7: 20               NOP
0138a8: 20               NOP
0138a9: 20               NOP
0138aa: 20               NOP
0138ab: 20               NOP
0138ac: 20               NOP
0138ad: 20               NOP
0138ae: 20               NOP
0138af: 20               NOP
0138b0: 20               NOP
0138b1: 20               NOP
0138b2: 20               NOP
0138b3: 20               NOP
0138b4: 20               NOP
0138b5: 20               NOP
0138b6: 20               NOP
0138b7: 20               NOP
0138b8: 20               NOP
0138b9: 20               NOP
0138ba: 20               NOP
0138bb: 20               NOP
0138bc: 20               NOP
0138bd: 20               NOP
0138be: 20               NOP
0138bf: 20               NOP
0138c0: 20               NOP
0138c1: 20               NOP
0138c2: 20               NOP
0138c3: 20               NOP
0138c4: 20               NOP
0138c5: 20               NOP
0138c6: 20               NOP
0138c7: 20               NOP
0138c8: 20               NOP
0138c9: 20               NOP
0138ca: 20               NOP
0138cb: 20               NOP
0138cc: 20               NOP
0138cd: 20               NOP
0138ce: 20               NOP
0138cf: 20               NOP
0138d0: 20               NOP
0138d1: 20               NOP
0138d2: 20               NOP
0138d3: 20               NOP
0138d4: 20               NOP
0138d5: 20               NOP
0138d6: 20               NOP
0138d7: 20               NOP
0138d8: 20               NOP
0138d9: 20               NOP
0138da: 20               NOP
0138db: 20               NOP
0138dc: 20               NOP
0138dd: 20               NOP
0138de: 20               NOP
0138df: 20               NOP
0138e0: 20               NOP
0138e1: 20               NOP
0138e2: 20               NOP
0138e3: 20               NOP
0138e4: 20               NOP
0138e5: 20               NOP
0138e6: 20               NOP
0138e7: 20               NOP
0138e8: 20               NOP
0138e9: 20               NOP
0138ea: 20               NOP
0138eb: 20               NOP
0138ec: 20               NOP
0138ed: 20               NOP
0138ee: 20               NOP
0138ef: 20               NOP
0138f0: 20               NOP
0138f1: 20               NOP
0138f2: 20               NOP
0138f3: 20               NOP
0138f4: 20               NOP
0138f5: 20               NOP
0138f6: 20               NOP
0138f7: 20               NOP
0138f8: 20               NOP
0138f9: 20               NOP
0138fa: 20               NOP
0138fb: 20               NOP
0138fc: 20               NOP
0138fd: 20               NOP
0138fe: 20               NOP
0138ff: 20               NOP
013900: 20               NOP
013901: 20               NOP
013902: 20               NOP
013903: 20               NOP
013904: 20               NOP
013905: 20               NOP
013906: 20               NOP
013907: 20               NOP
013908: 20               NOP
013909: 20               NOP
01390a: 20               NOP
01390b: 20               NOP
01390c: 20               NOP
01390d: 20               NOP
01390e: 20               NOP
01390f: 20               NOP
013910: 20               NOP
013911: 20               NOP
013912: 20               NOP
013913: 20               NOP
013914: 20               NOP
013915: 20               NOP
013916: 20               NOP
013917: 20               NOP
013918: 20               NOP
013919: 20               NOP
01391a: 20               NOP
01391b: 20               NOP
01391c: 20               NOP
01391d: 20               NOP
01391e: 20               NOP
01391f: 20               NOP
013920: 20               NOP
013921: 20               NOP
013922: 20               NOP
013923: 20               NOP
013924: 20               NOP
013925: 20               NOP
013926: 20               NOP
013927: 20               NOP
013928: 20               NOP
013929: 20               NOP
01392a: 20               NOP
01392b: 20               NOP
01392c: 20               NOP
01392d: 20               NOP
01392e: 20               NOP
01392f: 20               NOP
013930: 20               NOP
013931: 20               NOP
013932: 20               NOP
013933: 20               NOP
013934: 20               NOP
013935: 20               NOP
013936: 20               NOP
013937: 20               NOP
013938: 20               NOP
013939: 20               NOP
01393a: 20               NOP
01393b: 20               NOP
01393c: 20               NOP
01393d: 20               NOP
01393e: 20               NOP
01393f: 20               NOP
013940: 20               NOP
013941: 20               NOP
013942: 20               NOP
013943: 20               NOP
013944: 20               NOP
013945: 20               NOP
013946: 20               NOP
013947: 20               NOP
013948: 20               NOP
013949: 20               NOP
01394a: 20               NOP
01394b: 20               NOP
01394c: 20               NOP
01394d: 20               NOP
01394e: 20               NOP
01394f: 20               NOP
013950: 20               NOP
013951: 20               NOP
013952: 20               NOP
013953: 20               NOP
013954: 20               NOP
013955: 20               NOP
013956: 20               NOP
013957: 20               NOP
013958: 20               NOP
013959: 20               NOP
01395a: 20               NOP
01395b: 20               NOP
01395c: 20               NOP
01395d: 20               NOP
01395e: 20               NOP
01395f: 20               NOP
013960: 20               NOP
013961: 20               NOP
013962: 20               NOP
013963: 20               NOP
013964: 20               NOP
013965: 20               NOP
013966: 20               NOP
013967: 20               NOP
013968: 20               NOP
013969: 20               NOP
01396a: 20               NOP
01396b: 20               NOP
01396c: 20               NOP
01396d: 20               NOP
01396e: 20               NOP
01396f: 20               NOP
013970: 20               NOP
013971: 20               NOP
013972: 20               NOP
013973: 20               NOP
013974: 20               NOP
013975: 20               NOP
013976: 20               NOP
013977: 20               NOP
013978: 20               NOP
013979: 20               NOP
01397a: 20               NOP
01397b: 20               NOP
01397c: 20               NOP
01397d: 20               NOP
01397e: 20               NOP
01397f: 20               NOP
013980: 20               NOP
013981: 20               NOP
013982: 20               NOP
013983: 20               NOP
013984: 20               NOP
013985: 20               NOP
013986: 20               NOP
013987: 20               NOP
013988: 20               NOP
013989: 20               NOP
01398a: 20               NOP
01398b: 20               NOP
01398c: 20               NOP
01398d: 20               NOP
01398e: 20               NOP
01398f: 20               NOP
013990: 20               NOP
013991: 20               NOP
013992: 20               NOP
013993: 20               NOP
013994: 20               NOP
013995: 20               NOP
013996: 20               NOP
013997: 20               NOP
013998: 20               NOP
013999: 20               NOP
01399a: 20               NOP
01399b: 20               NOP
01399c: 20               NOP
01399d: 20               NOP
01399e: 20               NOP
01399f: 20               NOP
0139a0: 20               NOP
0139a1: 20               NOP
0139a2: 20               NOP
0139a3: 20               NOP
0139a4: 20               NOP
0139a5: 20               NOP
0139a6: 20               NOP
0139a7: 20               NOP
0139a8: 20               NOP
0139a9: 20               NOP
0139aa: 20               NOP
0139ab: 20               NOP
0139ac: 20               NOP
0139ad: 20               NOP
0139ae: 20               NOP
0139af: 20               NOP
0139b0: 20               NOP
0139b1: 20               NOP
0139b2: 20               NOP
0139b3: 20               NOP
0139b4: 20               NOP
0139b5: 20               NOP
0139b6: 20               NOP
0139b7: 20               NOP
0139b8: 20               NOP
0139b9: 20               NOP
0139ba: 20               NOP
0139bb: 20               NOP
0139bc: 20               NOP
0139bd: 20               NOP
0139be: 20               NOP
0139bf: 20               NOP
0139c0: 20               NOP
0139c1: 20               NOP
0139c2: 20               NOP
0139c3: 20               NOP
0139c4: 20               NOP
0139c5: 20               NOP
0139c6: 20               NOP
0139c7: 20               NOP
0139c8: 20               NOP
0139c9: 20               NOP
0139ca: 20               NOP
0139cb: 20               NOP
0139cc: 20               NOP
0139cd: 20               NOP
0139ce: 20               NOP
0139cf: 20               NOP
0139d0: 20               NOP
0139d1: 20               NOP
0139d2: 20               NOP
0139d3: 20               NOP
0139d4: 20               NOP
0139d5: 20               NOP
0139d6: 20               NOP
0139d7: 20               NOP
0139d8: 20               NOP
0139d9: 20               NOP
0139da: 20               NOP
0139db: 20               NOP
0139dc: 20               NOP
0139dd: 20               NOP
0139de: 20               NOP
0139df: 20               NOP
0139e0: 20               NOP
0139e1: 20               NOP
0139e2: 20               NOP
0139e3: 20               NOP
0139e4: 20               NOP
0139e5: 20               NOP
0139e6: 20               NOP
0139e7: 20               NOP
0139e8: 20               NOP
0139e9: 20               NOP
0139ea: 20               NOP
0139eb: 20               NOP
0139ec: 20               NOP
0139ed: 20               NOP
0139ee: 20               NOP
0139ef: 20               NOP
0139f0: 20               NOP
0139f1: 20               NOP
0139f2: 20               NOP
0139f3: 20               NOP
0139f4: 20               NOP
0139f5: 20               NOP
0139f6: 20               NOP
0139f7: 20               NOP
0139f8: 20               NOP
0139f9: 20               NOP
0139fa: 20               NOP
0139fb: 20               NOP
0139fc: 20               NOP
0139fd: 20               NOP
0139fe: 20               NOP
0139ff: 20               NOP
013a00: 20               NOP
013a01: 20               NOP
013a02: 20               NOP
013a03: 20               NOP
013a04: 20               NOP
013a05: 20               NOP
013a06: 20               NOP
013a07: 20               NOP
013a08: 20               NOP
013a09: 20               NOP
013a0a: 20               NOP
013a0b: 20               NOP
013a0c: 20               NOP
013a0d: 20               NOP
013a0e: 20               NOP
013a0f: 20               NOP
013a10: 20               NOP
013a11: 20               NOP
013a12: 20               NOP
013a13: 20               NOP
013a14: 20               NOP
013a15: 20               NOP
013a16: 20               NOP
013a17: 20               NOP
013a18: 20               NOP
013a19: 20               NOP
013a1a: 20               NOP
013a1b: 20               NOP
013a1c: 20               NOP
013a1d: 20               NOP
013a1e: 20               NOP
013a1f: 20               NOP
013a20: 20               NOP
013a21: 20               NOP
013a22: 20               NOP
013a23: 20               NOP
013a24: 20               NOP
013a25: 20               NOP
013a26: 20               NOP
013a27: 20               NOP
013a28: 20               NOP
013a29: 20               NOP
013a2a: 20               NOP
013a2b: 20               NOP
013a2c: 20               NOP
013a2d: 20               NOP
013a2e: 20               NOP
013a2f: 20               NOP
013a30: 20               NOP
013a31: 20               NOP
013a32: 20               NOP
013a33: 20               NOP
013a34: 20               NOP
013a35: 20               NOP
013a36: 20               NOP
013a37: 20               NOP
013a38: 20               NOP
013a39: 20               NOP
013a3a: 20               NOP
013a3b: 20               NOP
013a3c: 20               NOP
013a3d: 20               NOP
013a3e: 20               NOP
013a3f: 20               NOP
013a40: 20               NOP
013a41: 20               NOP
013a42: 20               NOP
013a43: 20               NOP
013a44: 20               NOP
013a45: 20               NOP
013a46: 20               NOP
013a47: 20               NOP
013a48: 20               NOP
013a49: 20               NOP
013a4a: 20               NOP
013a4b: 20               NOP
013a4c: 20               NOP
013a4d: 20               NOP
013a4e: 20               NOP
013a4f: 20               NOP
013a50: 20               NOP
013a51: 20               NOP
013a52: 20               NOP
013a53: 20               NOP
013a54: 20               NOP
013a55: 20               NOP
013a56: 20               NOP
013a57: 20               NOP
013a58: 20               NOP
013a59: 20               NOP
013a5a: 20               NOP
013a5b: 20               NOP
013a5c: 20               NOP
013a5d: 20               NOP
013a5e: 20               NOP
013a5f: 20               NOP
013a60: 20               NOP
013a61: 20               NOP
013a62: 20               NOP
013a63: 20               NOP
013a64: 20               NOP
013a65: 20               NOP
013a66: 20               NOP
013a67: 20               NOP
013a68: 20               NOP
013a69: 20               NOP
013a6a: 20               NOP
013a6b: 20               NOP
013a6c: 20               NOP
013a6d: 20               NOP
013a6e: 20               NOP
013a6f: 20               NOP
013a70: 20               NOP
013a71: 20               NOP
013a72: 20               NOP
013a73: 20               NOP
013a74: 20               NOP
013a75: 20               NOP
013a76: 20               NOP
013a77: 20               NOP
013a78: 20               NOP
013a79: 20               NOP
013a7a: 20               NOP
013a7b: 20               NOP
013a7c: 20               NOP
013a7d: 20               NOP
013a7e: 20               NOP
013a7f: 20               NOP
013a80: 20               NOP
013a81: 20               NOP
013a82: 20               NOP
013a83: 20               NOP
013a84: 20               NOP
013a85: 20               NOP
013a86: 20               NOP
013a87: 20               NOP
013a88: 20               NOP
013a89: 20               NOP
013a8a: 20               NOP
013a8b: 20               NOP
013a8c: 20               NOP
013a8d: 20               NOP
013a8e: 20               NOP
013a8f: 20               NOP
013a90: 20               NOP
013a91: 20               NOP
013a92: 20               NOP
013a93: 20               NOP
013a94: 20               NOP
013a95: 20               NOP
013a96: 20               NOP
013a97: 20               NOP
013a98: 20               NOP
013a99: 20               NOP
013a9a: 20               NOP
013a9b: 20               NOP
013a9c: 20               NOP
013a9d: 20               NOP
013a9e: 20               NOP
013a9f: 20               NOP
013aa0: 20               NOP
013aa1: 20               NOP
013aa2: 20               NOP
013aa3: 20               NOP
013aa4: 20               NOP
013aa5: 20               NOP
013aa6: 20               NOP
013aa7: 20               NOP
013aa8: 20               NOP
013aa9: 20               NOP
013aaa: 20               NOP
013aab: 20               NOP
013aac: 20               NOP
013aad: 20               NOP
013aae: 20               NOP
013aaf: 20               NOP
013ab0: 20               NOP
013ab1: 20               NOP
013ab2: 20               NOP
013ab3: 20               NOP
013ab4: 20               NOP
013ab5: 20               NOP
013ab6: 20               NOP
013ab7: 20               NOP
013ab8: 20               NOP
013ab9: 20               NOP
013aba: 20               NOP
013abb: 20               NOP
013abc: 20               NOP
013abd: 20               NOP
013abe: 20               NOP
013abf: 20               NOP
013ac0: 20               NOP
013ac1: 20               NOP
013ac2: 20               NOP
013ac3: 20               NOP
013ac4: 20               NOP
013ac5: 20               NOP
013ac6: 20               NOP
013ac7: 20               NOP
013ac8: 20               NOP
013ac9: 20               NOP
013aca: 20               NOP
013acb: 20               NOP
013acc: 20               NOP
013acd: 20               NOP
013ace: 20               NOP
013acf: 20               NOP
013ad0: 20               NOP
013ad1: 20               NOP
013ad2: 20               NOP
013ad3: 20               NOP
013ad4: 20               NOP
013ad5: 20               NOP
013ad6: 20               NOP
013ad7: 20               NOP
013ad8: 20               NOP
013ad9: 20               NOP
013ada: 20               NOP
013adb: 20               NOP
013adc: 20               NOP
013add: 20               NOP
013ade: 20               NOP
013adf: 20               NOP
013ae0: 20               NOP
013ae1: 20               NOP
013ae2: 20               NOP
013ae3: 20               NOP
013ae4: 20               NOP
013ae5: 20               NOP
013ae6: 20               NOP
013ae7: 20               NOP
013ae8: 20               NOP
013ae9: 20               NOP
013aea: 20               NOP
013aeb: 20               NOP
013aec: 20               NOP
013aed: 20               NOP
013aee: 20               NOP
013aef: 20               NOP
013af0: 20               NOP
013af1: 20               NOP
013af2: 20               NOP
013af3: 20               NOP
013af4: 20               NOP
013af5: 20               NOP
013af6: 20               NOP
013af7: 20               NOP
013af8: 20               NOP
013af9: 20               NOP
013afa: 20               NOP
013afb: 20               NOP
013afc: 20               NOP
013afd: 20               NOP
013afe: 20               NOP
013aff: 20               NOP
013b00: 20               NOP
013b01: 20               NOP
013b02: 20               NOP
013b03: 20               NOP
013b04: 20               NOP
013b05: 20               NOP
013b06: 20               NOP
013b07: 20               NOP
013b08: 20               NOP
013b09: 20               NOP
013b0a: 20               NOP
013b0b: 20               NOP
013b0c: 20               NOP
013b0d: 20               NOP
013b0e: 20               NOP
013b0f: 20               NOP
013b10: 20               NOP
013b11: 20               NOP
013b12: 20               NOP
013b13: 20               NOP
013b14: 20               NOP
013b15: 20               NOP
013b16: 20               NOP
013b17: 20               NOP
013b18: 20               NOP
013b19: 20               NOP
013b1a: 20               NOP
013b1b: 20               NOP
013b1c: 20               NOP
013b1d: 20               NOP
013b1e: 20               NOP
013b1f: 20               NOP
013b20: 20               NOP
013b21: 20               NOP
013b22: 20               NOP
013b23: 20               NOP
013b24: 20               NOP
013b25: 20               NOP
013b26: 20               NOP
013b27: 20               NOP
013b28: 20               NOP
013b29: 20               NOP
013b2a: 20               NOP
013b2b: 20               NOP
013b2c: 20               NOP
013b2d: 20               NOP
013b2e: 20               NOP
013b2f: 20               NOP
013b30: 20               NOP
013b31: 20               NOP
013b32: 20               NOP
013b33: 20               NOP
013b34: 20               NOP
013b35: 20               NOP
013b36: 20               NOP
013b37: 20               NOP
013b38: 20               NOP
013b39: 20               NOP
013b3a: 20               NOP
013b3b: 20               NOP
013b3c: 20               NOP
013b3d: 20               NOP
013b3e: 20               NOP
013b3f: 20               NOP
013b40: 20               NOP
013b41: 20               NOP
013b42: 20               NOP
013b43: 20               NOP
013b44: 20               NOP
013b45: 20               NOP
013b46: 20               NOP
013b47: 20               NOP
013b48: 20               NOP
013b49: 20               NOP
013b4a: 20               NOP
013b4b: 20               NOP
013b4c: 20               NOP
013b4d: 20               NOP
013b4e: 20               NOP
013b4f: 20               NOP
013b50: 20               NOP
013b51: 20               NOP
013b52: 20               NOP
013b53: 20               NOP
013b54: 20               NOP
013b55: 20               NOP
013b56: 20               NOP
013b57: 20               NOP
013b58: 20               NOP
013b59: 20               NOP
013b5a: 20               NOP
013b5b: 20               NOP
013b5c: 20               NOP
013b5d: 20               NOP
013b5e: 20               NOP
013b5f: 20               NOP
013b60: 20               NOP
013b61: 20               NOP
013b62: 20               NOP
013b63: 20               NOP
013b64: 20               NOP
013b65: 20               NOP
013b66: 20               NOP
013b67: 20               NOP
013b68: 20               NOP
013b69: 20               NOP
013b6a: 20               NOP
013b6b: 20               NOP
013b6c: 20               NOP
013b6d: 20               NOP
013b6e: 20               NOP
013b6f: 20               NOP
013b70: 20               NOP
013b71: 20               NOP
013b72: 20               NOP
013b73: 20               NOP
013b74: 20               NOP
013b75: 20               NOP
013b76: 20               NOP
013b77: 20               NOP
013b78: 20               NOP
013b79: 20               NOP
013b7a: 20               NOP
013b7b: 20               NOP
013b7c: 20               NOP
013b7d: 20               NOP
013b7e: 20               NOP
013b7f: 20               NOP
013b80: 20               NOP
013b81: 20               NOP
013b82: 20               NOP
013b83: 20               NOP
013b84: 20               NOP
013b85: 20               NOP
013b86: 20               NOP
013b87: 20               NOP
013b88: 20               NOP
013b89: 20               NOP
013b8a: 20               NOP
013b8b: 20               NOP
013b8c: 20               NOP
013b8d: 20               NOP
013b8e: 20               NOP
013b8f: 20               NOP
013b90: 20               NOP
013b91: 20               NOP
013b92: 20               NOP
013b93: 20               NOP
013b94: 20               NOP
013b95: 20               NOP
013b96: 20               NOP
013b97: 20               NOP
013b98: 20               NOP
013b99: 20               NOP
013b9a: 20               NOP
013b9b: 20               NOP
013b9c: 20               NOP
013b9d: 20               NOP
013b9e: 20               NOP
013b9f: 20               NOP
013ba0: 20               NOP
013ba1: 20               NOP
013ba2: 20               NOP
013ba3: 20               NOP
013ba4: 20               NOP
013ba5: 20               NOP
013ba6: 20               NOP
013ba7: 20               NOP
013ba8: 20               NOP
013ba9: 20               NOP
013baa: 20               NOP
013bab: 20               NOP
013bac: 20               NOP
013bad: 20               NOP
013bae: 20               NOP
013baf: 20               NOP
013bb0: 20               NOP
013bb1: 20               NOP
013bb2: 20               NOP
013bb3: 20               NOP
013bb4: 20               NOP
013bb5: 20               NOP
013bb6: 20               NOP
013bb7: 20               NOP
013bb8: 20               NOP
013bb9: 20               NOP
013bba: 20               NOP
013bbb: 20               NOP
013bbc: 20               NOP
013bbd: 20               NOP
013bbe: 20               NOP
013bbf: 20               NOP
013bc0: 20               NOP
013bc1: 20               NOP
013bc2: 20               NOP
013bc3: 20               NOP
013bc4: 20               NOP
013bc5: 20               NOP
013bc6: 20               NOP
013bc7: 20               NOP
013bc8: 20               NOP
013bc9: 20               NOP
013bca: 20               NOP
013bcb: 20               NOP
013bcc: 20               NOP
013bcd: 20               NOP
013bce: 20               NOP
013bcf: 20               NOP
013bd0: 20               NOP
013bd1: 20               NOP
013bd2: 20               NOP
013bd3: 20               NOP
013bd4: 20               NOP
013bd5: 20               NOP
013bd6: 20               NOP
013bd7: 20               NOP
013bd8: 20               NOP
013bd9: 20               NOP
013bda: 20               NOP
013bdb: 20               NOP
013bdc: 20               NOP
013bdd: 20               NOP
013bde: 20               NOP
013bdf: 20               NOP
013be0: 20               NOP
013be1: 20               NOP
013be2: 20               NOP
013be3: 20               NOP
013be4: 20               NOP
013be5: 20               NOP
013be6: 20               NOP
013be7: 20               NOP
013be8: 20               NOP
013be9: 20               NOP
013bea: 20               NOP
013beb: 20               NOP
013bec: 20               NOP
013bed: 20               NOP
013bee: 20               NOP
013bef: 20               NOP
013bf0: 20               NOP
013bf1: 20               NOP
013bf2: 20               NOP
013bf3: 20               NOP
013bf4: 20               NOP
013bf5: 20               NOP
013bf6: 20               NOP
013bf7: 20               NOP
013bf8: 20               NOP
013bf9: 20               NOP
013bfa: 20               NOP
013bfb: 20               NOP
013bfc: 20               NOP
013bfd: 20               NOP
013bfe: 20               NOP
013bff: 20               NOP
013c00: 20               NOP
013c01: 20               NOP
013c02: 20               NOP
013c03: 20               NOP
013c04: 20               NOP
013c05: 20               NOP
013c06: 20               NOP
013c07: 20               NOP
013c08: 20               NOP
013c09: 20               NOP
013c0a: 20               NOP
013c0b: 20               NOP
013c0c: 20               NOP
013c0d: 20               NOP
013c0e: 20               NOP
013c0f: 20               NOP
013c10: 20               NOP
013c11: 20               NOP
013c12: 20               NOP
013c13: 20               NOP
013c14: 20               NOP
013c15: 20               NOP
013c16: 20               NOP
013c17: 20               NOP
013c18: 20               NOP
013c19: 20               NOP
013c1a: 20               NOP
013c1b: 20               NOP
013c1c: 20               NOP
013c1d: 20               NOP
013c1e: 20               NOP
013c1f: 20               NOP
013c20: 20               NOP
013c21: 20               NOP
013c22: 20               NOP
013c23: 20               NOP
013c24: 20               NOP
013c25: 20               NOP
013c26: 20               NOP
013c27: 20               NOP
013c28: 20               NOP
013c29: 20               NOP
013c2a: 20               NOP
013c2b: 20               NOP
013c2c: 20               NOP
013c2d: 20               NOP
013c2e: 20               NOP
013c2f: 20               NOP
013c30: 20               NOP
013c31: 20               NOP
013c32: 20               NOP
013c33: 20               NOP
013c34: 20               NOP
013c35: 20               NOP
013c36: 20               NOP
013c37: 20               NOP
013c38: 20               NOP
013c39: 20               NOP
013c3a: 20               NOP
013c3b: 20               NOP
013c3c: 20               NOP
013c3d: 20               NOP
013c3e: 20               NOP
013c3f: 20               NOP
013c40: 20               NOP
013c41: 20               NOP
013c42: 20               NOP
013c43: 20               NOP
013c44: 20               NOP
013c45: 20               NOP
013c46: 20               NOP
013c47: 20               NOP
013c48: 20               NOP
013c49: 20               NOP
013c4a: 20               NOP
013c4b: 20               NOP
013c4c: 20               NOP
013c4d: 20               NOP
013c4e: 20               NOP
013c4f: 20               NOP
013c50: 20               NOP
013c51: 20               NOP
013c52: 20               NOP
013c53: 20               NOP
013c54: 20               NOP
013c55: 20               NOP
013c56: 20               NOP
013c57: 20               NOP
013c58: 20               NOP
013c59: 20               NOP
013c5a: 20               NOP
013c5b: 20               NOP
013c5c: 20               NOP
013c5d: 20               NOP
013c5e: 20               NOP
013c5f: 20               NOP
013c60: 20               NOP
013c61: 20               NOP
013c62: 20               NOP
013c63: 20               NOP
013c64: 20               NOP
013c65: 20               NOP
013c66: 20               NOP
013c67: 20               NOP
013c68: 20               NOP
013c69: 20               NOP
013c6a: 20               NOP
013c6b: 20               NOP
013c6c: 20               NOP
013c6d: 20               NOP
013c6e: 20               NOP
013c6f: 20               NOP
013c70: 20               NOP
013c71: 20               NOP
013c72: 20               NOP
013c73: 20               NOP
013c74: 20               NOP
013c75: 20               NOP
013c76: 20               NOP
013c77: 20               NOP
013c78: 20               NOP
013c79: 20               NOP
013c7a: 20               NOP
013c7b: 20               NOP
013c7c: 20               NOP
013c7d: 20               NOP
013c7e: 20               NOP
013c7f: 20               NOP
013c80: 20               NOP
013c81: 20               NOP
013c82: 20               NOP
013c83: 20               NOP
013c84: 20               NOP
013c85: 20               NOP
013c86: 20               NOP
013c87: 20               NOP
013c88: 20               NOP
013c89: 20               NOP
013c8a: 20               NOP
013c8b: 20               NOP
013c8c: 20               NOP
013c8d: 20               NOP
013c8e: 20               NOP
013c8f: 20               NOP
013c90: 20               NOP
013c91: 20               NOP
013c92: 20               NOP
013c93: 20               NOP
013c94: 20               NOP
013c95: 20               NOP
013c96: 20               NOP
013c97: 20               NOP
013c98: 20               NOP
013c99: 20               NOP
013c9a: 20               NOP
013c9b: 20               NOP
013c9c: 20               NOP
013c9d: 20               NOP
013c9e: 20               NOP
013c9f: 20               NOP
013ca0: 20               NOP
013ca1: 20               NOP
013ca2: 20               NOP
013ca3: 20               NOP
013ca4: 20               NOP
013ca5: 20               NOP
013ca6: 20               NOP
013ca7: 20               NOP
013ca8: 20               NOP
013ca9: 20               NOP
013caa: 20               NOP
013cab: 20               NOP
013cac: 20               NOP
013cad: 20               NOP
013cae: 20               NOP
013caf: 20               NOP
013cb0: 20               NOP
013cb1: 20               NOP
013cb2: 20               NOP
013cb3: 20               NOP
013cb4: 20               NOP
013cb5: 20               NOP
013cb6: 20               NOP
013cb7: 20               NOP
013cb8: 20               NOP
013cb9: 20               NOP
013cba: 20               NOP
013cbb: 20               NOP
013cbc: 20               NOP
013cbd: 20               NOP
013cbe: 20               NOP
013cbf: 20               NOP
013cc0: 20               NOP
013cc1: 20               NOP
013cc2: 20               NOP
013cc3: 20               NOP
013cc4: 20               NOP
013cc5: 20               NOP
013cc6: 20               NOP
013cc7: 20               NOP
013cc8: 20               NOP
013cc9: 20               NOP
013cca: 20               NOP
013ccb: 20               NOP
013ccc: 20               NOP
013ccd: 20               NOP
013cce: 20               NOP
013ccf: 20               NOP
013cd0: 20               NOP
013cd1: 20               NOP
013cd2: 20               NOP
013cd3: 20               NOP
013cd4: 20               NOP
013cd5: 20               NOP
013cd6: 20               NOP
013cd7: 20               NOP
013cd8: 20               NOP
013cd9: 20               NOP
013cda: 20               NOP
013cdb: 20               NOP
013cdc: 20               NOP
013cdd: 20               NOP
013cde: 20               NOP
013cdf: 20               NOP
013ce0: 20               NOP
013ce1: 20               NOP
013ce2: 20               NOP
013ce3: 20               NOP
013ce4: 20               NOP
013ce5: 20               NOP
013ce6: 20               NOP
013ce7: 20               NOP
013ce8: 20               NOP
013ce9: 20               NOP
013cea: 20               NOP
013ceb: 20               NOP
013cec: 20               NOP
013ced: 20               NOP
013cee: 20               NOP
013cef: 20               NOP
013cf0: 20               NOP
013cf1: 20               NOP
013cf2: 20               NOP
013cf3: 20               NOP
013cf4: 20               NOP
013cf5: 20               NOP
013cf6: 20               NOP
013cf7: 20               NOP
013cf8: 20               NOP
013cf9: 20               NOP
013cfa: 20               NOP
013cfb: 20               NOP
013cfc: 20               NOP
013cfd: 20               NOP
013cfe: 20               NOP
013cff: 20               NOP
013d00: 20               NOP
013d01: 20               NOP
013d02: 20               NOP
013d03: 20               NOP
013d04: 20               NOP
013d05: 20               NOP
013d06: 20               NOP
013d07: 20               NOP
013d08: 20               NOP
013d09: 20               NOP
013d0a: 20               NOP
013d0b: 20               NOP
013d0c: 20               NOP
013d0d: 20               NOP
013d0e: 20               NOP
013d0f: 20               NOP
013d10: 20               NOP
013d11: 20               NOP
013d12: 20               NOP
013d13: 20               NOP
013d14: 20               NOP
013d15: 20               NOP
013d16: 20               NOP
013d17: 20               NOP
013d18: 20               NOP
013d19: 20               NOP
013d1a: 20               NOP
013d1b: 20               NOP
013d1c: 20               NOP
013d1d: 20               NOP
013d1e: 20               NOP
013d1f: 20               NOP
013d20: 20               NOP
013d21: 20               NOP
013d22: 20               NOP
013d23: 20               NOP
013d24: 20               NOP
013d25: 20               NOP
013d26: 20               NOP
013d27: 20               NOP
013d28: 20               NOP
013d29: 20               NOP
013d2a: 20               NOP
013d2b: 20               NOP
013d2c: 20               NOP
013d2d: 20               NOP
013d2e: 20               NOP
013d2f: 20               NOP
013d30: 20               NOP
013d31: 20               NOP
013d32: 20               NOP
013d33: 20               NOP
013d34: 20               NOP
013d35: 20               NOP
013d36: 20               NOP
013d37: 20               NOP
013d38: 20               NOP
013d39: 20               NOP
013d3a: 20               NOP
013d3b: 20               NOP
013d3c: 20               NOP
013d3d: 20               NOP
013d3e: 20               NOP
013d3f: 20               NOP
013d40: 20               NOP
013d41: 20               NOP
013d42: 20               NOP
013d43: 20               NOP
013d44: 20               NOP
013d45: 20               NOP
013d46: 20               NOP
013d47: 20               NOP
013d48: 20               NOP
013d49: 20               NOP
013d4a: 20               NOP
013d4b: 20               NOP
013d4c: 20               NOP
013d4d: 20               NOP
013d4e: 20               NOP
013d4f: 20               NOP
013d50: 20               NOP
013d51: 20               NOP
013d52: 20               NOP
013d53: 20               NOP
013d54: 20               NOP
013d55: 20               NOP
013d56: 20               NOP
013d57: 20               NOP
013d58: 20               NOP
013d59: 20               NOP
013d5a: 20               NOP
013d5b: 20               NOP
013d5c: 20               NOP
013d5d: 20               NOP
013d5e: 20               NOP
013d5f: 20               NOP
013d60: 20               NOP
013d61: 20               NOP
013d62: 20               NOP
013d63: 20               NOP
013d64: 20               NOP
013d65: 20               NOP
013d66: 20               NOP
013d67: 20               NOP
013d68: 20               NOP
013d69: 20               NOP
013d6a: 20               NOP
013d6b: 20               NOP
013d6c: 20               NOP
013d6d: 20               NOP
013d6e: 20               NOP
013d6f: 20               NOP
013d70: 20               NOP
013d71: 20               NOP
013d72: 20               NOP
013d73: 20               NOP
013d74: 20               NOP
013d75: 20               NOP
013d76: 20               NOP
013d77: 20               NOP
013d78: 20               NOP
013d79: 20               NOP
013d7a: 20               NOP
013d7b: 20               NOP
013d7c: 20               NOP
013d7d: 20               NOP
013d7e: 20               NOP
013d7f: 20               NOP
013d80: 20               NOP
013d81: 20               NOP
013d82: 20               NOP
013d83: 20               NOP
013d84: 20               NOP
013d85: 20               NOP
013d86: 20               NOP
013d87: 20               NOP
013d88: 20               NOP
013d89: 20               NOP
013d8a: 20               NOP
013d8b: 20               NOP
013d8c: 20               NOP
013d8d: 20               NOP
013d8e: 20               NOP
013d8f: 20               NOP
013d90: 20               NOP
013d91: 20               NOP
013d92: 20               NOP
013d93: 20               NOP
013d94: 20               NOP
013d95: 20               NOP
013d96: 20               NOP
013d97: 20               NOP
013d98: 20               NOP
013d99: 20               NOP
013d9a: 20               NOP
013d9b: 20               NOP
013d9c: 20               NOP
013d9d: 20               NOP
013d9e: 20               NOP
013d9f: 20               NOP
013da0: 20               NOP
013da1: 20               NOP
013da2: 20               NOP
013da3: 20               NOP
013da4: 20               NOP
013da5: 20               NOP
013da6: 20               NOP
013da7: 20               NOP
013da8: 20               NOP
013da9: 20               NOP
013daa: 20               NOP
013dab: 20               NOP
013dac: 20               NOP
013dad: 20               NOP
013dae: 20               NOP
013daf: 20               NOP
013db0: 20               NOP
013db1: 20               NOP
013db2: 20               NOP
013db3: 20               NOP
013db4: 20               NOP
013db5: 20               NOP
013db6: 20               NOP
013db7: 20               NOP
013db8: 20               NOP
013db9: 20               NOP
013dba: 20               NOP
013dbb: 20               NOP
013dbc: 20               NOP
013dbd: 20               NOP
013dbe: 20               NOP
013dbf: 20               NOP
013dc0: 20               NOP
013dc1: 20               NOP
013dc2: 20               NOP
013dc3: 20               NOP
013dc4: 20               NOP
013dc5: 20               NOP
013dc6: 20               NOP
013dc7: 20               NOP
013dc8: 20               NOP
013dc9: 20               NOP
013dca: 20               NOP
013dcb: 20               NOP
013dcc: 20               NOP
013dcd: 20               NOP
013dce: 20               NOP
013dcf: 20               NOP
013dd0: 20               NOP
013dd1: 20               NOP
013dd2: 20               NOP
013dd3: 20               NOP
013dd4: 20               NOP
013dd5: 20               NOP
013dd6: 20               NOP
013dd7: 20               NOP
013dd8: 20               NOP
013dd9: 20               NOP
013dda: 20               NOP
013ddb: 20               NOP
013ddc: 20               NOP
013ddd: 20               NOP
013dde: 20               NOP
013ddf: 20               NOP
013de0: 20               NOP
013de1: 20               NOP
013de2: 20               NOP
013de3: 20               NOP
013de4: 20               NOP
013de5: 20               NOP
013de6: 20               NOP
013de7: 20               NOP
013de8: 20               NOP
013de9: 20               NOP
013dea: 20               NOP
013deb: 20               NOP
013dec: 20               NOP
013ded: 20               NOP
013dee: 20               NOP
013def: 20               NOP
013df0: 20               NOP
013df1: 20               NOP
013df2: 20               NOP
013df3: 20               NOP
013df4: 20               NOP
013df5: 20               NOP
013df6: 20               NOP
013df7: 20               NOP
013df8: 20               NOP
013df9: 20               NOP
013dfa: 20               NOP
013dfb: 20               NOP
013dfc: 20               NOP
013dfd: 20               NOP
013dfe: 20               NOP
013dff: 20               NOP
013e00: 20               NOP
013e01: 20               NOP
013e02: 20               NOP
013e03: 20               NOP
013e04: 20               NOP
013e05: 20               NOP
013e06: 20               NOP
013e07: 20               NOP
013e08: 20               NOP
013e09: 20               NOP
013e0a: 20               NOP
013e0b: 20               NOP
013e0c: 20               NOP
013e0d: 20               NOP
013e0e: 20               NOP
013e0f: 20               NOP
013e10: 20               NOP
013e11: 20               NOP
013e12: 20               NOP
013e13: 20               NOP
013e14: 20               NOP
013e15: 20               NOP
013e16: 20               NOP
013e17: 20               NOP
013e18: 20               NOP
013e19: 20               NOP
013e1a: 20               NOP
013e1b: 20               NOP
013e1c: 20               NOP
013e1d: 20               NOP
013e1e: 20               NOP
013e1f: 20               NOP
013e20: 20               NOP
013e21: 20               NOP
013e22: 20               NOP
013e23: 20               NOP
013e24: 20               NOP
013e25: 20               NOP
013e26: 20               NOP
013e27: 20               NOP
013e28: 20               NOP
013e29: 20               NOP
013e2a: 20               NOP
013e2b: 20               NOP
013e2c: 20               NOP
013e2d: 20               NOP
013e2e: 20               NOP
013e2f: 20               NOP
013e30: 20               NOP
013e31: 20               NOP
013e32: 20               NOP
013e33: 20               NOP
013e34: 20               NOP
013e35: 20               NOP
013e36: 20               NOP
013e37: 20               NOP
013e38: 20               NOP
013e39: 20               NOP
013e3a: 20               NOP
013e3b: 20               NOP
013e3c: 20               NOP
013e3d: 20               NOP
013e3e: 20               NOP
013e3f: 20               NOP
013e40: 20               NOP
013e41: 20               NOP
013e42: 20               NOP
013e43: 20               NOP
013e44: 20               NOP
013e45: 20               NOP
013e46: 20               NOP
013e47: 20               NOP
013e48: 20               NOP
013e49: 20               NOP
013e4a: 20               NOP
013e4b: 20               NOP
013e4c: 20               NOP
013e4d: 20               NOP
013e4e: 20               NOP
013e4f: 20               NOP
013e50: 20               NOP
013e51: 20               NOP
013e52: 20               NOP
013e53: 20               NOP
013e54: 20               NOP
013e55: 20               NOP
013e56: 20               NOP
013e57: 20               NOP
013e58: 20               NOP
013e59: 20               NOP
013e5a: 20               NOP
013e5b: 20               NOP
013e5c: 20               NOP
013e5d: 20               NOP
013e5e: 20               NOP
013e5f: 20               NOP
013e60: 20               NOP
013e61: 20               NOP
013e62: 20               NOP
013e63: 20               NOP
013e64: 20               NOP
013e65: 20               NOP
013e66: 20               NOP
013e67: 20               NOP
013e68: 20               NOP
013e69: 20               NOP
013e6a: 20               NOP
013e6b: 20               NOP
013e6c: 20               NOP
013e6d: 20               NOP
013e6e: 20               NOP
013e6f: 20               NOP
013e70: 20               NOP
013e71: 20               NOP
013e72: 20               NOP
013e73: 20               NOP
013e74: 20               NOP
013e75: 20               NOP
013e76: 20               NOP
013e77: 20               NOP
013e78: 20               NOP
013e79: 20               NOP
013e7a: 20               NOP
013e7b: 20               NOP
013e7c: 20               NOP
013e7d: 20               NOP
013e7e: 20               NOP
013e7f: 20               NOP
013e80: 20               NOP
013e81: 20               NOP
013e82: 20               NOP
013e83: 20               NOP
013e84: 20               NOP
013e85: 20               NOP
013e86: 20               NOP
013e87: 20               NOP
013e88: 20               NOP
013e89: 20               NOP
013e8a: 20               NOP
013e8b: 20               NOP
013e8c: 20               NOP
013e8d: 20               NOP
013e8e: 20               NOP
013e8f: 20               NOP
013e90: 20               NOP
013e91: 20               NOP
013e92: 20               NOP
013e93: 20               NOP
013e94: 20               NOP
013e95: 20               NOP
013e96: 20               NOP
013e97: 20               NOP
013e98: 20               NOP
013e99: 20               NOP
013e9a: 20               NOP
013e9b: 20               NOP
013e9c: 20               NOP
013e9d: 20               NOP
013e9e: 20               NOP
013e9f: 20               NOP
013ea0: 20               NOP
013ea1: 20               NOP
013ea2: 20               NOP
013ea3: 20               NOP
013ea4: 20               NOP
013ea5: 20               NOP
013ea6: 20               NOP
013ea7: 20               NOP
013ea8: 20               NOP
013ea9: 20               NOP
013eaa: 20               NOP
013eab: 20               NOP
013eac: 20               NOP
013ead: 20               NOP
013eae: 20               NOP
013eaf: 20               NOP
013eb0: 20               NOP
013eb1: 20               NOP
013eb2: 20               NOP
013eb3: 20               NOP
013eb4: 20               NOP
013eb5: 20               NOP
013eb6: 20               NOP
013eb7: 20               NOP
013eb8: 20               NOP
013eb9: 20               NOP
013eba: 20               NOP
013ebb: 20               NOP
013ebc: 20               NOP
013ebd: 20               NOP
013ebe: 20               NOP
013ebf: 20               NOP
013ec0: 20               NOP
013ec1: 20               NOP
013ec2: 20               NOP
013ec3: 20               NOP
013ec4: 20               NOP
013ec5: 20               NOP
013ec6: 20               NOP
013ec7: 20               NOP
013ec8: 20               NOP
013ec9: 20               NOP
013eca: 20               NOP
013ecb: 20               NOP
013ecc: 20               NOP
013ecd: 20               NOP
013ece: 20               NOP
013ecf: 20               NOP
013ed0: 20               NOP
013ed1: 20               NOP
013ed2: 20               NOP
013ed3: 20               NOP
013ed4: 20               NOP
013ed5: 20               NOP
013ed6: 20               NOP
013ed7: 20               NOP
013ed8: 20               NOP
013ed9: 20               NOP
013eda: 20               NOP
013edb: 20               NOP
013edc: 20               NOP
013edd: 20               NOP
013ede: 20               NOP
013edf: 20               NOP
013ee0: 20               NOP
013ee1: 20               NOP
013ee2: 20               NOP
013ee3: 20               NOP
013ee4: 20               NOP
013ee5: 20               NOP
013ee6: 20               NOP
013ee7: 20               NOP
013ee8: 20               NOP
013ee9: 20               NOP
013eea: 20               NOP
013eeb: 20               NOP
013eec: 20               NOP
013eed: 20               NOP
013eee: 20               NOP
013eef: 20               NOP
013ef0: 20               NOP
013ef1: 20               NOP
013ef2: 20               NOP
013ef3: 20               NOP
013ef4: 20               NOP
013ef5: 20               NOP
013ef6: 20               NOP
013ef7: 20               NOP
013ef8: 20               NOP
013ef9: 20               NOP
013efa: 20               NOP
013efb: 20               NOP
013efc: 20               NOP
013efd: 20               NOP
013efe: 20               NOP
013eff: 20               NOP
013f00: 20               NOP
013f01: 20               NOP
013f02: 20               NOP
013f03: 20               NOP
013f04: 20               NOP
013f05: 20               NOP
013f06: 20               NOP
013f07: 20               NOP
013f08: 20               NOP
013f09: 20               NOP
013f0a: 20               NOP
013f0b: 20               NOP
013f0c: 20               NOP
013f0d: 20               NOP
013f0e: 20               NOP
013f0f: 20               NOP
013f10: 20               NOP
013f11: 20               NOP
013f12: 20               NOP
013f13: 20               NOP
013f14: 20               NOP
013f15: 20               NOP
013f16: 20               NOP
013f17: 20               NOP
013f18: 20               NOP
013f19: 20               NOP
013f1a: 20               NOP
013f1b: 20               NOP
013f1c: 20               NOP
013f1d: 20               NOP
013f1e: 20               NOP
013f1f: 20               NOP
013f20: 20               NOP
013f21: 20               NOP
013f22: 20               NOP
013f23: 20               NOP
013f24: 20               NOP
013f25: 20               NOP
013f26: 20               NOP
013f27: 20               NOP
013f28: 20               NOP
013f29: 20               NOP
013f2a: 20               NOP
013f2b: 20               NOP
013f2c: 20               NOP
013f2d: 20               NOP
013f2e: 20               NOP
013f2f: 20               NOP
013f30: 20               NOP
013f31: 20               NOP
013f32: 20               NOP
013f33: 20               NOP
013f34: 20               NOP
013f35: 20               NOP
013f36: 20               NOP
013f37: 20               NOP
013f38: 20               NOP
013f39: 20               NOP
013f3a: 20               NOP
013f3b: 20               NOP
013f3c: 20               NOP
013f3d: 20               NOP
013f3e: 20               NOP
013f3f: 20               NOP
013f40: 20               NOP
013f41: 20               NOP
013f42: 20               NOP
013f43: 20               NOP
013f44: 20               NOP
013f45: 20               NOP
013f46: 20               NOP
013f47: 20               NOP
013f48: 20               NOP
013f49: 20               NOP
013f4a: 20               NOP
013f4b: 20               NOP
013f4c: 20               NOP
013f4d: 20               NOP
013f4e: 20               NOP
013f4f: 20               NOP
013f50: 20               NOP
013f51: 20               NOP
013f52: 20               NOP
013f53: 20               NOP
013f54: 20               NOP
013f55: 20               NOP
013f56: 20               NOP
013f57: 20               NOP
013f58: 20               NOP
013f59: 20               NOP
013f5a: 20               NOP
013f5b: 20               NOP
013f5c: 20               NOP
013f5d: 20               NOP
013f5e: 20               NOP
013f5f: 20               NOP
013f60: 20               NOP
013f61: 20               NOP
013f62: 20               NOP
013f63: 20               NOP
013f64: 20               NOP
013f65: 20               NOP
013f66: 20               NOP
013f67: 20               NOP
013f68: 20               NOP
013f69: 20               NOP
013f6a: 20               NOP
013f6b: 20               NOP
013f6c: 20               NOP
013f6d: 20               NOP
013f6e: 20               NOP
013f6f: 20               NOP
013f70: 20               NOP
013f71: 20               NOP
013f72: 20               NOP
013f73: 20               NOP
013f74: 20               NOP
013f75: 20               NOP
013f76: 20               NOP
013f77: 20               NOP
013f78: 20               NOP
013f79: 20               NOP
013f7a: 20               NOP
013f7b: 20               NOP
013f7c: 20               NOP
013f7d: 20               NOP
013f7e: 20               NOP
013f7f: 20               NOP
013f80: 20               NOP
013f81: 20               NOP
013f82: 20               NOP
013f83: 20               NOP
013f84: 20               NOP
013f85: 20               NOP
013f86: 20               NOP
013f87: 20               NOP
013f88: 20               NOP
013f89: 20               NOP
013f8a: 20               NOP
013f8b: 20               NOP
013f8c: 20               NOP
013f8d: 20               NOP
013f8e: 20               NOP
013f8f: 20               NOP
013f90: 20               NOP
013f91: 20               NOP
013f92: 20               NOP
013f93: 20               NOP
013f94: 20               NOP
013f95: 20               NOP
013f96: 20               NOP
013f97: 20               NOP
013f98: 20               NOP
013f99: 20               NOP
013f9a: 20               NOP
013f9b: 20               NOP
013f9c: 20               NOP
013f9d: 20               NOP
013f9e: 20               NOP
013f9f: 20               NOP
013fa0: 20               NOP
013fa1: 20               NOP
013fa2: 20               NOP
013fa3: 20               NOP
013fa4: 20               NOP
013fa5: 20               NOP
013fa6: 20               NOP
013fa7: 20               NOP
013fa8: 20               NOP
013fa9: 20               NOP
013faa: 20               NOP
013fab: 20               NOP
013fac: 20               NOP
013fad: 20               NOP
013fae: 20               NOP
013faf: 20               NOP
013fb0: 20               NOP
013fb1: 20               NOP
013fb2: 20               NOP
013fb3: 20               NOP
013fb4: 20               NOP
013fb5: 20               NOP
013fb6: 20               NOP
013fb7: 20               NOP
013fb8: 20               NOP
013fb9: 20               NOP
013fba: 20               NOP
013fbb: 20               NOP
013fbc: 20               NOP
013fbd: 20               NOP
013fbe: 20               NOP
013fbf: 20               NOP
013fc0: 20               NOP
013fc1: 20               NOP
013fc2: 20               NOP
013fc3: 20               NOP
013fc4: 20               NOP
013fc5: 20               NOP
013fc6: 20               NOP
013fc7: 20               NOP
013fc8: 20               NOP
013fc9: 20               NOP
013fca: 20               NOP
013fcb: 20               NOP
013fcc: 20               NOP
013fcd: 20               NOP
013fce: 20               NOP
013fcf: 20               NOP
013fd0: 20               NOP
013fd1: 20               NOP
013fd2: 20               NOP
013fd3: 20               NOP
013fd4: 20               NOP
013fd5: 20               NOP
013fd6: 20               NOP
013fd7: 20               NOP
013fd8: 20               NOP
013fd9: 20               NOP
013fda: 20               NOP
013fdb: 20               NOP
013fdc: 20               NOP
013fdd: 20               NOP
013fde: 20               NOP
013fdf: 20               NOP
013fe0: 20               NOP
013fe1: 20               NOP
013fe2: 20               NOP
013fe3: 20               NOP
013fe4: 20               NOP
013fe5: 20               NOP
013fe6: 20               NOP
013fe7: 20               NOP
013fe8: 20               NOP
013fe9: 20               NOP
013fea: 20               NOP
013feb: 20               NOP
013fec: 20               NOP
013fed: 20               NOP
013fee: 20               NOP
013fef: 20               NOP
013ff0: 20               NOP
013ff1: 20               NOP
013ff2: 20               NOP
013ff3: 20               NOP
013ff4: 20               NOP
013ff5: 20               NOP
013ff6: 20               NOP
013ff7: 20               NOP
013ff8: 20               NOP
013ff9: 20               NOP
013ffa: 20               NOP
013ffb: 20               NOP
013ffc: 20               NOP
013ffd: 20               NOP
013ffe: 20               NOP
013fff: 20               NOP
014000: 20               NOP
014001: 20               NOP
014002: 20               NOP
014003: 20               NOP
014004: 20               NOP
014005: 20               NOP
014006: 20               NOP
014007: 20               NOP
014008: 20               NOP
014009: 20               NOP
01400a: 20               NOP
01400b: 20               NOP
01400c: 20               NOP
01400d: 20               NOP
01400e: 20               NOP
01400f: 20               NOP
014010: 20               NOP
014011: 20               NOP
014012: 20               NOP
014013: 20               NOP
014014: 20               NOP
014015: 20               NOP
014016: 20               NOP
014017: 20               NOP
014018: 20               NOP
014019: 20               NOP
01401a: 20               NOP
01401b: 20               NOP
01401c: 20               NOP
01401d: 20               NOP
01401e: 20               NOP
01401f: 20               NOP
014020: 20               NOP
014021: 20               NOP
014022: 20               NOP
014023: 20               NOP
014024: 20               NOP
014025: 20               NOP
014026: 20               NOP
014027: 20               NOP
014028: 20               NOP
014029: 20               NOP
01402a: 20               NOP
01402b: 20               NOP
01402c: 20               NOP
01402d: 20               NOP
01402e: 20               NOP
01402f: 20               NOP
014030: 20               NOP
014031: 20               NOP
014032: 20               NOP
014033: 20               NOP
014034: 20               NOP
014035: 20               NOP
014036: 20               NOP
014037: 20               NOP
014038: 20               NOP
014039: 20               NOP
01403a: 20               NOP
01403b: 20               NOP
01403c: 20               NOP
01403d: 20               NOP
01403e: 20               NOP
01403f: 20               NOP
014040: 20               NOP
014041: 20               NOP
014042: 20               NOP
014043: 20               NOP
014044: 20               NOP
014045: 20               NOP
014046: 20               NOP
014047: 20               NOP
014048: 20               NOP
014049: 20               NOP
01404a: 20               NOP
01404b: 20               NOP
01404c: 20               NOP
01404d: 20               NOP
01404e: 20               NOP
01404f: 20               NOP
014050: 20               NOP
014051: 20               NOP
014052: 20               NOP
014053: 20               NOP
014054: 20               NOP
014055: 20               NOP
014056: 20               NOP
014057: 20               NOP
014058: 20               NOP
014059: 20               NOP
01405a: 20               NOP
01405b: 20               NOP
01405c: 20               NOP
01405d: 20               NOP
01405e: 20               NOP
01405f: 20               NOP
014060: 20               NOP
014061: 20               NOP
014062: 20               NOP
014063: 20               NOP
014064: 20               NOP
014065: 20               NOP
014066: 20               NOP
014067: 20               NOP
014068: 20               NOP
014069: 20               NOP
01406a: 20               NOP
01406b: 20               NOP
01406c: 20               NOP
01406d: 20               NOP
01406e: 20               NOP
01406f: 20               NOP
014070: 20               NOP
014071: 20               NOP
014072: 20               NOP
014073: 20               NOP
014074: 20               NOP
014075: 20               NOP
014076: 20               NOP
014077: 20               NOP
014078: 20               NOP
014079: 20               NOP
01407a: 20               NOP
01407b: 20               NOP
01407c: 20               NOP
01407d: 20               NOP
01407e: 20               NOP
01407f: 20               NOP
014080: 20               NOP
014081: 20               NOP
014082: 20               NOP
014083: 20               NOP
014084: 20               NOP
014085: 20               NOP
014086: 20               NOP
014087: 20               NOP
014088: 20               NOP
014089: 20               NOP
01408a: 20               NOP
01408b: 20               NOP
01408c: 20               NOP
01408d: 20               NOP
01408e: 20               NOP
01408f: 20               NOP
014090: 20               NOP
014091: 20               NOP
014092: 20               NOP
014093: 20               NOP
014094: 20               NOP
014095: 20               NOP
014096: 20               NOP
014097: 20               NOP
014098: 20               NOP
014099: 20               NOP
01409a: 20               NOP
01409b: 20               NOP
01409c: 20               NOP
01409d: 20               NOP
01409e: 20               NOP
01409f: 20               NOP
0140a0: 20               NOP
0140a1: 20               NOP
0140a2: 20               NOP
0140a3: 20               NOP
0140a4: 20               NOP
0140a5: 20               NOP
0140a6: 20               NOP
0140a7: 20               NOP
0140a8: 20               NOP
0140a9: 20               NOP
0140aa: 20               NOP
0140ab: 20               NOP
0140ac: 20               NOP
0140ad: 20               NOP
0140ae: 20               NOP
0140af: 20               NOP
0140b0: 20               NOP
0140b1: 20               NOP
0140b2: 20               NOP
0140b3: 20               NOP
0140b4: 20               NOP
0140b5: 20               NOP
0140b6: 20               NOP
0140b7: 20               NOP
0140b8: 20               NOP
0140b9: 20               NOP
0140ba: 20               NOP
0140bb: 20               NOP
0140bc: 20               NOP
0140bd: 20               NOP
0140be: 20               NOP
0140bf: 20               NOP
0140c0: 20               NOP
0140c1: 20               NOP
0140c2: 20               NOP
0140c3: 20               NOP
0140c4: 20               NOP
0140c5: 20               NOP
0140c6: 20               NOP
0140c7: 20               NOP
0140c8: 20               NOP
0140c9: 20               NOP
0140ca: 20               NOP
0140cb: 20               NOP
0140cc: 20               NOP
0140cd: 20               NOP
0140ce: 20               NOP
0140cf: 20               NOP
0140d0: 20               NOP
0140d1: 20               NOP
0140d2: 20               NOP
0140d3: 20               NOP
0140d4: 20               NOP
0140d5: 20               NOP
0140d6: 20               NOP
0140d7: 20               NOP
0140d8: 20               NOP
0140d9: 20               NOP
0140da: 20               NOP
0140db: 20               NOP
0140dc: 20               NOP
0140dd: 20               NOP
0140de: 20               NOP
0140df: 20               NOP
0140e0: 20               NOP
0140e1: 20               NOP
0140e2: 20               NOP
0140e3: 20               NOP
0140e4: 20               NOP
0140e5: 20               NOP
0140e6: 20               NOP
0140e7: 20               NOP
0140e8: 20               NOP
0140e9: 20               NOP
0140ea: 20               NOP
0140eb: 20               NOP
0140ec: 20               NOP
0140ed: 20               NOP
0140ee: 20               NOP
0140ef: 20               NOP
0140f0: 20               NOP
0140f1: 20               NOP
0140f2: 20               NOP
0140f3: 20               NOP
0140f4: 20               NOP
0140f5: 20               NOP
0140f6: 20               NOP
0140f7: 20               NOP
0140f8: 20               NOP
0140f9: 20               NOP
0140fa: 20               NOP
0140fb: 20               NOP
0140fc: 20               NOP
0140fd: 20               NOP
0140fe: 20               NOP
0140ff: 20               NOP
014100: 20               NOP
014101: 20               NOP
014102: 20               NOP
014103: 20               NOP
014104: 20               NOP
014105: 20               NOP
014106: 20               NOP
014107: 20               NOP
014108: 20               NOP
014109: 20               NOP
01410a: 20               NOP
01410b: 20               NOP
01410c: 20               NOP
01410d: 20               NOP
01410e: 20               NOP
01410f: 20               NOP
014110: 20               NOP
014111: 20               NOP
014112: 20               NOP
014113: 20               NOP
014114: 20               NOP
014115: 20               NOP
014116: 20               NOP
014117: 20               NOP
014118: 20               NOP
014119: 20               NOP
01411a: 20               NOP
01411b: 20               NOP
01411c: 20               NOP
01411d: 20               NOP
01411e: 20               NOP
01411f: 20               NOP
014120: 20               NOP
014121: 20               NOP
014122: 20               NOP
014123: 20               NOP
014124: 20               NOP
014125: 20               NOP
014126: 20               NOP
014127: 20               NOP
014128: 20               NOP
014129: 20               NOP
01412a: 20               NOP
01412b: 20               NOP
01412c: 20               NOP
01412d: 20               NOP
01412e: 20               NOP
01412f: 20               NOP
014130: 20               NOP
014131: 20               NOP
014132: 20               NOP
014133: 20               NOP
014134: 20               NOP
014135: 20               NOP
014136: 20               NOP
014137: 20               NOP
014138: 20               NOP
014139: 20               NOP
01413a: 20               NOP
01413b: 20               NOP
01413c: 20               NOP
01413d: 20               NOP
01413e: 20               NOP
01413f: 20               NOP
014140: 20               NOP
014141: 20               NOP
014142: 20               NOP
014143: 20               NOP
014144: 20               NOP
014145: 20               NOP
014146: 20               NOP
014147: 20               NOP
014148: 20               NOP
014149: 20               NOP
01414a: 20               NOP
01414b: 20               NOP
01414c: 20               NOP
01414d: 20               NOP
01414e: 20               NOP
01414f: 20               NOP
014150: 20               NOP
014151: 20               NOP
014152: 20               NOP
014153: 20               NOP
014154: 20               NOP
014155: 20               NOP
014156: 20               NOP
014157: 20               NOP
014158: 20               NOP
014159: 20               NOP
01415a: 20               NOP
01415b: 20               NOP
01415c: 20               NOP
01415d: 20               NOP
01415e: 20               NOP
01415f: 20               NOP
014160: 20               NOP
014161: 20               NOP
014162: 20               NOP
014163: 20               NOP
014164: 20               NOP
014165: 20               NOP
014166: 20               NOP
014167: 20               NOP
014168: 20               NOP
014169: 20               NOP
01416a: 20               NOP
01416b: 20               NOP
01416c: 20               NOP
01416d: 20               NOP
01416e: 20               NOP
01416f: 20               NOP
014170: 20               NOP
014171: 20               NOP
014172: 20               NOP
014173: 20               NOP
014174: 20               NOP
014175: 20               NOP
014176: 20               NOP
014177: 20               NOP
014178: 20               NOP
014179: 20               NOP
01417a: 20               NOP
01417b: 20               NOP
01417c: 20               NOP
01417d: 20               NOP
01417e: 20               NOP
01417f: 20               NOP
014180: 20               NOP
014181: 20               NOP
014182: 20               NOP
014183: 20               NOP
014184: 20               NOP
014185: 20               NOP
014186: 20               NOP
014187: 20               NOP
014188: 20               NOP
014189: 20               NOP
01418a: 20               NOP
01418b: 20               NOP
01418c: 20               NOP
01418d: 20               NOP
01418e: 20               NOP
01418f: 20               NOP
014190: 20               NOP
014191: 20               NOP
014192: 20               NOP
014193: 20               NOP
014194: 20               NOP
014195: 20               NOP
014196: 20               NOP
014197: 20               NOP
014198: 20               NOP
014199: 20               NOP
01419a: 20               NOP
01419b: 20               NOP
01419c: 20               NOP
01419d: 20               NOP
01419e: 20               NOP
01419f: 20               NOP
0141a0: 20               NOP
0141a1: 20               NOP
0141a2: 20               NOP
0141a3: 20               NOP
0141a4: 20               NOP
0141a5: 20               NOP
0141a6: 20               NOP
0141a7: 20               NOP
0141a8: 20               NOP
0141a9: 20               NOP
0141aa: 20               NOP
0141ab: 20               NOP
0141ac: 20               NOP
0141ad: 20               NOP
0141ae: 20               NOP
0141af: 20               NOP
0141b0: 20               NOP
0141b1: 20               NOP
0141b2: 20               NOP
0141b3: 20               NOP
0141b4: 20               NOP
0141b5: 20               NOP
0141b6: 20               NOP
0141b7: 20               NOP
0141b8: 20               NOP
0141b9: 20               NOP
0141ba: 20               NOP
0141bb: 20               NOP
0141bc: 20               NOP
0141bd: 20               NOP
0141be: 20               NOP
0141bf: 20               NOP
0141c0: 20               NOP
0141c1: 20               NOP
0141c2: 20               NOP
0141c3: 20               NOP
0141c4: 20               NOP
0141c5: 20               NOP
0141c6: 20               NOP
0141c7: 20               NOP
0141c8: 20               NOP
0141c9: 20               NOP
0141ca: 20               NOP
0141cb: 20               NOP
0141cc: 20               NOP
0141cd: 20               NOP
0141ce: 20               NOP
0141cf: 20               NOP
0141d0: 20               NOP
0141d1: 20               NOP
0141d2: 20               NOP
0141d3: 20               NOP
0141d4: 20               NOP
0141d5: 20               NOP
0141d6: 20               NOP
0141d7: 20               NOP
0141d8: 20               NOP
0141d9: 20               NOP
0141da: 20               NOP
0141db: 20               NOP
0141dc: 20               NOP
0141dd: 20               NOP
0141de: 20               NOP
0141df: 20               NOP
0141e0: 20               NOP
0141e1: 20               NOP
0141e2: 20               NOP
0141e3: 20               NOP
0141e4: 20               NOP
0141e5: 20               NOP
0141e6: 20               NOP
0141e7: 20               NOP
0141e8: 20               NOP
0141e9: 20               NOP
0141ea: 20               NOP
0141eb: 20               NOP
0141ec: 20               NOP
0141ed: 20               NOP
0141ee: 20               NOP
0141ef: 20               NOP
0141f0: 20               NOP
0141f1: 20               NOP
0141f2: 20               NOP
0141f3: 20               NOP
0141f4: 20               NOP
0141f5: 20               NOP
0141f6: 20               NOP
0141f7: 20               NOP
0141f8: 20               NOP
0141f9: 20               NOP
0141fa: 20               NOP
0141fb: 20               NOP
0141fc: 20               NOP
0141fd: 20               NOP
0141fe: 20               NOP
0141ff: 20               NOP
014200: 20               NOP
014201: 20               NOP
014202: 20               NOP
014203: 20               NOP
014204: 20               NOP
014205: 20               NOP
014206: 20               NOP
014207: 20               NOP
014208: 20               NOP
014209: 20               NOP
01420a: 20               NOP
01420b: 20               NOP
01420c: 20               NOP
01420d: 20               NOP
01420e: 20               NOP
01420f: 20               NOP
014210: 20               NOP
014211: 20               NOP
014212: 20               NOP
014213: 20               NOP
014214: 20               NOP
014215: 20               NOP
014216: 20               NOP
014217: 20               NOP
014218: 20               NOP
014219: 20               NOP
01421a: 20               NOP
01421b: 20               NOP
01421c: 20               NOP
01421d: 20               NOP
01421e: 20               NOP
01421f: 20               NOP
014220: 20               NOP
014221: 20               NOP
014222: 20               NOP
014223: 20               NOP
014224: 20               NOP
014225: 20               NOP
014226: 20               NOP
014227: 20               NOP
014228: 20               NOP
014229: 20               NOP
01422a: 20               NOP
01422b: 20               NOP
01422c: 20               NOP
01422d: 20               NOP
01422e: 20               NOP
01422f: 20               NOP
014230: 20               NOP
014231: 20               NOP
014232: 20               NOP
014233: 20               NOP
014234: 20               NOP
014235: 20               NOP
014236: 20               NOP
014237: 20               NOP
014238: 20               NOP
014239: 20               NOP
01423a: 20               NOP
01423b: 20               NOP
01423c: 20               NOP
01423d: 20               NOP
01423e: 20               NOP
01423f: 20               NOP
014240: 20               NOP
014241: 20               NOP
014242: 20               NOP
014243: 20               NOP
014244: 20               NOP
014245: 20               NOP
014246: 20               NOP
014247: 20               NOP
014248: 20               NOP
014249: 20               NOP
01424a: 20               NOP
01424b: 20               NOP
01424c: 20               NOP
01424d: 20               NOP
01424e: 20               NOP
01424f: 20               NOP
014250: 20               NOP
014251: 20               NOP
014252: 20               NOP
014253: 20               NOP
014254: 20               NOP
014255: 20               NOP
014256: 20               NOP
014257: 20               NOP
014258: 20               NOP
014259: 20               NOP
01425a: 20               NOP
01425b: 20               NOP
01425c: 20               NOP
01425d: 20               NOP
01425e: 20               NOP
01425f: 20               NOP
014260: 20               NOP
014261: 20               NOP
014262: 20               NOP
014263: 20               NOP
014264: 20               NOP
014265: 20               NOP
014266: 20               NOP
014267: 20               NOP
014268: 20               NOP
014269: 20               NOP
01426a: 20               NOP
01426b: 20               NOP
01426c: 20               NOP
01426d: 20               NOP
01426e: 20               NOP
01426f: 20               NOP
014270: 20               NOP
014271: 20               NOP
014272: 20               NOP
014273: 20               NOP
014274: 20               NOP
014275: 20               NOP
014276: 20               NOP
014277: 20               NOP
014278: 20               NOP
014279: 20               NOP
01427a: 20               NOP
01427b: 20               NOP
01427c: 20               NOP
01427d: 20               NOP
01427e: 20               NOP
01427f: 20               NOP
014280: 20               NOP
014281: 20               NOP
014282: 20               NOP
014283: 20               NOP
014284: 20               NOP
014285: 20               NOP
014286: 20               NOP
014287: 20               NOP
014288: 20               NOP
014289: 20               NOP
01428a: 20               NOP
01428b: 20               NOP
01428c: 20               NOP
01428d: 20               NOP
01428e: 20               NOP
01428f: 20               NOP
014290: 20               NOP
014291: 20               NOP
014292: 20               NOP
014293: 20               NOP
014294: 20               NOP
014295: 20               NOP
014296: 20               NOP
014297: 20               NOP
014298: 20               NOP
014299: 20               NOP
01429a: 20               NOP
01429b: 20               NOP
01429c: 20               NOP
01429d: 20               NOP
01429e: 20               NOP
01429f: 20               NOP
0142a0: 20               NOP
0142a1: 20               NOP
0142a2: 20               NOP
0142a3: 20               NOP
0142a4: 20               NOP
0142a5: 20               NOP
0142a6: 20               NOP
0142a7: 20               NOP
0142a8: 20               NOP
0142a9: 20               NOP
0142aa: 20               NOP
0142ab: 20               NOP
0142ac: 20               NOP
0142ad: 20               NOP
0142ae: 20               NOP
0142af: 20               NOP
0142b0: 20               NOP
0142b1: 20               NOP
0142b2: 20               NOP
0142b3: 20               NOP
0142b4: 20               NOP
0142b5: 20               NOP
0142b6: 20               NOP
0142b7: 20               NOP
0142b8: 20               NOP
0142b9: 20               NOP
0142ba: 20               NOP
0142bb: 20               NOP
0142bc: 20               NOP
0142bd: 20               NOP
0142be: 20               NOP
0142bf: 20               NOP
0142c0: 20               NOP
0142c1: 20               NOP
0142c2: 20               NOP
0142c3: 20               NOP
0142c4: 20               NOP
0142c5: 20               NOP
0142c6: 20               NOP
0142c7: 20               NOP
0142c8: 20               NOP
0142c9: 20               NOP
0142ca: 20               NOP
0142cb: 20               NOP
0142cc: 20               NOP
0142cd: 20               NOP
0142ce: 20               NOP
0142cf: 20               NOP
0142d0: 20               NOP
0142d1: 20               NOP
0142d2: 20               NOP
0142d3: 20               NOP
0142d4: 20               NOP
0142d5: 20               NOP
0142d6: 20               NOP
0142d7: 20               NOP
0142d8: 20               NOP
0142d9: 20               NOP
0142da: 20               NOP
0142db: 20               NOP
0142dc: 20               NOP
0142dd: 20               NOP
0142de: 20               NOP
0142df: 20               NOP
0142e0: 20               NOP
0142e1: 20               NOP
0142e2: 20               NOP
0142e3: 20               NOP
0142e4: 20               NOP
0142e5: 20               NOP
0142e6: 20               NOP
0142e7: 20               NOP
0142e8: 20               NOP
0142e9: 20               NOP
0142ea: 20               NOP
0142eb: 20               NOP
0142ec: 20               NOP
0142ed: 20               NOP
0142ee: 20               NOP
0142ef: 20               NOP
0142f0: 20               NOP
0142f1: 20               NOP
0142f2: 20               NOP
0142f3: 20               NOP
0142f4: 20               NOP
0142f5: 20               NOP
0142f6: 20               NOP
0142f7: 20               NOP
0142f8: 20               NOP
0142f9: 20               NOP
0142fa: 20               NOP
0142fb: 20               NOP
0142fc: 20               NOP
0142fd: 20               NOP
0142fe: 20               NOP
0142ff: 20               NOP
014300: 20               NOP
014301: 20               NOP
014302: 20               NOP
014303: 20               NOP
014304: 20               NOP
014305: 20               NOP
014306: 20               NOP
014307: 20               NOP
014308: 20               NOP
014309: 20               NOP
01430a: 20               NOP
01430b: 20               NOP
01430c: 20               NOP
01430d: 20               NOP
01430e: 20               NOP
01430f: 20               NOP
014310: 20               NOP
014311: 20               NOP
014312: 20               NOP
014313: 20               NOP
014314: 20               NOP
014315: 20               NOP
014316: 20               NOP
014317: 20               NOP
014318: 20               NOP
014319: 20               NOP
01431a: 20               NOP
01431b: 20               NOP
01431c: 20               NOP
01431d: 20               NOP
01431e: 20               NOP
01431f: 20               NOP
014320: 20               NOP
014321: 20               NOP
014322: 20               NOP
014323: 20               NOP
014324: 20               NOP
014325: 20               NOP
014326: 20               NOP
014327: 20               NOP
014328: 20               NOP
014329: 20               NOP
01432a: 20               NOP
01432b: 20               NOP
01432c: 20               NOP
01432d: 20               NOP
01432e: 20               NOP
01432f: 20               NOP
014330: 20               NOP
014331: 20               NOP
014332: 20               NOP
014333: 20               NOP
014334: 20               NOP
014335: 20               NOP
014336: 20               NOP
014337: 20               NOP
014338: 20               NOP
014339: 20               NOP
01433a: 20               NOP
01433b: 20               NOP
01433c: 20               NOP
01433d: 20               NOP
01433e: 20               NOP
01433f: 20               NOP
014340: 20               NOP
014341: 20               NOP
014342: 20               NOP
014343: 20               NOP
014344: 20               NOP
014345: 20               NOP
014346: 20               NOP
014347: 20               NOP
014348: 20               NOP
014349: 20               NOP
01434a: 20               NOP
01434b: 20               NOP
01434c: 20               NOP
01434d: 20               NOP
01434e: 20               NOP
01434f: 20               NOP
014350: 20               NOP
014351: 20               NOP
014352: 20               NOP
014353: 20               NOP
014354: 20               NOP
014355: 20               NOP
014356: 20               NOP
014357: 20               NOP
014358: 20               NOP
014359: 20               NOP
01435a: 20               NOP
01435b: 20               NOP
01435c: 20               NOP
01435d: 20               NOP
01435e: 20               NOP
01435f: 20               NOP
014360: 20               NOP
014361: 20               NOP
014362: 20               NOP
014363: 20               NOP
014364: 20               NOP
014365: 20               NOP
014366: 20               NOP
014367: 20               NOP
014368: 20               NOP
014369: 20               NOP
01436a: 20               NOP
01436b: 20               NOP
01436c: 20               NOP
01436d: 20               NOP
01436e: 20               NOP
01436f: 20               NOP
014370: 20               NOP
014371: 20               NOP
014372: 20               NOP
014373: 20               NOP
014374: 20               NOP
014375: 20               NOP
014376: 20               NOP
014377: 20               NOP
014378: 20               NOP
014379: 20               NOP
01437a: 20               NOP
01437b: 20               NOP
01437c: 20               NOP
01437d: 20               NOP
01437e: 20               NOP
01437f: 20               NOP
014380: 20               NOP
014381: 20               NOP
014382: 20               NOP
014383: 20               NOP
014384: 20               NOP
014385: 20               NOP
014386: 20               NOP
014387: 20               NOP
014388: 20               NOP
014389: 20               NOP
01438a: 20               NOP
01438b: 20               NOP
01438c: 20               NOP
01438d: 20               NOP
01438e: 20               NOP
01438f: 20               NOP
014390: 20               NOP
014391: 20               NOP
014392: 20               NOP
014393: 20               NOP
014394: 20               NOP
014395: 20               NOP
014396: 20               NOP
014397: 20               NOP
014398: 20               NOP
014399: 20               NOP
01439a: 20               NOP
01439b: 20               NOP
01439c: 20               NOP
01439d: 20               NOP
01439e: 20               NOP
01439f: 20               NOP
0143a0: 20               NOP
0143a1: 20               NOP
0143a2: 20               NOP
0143a3: 20               NOP
0143a4: 20               NOP
0143a5: 20               NOP
0143a6: 20               NOP
0143a7: 20               NOP
0143a8: 20               NOP
0143a9: 20               NOP
0143aa: 20               NOP
0143ab: 20               NOP
0143ac: 20               NOP
0143ad: 20               NOP
0143ae: 20               NOP
0143af: 20               NOP
0143b0: 20               NOP
0143b1: 20               NOP
0143b2: 20               NOP
0143b3: 20               NOP
0143b4: 20               NOP
0143b5: 20               NOP
0143b6: 20               NOP
0143b7: 20               NOP
0143b8: 20               NOP
0143b9: 20               NOP
0143ba: 20               NOP
0143bb: 20               NOP
0143bc: 20               NOP
0143bd: 20               NOP
0143be: 20               NOP
0143bf: 20               NOP
0143c0: 20               NOP
0143c1: 20               NOP
0143c2: 20               NOP
0143c3: 20               NOP
0143c4: 20               NOP
0143c5: 20               NOP
0143c6: 20               NOP
0143c7: 20               NOP
0143c8: 20               NOP
0143c9: 20               NOP
0143ca: 20               NOP
0143cb: 20               NOP
0143cc: 20               NOP
0143cd: 20               NOP
0143ce: 20               NOP
0143cf: 20               NOP
0143d0: 20               NOP
0143d1: 20               NOP
0143d2: 20               NOP
0143d3: 20               NOP
0143d4: 20               NOP
0143d5: 20               NOP
0143d6: 20               NOP
0143d7: 20               NOP
0143d8: 20               NOP
0143d9: 20               NOP
0143da: 20               NOP
0143db: 20               NOP
0143dc: 20               NOP
0143dd: 20               NOP
0143de: 20               NOP
0143df: 20               NOP
0143e0: 20               NOP
0143e1: 20               NOP
0143e2: 20               NOP
0143e3: 20               NOP
0143e4: 20               NOP
0143e5: 20               NOP
0143e6: 20               NOP
0143e7: 20               NOP
0143e8: 20               NOP
0143e9: 20               NOP
0143ea: 20               NOP
0143eb: 20               NOP
0143ec: 20               NOP
0143ed: 20               NOP
0143ee: 20               NOP
0143ef: 20               NOP
0143f0: 20               NOP
0143f1: 20               NOP
0143f2: 20               NOP
0143f3: 20               NOP
0143f4: 20               NOP
0143f5: 20               NOP
0143f6: 20               NOP
0143f7: 20               NOP
0143f8: 20               NOP
0143f9: 20               NOP
0143fa: 20               NOP
0143fb: 20               NOP
0143fc: 20               NOP
0143fd: 20               NOP
0143fe: 20               NOP
0143ff: 20               NOP
014400: 20               NOP
014401: 20               NOP
014402: 20               NOP
014403: 20               NOP
014404: 20               NOP
014405: 20               NOP
014406: 20               NOP
014407: 20               NOP
014408: 20               NOP
014409: 20               NOP
01440a: 20               NOP
01440b: 20               NOP
01440c: 20               NOP
01440d: 20               NOP
01440e: 20               NOP
01440f: 20               NOP
014410: 20               NOP
014411: 20               NOP
014412: 20               NOP
014413: 20               NOP
014414: 20               NOP
014415: 20               NOP
014416: 20               NOP
014417: 20               NOP
014418: 20               NOP
014419: 20               NOP
01441a: 20               NOP
01441b: 20               NOP
01441c: 20               NOP
01441d: 20               NOP
01441e: 20               NOP
01441f: 20               NOP
014420: 20               NOP
014421: 20               NOP
014422: 20               NOP
014423: 20               NOP
014424: 20               NOP
014425: 20               NOP
014426: 20               NOP
014427: 20               NOP
014428: 20               NOP
014429: 20               NOP
01442a: 20               NOP
01442b: 20               NOP
01442c: 20               NOP
01442d: 20               NOP
01442e: 20               NOP
01442f: 20               NOP
014430: 20               NOP
014431: 20               NOP
014432: 20               NOP
014433: 20               NOP
014434: 20               NOP
014435: 20               NOP
014436: 20               NOP
014437: 20               NOP
014438: 20               NOP
014439: 20               NOP
01443a: 20               NOP
01443b: 20               NOP
01443c: 20               NOP
01443d: 20               NOP
01443e: 20               NOP
01443f: 20               NOP
014440: 20               NOP
014441: 20               NOP
014442: 20               NOP
014443: 20               NOP
014444: 20               NOP
014445: 20               NOP
014446: 20               NOP
014447: 20               NOP
014448: 20               NOP
014449: 20               NOP
01444a: 20               NOP
01444b: 20               NOP
01444c: 20               NOP
01444d: 20               NOP
01444e: 20               NOP
01444f: 20               NOP
014450: 20               NOP
014451: 20               NOP
014452: 20               NOP
014453: 20               NOP
014454: 20               NOP
014455: 20               NOP
014456: 20               NOP
014457: 20               NOP
014458: 20               NOP
014459: 20               NOP
01445a: 20               NOP
01445b: 20               NOP
01445c: 20               NOP
01445d: 20               NOP
01445e: 20               NOP
01445f: 20               NOP
014460: 20               NOP
014461: 20               NOP
014462: 20               NOP
014463: 20               NOP
014464: 20               NOP
014465: 20               NOP
014466: 20               NOP
014467: 20               NOP
014468: 20               NOP
014469: 20               NOP
01446a: 20               NOP
01446b: 20               NOP
01446c: 20               NOP
01446d: 20               NOP
01446e: 20               NOP
01446f: 20               NOP
014470: 20               NOP
014471: 20               NOP
014472: 20               NOP
014473: 20               NOP
014474: 20               NOP
014475: 20               NOP
014476: 20               NOP
014477: 20               NOP
014478: 20               NOP
014479: 20               NOP
01447a: 20               NOP
01447b: 20               NOP
01447c: 20               NOP
01447d: 20               NOP
01447e: 20               NOP
01447f: 20               NOP
014480: 20               NOP
014481: 20               NOP
014482: 20               NOP
014483: 20               NOP
014484: 20               NOP
014485: 20               NOP
014486: 20               NOP
014487: 20               NOP
014488: 20               NOP
014489: 20               NOP
01448a: 20               NOP
01448b: 20               NOP
01448c: 20               NOP
01448d: 20               NOP
01448e: 20               NOP
01448f: 20               NOP
014490: 20               NOP
014491: 20               NOP
014492: 20               NOP
014493: 20               NOP
014494: 20               NOP
014495: 20               NOP
014496: 20               NOP
014497: 20               NOP
014498: 20               NOP
014499: 20               NOP
01449a: 20               NOP
01449b: 20               NOP
01449c: 20               NOP
01449d: 20               NOP
01449e: 20               NOP
01449f: 20               NOP
0144a0: 20               NOP
0144a1: 20               NOP
0144a2: 20               NOP
0144a3: 20               NOP
0144a4: 20               NOP
0144a5: 20               NOP
0144a6: 20               NOP
0144a7: 20               NOP
0144a8: 20               NOP
0144a9: 20               NOP
0144aa: 20               NOP
0144ab: 20               NOP
0144ac: 20               NOP
0144ad: 20               NOP
0144ae: 20               NOP
0144af: 20               NOP
0144b0: 20               NOP
0144b1: 20               NOP
0144b2: 20               NOP
0144b3: 20               NOP
0144b4: 20               NOP
0144b5: 20               NOP
0144b6: 20               NOP
0144b7: 20               NOP
0144b8: 20               NOP
0144b9: 20               NOP
0144ba: 20               NOP
0144bb: 20               NOP
0144bc: 20               NOP
0144bd: 20               NOP
0144be: 20               NOP
0144bf: 20               NOP
0144c0: 20               NOP
0144c1: 20               NOP
0144c2: 20               NOP
0144c3: 20               NOP
0144c4: 20               NOP
0144c5: 20               NOP
0144c6: 20               NOP
0144c7: 20               NOP
0144c8: 20               NOP
0144c9: 20               NOP
0144ca: 20               NOP
0144cb: 20               NOP
0144cc: 20               NOP
0144cd: 20               NOP
0144ce: 20               NOP
0144cf: 20               NOP
0144d0: 20               NOP
0144d1: 20               NOP
0144d2: 20               NOP
0144d3: 20               NOP
0144d4: 20               NOP
0144d5: 20               NOP
0144d6: 20               NOP
0144d7: 20               NOP
0144d8: 20               NOP
0144d9: 20               NOP
0144da: 20               NOP
0144db: 20               NOP
0144dc: 20               NOP
0144dd: 20               NOP
0144de: 20               NOP
0144df: 20               NOP
0144e0: 20               NOP
0144e1: 20               NOP
0144e2: 20               NOP
0144e3: 20               NOP
0144e4: 20               NOP
0144e5: 20               NOP
0144e6: 20               NOP
0144e7: 20               NOP
0144e8: 20               NOP
0144e9: 20               NOP
0144ea: 20               NOP
0144eb: 20               NOP
0144ec: 20               NOP
0144ed: 20               NOP
0144ee: 20               NOP
0144ef: 20               NOP
0144f0: 20               NOP
0144f1: 20               NOP
0144f2: 20               NOP
0144f3: 20               NOP
0144f4: 20               NOP
0144f5: 20               NOP
0144f6: 20               NOP
0144f7: 20               NOP
0144f8: 20               NOP
0144f9: 20               NOP
0144fa: 20               NOP
0144fb: 20               NOP
0144fc: 20               NOP
0144fd: 20               NOP
0144fe: 20               NOP
0144ff: 20               NOP
014500: 20               NOP
014501: 20               NOP
014502: 20               NOP
014503: 20               NOP
014504: 20               NOP
014505: 20               NOP
014506: 20               NOP
014507: 20               NOP
014508: 20               NOP
014509: 20               NOP
01450a: 20               NOP
01450b: 20               NOP
01450c: 20               NOP
01450d: 20               NOP
01450e: 20               NOP
01450f: 20               NOP
014510: 20               NOP
014511: 20               NOP
014512: 20               NOP
014513: 20               NOP
014514: 20               NOP
014515: 20               NOP
014516: 20               NOP
014517: 20               NOP
014518: 20               NOP
014519: 20               NOP
01451a: 20               NOP
01451b: 20               NOP
01451c: 20               NOP
01451d: 20               NOP
01451e: 20               NOP
01451f: 20               NOP
014520: 20               NOP
014521: 20               NOP
014522: 20               NOP
014523: 20               NOP
014524: 20               NOP
014525: 20               NOP
014526: 20               NOP
014527: 20               NOP
014528: 20               NOP
014529: 20               NOP
01452a: 20               NOP
01452b: 20               NOP
01452c: 20               NOP
01452d: 20               NOP
01452e: 20               NOP
01452f: 20               NOP
014530: 20               NOP
014531: 20               NOP
014532: 20               NOP
014533: 20               NOP
014534: 20               NOP
014535: 20               NOP
014536: 20               NOP
014537: 20               NOP
014538: 20               NOP
014539: 20               NOP
01453a: 20               NOP
01453b: 20               NOP
01453c: 20               NOP
01453d: 20               NOP
01453e: 20               NOP
01453f: 20               NOP
014540: 20               NOP
014541: 20               NOP
014542: 20               NOP
014543: 20               NOP
014544: 20               NOP
014545: 20               NOP
014546: 20               NOP
014547: 20               NOP
014548: 20               NOP
014549: 20               NOP
01454a: 20               NOP
01454b: 20               NOP
01454c: 20               NOP
01454d: 20               NOP
01454e: 20               NOP
01454f: 20               NOP
014550: 20               NOP
014551: 20               NOP
014552: 20               NOP
014553: 20               NOP
014554: 20               NOP
014555: 20               NOP
014556: 20               NOP
014557: 20               NOP
014558: 20               NOP
014559: 20               NOP
01455a: 20               NOP
01455b: 20               NOP
01455c: 20               NOP
01455d: 20               NOP
01455e: 20               NOP
01455f: 20               NOP
014560: 20               NOP
014561: 20               NOP
014562: 20               NOP
014563: 20               NOP
014564: 20               NOP
014565: 20               NOP
014566: 20               NOP
014567: 20               NOP
014568: 20               NOP
014569: 20               NOP
01456a: 20               NOP
01456b: 20               NOP
01456c: 20               NOP
01456d: 20               NOP
01456e: 20               NOP
01456f: 20               NOP
014570: 20               NOP
014571: 20               NOP
014572: 20               NOP
014573: 20               NOP
014574: 20               NOP
014575: 20               NOP
014576: 20               NOP
014577: 20               NOP
014578: 20               NOP
014579: 20               NOP
01457a: 20               NOP
01457b: 20               NOP
01457c: 20               NOP
01457d: 20               NOP
01457e: 20               NOP
01457f: 20               NOP
014580: 20               NOP
014581: 20               NOP
014582: 20               NOP
014583: 20               NOP
014584: 20               NOP
014585: 20               NOP
014586: 20               NOP
014587: 20               NOP
014588: 20               NOP
014589: 20               NOP
01458a: 20               NOP
01458b: 20               NOP
01458c: 20               NOP
01458d: 20               NOP
01458e: 20               NOP
01458f: 20               NOP
014590: 20               NOP
014591: 20               NOP
014592: 20               NOP
014593: 20               NOP
014594: 20               NOP
014595: 20               NOP
014596: 20               NOP
014597: 20               NOP
014598: 20               NOP
014599: 20               NOP
01459a: 20               NOP
01459b: 20               NOP
01459c: 20               NOP
01459d: 20               NOP
01459e: 20               NOP
01459f: 20               NOP
0145a0: 20               NOP
0145a1: 20               NOP
0145a2: 20               NOP
0145a3: 20               NOP
0145a4: 20               NOP
0145a5: 20               NOP
0145a6: 20               NOP
0145a7: 20               NOP
0145a8: 20               NOP
0145a9: 20               NOP
0145aa: 20               NOP
0145ab: 20               NOP
0145ac: 20               NOP
0145ad: 20               NOP
0145ae: 20               NOP
0145af: 20               NOP
0145b0: 20               NOP
0145b1: 20               NOP
0145b2: 20               NOP
0145b3: 20               NOP
0145b4: 20               NOP
0145b5: 20               NOP
0145b6: 20               NOP
0145b7: 20               NOP
0145b8: 20               NOP
0145b9: 20               NOP
0145ba: 20               NOP
0145bb: 20               NOP
0145bc: 20               NOP
0145bd: 20               NOP
0145be: 20               NOP
0145bf: 20               NOP
0145c0: 20               NOP
0145c1: 20               NOP
0145c2: 20               NOP
0145c3: 20               NOP
0145c4: 20               NOP
0145c5: 20               NOP
0145c6: 20               NOP
0145c7: 20               NOP
0145c8: 20               NOP
0145c9: 20               NOP
0145ca: 20               NOP
0145cb: 20               NOP
0145cc: 20               NOP
0145cd: 20               NOP
0145ce: 20               NOP
0145cf: 20               NOP
0145d0: 20               NOP
0145d1: 20               NOP
0145d2: 20               NOP
0145d3: 20               NOP
0145d4: 20               NOP
0145d5: 20               NOP
0145d6: 20               NOP
0145d7: 20               NOP
0145d8: 20               NOP
0145d9: 20               NOP
0145da: 20               NOP
0145db: 20               NOP
0145dc: 20               NOP
0145dd: 20               NOP
0145de: 20               NOP
0145df: 20               NOP
0145e0: 20               NOP
0145e1: 20               NOP
0145e2: 20               NOP
0145e3: 20               NOP
0145e4: 20               NOP
0145e5: 20               NOP
0145e6: 20               NOP
0145e7: 20               NOP
0145e8: 20               NOP
0145e9: 20               NOP
0145ea: 20               NOP
0145eb: 20               NOP
0145ec: 20               NOP
0145ed: 20               NOP
0145ee: 20               NOP
0145ef: 20               NOP
0145f0: 20               NOP
0145f1: 20               NOP
0145f2: 20               NOP
0145f3: 20               NOP
0145f4: 20               NOP
0145f5: 20               NOP
0145f6: 20               NOP
0145f7: 20               NOP
0145f8: 20               NOP
0145f9: 20               NOP
0145fa: 20               NOP
0145fb: 20               NOP
0145fc: 20               NOP
0145fd: 20               NOP
0145fe: 20               NOP
0145ff: 20               NOP
014600: 20               NOP
014601: 20               NOP
014602: 20               NOP
014603: 20               NOP
014604: 20               NOP
014605: 20               NOP
014606: 20               NOP
014607: 20               NOP
014608: 20               NOP
014609: 20               NOP
01460a: 20               NOP
01460b: 20               NOP
01460c: 20               NOP
01460d: 20               NOP
01460e: 20               NOP
01460f: 20               NOP
014610: 20               NOP
014611: 20               NOP
014612: 20               NOP
014613: 20               NOP
014614: 20               NOP
014615: 20               NOP
014616: 20               NOP
014617: 20               NOP
014618: 20               NOP
014619: 20               NOP
01461a: 20               NOP
01461b: 20               NOP
01461c: 20               NOP
01461d: 20               NOP
01461e: 20               NOP
01461f: 20               NOP
014620: 20               NOP
014621: 20               NOP
014622: 20               NOP
014623: 20               NOP
014624: 20               NOP
014625: 20               NOP
014626: 20               NOP
014627: 20               NOP
014628: 20               NOP
014629: 20               NOP
01462a: 20               NOP
01462b: 20               NOP
01462c: 20               NOP
01462d: 20               NOP
01462e: 20               NOP
01462f: 20               NOP
014630: 20               NOP
014631: 20               NOP
014632: 20               NOP
014633: 20               NOP
014634: 20               NOP
014635: 20               NOP
014636: 20               NOP
014637: 20               NOP
014638: 20               NOP
014639: 20               NOP
01463a: 20               NOP
01463b: 20               NOP
01463c: 20               NOP
01463d: 20               NOP
01463e: 20               NOP
01463f: 20               NOP
014640: 20               NOP
014641: 20               NOP
014642: 20               NOP
014643: 20               NOP
014644: 20               NOP
014645: 20               NOP
014646: 20               NOP
014647: 20               NOP
014648: 20               NOP
014649: 20               NOP
01464a: 20               NOP
01464b: 20               NOP
01464c: 20               NOP
01464d: 20               NOP
01464e: 20               NOP
01464f: 20               NOP
014650: 20               NOP
014651: 20               NOP
014652: 20               NOP
014653: 20               NOP
014654: 20               NOP
014655: 20               NOP
014656: 20               NOP
014657: 20               NOP
014658: 20               NOP
014659: 20               NOP
01465a: 20               NOP
01465b: 20               NOP
01465c: 20               NOP
01465d: 20               NOP
01465e: 20               NOP
01465f: 20               NOP
014660: 20               NOP
014661: 20               NOP
014662: 20               NOP
014663: 20               NOP
014664: 20               NOP
014665: 20               NOP
014666: 20               NOP
014667: 20               NOP
014668: 20               NOP
014669: 20               NOP
01466a: 20               NOP
01466b: 20               NOP
01466c: 20               NOP
01466d: 20               NOP
01466e: 20               NOP
01466f: 20               NOP
014670: 20               NOP
014671: 20               NOP
014672: 20               NOP
014673: 20               NOP
014674: 20               NOP
014675: 20               NOP
014676: 20               NOP
014677: 20               NOP
014678: 20               NOP
014679: 20               NOP
01467a: 20               NOP
01467b: 20               NOP
01467c: 20               NOP
01467d: 20               NOP
01467e: 20               NOP
01467f: 20               NOP
014680: 20               NOP
014681: 20               NOP
014682: 20               NOP
014683: 20               NOP
014684: 20               NOP
014685: 20               NOP
014686: 20               NOP
014687: 20               NOP
014688: 20               NOP
014689: 20               NOP
01468a: 20               NOP
01468b: 20               NOP
01468c: 20               NOP
01468d: 20               NOP
01468e: 20               NOP
01468f: 20               NOP
014690: 20               NOP
014691: 20               NOP
014692: 20               NOP
014693: 20               NOP
014694: 20               NOP
014695: 20               NOP
014696: 20               NOP
014697: 20               NOP
014698: 20               NOP
014699: 20               NOP
01469a: 20               NOP
01469b: 20               NOP
01469c: 20               NOP
01469d: 20               NOP
01469e: 20               NOP
01469f: 20               NOP
0146a0: 20               NOP
0146a1: 20               NOP
0146a2: 20               NOP
0146a3: 20               NOP
0146a4: 20               NOP
0146a5: 20               NOP
0146a6: 20               NOP
0146a7: 20               NOP
0146a8: 20               NOP
0146a9: 20               NOP
0146aa: 20               NOP
0146ab: 20               NOP
0146ac: 20               NOP
0146ad: 20               NOP
0146ae: 20               NOP
0146af: 20               NOP
0146b0: 20               NOP
0146b1: 20               NOP
0146b2: 20               NOP
0146b3: 20               NOP
0146b4: 20               NOP
0146b5: 20               NOP
0146b6: 20               NOP
0146b7: 20               NOP
0146b8: 20               NOP
0146b9: 20               NOP
0146ba: 20               NOP
0146bb: 20               NOP
0146bc: 20               NOP
0146bd: 20               NOP
0146be: 20               NOP
0146bf: 20               NOP
0146c0: 20               NOP
0146c1: 20               NOP
0146c2: 20               NOP
0146c3: 20               NOP
0146c4: 20               NOP
0146c5: 20               NOP
0146c6: 20               NOP
0146c7: 20               NOP
0146c8: 20               NOP
0146c9: 20               NOP
0146ca: 20               NOP
0146cb: 20               NOP
0146cc: 20               NOP
0146cd: 20               NOP
0146ce: 20               NOP
0146cf: 20               NOP
0146d0: 20               NOP
0146d1: 20               NOP
0146d2: 20               NOP
0146d3: 20               NOP
0146d4: 20               NOP
0146d5: 20               NOP
0146d6: 20               NOP
0146d7: 20               NOP
0146d8: 20               NOP
0146d9: 20               NOP
0146da: 20               NOP
0146db: 20               NOP
0146dc: 20               NOP
0146dd: 20               NOP
0146de: 20               NOP
0146df: 20               NOP
0146e0: 20               NOP
0146e1: 20               NOP
0146e2: 20               NOP
0146e3: 20               NOP
0146e4: 20               NOP
0146e5: 20               NOP
0146e6: 20               NOP
0146e7: 20               NOP
0146e8: 20               NOP
0146e9: 20               NOP
0146ea: 20               NOP
0146eb: 20               NOP
0146ec: 20               NOP
0146ed: 20               NOP
0146ee: 20               NOP
0146ef: 20               NOP
0146f0: 20               NOP
0146f1: 20               NOP
0146f2: 20               NOP
0146f3: 20               NOP
0146f4: 20               NOP
0146f5: 20               NOP
0146f6: 20               NOP
0146f7: 20               NOP
0146f8: 20               NOP
0146f9: 20               NOP
0146fa: 20               NOP
0146fb: 20               NOP
0146fc: 20               NOP
0146fd: 20               NOP
0146fe: 20               NOP
0146ff: 20               NOP
014700: 20               NOP
014701: 20               NOP
014702: 20               NOP
014703: 20               NOP
014704: 20               NOP
014705: 20               NOP
014706: 20               NOP
014707: 20               NOP
014708: 20               NOP
014709: 20               NOP
01470a: 20               NOP
01470b: 20               NOP
01470c: 20               NOP
01470d: 20               NOP
01470e: 20               NOP
01470f: 20               NOP
014710: 20               NOP
014711: 20               NOP
014712: 20               NOP
014713: 20               NOP
014714: 20               NOP
014715: 20               NOP
014716: 20               NOP
014717: 20               NOP
014718: 20               NOP
014719: 20               NOP
01471a: 20               NOP
01471b: 20               NOP
01471c: 20               NOP
01471d: 20               NOP
01471e: 20               NOP
01471f: 20               NOP
014720: 20               NOP
014721: 20               NOP
014722: 20               NOP
014723: 20               NOP
014724: 20               NOP
014725: 20               NOP
014726: 20               NOP
014727: 20               NOP
014728: 20               NOP
014729: 20               NOP
01472a: 20               NOP
01472b: 20               NOP
01472c: 20               NOP
01472d: 20               NOP
01472e: 20               NOP
01472f: 20               NOP
014730: 20               NOP
014731: 20               NOP
014732: 20               NOP
014733: 20               NOP
014734: 20               NOP
014735: 20               NOP
014736: 20               NOP
014737: 20               NOP
014738: 20               NOP
014739: 20               NOP
01473a: 20               NOP
01473b: 20               NOP
01473c: 20               NOP
01473d: 20               NOP
01473e: 20               NOP
01473f: 20               NOP
014740: 20               NOP
014741: 20               NOP
014742: 20               NOP
014743: 20               NOP
014744: 20               NOP
014745: 20               NOP
014746: 20               NOP
014747: 20               NOP
014748: 20               NOP
014749: 20               NOP
01474a: 20               NOP
01474b: 20               NOP
01474c: 20               NOP
01474d: 20               NOP
01474e: 20               NOP
01474f: 20               NOP
014750: 20               NOP
014751: 20               NOP
014752: 20               NOP
014753: 20               NOP
014754: 20               NOP
014755: 20               NOP
014756: 20               NOP
014757: 20               NOP
014758: 20               NOP
014759: 20               NOP
01475a: 20               NOP
01475b: 20               NOP
01475c: 20               NOP
01475d: 20               NOP
01475e: 20               NOP
01475f: 20               NOP
014760: 20               NOP
014761: 20               NOP
014762: 20               NOP
014763: 20               NOP
014764: 20               NOP
014765: 20               NOP
014766: 20               NOP
014767: 20               NOP
014768: 20               NOP
014769: 20               NOP
01476a: 20               NOP
01476b: 20               NOP
01476c: 20               NOP
01476d: 20               NOP
01476e: 20               NOP
01476f: 20               NOP
014770: 20               NOP
014771: 20               NOP
014772: 20               NOP
014773: 20               NOP
014774: 20               NOP
014775: 20               NOP
014776: 20               NOP
014777: 20               NOP
014778: 20               NOP
014779: 20               NOP
01477a: 20               NOP
01477b: 20               NOP
01477c: 20               NOP
01477d: 20               NOP
01477e: 20               NOP
01477f: 20               NOP
014780: 20               NOP
014781: 20               NOP
014782: 20               NOP
014783: 20               NOP
014784: 20               NOP
014785: 20               NOP
014786: 20               NOP
014787: 20               NOP
014788: 20               NOP
014789: 20               NOP
01478a: 20               NOP
01478b: 20               NOP
01478c: 20               NOP
01478d: 20               NOP
01478e: 20               NOP
01478f: 20               NOP
014790: 20               NOP
014791: 20               NOP
014792: 20               NOP
014793: 20               NOP
014794: 20               NOP
014795: 20               NOP
014796: 20               NOP
014797: 20               NOP
014798: 20               NOP
014799: 20               NOP
01479a: 20               NOP
01479b: 20               NOP
01479c: 20               NOP
01479d: 20               NOP
01479e: 20               NOP
01479f: 20               NOP
0147a0: 20               NOP
0147a1: 20               NOP
0147a2: 20               NOP
0147a3: 20               NOP
0147a4: 20               NOP
0147a5: 20               NOP
0147a6: 20               NOP
0147a7: 20               NOP
0147a8: 20               NOP
0147a9: 20               NOP
0147aa: 20               NOP
0147ab: 20               NOP
0147ac: 20               NOP
0147ad: 20               NOP
0147ae: 20               NOP
0147af: 20               NOP
0147b0: 20               NOP
0147b1: 20               NOP
0147b2: 20               NOP
0147b3: 20               NOP
0147b4: 20               NOP
0147b5: 20               NOP
0147b6: 20               NOP
0147b7: 20               NOP
0147b8: 20               NOP
0147b9: 20               NOP
0147ba: 20               NOP
0147bb: 20               NOP
0147bc: 20               NOP
0147bd: 20               NOP
0147be: 20               NOP
0147bf: 20               NOP
0147c0: 20               NOP
0147c1: 20               NOP
0147c2: 20               NOP
0147c3: 20               NOP
0147c4: 20               NOP
0147c5: 20               NOP
0147c6: 20               NOP
0147c7: 20               NOP
0147c8: 20               NOP
0147c9: 20               NOP
0147ca: 20               NOP
0147cb: 20               NOP
0147cc: 20               NOP
0147cd: 20               NOP
0147ce: 20               NOP
0147cf: 20               NOP
0147d0: 20               NOP
0147d1: 20               NOP
0147d2: 20               NOP
0147d3: 20               NOP
0147d4: 20               NOP
0147d5: 20               NOP
0147d6: 20               NOP
0147d7: 20               NOP
0147d8: 20               NOP
0147d9: 20               NOP
0147da: 20               NOP
0147db: 20               NOP
0147dc: 20               NOP
0147dd: 20               NOP
0147de: 20               NOP
0147df: 20               NOP
0147e0: 20               NOP
0147e1: 20               NOP
0147e2: 20               NOP
0147e3: 20               NOP
0147e4: 20               NOP
0147e5: 20               NOP
0147e6: 20               NOP
0147e7: 20               NOP
0147e8: 20               NOP
0147e9: 20               NOP
0147ea: 20               NOP
0147eb: 20               NOP
0147ec: 20               NOP
0147ed: 20               NOP
0147ee: 20               NOP
0147ef: 20               NOP
0147f0: 20               NOP
0147f1: 20               NOP
0147f2: 20               NOP
0147f3: 20               NOP
0147f4: 20               NOP
0147f5: 20               NOP
0147f6: 20               NOP
0147f7: 20               NOP
0147f8: 20               NOP
0147f9: 20               NOP
0147fa: 20               NOP
0147fb: 20               NOP
0147fc: 20               NOP
0147fd: 20               NOP
0147fe: 20               NOP
0147ff: 20               NOP
014800: 20               NOP
014801: 20               NOP
014802: 20               NOP
014803: 20               NOP
014804: 20               NOP
014805: 20               NOP
014806: 20               NOP
014807: 20               NOP
014808: 20               NOP
014809: 20               NOP
01480a: 20               NOP
01480b: 20               NOP
01480c: 20               NOP
01480d: 20               NOP
01480e: 20               NOP
01480f: 20               NOP
014810: 20               NOP
014811: 20               NOP
014812: 20               NOP
014813: 20               NOP
014814: 20               NOP
014815: 20               NOP
014816: 20               NOP
014817: 20               NOP
014818: 20               NOP
014819: 20               NOP
01481a: 20               NOP
01481b: 20               NOP
01481c: 20               NOP
01481d: 20               NOP
01481e: 20               NOP
01481f: 20               NOP
014820: 20               NOP
014821: 20               NOP
014822: 20               NOP
014823: 20               NOP
014824: 20               NOP
014825: 20               NOP
014826: 20               NOP
014827: 20               NOP
014828: 20               NOP
014829: 20               NOP
01482a: 20               NOP
01482b: 20               NOP
01482c: 20               NOP
01482d: 20               NOP
01482e: 20               NOP
01482f: 20               NOP
014830: 20               NOP
014831: 20               NOP
014832: 20               NOP
014833: 20               NOP
014834: 20               NOP
014835: 20               NOP
014836: 20               NOP
014837: 20               NOP
014838: 20               NOP
014839: 20               NOP
01483a: 20               NOP
01483b: 20               NOP
01483c: 20               NOP
01483d: 20               NOP
01483e: 20               NOP
01483f: 20               NOP
014840: 20               NOP
014841: 20               NOP
014842: 20               NOP
014843: 20               NOP
014844: 20               NOP
014845: 20               NOP
014846: 20               NOP
014847: 20               NOP
014848: 20               NOP
014849: 20               NOP
01484a: 20               NOP
01484b: 20               NOP
01484c: 20               NOP
01484d: 20               NOP
01484e: 20               NOP
01484f: 20               NOP
014850: 20               NOP
014851: 20               NOP
014852: 20               NOP
014853: 20               NOP
014854: 20               NOP
014855: 20               NOP
014856: 20               NOP
014857: 20               NOP
014858: 20               NOP
014859: 20               NOP
01485a: 20               NOP
01485b: 20               NOP
01485c: 20               NOP
01485d: 20               NOP
01485e: 20               NOP
01485f: 20               NOP
014860: 20               NOP
014861: 20               NOP
014862: 20               NOP
014863: 20               NOP
014864: 20               NOP
014865: 20               NOP
014866: 20               NOP
014867: 20               NOP
014868: 20               NOP
014869: 20               NOP
01486a: 20               NOP
01486b: 20               NOP
01486c: 20               NOP
01486d: 20               NOP
01486e: 20               NOP
01486f: 20               NOP
014870: 20               NOP
014871: 20               NOP
014872: 20               NOP
014873: 20               NOP
014874: 20               NOP
014875: 20               NOP
014876: 20               NOP
014877: 20               NOP
014878: 20               NOP
014879: 20               NOP
01487a: 20               NOP
01487b: 20               NOP
01487c: 20               NOP
01487d: 20               NOP
01487e: 20               NOP
01487f: 20               NOP
014880: 20               NOP
014881: 20               NOP
014882: 20               NOP
014883: 20               NOP
014884: 20               NOP
014885: 20               NOP
014886: 20               NOP
014887: 20               NOP
014888: 20               NOP
014889: 20               NOP
01488a: 20               NOP
01488b: 20               NOP
01488c: 20               NOP
01488d: 20               NOP
01488e: 20               NOP
01488f: 20               NOP
014890: 20               NOP
014891: 20               NOP
014892: 20               NOP
014893: 20               NOP
014894: 20               NOP
014895: 20               NOP
014896: 20               NOP
014897: 20               NOP
014898: 20               NOP
014899: 20               NOP
01489a: 20               NOP
01489b: 20               NOP
01489c: 20               NOP
01489d: 20               NOP
01489e: 20               NOP
01489f: 20               NOP
0148a0: 20               NOP
0148a1: 20               NOP
0148a2: 20               NOP
0148a3: 20               NOP
0148a4: 20               NOP
0148a5: 20               NOP
0148a6: 20               NOP
0148a7: 20               NOP
0148a8: 20               NOP
0148a9: 20               NOP
0148aa: 20               NOP
0148ab: 20               NOP
0148ac: 20               NOP
0148ad: 20               NOP
0148ae: 20               NOP
0148af: 20               NOP
0148b0: 20               NOP
0148b1: 20               NOP
0148b2: 20               NOP
0148b3: 20               NOP
0148b4: 20               NOP
0148b5: 20               NOP
0148b6: 20               NOP
0148b7: 20               NOP
0148b8: 20               NOP
0148b9: 20               NOP
0148ba: 20               NOP
0148bb: 20               NOP
0148bc: 20               NOP
0148bd: 20               NOP
0148be: 20               NOP
0148bf: 20               NOP
0148c0: 20               NOP
0148c1: 20               NOP
0148c2: 20               NOP
0148c3: 20               NOP
0148c4: 20               NOP
0148c5: 20               NOP
0148c6: 20               NOP
0148c7: 20               NOP
0148c8: 20               NOP
0148c9: 20               NOP
0148ca: 20               NOP
0148cb: 20               NOP
0148cc: 20               NOP
0148cd: 20               NOP
0148ce: 20               NOP
0148cf: 20               NOP
0148d0: 20               NOP
0148d1: 20               NOP
0148d2: 20               NOP
0148d3: 20               NOP
0148d4: 20               NOP
0148d5: 20               NOP
0148d6: 20               NOP
0148d7: 20               NOP
0148d8: 20               NOP
0148d9: 20               NOP
0148da: 20               NOP
0148db: 20               NOP
0148dc: 20               NOP
0148dd: 20               NOP
0148de: 20               NOP
0148df: 20               NOP
0148e0: 20               NOP
0148e1: 20               NOP
0148e2: 20               NOP
0148e3: 20               NOP
0148e4: 20               NOP
0148e5: 20               NOP
0148e6: 20               NOP
0148e7: 20               NOP
0148e8: 20               NOP
0148e9: 20               NOP
0148ea: 20               NOP
0148eb: 20               NOP
0148ec: 20               NOP
0148ed: 20               NOP
0148ee: 20               NOP
0148ef: 20               NOP
0148f0: 20               NOP
0148f1: 20               NOP
0148f2: 20               NOP
0148f3: 20               NOP
0148f4: 20               NOP
0148f5: 20               NOP
0148f6: 20               NOP
0148f7: 20               NOP
0148f8: 20               NOP
0148f9: 20               NOP
0148fa: 20               NOP
0148fb: 20               NOP
0148fc: 20               NOP
0148fd: 20               NOP
0148fe: 20               NOP
0148ff: 20               NOP
014900: 20               NOP
014901: 20               NOP
014902: 20               NOP
014903: 20               NOP
014904: 20               NOP
014905: 20               NOP
014906: 20               NOP
014907: 20               NOP
014908: 20               NOP
014909: 20               NOP
01490a: 20               NOP
01490b: 20               NOP
01490c: 20               NOP
01490d: 20               NOP
01490e: 20               NOP
01490f: 20               NOP
014910: 20               NOP
014911: 20               NOP
014912: 20               NOP
014913: 20               NOP
014914: 20               NOP
014915: 20               NOP
014916: 20               NOP
014917: 20               NOP
014918: 20               NOP
014919: 20               NOP
01491a: 20               NOP
01491b: 20               NOP
01491c: 20               NOP
01491d: 20               NOP
01491e: 20               NOP
01491f: 20               NOP
014920: 20               NOP
014921: 20               NOP
014922: 20               NOP
014923: 20               NOP
014924: 20               NOP
014925: 20               NOP
014926: 20               NOP
014927: 20               NOP
014928: 20               NOP
014929: 20               NOP
01492a: 20               NOP
01492b: 20               NOP
01492c: 20               NOP
01492d: 20               NOP
01492e: 20               NOP
01492f: 20               NOP
014930: 20               NOP
014931: 20               NOP
014932: 20               NOP
014933: 20               NOP
014934: 20               NOP
014935: 20               NOP
014936: 20               NOP
014937: 20               NOP
014938: 20               NOP
014939: 20               NOP
01493a: 20               NOP
01493b: 20               NOP
01493c: 20               NOP
01493d: 20               NOP
01493e: 20               NOP
01493f: 20               NOP
014940: 20               NOP
014941: 20               NOP
014942: 20               NOP
014943: 20               NOP
014944: 20               NOP
014945: 20               NOP
014946: 20               NOP
014947: 20               NOP
014948: 20               NOP
014949: 20               NOP
01494a: 20               NOP
01494b: 20               NOP
01494c: 20               NOP
01494d: 20               NOP
01494e: 20               NOP
01494f: 20               NOP
014950: 20               NOP
014951: 20               NOP
014952: 20               NOP
014953: 20               NOP
014954: 20               NOP
014955: 20               NOP
014956: 20               NOP
014957: 20               NOP
014958: 20               NOP
014959: 20               NOP
01495a: 20               NOP
01495b: 20               NOP
01495c: 20               NOP
01495d: 20               NOP
01495e: 20               NOP
01495f: 20               NOP
014960: 20               NOP
014961: 20               NOP
014962: 20               NOP
014963: 20               NOP
014964: 20               NOP
014965: 20               NOP
014966: 20               NOP
014967: 20               NOP
014968: 20               NOP
014969: 20               NOP
01496a: 20               NOP
01496b: 20               NOP
01496c: 20               NOP
01496d: 20               NOP
01496e: 20               NOP
01496f: 20               NOP
014970: 20               NOP
014971: 20               NOP
014972: 20               NOP
014973: 20               NOP
014974: 20               NOP
014975: 20               NOP
014976: 20               NOP
014977: 20               NOP
014978: 20               NOP
014979: 20               NOP
01497a: 20               NOP
01497b: 20               NOP
01497c: 20               NOP
01497d: 20               NOP
01497e: 20               NOP
01497f: 20               NOP
014980: 20               NOP
014981: 20               NOP
014982: 20               NOP
014983: 20               NOP
014984: 20               NOP
014985: 20               NOP
014986: 20               NOP
014987: 20               NOP
014988: 20               NOP
014989: 20               NOP
01498a: 20               NOP
01498b: 20               NOP
01498c: 20               NOP
01498d: 20               NOP
01498e: 20               NOP
01498f: 20               NOP
014990: 20               NOP
014991: 20               NOP
014992: 20               NOP
014993: 20               NOP
014994: 20               NOP
014995: 20               NOP
014996: 20               NOP
014997: 20               NOP
014998: 20               NOP
014999: 20               NOP
01499a: 20               NOP
01499b: 20               NOP
01499c: 20               NOP
01499d: 20               NOP
01499e: 20               NOP
01499f: 20               NOP
0149a0: 20               NOP
0149a1: 20               NOP
0149a2: 20               NOP
0149a3: 20               NOP
0149a4: 20               NOP
0149a5: 20               NOP
0149a6: 20               NOP
0149a7: 20               NOP
0149a8: 20               NOP
0149a9: 20               NOP
0149aa: 20               NOP
0149ab: 20               NOP
0149ac: 20               NOP
0149ad: 20               NOP
0149ae: 20               NOP
0149af: 20               NOP
0149b0: 20               NOP
0149b1: 20               NOP
0149b2: 20               NOP
0149b3: 20               NOP
0149b4: 20               NOP
0149b5: 20               NOP
0149b6: 20               NOP
0149b7: 20               NOP
0149b8: 20               NOP
0149b9: 20               NOP
0149ba: 20               NOP
0149bb: 20               NOP
0149bc: 20               NOP
0149bd: 20               NOP
0149be: 20               NOP
0149bf: 20               NOP
0149c0: 20               NOP
0149c1: 20               NOP
0149c2: 20               NOP
0149c3: 20               NOP
0149c4: 20               NOP
0149c5: 20               NOP
0149c6: 20               NOP
0149c7: 20               NOP
0149c8: 20               NOP
0149c9: 20               NOP
0149ca: 20               NOP
0149cb: 20               NOP
0149cc: 20               NOP
0149cd: 20               NOP
0149ce: 20               NOP
0149cf: 20               NOP
0149d0: 20               NOP
0149d1: 20               NOP
0149d2: 20               NOP
0149d3: 20               NOP
0149d4: 20               NOP
0149d5: 20               NOP
0149d6: 20               NOP
0149d7: 20               NOP
0149d8: 20               NOP
0149d9: 20               NOP
0149da: 20               NOP
0149db: 20               NOP
0149dc: 20               NOP
0149dd: 20               NOP
0149de: 20               NOP
0149df: 20               NOP
0149e0: 20               NOP
0149e1: 20               NOP
0149e2: 20               NOP
0149e3: 20               NOP
0149e4: 20               NOP
0149e5: 20               NOP
0149e6: 20               NOP
0149e7: 20               NOP
0149e8: 20               NOP
0149e9: 20               NOP
0149ea: 20               NOP
0149eb: 20               NOP
0149ec: 20               NOP
0149ed: 20               NOP
0149ee: 20               NOP
0149ef: 20               NOP
0149f0: 20               NOP
0149f1: 20               NOP
0149f2: 20               NOP
0149f3: 20               NOP
0149f4: 20               NOP
0149f5: 20               NOP
0149f6: 20               NOP
0149f7: 20               NOP
0149f8: 20               NOP
0149f9: 20               NOP
0149fa: 20               NOP
0149fb: 20               NOP
0149fc: 20               NOP
0149fd: 20               NOP
0149fe: 20               NOP
0149ff: 20               NOP
014a00: 20               NOP
014a01: 20               NOP
014a02: 20               NOP
014a03: 20               NOP
014a04: 20               NOP
014a05: 20               NOP
014a06: 20               NOP
014a07: 20               NOP
014a08: 20               NOP
014a09: 20               NOP
014a0a: 20               NOP
014a0b: 20               NOP
014a0c: 20               NOP
014a0d: 20               NOP
014a0e: 20               NOP
014a0f: 20               NOP
014a10: 20               NOP
014a11: 20               NOP
014a12: 20               NOP
014a13: 20               NOP
014a14: 20               NOP
014a15: 20               NOP
014a16: 20               NOP
014a17: 20               NOP
014a18: 20               NOP
014a19: 20               NOP
014a1a: 20               NOP
014a1b: 20               NOP
014a1c: 20               NOP
014a1d: 20               NOP
014a1e: 20               NOP
014a1f: 20               NOP
014a20: 20               NOP
014a21: 20               NOP
014a22: 20               NOP
014a23: 20               NOP
014a24: 20               NOP
014a25: 20               NOP
014a26: 20               NOP
014a27: 20               NOP
014a28: 20               NOP
014a29: 20               NOP
014a2a: 20               NOP
014a2b: 20               NOP
014a2c: 20               NOP
014a2d: 20               NOP
014a2e: 20               NOP
014a2f: 20               NOP
014a30: 20               NOP
014a31: 20               NOP
014a32: 20               NOP
014a33: 20               NOP
014a34: 20               NOP
014a35: 20               NOP
014a36: 20               NOP
014a37: 20               NOP
014a38: 20               NOP
014a39: 20               NOP
014a3a: 20               NOP
014a3b: 20               NOP
014a3c: 20               NOP
014a3d: 20               NOP
014a3e: 20               NOP
014a3f: 20               NOP
014a40: 20               NOP
014a41: 20               NOP
014a42: 20               NOP
014a43: 20               NOP
014a44: 20               NOP
014a45: 20               NOP
014a46: 20               NOP
014a47: 20               NOP
014a48: 20               NOP
014a49: 20               NOP
014a4a: 20               NOP
014a4b: 20               NOP
014a4c: 20               NOP
014a4d: 20               NOP
014a4e: 20               NOP
014a4f: 20               NOP
014a50: 20               NOP
014a51: 20               NOP
014a52: 20               NOP
014a53: 20               NOP
014a54: 20               NOP
014a55: 20               NOP
014a56: 20               NOP
014a57: 20               NOP
014a58: 20               NOP
014a59: 20               NOP
014a5a: 20               NOP
014a5b: 20               NOP
014a5c: 20               NOP
014a5d: 20               NOP
014a5e: 20               NOP
014a5f: 20               NOP
014a60: 20               NOP
014a61: 20               NOP
014a62: 20               NOP
014a63: 20               NOP
014a64: 20               NOP
014a65: 20               NOP
014a66: 20               NOP
014a67: 20               NOP
014a68: 20               NOP
014a69: 20               NOP
014a6a: 20               NOP
014a6b: 20               NOP
014a6c: 20               NOP
014a6d: 20               NOP
014a6e: 20               NOP
014a6f: 20               NOP
014a70: 20               NOP
014a71: 20               NOP
014a72: 20               NOP
014a73: 20               NOP
014a74: 20               NOP
014a75: 20               NOP
014a76: 20               NOP
014a77: 20               NOP
014a78: 20               NOP
014a79: 20               NOP
014a7a: 20               NOP
014a7b: 20               NOP
014a7c: 20               NOP
014a7d: 20               NOP
014a7e: 20               NOP
014a7f: 20               NOP
014a80: 20               NOP
014a81: 20               NOP
014a82: 20               NOP
014a83: 20               NOP
014a84: 20               NOP
014a85: 20               NOP
014a86: 20               NOP
014a87: 20               NOP
014a88: 20               NOP
014a89: 20               NOP
014a8a: 20               NOP
014a8b: 20               NOP
014a8c: 20               NOP
014a8d: 20               NOP
014a8e: 20               NOP
014a8f: 20               NOP
014a90: 20               NOP
014a91: 20               NOP
014a92: 20               NOP
014a93: 20               NOP
014a94: 20               NOP
014a95: 20               NOP
014a96: 20               NOP
014a97: 20               NOP
014a98: 20               NOP
014a99: 20               NOP
014a9a: 20               NOP
014a9b: 20               NOP
014a9c: 20               NOP
014a9d: 20               NOP
014a9e: 20               NOP
014a9f: 20               NOP
014aa0: 20               NOP
014aa1: 20               NOP
014aa2: 20               NOP
014aa3: 20               NOP
014aa4: 20               NOP
014aa5: 20               NOP
014aa6: 20               NOP
014aa7: 20               NOP
014aa8: 20               NOP
014aa9: 20               NOP
014aaa: 20               NOP
014aab: 20               NOP
014aac: 20               NOP
014aad: 20               NOP
014aae: 20               NOP
014aaf: 20               NOP
014ab0: 20               NOP
014ab1: 20               NOP
014ab2: 20               NOP
014ab3: 20               NOP
014ab4: 20               NOP
014ab5: 20               NOP
014ab6: 20               NOP
014ab7: 20               NOP
014ab8: 20               NOP
014ab9: 20               NOP
014aba: 20               NOP
014abb: 20               NOP
014abc: 20               NOP
014abd: 20               NOP
014abe: 20               NOP
014abf: 20               NOP
014ac0: 20               NOP
014ac1: 20               NOP
014ac2: 20               NOP
014ac3: 20               NOP
014ac4: 20               NOP
014ac5: 20               NOP
014ac6: 20               NOP
014ac7: 20               NOP
014ac8: 20               NOP
014ac9: 20               NOP
014aca: 20               NOP
014acb: 20               NOP
014acc: 20               NOP
014acd: 20               NOP
014ace: 20               NOP
014acf: 20               NOP
014ad0: 20               NOP
014ad1: 20               NOP
014ad2: 20               NOP
014ad3: 20               NOP
014ad4: 20               NOP
014ad5: 20               NOP
014ad6: 20               NOP
014ad7: 20               NOP
014ad8: 20               NOP
014ad9: 20               NOP
014ada: 20               NOP
014adb: 20               NOP
014adc: 20               NOP
014add: 20               NOP
014ade: 20               NOP
014adf: 20               NOP
014ae0: 20               NOP
014ae1: 20               NOP
014ae2: 20               NOP
014ae3: 20               NOP
014ae4: 20               NOP
014ae5: 20               NOP
014ae6: 20               NOP
014ae7: 20               NOP
014ae8: 20               NOP
014ae9: 20               NOP
014aea: 20               NOP
014aeb: 20               NOP
014aec: 20               NOP
014aed: 20               NOP
014aee: 20               NOP
014aef: 20               NOP
014af0: 20               NOP
014af1: 20               NOP
014af2: 20               NOP
014af3: 20               NOP
014af4: 20               NOP
014af5: 20               NOP
014af6: 20               NOP
014af7: 20               NOP
014af8: 20               NOP
014af9: 20               NOP
014afa: 20               NOP
014afb: 20               NOP
014afc: 20               NOP
014afd: 20               NOP
014afe: 20               NOP
014aff: 20               NOP
014b00: 20               NOP
014b01: 20               NOP
014b02: 20               NOP
014b03: 20               NOP
014b04: 20               NOP
014b05: 20               NOP
014b06: 20               NOP
014b07: 20               NOP
014b08: 20               NOP
014b09: 20               NOP
014b0a: 20               NOP
014b0b: 20               NOP
014b0c: 20               NOP
014b0d: 20               NOP
014b0e: 20               NOP
014b0f: 20               NOP
014b10: 20               NOP
014b11: 20               NOP
014b12: 20               NOP
014b13: 20               NOP
014b14: 20               NOP
014b15: 20               NOP
014b16: 20               NOP
014b17: 20               NOP
014b18: 20               NOP
014b19: 20               NOP
014b1a: 20               NOP
014b1b: 20               NOP
014b1c: 20               NOP
014b1d: 20               NOP
014b1e: 20               NOP
014b1f: 20               NOP
014b20: 20               NOP
014b21: 20               NOP
014b22: 20               NOP
014b23: 20               NOP
014b24: 20               NOP
014b25: 20               NOP
014b26: 20               NOP
014b27: 20               NOP
014b28: 20               NOP
014b29: 20               NOP
014b2a: 20               NOP
014b2b: 20               NOP
014b2c: 20               NOP
014b2d: 20               NOP
014b2e: 20               NOP
014b2f: 20               NOP
014b30: 20               NOP
014b31: 20               NOP
014b32: 20               NOP
014b33: 20               NOP
014b34: 20               NOP
014b35: 20               NOP
014b36: 20               NOP
014b37: 20               NOP
014b38: 20               NOP
014b39: 20               NOP
014b3a: 20               NOP
014b3b: 20               NOP
014b3c: 20               NOP
014b3d: 20               NOP
014b3e: 20               NOP
014b3f: 20               NOP
014b40: 20               NOP
014b41: 20               NOP
014b42: 20               NOP
014b43: 20               NOP
014b44: 20               NOP
014b45: 20               NOP
014b46: 20               NOP
014b47: 20               NOP
014b48: 20               NOP
014b49: 20               NOP
014b4a: 20               NOP
014b4b: 20               NOP
014b4c: 20               NOP
014b4d: 20               NOP
014b4e: 20               NOP
014b4f: 20               NOP
014b50: 20               NOP
014b51: 20               NOP
014b52: 20               NOP
014b53: 20               NOP
014b54: 20               NOP
014b55: 20               NOP
014b56: 20               NOP
014b57: 20               NOP
014b58: 20               NOP
014b59: 20               NOP
014b5a: 20               NOP
014b5b: 20               NOP
014b5c: 20               NOP
014b5d: 20               NOP
014b5e: 20               NOP
014b5f: 20               NOP
014b60: 20               NOP
014b61: 20               NOP
014b62: 20               NOP
014b63: 20               NOP
014b64: 20               NOP
014b65: 20               NOP
014b66: 20               NOP
014b67: 20               NOP
014b68: 20               NOP
014b69: 20               NOP
014b6a: 20               NOP
014b6b: 20               NOP
014b6c: 20               NOP
014b6d: 20               NOP
014b6e: 20               NOP
014b6f: 20               NOP
014b70: 20               NOP
014b71: 20               NOP
014b72: 20               NOP
014b73: 20               NOP
014b74: 20               NOP
014b75: 20               NOP
014b76: 20               NOP
014b77: 20               NOP
014b78: 20               NOP
014b79: 20               NOP
014b7a: 20               NOP
014b7b: 20               NOP
014b7c: 20               NOP
014b7d: 20               NOP
014b7e: 20               NOP
014b7f: 20               NOP
014b80: 20               NOP
014b81: 20               NOP
014b82: 20               NOP
014b83: 20               NOP
014b84: 20               NOP
014b85: 20               NOP
014b86: 20               NOP
014b87: 20               NOP
014b88: 20               NOP
014b89: 20               NOP
014b8a: 20               NOP
014b8b: 20               NOP
014b8c: 20               NOP
014b8d: 20               NOP
014b8e: 20               NOP
014b8f: 20               NOP
014b90: 20               NOP
014b91: 20               NOP
014b92: 20               NOP
014b93: 20               NOP
014b94: 20               NOP
014b95: 20               NOP
014b96: 20               NOP
014b97: 20               NOP
014b98: 20               NOP
014b99: 20               NOP
014b9a: 20               NOP
014b9b: 20               NOP
014b9c: 20               NOP
014b9d: 20               NOP
014b9e: 20               NOP
014b9f: 20               NOP
014ba0: 20               NOP
014ba1: 20               NOP
014ba2: 20               NOP
014ba3: 20               NOP
014ba4: 20               NOP
014ba5: 20               NOP
014ba6: 20               NOP
014ba7: 20               NOP
014ba8: 20               NOP
014ba9: 20               NOP
014baa: 20               NOP
014bab: 20               NOP
014bac: 20               NOP
014bad: 20               NOP
014bae: 20               NOP
014baf: 20               NOP
014bb0: 20               NOP
014bb1: 20               NOP
014bb2: 20               NOP
014bb3: 20               NOP
014bb4: 20               NOP
014bb5: 20               NOP
014bb6: 20               NOP
014bb7: 20               NOP
014bb8: 20               NOP
014bb9: 20               NOP
014bba: 20               NOP
014bbb: 20               NOP
014bbc: 20               NOP
014bbd: 20               NOP
014bbe: 20               NOP
014bbf: 20               NOP
014bc0: 20               NOP
014bc1: 20               NOP
014bc2: 20               NOP
014bc3: 20               NOP
014bc4: 20               NOP
014bc5: 20               NOP
014bc6: 20               NOP
014bc7: 20               NOP
014bc8: 20               NOP
014bc9: 20               NOP
014bca: 20               NOP
014bcb: 20               NOP
014bcc: 20               NOP
014bcd: 20               NOP
014bce: 20               NOP
014bcf: 20               NOP
014bd0: 20               NOP
014bd1: 20               NOP
014bd2: 20               NOP
014bd3: 20               NOP
014bd4: 20               NOP
014bd5: 20               NOP
014bd6: 20               NOP
014bd7: 20               NOP
014bd8: 20               NOP
014bd9: 20               NOP
014bda: 20               NOP
014bdb: 20               NOP
014bdc: 20               NOP
014bdd: 20               NOP
014bde: 20               NOP
014bdf: 20               NOP
014be0: 20               NOP
014be1: 20               NOP
014be2: 20               NOP
014be3: 20               NOP
014be4: 20               NOP
014be5: 20               NOP
014be6: 20               NOP
014be7: 20               NOP
014be8: 20               NOP
014be9: 20               NOP
014bea: 20               NOP
014beb: 20               NOP
014bec: 20               NOP
014bed: 20               NOP
014bee: 20               NOP
014bef: 20               NOP
014bf0: 20               NOP
014bf1: 20               NOP
014bf2: 20               NOP
014bf3: 20               NOP
014bf4: 20               NOP
014bf5: 20               NOP
014bf6: 20               NOP
014bf7: 20               NOP
014bf8: 20               NOP
014bf9: 20               NOP
014bfa: 20               NOP
014bfb: 20               NOP
014bfc: 20               NOP
014bfd: 20               NOP
014bfe: 20               NOP
014bff: 20               NOP
014c00: 20               NOP
014c01: 20               NOP
014c02: 20               NOP
014c03: 20               NOP
014c04: 20               NOP
014c05: 20               NOP
014c06: 20               NOP
014c07: 20               NOP
014c08: 20               NOP
014c09: 20               NOP
014c0a: 20               NOP
014c0b: 20               NOP
014c0c: 20               NOP
014c0d: 20               NOP
014c0e: 20               NOP
014c0f: 20               NOP
014c10: 20               NOP
014c11: 20               NOP
014c12: 20               NOP
014c13: 20               NOP
014c14: 20               NOP
014c15: 20               NOP
014c16: 20               NOP
014c17: 20               NOP
014c18: 20               NOP
014c19: 20               NOP
014c1a: 20               NOP
014c1b: 20               NOP
014c1c: 20               NOP
014c1d: 20               NOP
014c1e: 20               NOP
014c1f: 20               NOP
014c20: 20               NOP
014c21: 20               NOP
014c22: 20               NOP
014c23: 20               NOP
014c24: 20               NOP
014c25: 20               NOP
014c26: 20               NOP
014c27: 20               NOP
014c28: 20               NOP
014c29: 20               NOP
014c2a: 20               NOP
014c2b: 20               NOP
014c2c: 20               NOP
014c2d: 20               NOP
014c2e: 20               NOP
014c2f: 20               NOP
014c30: 20               NOP
014c31: 20               NOP
014c32: 20               NOP
014c33: 20               NOP
014c34: 20               NOP
014c35: 20               NOP
014c36: 20               NOP
014c37: 20               NOP
014c38: 20               NOP
014c39: 20               NOP
014c3a: 20               NOP
014c3b: 20               NOP
014c3c: 20               NOP
014c3d: 20               NOP
014c3e: 20               NOP
014c3f: 20               NOP
014c40: 20               NOP
014c41: 20               NOP
014c42: 20               NOP
014c43: 20               NOP
014c44: 20               NOP
014c45: 20               NOP
014c46: 20               NOP
014c47: 20               NOP
014c48: 20               NOP
014c49: 20               NOP
014c4a: 20               NOP
014c4b: 20               NOP
014c4c: 20               NOP
014c4d: 20               NOP
014c4e: 20               NOP
014c4f: 20               NOP
014c50: 20               NOP
014c51: 20               NOP
014c52: 20               NOP
014c53: 20               NOP
014c54: 20               NOP
014c55: 20               NOP
014c56: 20               NOP
014c57: 20               NOP
014c58: 20               NOP
014c59: 20               NOP
014c5a: 20               NOP
014c5b: 20               NOP
014c5c: 20               NOP
014c5d: 20               NOP
014c5e: 20               NOP
014c5f: 20               NOP
014c60: 20               NOP
014c61: 20               NOP
014c62: 20               NOP
014c63: 20               NOP
014c64: 20               NOP
014c65: 20               NOP
014c66: 20               NOP
014c67: 20               NOP
014c68: 20               NOP
014c69: 20               NOP
014c6a: 20               NOP
014c6b: 20               NOP
014c6c: 20               NOP
014c6d: 20               NOP
014c6e: 20               NOP
014c6f: 20               NOP
014c70: 20               NOP
014c71: 20               NOP
014c72: 20               NOP
014c73: 20               NOP
014c74: 20               NOP
014c75: 20               NOP
014c76: 20               NOP
014c77: 20               NOP
014c78: 20               NOP
014c79: 20               NOP
014c7a: 20               NOP
014c7b: 20               NOP
014c7c: 20               NOP
014c7d: 20               NOP
014c7e: 20               NOP
014c7f: 20               NOP
014c80: 20               NOP
014c81: 20               NOP
014c82: 20               NOP
014c83: 20               NOP
014c84: 20               NOP
014c85: 20               NOP
014c86: 20               NOP
014c87: 20               NOP
014c88: 20               NOP
014c89: 20               NOP
014c8a: 20               NOP
014c8b: 20               NOP
014c8c: 20               NOP
014c8d: 20               NOP
014c8e: 20               NOP
014c8f: 20               NOP
014c90: 20               NOP
014c91: 20               NOP
014c92: 20               NOP
014c93: 20               NOP
014c94: 20               NOP
014c95: 20               NOP
014c96: 20               NOP
014c97: 20               NOP
014c98: 20               NOP
014c99: 20               NOP
014c9a: 20               NOP
014c9b: 20               NOP
014c9c: 20               NOP
014c9d: 20               NOP
014c9e: 20               NOP
014c9f: 20               NOP
014ca0: 20               NOP
014ca1: 20               NOP
014ca2: 20               NOP
014ca3: 20               NOP
014ca4: 20               NOP
014ca5: 20               NOP
014ca6: 20               NOP
014ca7: 20               NOP
014ca8: 20               NOP
014ca9: 20               NOP
014caa: 20               NOP
014cab: 20               NOP
014cac: 20               NOP
014cad: 20               NOP
014cae: 20               NOP
014caf: 20               NOP
014cb0: 20               NOP
014cb1: 20               NOP
014cb2: 20               NOP
014cb3: 20               NOP
014cb4: 20               NOP
014cb5: 20               NOP
014cb6: 20               NOP
014cb7: 20               NOP
014cb8: 20               NOP
014cb9: 20               NOP
014cba: 20               NOP
014cbb: 20               NOP
014cbc: 20               NOP
014cbd: 20               NOP
014cbe: 20               NOP
014cbf: 20               NOP
014cc0: 20               NOP
014cc1: 20               NOP
014cc2: 20               NOP
014cc3: 20               NOP
014cc4: 20               NOP
014cc5: 20               NOP
014cc6: 20               NOP
014cc7: 20               NOP
014cc8: 20               NOP
014cc9: 20               NOP
014cca: 20               NOP
014ccb: 20               NOP
014ccc: 20               NOP
014ccd: 20               NOP
014cce: 20               NOP
014ccf: 20               NOP
014cd0: 20               NOP
014cd1: 20               NOP
014cd2: 20               NOP
014cd3: 20               NOP
014cd4: 20               NOP
014cd5: 20               NOP
014cd6: 20               NOP
014cd7: 20               NOP
014cd8: 20               NOP
014cd9: 20               NOP
014cda: 20               NOP
014cdb: 20               NOP
014cdc: 20               NOP
014cdd: 20               NOP
014cde: 20               NOP
014cdf: 20               NOP
014ce0: 20               NOP
014ce1: 20               NOP
014ce2: 20               NOP
014ce3: 20               NOP
014ce4: 20               NOP
014ce5: 20               NOP
014ce6: 20               NOP
014ce7: 20               NOP
014ce8: 20               NOP
014ce9: 20               NOP
014cea: 20               NOP
014ceb: 20               NOP
014cec: 20               NOP
014ced: 20               NOP
014cee: 20               NOP
014cef: 20               NOP
014cf0: 20               NOP
014cf1: 20               NOP
014cf2: 20               NOP
014cf3: 20               NOP
014cf4: 20               NOP
014cf5: 20               NOP
014cf6: 20               NOP
014cf7: 20               NOP
014cf8: 20               NOP
014cf9: 20               NOP
014cfa: 20               NOP
014cfb: 20               NOP
014cfc: 20               NOP
014cfd: 20               NOP
014cfe: 20               NOP
014cff: 20               NOP
014d00: 20               NOP
014d01: 20               NOP
014d02: 20               NOP
014d03: 20               NOP
014d04: 20               NOP
014d05: 20               NOP
014d06: 20               NOP
014d07: 20               NOP
014d08: 20               NOP
014d09: 20               NOP
014d0a: 20               NOP
014d0b: 20               NOP
014d0c: 20               NOP
014d0d: 20               NOP
014d0e: 20               NOP
014d0f: 20               NOP
014d10: 20               NOP
014d11: 20               NOP
014d12: 20               NOP
014d13: 20               NOP
014d14: 20               NOP
014d15: 20               NOP
014d16: 20               NOP
014d17: 20               NOP
014d18: 20               NOP
014d19: 20               NOP
014d1a: 20               NOP
014d1b: 20               NOP
014d1c: 20               NOP
014d1d: 20               NOP
014d1e: 20               NOP
014d1f: 20               NOP
014d20: 20               NOP
014d21: 20               NOP
014d22: 20               NOP
014d23: 20               NOP
014d24: 20               NOP
014d25: 20               NOP
014d26: 20               NOP
014d27: 20               NOP
014d28: 20               NOP
014d29: 20               NOP
014d2a: 20               NOP
014d2b: 20               NOP
014d2c: 20               NOP
014d2d: 20               NOP
014d2e: 20               NOP
014d2f: 20               NOP
014d30: 20               NOP
014d31: 20               NOP
014d32: 20               NOP
014d33: 20               NOP
014d34: 20               NOP
014d35: 20               NOP
014d36: 20               NOP
014d37: 20               NOP
014d38: 20               NOP
014d39: 20               NOP
014d3a: 20               NOP
014d3b: 20               NOP
014d3c: 20               NOP
014d3d: 20               NOP
014d3e: 20               NOP
014d3f: 20               NOP
014d40: 20               NOP
014d41: 20               NOP
014d42: 20               NOP
014d43: 20               NOP
014d44: 20               NOP
014d45: 20               NOP
014d46: 20               NOP
014d47: 20               NOP
014d48: 20               NOP
014d49: 20               NOP
014d4a: 20               NOP
014d4b: 20               NOP
014d4c: 20               NOP
014d4d: 20               NOP
014d4e: 20               NOP
014d4f: 20               NOP
014d50: 20               NOP
014d51: 20               NOP
014d52: 20               NOP
014d53: 20               NOP
014d54: 20               NOP
014d55: 20               NOP
014d56: 20               NOP
014d57: 20               NOP
014d58: 20               NOP
014d59: 20               NOP
014d5a: 20               NOP
014d5b: 20               NOP
014d5c: 20               NOP
014d5d: 20               NOP
014d5e: 20               NOP
014d5f: 20               NOP
014d60: 20               NOP
014d61: 20               NOP
014d62: 20               NOP
014d63: 20               NOP
014d64: 20               NOP
014d65: 20               NOP
014d66: 20               NOP
014d67: 20               NOP
014d68: 20               NOP
014d69: 20               NOP
014d6a: 20               NOP
014d6b: 20               NOP
014d6c: 20               NOP
014d6d: 20               NOP
014d6e: 20               NOP
014d6f: 20               NOP
014d70: 20               NOP
014d71: 20               NOP
014d72: 20               NOP
014d73: 20               NOP
014d74: 20               NOP
014d75: 20               NOP
014d76: 20               NOP
014d77: 20               NOP
014d78: 20               NOP
014d79: 20               NOP
014d7a: 20               NOP
014d7b: 20               NOP
014d7c: 20               NOP
014d7d: 20               NOP
014d7e: 20               NOP
014d7f: 20               NOP
014d80: 20               NOP
014d81: 20               NOP
014d82: 20               NOP
014d83: 20               NOP
014d84: 20               NOP
014d85: 20               NOP
014d86: 20               NOP
014d87: 20               NOP
014d88: 20               NOP
014d89: 20               NOP
014d8a: 20               NOP
014d8b: 20               NOP
014d8c: 20               NOP
014d8d: 20               NOP
014d8e: 20               NOP
014d8f: 20               NOP
014d90: 20               NOP
014d91: 20               NOP
014d92: 20               NOP
014d93: 20               NOP
014d94: 20               NOP
014d95: 20               NOP
014d96: 20               NOP
014d97: 20               NOP
014d98: 20               NOP
014d99: 20               NOP
014d9a: 20               NOP
014d9b: 20               NOP
014d9c: 20               NOP
014d9d: 20               NOP
014d9e: 20               NOP
014d9f: 20               NOP
014da0: 20               NOP
014da1: 20               NOP
014da2: 20               NOP
014da3: 20               NOP
014da4: 20               NOP
014da5: 20               NOP
014da6: 20               NOP
014da7: 20               NOP
014da8: 20               NOP
014da9: 20               NOP
014daa: 20               NOP
014dab: 20               NOP
014dac: 20               NOP
014dad: 20               NOP
014dae: 20               NOP
014daf: 20               NOP
014db0: 20               NOP
014db1: 20               NOP
014db2: 20               NOP
014db3: 20               NOP
014db4: 20               NOP
014db5: 20               NOP
014db6: 20               NOP
014db7: 20               NOP
014db8: 20               NOP
014db9: 20               NOP
014dba: 20               NOP
014dbb: 20               NOP
014dbc: 20               NOP
014dbd: 20               NOP
014dbe: 20               NOP
014dbf: 20               NOP
014dc0: 20               NOP
014dc1: 20               NOP
014dc2: 20               NOP
014dc3: 20               NOP
014dc4: 20               NOP
014dc5: 20               NOP
014dc6: 20               NOP
014dc7: 20               NOP
014dc8: 20               NOP
014dc9: 20               NOP
014dca: 20               NOP
014dcb: 20               NOP
014dcc: 20               NOP
014dcd: 20               NOP
014dce: 20               NOP
014dcf: 20               NOP
014dd0: 20               NOP
014dd1: 20               NOP
014dd2: 20               NOP
014dd3: 20               NOP
014dd4: 20               NOP
014dd5: 20               NOP
014dd6: 20               NOP
014dd7: 20               NOP
014dd8: 20               NOP
014dd9: 20               NOP
014dda: 20               NOP
014ddb: 20               NOP
014ddc: 20               NOP
014ddd: 20               NOP
014dde: 20               NOP
014ddf: 20               NOP
014de0: 20               NOP
014de1: 20               NOP
014de2: 20               NOP
014de3: 20               NOP
014de4: 20               NOP
014de5: 20               NOP
014de6: 20               NOP
014de7: 20               NOP
014de8: 20               NOP
014de9: 20               NOP
014dea: 20               NOP
014deb: 20               NOP
014dec: 20               NOP
014ded: 20               NOP
014dee: 20               NOP
014def: 20               NOP
014df0: 20               NOP
014df1: 20               NOP
014df2: 20               NOP
014df3: 20               NOP
014df4: 20               NOP
014df5: 20               NOP
014df6: 20               NOP
014df7: 20               NOP
014df8: 20               NOP
014df9: 20               NOP
014dfa: 20               NOP
014dfb: 20               NOP
014dfc: 20               NOP
014dfd: 20               NOP
014dfe: 20               NOP
014dff: 20               NOP
014e00: 20               NOP
014e01: 20               NOP
014e02: 20               NOP
014e03: 20               NOP
014e04: 20               NOP
014e05: 20               NOP
014e06: 20               NOP
014e07: 20               NOP
014e08: 20               NOP
014e09: 20               NOP
014e0a: 20               NOP
014e0b: 20               NOP
014e0c: 20               NOP
014e0d: 20               NOP
014e0e: 20               NOP
014e0f: 20               NOP
014e10: 20               NOP
014e11: 20               NOP
014e12: 20               NOP
014e13: 20               NOP
014e14: 20               NOP
014e15: 20               NOP
014e16: 20               NOP
014e17: 20               NOP
014e18: 20               NOP
014e19: 20               NOP
014e1a: 20               NOP
014e1b: 20               NOP
014e1c: 20               NOP
014e1d: 20               NOP
014e1e: 20               NOP
014e1f: 20               NOP
014e20: 20               NOP
014e21: 20               NOP
014e22: 20               NOP
014e23: 20               NOP
014e24: 20               NOP
014e25: 20               NOP
014e26: 20               NOP
014e27: 20               NOP
014e28: 20               NOP
014e29: 20               NOP
014e2a: 20               NOP
014e2b: 20               NOP
014e2c: 20               NOP
014e2d: 20               NOP
014e2e: 20               NOP
014e2f: 20               NOP
014e30: 20               NOP
014e31: 20               NOP
014e32: 20               NOP
014e33: 20               NOP
014e34: 20               NOP
014e35: 20               NOP
014e36: 20               NOP
014e37: 20               NOP
014e38: 20               NOP
014e39: 20               NOP
014e3a: 20               NOP
014e3b: 20               NOP
014e3c: 20               NOP
014e3d: 20               NOP
014e3e: 20               NOP
014e3f: 20               NOP
014e40: 20               NOP
014e41: 20               NOP
014e42: 20               NOP
014e43: 20               NOP
014e44: 20               NOP
014e45: 20               NOP
014e46: 20               NOP
014e47: 20               NOP
014e48: 20               NOP
014e49: 20               NOP
014e4a: 20               NOP
014e4b: 20               NOP
014e4c: 20               NOP
014e4d: 20               NOP
014e4e: 20               NOP
014e4f: 20               NOP
014e50: 20               NOP
014e51: 20               NOP
014e52: 20               NOP
014e53: 20               NOP
014e54: 20               NOP
014e55: 20               NOP
014e56: 20               NOP
014e57: 20               NOP
014e58: 20               NOP
014e59: 20               NOP
014e5a: 20               NOP
014e5b: 20               NOP
014e5c: 20               NOP
014e5d: 20               NOP
014e5e: 20               NOP
014e5f: 20               NOP
014e60: 20               NOP
014e61: 20               NOP
014e62: 20               NOP
014e63: 20               NOP
014e64: 20               NOP
014e65: 20               NOP
014e66: 20               NOP
014e67: 20               NOP
014e68: 20               NOP
014e69: 20               NOP
014e6a: 20               NOP
014e6b: 20               NOP
014e6c: 20               NOP
014e6d: 20               NOP
014e6e: 20               NOP
014e6f: 20               NOP
014e70: 20               NOP
014e71: 20               NOP
014e72: 20               NOP
014e73: 20               NOP
014e74: 20               NOP
014e75: 20               NOP
014e76: 20               NOP
014e77: 20               NOP
014e78: 20               NOP
014e79: 20               NOP
014e7a: 20               NOP
014e7b: 20               NOP
014e7c: 20               NOP
014e7d: 20               NOP
014e7e: 20               NOP
014e7f: 20               NOP
014e80: 20               NOP
014e81: 20               NOP
014e82: 20               NOP
014e83: 20               NOP
014e84: 20               NOP
014e85: 20               NOP
014e86: 20               NOP
014e87: 20               NOP
014e88: 20               NOP
014e89: 20               NOP
014e8a: 20               NOP
014e8b: 20               NOP
014e8c: 20               NOP
014e8d: 20               NOP
014e8e: 20               NOP
014e8f: 20               NOP
014e90: 20               NOP
014e91: 20               NOP
014e92: 20               NOP
014e93: 20               NOP
014e94: 20               NOP
014e95: 20               NOP
014e96: 20               NOP
014e97: 20               NOP
014e98: 20               NOP
014e99: 20               NOP
014e9a: 20               NOP
014e9b: 20               NOP
014e9c: 20               NOP
014e9d: 20               NOP
014e9e: 20               NOP
014e9f: 20               NOP
014ea0: 20               NOP
014ea1: 20               NOP
014ea2: 20               NOP
014ea3: 20               NOP
014ea4: 20               NOP
014ea5: 20               NOP
014ea6: 20               NOP
014ea7: 20               NOP
014ea8: 20               NOP
014ea9: 20               NOP
014eaa: 20               NOP
014eab: 20               NOP
014eac: 20               NOP
014ead: 20               NOP
014eae: 20               NOP
014eaf: 20               NOP
014eb0: 20               NOP
014eb1: 20               NOP
014eb2: 20               NOP
014eb3: 20               NOP
014eb4: 20               NOP
014eb5: 20               NOP
014eb6: 20               NOP
014eb7: 20               NOP
014eb8: 20               NOP
014eb9: 20               NOP
014eba: 20               NOP
014ebb: 20               NOP
014ebc: 20               NOP
014ebd: 20               NOP
014ebe: 20               NOP
014ebf: 20               NOP
014ec0: 20               NOP
014ec1: 20               NOP
014ec2: 20               NOP
014ec3: 20               NOP
014ec4: 20               NOP
014ec5: 20               NOP
014ec6: 20               NOP
014ec7: 20               NOP
014ec8: 20               NOP
014ec9: 20               NOP
014eca: 20               NOP
014ecb: 20               NOP
014ecc: 20               NOP
014ecd: 20               NOP
014ece: 20               NOP
014ecf: 20               NOP
014ed0: 20               NOP
014ed1: 20               NOP
014ed2: 20               NOP
014ed3: 20               NOP
014ed4: 20               NOP
014ed5: 20               NOP
014ed6: 20               NOP
014ed7: 20               NOP
014ed8: 20               NOP
014ed9: 20               NOP
014eda: 20               NOP
014edb: 20               NOP
014edc: 20               NOP
014edd: 20               NOP
014ede: 20               NOP
014edf: 20               NOP
014ee0: 20               NOP
014ee1: 20               NOP
014ee2: 20               NOP
014ee3: 20               NOP
014ee4: 20               NOP
014ee5: 20               NOP
014ee6: 20               NOP
014ee7: 20               NOP
014ee8: 20               NOP
014ee9: 20               NOP
014eea: 20               NOP
014eeb: 20               NOP
014eec: 20               NOP
014eed: 20               NOP
014eee: 20               NOP
014eef: 20               NOP
014ef0: 20               NOP
014ef1: 20               NOP
014ef2: 20               NOP
014ef3: 20               NOP
014ef4: 20               NOP
014ef5: 20               NOP
014ef6: 20               NOP
014ef7: 20               NOP
014ef8: 20               NOP
014ef9: 20               NOP
014efa: 20               NOP
014efb: 20               NOP
014efc: 20               NOP
014efd: 20               NOP
014efe: 20               NOP
014eff: 20               NOP
014f00: 20               NOP
014f01: 20               NOP
014f02: 20               NOP
014f03: 20               NOP
014f04: 20               NOP
014f05: 20               NOP
014f06: 20               NOP
014f07: 20               NOP
014f08: 20               NOP
014f09: 20               NOP
014f0a: 20               NOP
014f0b: 20               NOP
014f0c: 20               NOP
014f0d: 20               NOP
014f0e: 20               NOP
014f0f: 20               NOP
014f10: 20               NOP
014f11: 20               NOP
014f12: 20               NOP
014f13: 20               NOP
014f14: 20               NOP
014f15: 20               NOP
014f16: 20               NOP
014f17: 20               NOP
014f18: 20               NOP
014f19: 20               NOP
014f1a: 20               NOP
014f1b: 20               NOP
014f1c: 20               NOP
014f1d: 20               NOP
014f1e: 20               NOP
014f1f: 20               NOP
014f20: 20               NOP
014f21: 20               NOP
014f22: 20               NOP
014f23: 20               NOP
014f24: 20               NOP
014f25: 20               NOP
014f26: 20               NOP
014f27: 20               NOP
014f28: 20               NOP
014f29: 20               NOP
014f2a: 20               NOP
014f2b: 20               NOP
014f2c: 20               NOP
014f2d: 20               NOP
014f2e: 20               NOP
014f2f: 20               NOP
014f30: 20               NOP
014f31: 20               NOP
014f32: 20               NOP
014f33: 20               NOP
014f34: 20               NOP
014f35: 20               NOP
014f36: 20               NOP
014f37: 20               NOP
014f38: 20               NOP
014f39: 20               NOP
014f3a: 20               NOP
014f3b: 20               NOP
014f3c: 20               NOP
014f3d: 20               NOP
014f3e: 20               NOP
014f3f: 20               NOP
014f40: 20               NOP
014f41: 20               NOP
014f42: 20               NOP
014f43: 20               NOP
014f44: 20               NOP
014f45: 20               NOP
014f46: 20               NOP
014f47: 20               NOP
014f48: 20               NOP
014f49: 20               NOP
014f4a: 20               NOP
014f4b: 20               NOP
014f4c: 20               NOP
014f4d: 20               NOP
014f4e: 20               NOP
014f4f: 20               NOP
014f50: 20               NOP
014f51: 20               NOP
014f52: 20               NOP
014f53: 20               NOP
014f54: 20               NOP
014f55: 20               NOP
014f56: 20               NOP
014f57: 20               NOP
014f58: 20               NOP
014f59: 20               NOP
014f5a: 20               NOP
014f5b: 20               NOP
014f5c: 20               NOP
014f5d: 20               NOP
014f5e: 20               NOP
014f5f: 20               NOP
014f60: 20               NOP
014f61: 20               NOP
014f62: 20               NOP
014f63: 20               NOP
014f64: 20               NOP
014f65: 20               NOP
014f66: 20               NOP
014f67: 20               NOP
014f68: 20               NOP
014f69: 20               NOP
014f6a: 20               NOP
014f6b: 20               NOP
014f6c: 20               NOP
014f6d: 20               NOP
014f6e: 20               NOP
014f6f: 20               NOP
014f70: 20               NOP
014f71: 20               NOP
014f72: 20               NOP
014f73: 20               NOP
014f74: 20               NOP
014f75: 20               NOP
014f76: 20               NOP
014f77: 20               NOP
014f78: 20               NOP
014f79: 20               NOP
014f7a: 20               NOP
014f7b: 20               NOP
014f7c: 20               NOP
014f7d: 20               NOP
014f7e: 20               NOP
014f7f: 20               NOP
014f80: 20               NOP
014f81: 20               NOP
014f82: 20               NOP
014f83: 20               NOP
014f84: 20               NOP
014f85: 20               NOP
014f86: 20               NOP
014f87: 20               NOP
014f88: 20               NOP
014f89: 20               NOP
014f8a: 20               NOP
014f8b: 20               NOP
014f8c: 20               NOP
014f8d: 20               NOP
014f8e: 20               NOP
014f8f: 20               NOP
014f90: 20               NOP
014f91: 20               NOP
014f92: 20               NOP
014f93: 20               NOP
014f94: 20               NOP
014f95: 20               NOP
014f96: 20               NOP
014f97: 20               NOP
014f98: 20               NOP
014f99: 20               NOP
014f9a: 20               NOP
014f9b: 20               NOP
014f9c: 20               NOP
014f9d: 20               NOP
014f9e: 20               NOP
014f9f: 20               NOP
014fa0: 20               NOP
014fa1: 20               NOP
014fa2: 20               NOP
014fa3: 20               NOP
014fa4: 20               NOP
014fa5: 20               NOP
014fa6: 20               NOP
014fa7: 20               NOP
014fa8: 20               NOP
014fa9: 20               NOP
014faa: 20               NOP
014fab: 20               NOP
014fac: 20               NOP
014fad: 20               NOP
014fae: 20               NOP
014faf: 20               NOP
014fb0: 20               NOP
014fb1: 20               NOP
014fb2: 20               NOP
014fb3: 20               NOP
014fb4: 20               NOP
014fb5: 20               NOP
014fb6: 20               NOP
014fb7: 20               NOP
014fb8: 20               NOP
014fb9: 20               NOP
014fba: 20               NOP
014fbb: 20               NOP
014fbc: 20               NOP
014fbd: 20               NOP
014fbe: 20               NOP
014fbf: 20               NOP
014fc0: 20               NOP
014fc1: 20               NOP
014fc2: 20               NOP
014fc3: 20               NOP
014fc4: 20               NOP
014fc5: 20               NOP
014fc6: 20               NOP
014fc7: 20               NOP
014fc8: 20               NOP
014fc9: 20               NOP
014fca: 20               NOP
014fcb: 20               NOP
014fcc: 20               NOP
014fcd: 20               NOP
014fce: 20               NOP
014fcf: 20               NOP
014fd0: 20               NOP
014fd1: 20               NOP
014fd2: 20               NOP
014fd3: 20               NOP
014fd4: 20               NOP
014fd5: 20               NOP
014fd6: 20               NOP
014fd7: 20               NOP
014fd8: 20               NOP
014fd9: 20               NOP
014fda: 20               NOP
014fdb: 20               NOP
014fdc: 20               NOP
014fdd: 20               NOP
014fde: 20               NOP
014fdf: 20               NOP
014fe0: 20               NOP
014fe1: 20               NOP
014fe2: 20               NOP
014fe3: 20               NOP
014fe4: 20               NOP
014fe5: 20               NOP
014fe6: 20               NOP
014fe7: 20               NOP
014fe8: 20               NOP
014fe9: 20               NOP
014fea: 20               NOP
014feb: 20               NOP
014fec: 20               NOP
014fed: 20               NOP
014fee: 20               NOP
014fef: 20               NOP
014ff0: 20               NOP
014ff1: 20               NOP
014ff2: 20               NOP
014ff3: 20               NOP
014ff4: 20               NOP
014ff5: 20               NOP
014ff6: 20               NOP
014ff7: 20               NOP
014ff8: 20               NOP
014ff9: 20               NOP
014ffa: 20               NOP
014ffb: 20               NOP
014ffc: 20               NOP
014ffd: 20               NOP
014ffe: 20               NOP
014fff: 20               NOP
015000: 20               NOP
015001: 20               NOP
015002: 20               NOP
015003: 20               NOP
015004: 20               NOP
015005: 20               NOP
015006: 20               NOP
015007: 20               NOP
015008: 20               NOP
015009: 20               NOP
01500a: 20               NOP
01500b: 20               NOP
01500c: 20               NOP
01500d: 20               NOP
01500e: 20               NOP
01500f: 20               NOP
015010: 20               NOP
015011: 20               NOP
015012: 20               NOP
015013: 20               NOP
015014: 20               NOP
015015: 20               NOP
015016: 20               NOP
015017: 20               NOP
015018: 20               NOP
015019: 20               NOP
01501a: 20               NOP
01501b: 20               NOP
01501c: 20               NOP
01501d: 20               NOP
01501e: 20               NOP
01501f: 20               NOP
015020: 20               NOP
015021: 20               NOP
015022: 20               NOP
015023: 20               NOP
015024: 20               NOP
015025: 20               NOP
015026: 20               NOP
015027: 20               NOP
015028: 20               NOP
015029: 20               NOP
01502a: 20               NOP
01502b: 20               NOP
01502c: 20               NOP
01502d: 20               NOP
01502e: 20               NOP
01502f: 20               NOP
015030: 20               NOP
015031: 20               NOP
015032: 20               NOP
015033: 20               NOP
015034: 20               NOP
015035: 20               NOP
015036: 20               NOP
015037: 20               NOP
015038: 20               NOP
015039: 20               NOP
01503a: 20               NOP
01503b: 20               NOP
01503c: 20               NOP
01503d: 20               NOP
01503e: 20               NOP
01503f: 20               NOP
015040: 20               NOP
015041: 20               NOP
015042: 20               NOP
015043: 20               NOP
015044: 20               NOP
015045: 20               NOP
015046: 20               NOP
015047: 20               NOP
015048: 20               NOP
015049: 20               NOP
01504a: 20               NOP
01504b: 20               NOP
01504c: 20               NOP
01504d: 20               NOP
01504e: 20               NOP
01504f: 20               NOP
015050: 20               NOP
015051: 20               NOP
015052: 20               NOP
015053: 20               NOP
015054: 20               NOP
015055: 20               NOP
015056: 20               NOP
015057: 20               NOP
015058: 20               NOP
015059: 20               NOP
01505a: 20               NOP
01505b: 20               NOP
01505c: 20               NOP
01505d: 20               NOP
01505e: 20               NOP
01505f: 20               NOP
015060: 20               NOP
015061: 20               NOP
015062: 20               NOP
015063: 20               NOP
015064: 20               NOP
015065: 20               NOP
015066: 20               NOP
015067: 20               NOP
015068: 20               NOP
015069: 20               NOP
01506a: 20               NOP
01506b: 20               NOP
01506c: 20               NOP
01506d: 20               NOP
01506e: 20               NOP
01506f: 20               NOP
015070: 20               NOP
015071: 20               NOP
015072: 20               NOP
015073: 20               NOP
015074: 20               NOP
015075: 20               NOP
015076: 20               NOP
015077: 20               NOP
015078: 20               NOP
015079: 20               NOP
01507a: 20               NOP
01507b: 20               NOP
01507c: 20               NOP
01507d: 20               NOP
01507e: 20               NOP
01507f: 20               NOP
015080: 20               NOP
015081: 20               NOP
015082: 20               NOP
015083: 20               NOP
015084: 20               NOP
015085: 20               NOP
015086: 20               NOP
015087: 20               NOP
015088: 20               NOP
015089: 20               NOP
01508a: 20               NOP
01508b: 20               NOP
01508c: 20               NOP
01508d: 20               NOP
01508e: 20               NOP
01508f: 20               NOP
015090: 20               NOP
015091: 20               NOP
015092: 20               NOP
015093: 20               NOP
015094: 20               NOP
015095: 20               NOP
015096: 20               NOP
015097: 20               NOP
015098: 20               NOP
015099: 20               NOP
01509a: 20               NOP
01509b: 20               NOP
01509c: 20               NOP
01509d: 20               NOP
01509e: 20               NOP
01509f: 20               NOP
0150a0: 20               NOP
0150a1: 20               NOP
0150a2: 20               NOP
0150a3: 20               NOP
0150a4: 20               NOP
0150a5: 20               NOP
0150a6: 20               NOP
0150a7: 20               NOP
0150a8: 20               NOP
0150a9: 20               NOP
0150aa: 20               NOP
0150ab: 20               NOP
0150ac: 20               NOP
0150ad: 20               NOP
0150ae: 20               NOP
0150af: 20               NOP
0150b0: 20               NOP
0150b1: 20               NOP
0150b2: 20               NOP
0150b3: 20               NOP
0150b4: 20               NOP
0150b5: 20               NOP
0150b6: 20               NOP
0150b7: 20               NOP
0150b8: 20               NOP
0150b9: 20               NOP
0150ba: 20               NOP
0150bb: 20               NOP
0150bc: 20               NOP
0150bd: 20               NOP
0150be: 20               NOP
0150bf: 20               NOP
0150c0: 20               NOP
0150c1: 20               NOP
0150c2: 20               NOP
0150c3: 20               NOP
0150c4: 20               NOP
0150c5: 20               NOP
0150c6: 20               NOP
0150c7: 20               NOP
0150c8: 20               NOP
0150c9: 20               NOP
0150ca: 20               NOP
0150cb: 20               NOP
0150cc: 20               NOP
0150cd: 20               NOP
0150ce: 20               NOP
0150cf: 20               NOP
0150d0: 20               NOP
0150d1: 20               NOP
0150d2: 20               NOP
0150d3: 20               NOP
0150d4: 20               NOP
0150d5: 20               NOP
0150d6: 20               NOP
0150d7: 20               NOP
0150d8: 20               NOP
0150d9: 20               NOP
0150da: 20               NOP
0150db: 20               NOP
0150dc: 20               NOP
0150dd: 20               NOP
0150de: 20               NOP
0150df: 20               NOP
0150e0: 20               NOP
0150e1: 20               NOP
0150e2: 20               NOP
0150e3: 20               NOP
0150e4: 20               NOP
0150e5: 20               NOP
0150e6: 20               NOP
0150e7: 20               NOP
0150e8: 20               NOP
0150e9: 20               NOP
0150ea: 20               NOP
0150eb: 20               NOP
0150ec: 20               NOP
0150ed: 20               NOP
0150ee: 20               NOP
0150ef: 20               NOP
0150f0: 20               NOP
0150f1: 20               NOP
0150f2: 20               NOP
0150f3: 20               NOP
0150f4: 20               NOP
0150f5: 20               NOP
0150f6: 20               NOP
0150f7: 20               NOP
0150f8: 20               NOP
0150f9: 20               NOP
0150fa: 20               NOP
0150fb: 20               NOP
0150fc: 20               NOP
0150fd: 20               NOP
0150fe: 20               NOP
0150ff: 20               NOP
015100: 20               NOP
015101: 20               NOP
015102: 20               NOP
015103: 20               NOP
015104: 20               NOP
015105: 20               NOP
015106: 20               NOP
015107: 20               NOP
015108: 20               NOP
015109: 20               NOP
01510a: 20               NOP
01510b: 20               NOP
01510c: 20               NOP
01510d: 20               NOP
01510e: 20               NOP
01510f: 20               NOP
015110: 20               NOP
015111: 20               NOP
015112: 20               NOP
015113: 20               NOP
015114: 20               NOP
015115: 20               NOP
015116: 20               NOP
015117: 20               NOP
015118: 20               NOP
015119: 20               NOP
01511a: 20               NOP
01511b: 20               NOP
01511c: 20               NOP
01511d: 20               NOP
01511e: 20               NOP
01511f: 20               NOP
015120: 20               NOP
015121: 20               NOP
015122: 20               NOP
015123: 20               NOP
015124: 20               NOP
015125: 20               NOP
015126: 20               NOP
015127: 20               NOP
015128: 20               NOP
015129: 20               NOP
01512a: 20               NOP
01512b: 20               NOP
01512c: 20               NOP
01512d: 20               NOP
01512e: 20               NOP
01512f: 20               NOP
015130: 20               NOP
015131: 20               NOP
015132: 20               NOP
015133: 20               NOP
015134: 20               NOP
015135: 20               NOP
015136: 20               NOP
015137: 20               NOP
015138: 20               NOP
015139: 20               NOP
01513a: 20               NOP
01513b: 20               NOP
01513c: 20               NOP
01513d: 20               NOP
01513e: 20               NOP
01513f: 20               NOP
015140: 20               NOP
015141: 20               NOP
015142: 20               NOP
015143: 20               NOP
015144: 20               NOP
015145: 20               NOP
015146: 20               NOP
015147: 20               NOP
015148: 20               NOP
015149: 20               NOP
01514a: 20               NOP
01514b: 20               NOP
01514c: 20               NOP
01514d: 20               NOP
01514e: 20               NOP
01514f: 20               NOP
015150: 20               NOP
015151: 20               NOP
015152: 20               NOP
015153: 20               NOP
015154: 20               NOP
015155: 20               NOP
015156: 20               NOP
015157: 20               NOP
015158: 20               NOP
015159: 20               NOP
01515a: 20               NOP
01515b: 20               NOP
01515c: 20               NOP
01515d: 20               NOP
01515e: 20               NOP
01515f: 20               NOP
015160: 20               NOP
015161: 20               NOP
015162: 20               NOP
015163: 20               NOP
015164: 20               NOP
015165: 20               NOP
015166: 20               NOP
015167: 20               NOP
015168: 20               NOP
015169: 20               NOP
01516a: 20               NOP
01516b: 20               NOP
01516c: 20               NOP
01516d: 20               NOP
01516e: 20               NOP
01516f: 20               NOP
015170: 20               NOP
015171: 20               NOP
015172: 20               NOP
015173: 20               NOP
015174: 20               NOP
015175: 20               NOP
015176: 20               NOP
015177: 20               NOP
015178: 20               NOP
015179: 20               NOP
01517a: 20               NOP
01517b: 20               NOP
01517c: 20               NOP
01517d: 20               NOP
01517e: 20               NOP
01517f: 20               NOP
015180: 20               NOP
015181: 20               NOP
015182: 20               NOP
015183: 20               NOP
015184: 20               NOP
015185: 20               NOP
015186: 20               NOP
015187: 20               NOP
015188: 20               NOP
015189: 20               NOP
01518a: 20               NOP
01518b: 20               NOP
01518c: 20               NOP
01518d: 20               NOP
01518e: 20               NOP
01518f: 20               NOP
015190: 20               NOP
015191: 20               NOP
015192: 20               NOP
015193: 20               NOP
015194: 20               NOP
015195: 20               NOP
015196: 20               NOP
015197: 20               NOP
015198: 20               NOP
015199: 20               NOP
01519a: 20               NOP
01519b: 20               NOP
01519c: 20               NOP
01519d: 20               NOP
01519e: 20               NOP
01519f: 20               NOP
0151a0: 20               NOP
0151a1: 20               NOP
0151a2: 20               NOP
0151a3: 20               NOP
0151a4: 20               NOP
0151a5: 20               NOP
0151a6: 20               NOP
0151a7: 20               NOP
0151a8: 20               NOP
0151a9: 20               NOP
0151aa: 20               NOP
0151ab: 20               NOP
0151ac: 20               NOP
0151ad: 20               NOP
0151ae: 20               NOP
0151af: 20               NOP
0151b0: 20               NOP
0151b1: 20               NOP
0151b2: 20               NOP
0151b3: 20               NOP
0151b4: 20               NOP
0151b5: 20               NOP
0151b6: 20               NOP
0151b7: 20               NOP
0151b8: 20               NOP
0151b9: 20               NOP
0151ba: 20               NOP
0151bb: 20               NOP
0151bc: 20               NOP
0151bd: 20               NOP
0151be: 20               NOP
0151bf: 20               NOP
0151c0: 20               NOP
0151c1: 20               NOP
0151c2: 20               NOP
0151c3: 20               NOP
0151c4: 20               NOP
0151c5: 20               NOP
0151c6: 20               NOP
0151c7: 20               NOP
0151c8: 20               NOP
0151c9: 20               NOP
0151ca: 20               NOP
0151cb: 20               NOP
0151cc: 20               NOP
0151cd: 20               NOP
0151ce: 20               NOP
0151cf: 20               NOP
0151d0: 20               NOP
0151d1: 20               NOP
0151d2: 20               NOP
0151d3: 20               NOP
0151d4: 20               NOP
0151d5: 20               NOP
0151d6: 20               NOP
0151d7: 20               NOP
0151d8: 20               NOP
0151d9: 20               NOP
0151da: 20               NOP
0151db: 20               NOP
0151dc: 20               NOP
0151dd: 20               NOP
0151de: 20               NOP
0151df: 20               NOP
0151e0: 20               NOP
0151e1: 20               NOP
0151e2: 20               NOP
0151e3: 20               NOP
0151e4: 20               NOP
0151e5: 20               NOP
0151e6: 20               NOP
0151e7: 20               NOP
0151e8: 20               NOP
0151e9: 20               NOP
0151ea: 20               NOP
0151eb: 20               NOP
0151ec: 20               NOP
0151ed: 20               NOP
0151ee: 20               NOP
0151ef: 20               NOP
0151f0: 20               NOP
0151f1: 20               NOP
0151f2: 20               NOP
0151f3: 20               NOP
0151f4: 20               NOP
0151f5: 20               NOP
0151f6: 20               NOP
0151f7: 20               NOP
0151f8: 20               NOP
0151f9: 20               NOP
0151fa: 20               NOP
0151fb: 20               NOP
0151fc: 20               NOP
0151fd: 20               NOP
0151fe: 20               NOP
0151ff: 20               NOP
015200: 20               NOP
015201: 20               NOP
015202: 20               NOP
015203: 20               NOP
015204: 20               NOP
015205: 20               NOP
015206: 20               NOP
015207: 20               NOP
015208: 20               NOP
015209: 20               NOP
01520a: 20               NOP
01520b: 20               NOP
01520c: 20               NOP
01520d: 20               NOP
01520e: 20               NOP
01520f: 20               NOP
015210: 20               NOP
015211: 20               NOP
015212: 20               NOP
015213: 20               NOP
015214: 20               NOP
015215: 20               NOP
015216: 20               NOP
015217: 20               NOP
015218: 20               NOP
015219: 20               NOP
01521a: 20               NOP
01521b: 20               NOP
01521c: 20               NOP
01521d: 20               NOP
01521e: 20               NOP
01521f: 20               NOP
015220: 20               NOP
015221: 20               NOP
015222: 20               NOP
015223: 20               NOP
015224: 20               NOP
015225: 20               NOP
015226: 20               NOP
015227: 20               NOP
015228: 20               NOP
015229: 20               NOP
01522a: 20               NOP
01522b: 20               NOP
01522c: 20               NOP
01522d: 20               NOP
01522e: 20               NOP
01522f: 20               NOP
015230: 20               NOP
015231: 20               NOP
015232: 20               NOP
015233: 20               NOP
015234: 20               NOP
015235: 20               NOP
015236: 20               NOP
015237: 20               NOP
015238: 20               NOP
015239: 20               NOP
01523a: 20               NOP
01523b: 20               NOP
01523c: 20               NOP
01523d: 20               NOP
01523e: 20               NOP
01523f: 20               NOP
015240: 20               NOP
015241: 20               NOP
015242: 20               NOP
015243: 20               NOP
015244: 20               NOP
015245: 20               NOP
015246: 20               NOP
015247: 20               NOP
015248: 20               NOP
015249: 20               NOP
01524a: 20               NOP
01524b: 20               NOP
01524c: 20               NOP
01524d: 20               NOP
01524e: 20               NOP
01524f: 20               NOP
015250: 20               NOP
015251: 20               NOP
015252: 20               NOP
015253: 20               NOP
015254: 20               NOP
015255: 20               NOP
015256: 20               NOP
015257: 20               NOP
015258: 20               NOP
015259: 20               NOP
01525a: 20               NOP
01525b: 20               NOP
01525c: 20               NOP
01525d: 20               NOP
01525e: 20               NOP
01525f: 20               NOP
015260: 20               NOP
015261: 20               NOP
015262: 20               NOP
015263: 20               NOP
015264: 20               NOP
015265: 20               NOP
015266: 20               NOP
015267: 20               NOP
015268: 20               NOP
015269: 20               NOP
01526a: 20               NOP
01526b: 20               NOP
01526c: 20               NOP
01526d: 20               NOP
01526e: 20               NOP
01526f: 20               NOP
015270: 20               NOP
015271: 20               NOP
015272: 20               NOP
015273: 20               NOP
015274: 20               NOP
015275: 20               NOP
015276: 20               NOP
015277: 20               NOP
015278: 20               NOP
015279: 20               NOP
01527a: 20               NOP
01527b: 20               NOP
01527c: 20               NOP
01527d: 20               NOP
01527e: 20               NOP
01527f: 20               NOP
015280: 20               NOP
015281: 20               NOP
015282: 20               NOP
015283: 20               NOP
015284: 20               NOP
015285: 20               NOP
015286: 20               NOP
015287: 20               NOP
015288: 20               NOP
015289: 20               NOP
01528a: 20               NOP
01528b: 20               NOP
01528c: 20               NOP
01528d: 20               NOP
01528e: 20               NOP
01528f: 20               NOP
015290: 20               NOP
015291: 20               NOP
015292: 20               NOP
015293: 20               NOP
015294: 20               NOP
015295: 20               NOP
015296: 20               NOP
015297: 20               NOP
015298: 20               NOP
015299: 20               NOP
01529a: 20               NOP
01529b: 20               NOP
01529c: 20               NOP
01529d: 20               NOP
01529e: 20               NOP
01529f: 20               NOP
0152a0: 20               NOP
0152a1: 20               NOP
0152a2: 20               NOP
0152a3: 20               NOP
0152a4: 20               NOP
0152a5: 20               NOP
0152a6: 20               NOP
0152a7: 20               NOP
0152a8: 20               NOP
0152a9: 20               NOP
0152aa: 20               NOP
0152ab: 20               NOP
0152ac: 20               NOP
0152ad: 20               NOP
0152ae: 20               NOP
0152af: 20               NOP
0152b0: 20               NOP
0152b1: 20               NOP
0152b2: 20               NOP
0152b3: 20               NOP
0152b4: 20               NOP
0152b5: 20               NOP
0152b6: 20               NOP
0152b7: 20               NOP
0152b8: 20               NOP
0152b9: 20               NOP
0152ba: 20               NOP
0152bb: 20               NOP
0152bc: 20               NOP
0152bd: 20               NOP
0152be: 20               NOP
0152bf: 20               NOP
0152c0: 20               NOP
0152c1: 20               NOP
0152c2: 20               NOP
0152c3: 20               NOP
0152c4: 20               NOP
0152c5: 20               NOP
0152c6: 20               NOP
0152c7: 20               NOP
0152c8: 20               NOP
0152c9: 20               NOP
0152ca: 20               NOP
0152cb: 20               NOP
0152cc: 20               NOP
0152cd: 20               NOP
0152ce: 20               NOP
0152cf: 20               NOP
0152d0: 20               NOP
0152d1: 20               NOP
0152d2: 20               NOP
0152d3: 20               NOP
0152d4: 20               NOP
0152d5: 20               NOP
0152d6: 20               NOP
0152d7: 20               NOP
0152d8: 20               NOP
0152d9: 20               NOP
0152da: 20               NOP
0152db: 20               NOP
0152dc: 20               NOP
0152dd: 20               NOP
0152de: 20               NOP
0152df: 20               NOP
0152e0: 20               NOP
0152e1: 20               NOP
0152e2: 20               NOP
0152e3: 20               NOP
0152e4: 20               NOP
0152e5: 20               NOP
0152e6: 20               NOP
0152e7: 20               NOP
0152e8: 20               NOP
0152e9: 20               NOP
0152ea: 20               NOP
0152eb: 20               NOP
0152ec: 20               NOP
0152ed: 20               NOP
0152ee: 20               NOP
0152ef: 20               NOP
0152f0: 20               NOP
0152f1: 20               NOP
0152f2: 20               NOP
0152f3: 20               NOP
0152f4: 20               NOP
0152f5: 20               NOP
0152f6: 20               NOP
0152f7: 20               NOP
0152f8: 20               NOP
0152f9: 20               NOP
0152fa: 20               NOP
0152fb: 20               NOP
0152fc: 20               NOP
0152fd: 20               NOP
0152fe: 20               NOP
0152ff: 20               NOP
015300: 20               NOP
015301: 20               NOP
015302: 20               NOP
015303: 20               NOP
015304: 20               NOP
015305: 20               NOP
015306: 20               NOP
015307: 20               NOP
015308: 20               NOP
015309: 20               NOP
01530a: 20               NOP
01530b: 20               NOP
01530c: 20               NOP
01530d: 20               NOP
01530e: 20               NOP
01530f: 20               NOP
015310: 20               NOP
015311: 20               NOP
015312: 20               NOP
015313: 20               NOP
015314: 20               NOP
015315: 20               NOP
015316: 20               NOP
015317: 20               NOP
015318: 20               NOP
015319: 20               NOP
01531a: 20               NOP
01531b: 20               NOP
01531c: 20               NOP
01531d: 20               NOP
01531e: 20               NOP
01531f: 20               NOP
015320: 20               NOP
015321: 20               NOP
015322: 20               NOP
015323: 20               NOP
015324: 20               NOP
015325: 20               NOP
015326: 20               NOP
015327: 20               NOP
015328: 20               NOP
015329: 20               NOP
01532a: 20               NOP
01532b: 20               NOP
01532c: 20               NOP
01532d: 20               NOP
01532e: 20               NOP
01532f: 20               NOP
015330: 20               NOP
015331: 20               NOP
015332: 20               NOP
015333: 20               NOP
015334: 20               NOP
015335: 20               NOP
015336: 20               NOP
015337: 20               NOP
015338: 20               NOP
015339: 20               NOP
01533a: 20               NOP
01533b: 20               NOP
01533c: 20               NOP
01533d: 20               NOP
01533e: 20               NOP
01533f: 20               NOP
015340: 20               NOP
015341: 20               NOP
015342: 20               NOP
015343: 20               NOP
015344: 20               NOP
015345: 20               NOP
015346: 20               NOP
015347: 20               NOP
015348: 20               NOP
015349: 20               NOP
01534a: 20               NOP
01534b: 20               NOP
01534c: 20               NOP
01534d: 20               NOP
01534e: 20               NOP
01534f: 20               NOP
015350: 20               NOP
015351: 20               NOP
015352: 20               NOP
015353: 20               NOP
015354: 20               NOP
015355: 20               NOP
015356: 20               NOP
015357: 20               NOP
015358: 20               NOP
015359: 20               NOP
01535a: 20               NOP
01535b: 20               NOP
01535c: 20               NOP
01535d: 20               NOP
01535e: 20               NOP
01535f: 20               NOP
015360: 20               NOP
015361: 20               NOP
015362: 20               NOP
015363: 20               NOP
015364: 20               NOP
015365: 20               NOP
015366: 20               NOP
015367: 20               NOP
015368: 20               NOP
015369: 20               NOP
01536a: 20               NOP
01536b: 20               NOP
01536c: 20               NOP
01536d: 20               NOP
01536e: 20               NOP
01536f: 20               NOP
015370: 20               NOP
015371: 20               NOP
015372: 20               NOP
015373: 20               NOP
015374: 20               NOP
015375: 20               NOP
015376: 20               NOP
015377: 20               NOP
015378: 20               NOP
015379: 20               NOP
01537a: 20               NOP
01537b: 20               NOP
01537c: 20               NOP
01537d: 20               NOP
01537e: 20               NOP
01537f: 20               NOP
015380: 20               NOP
015381: 20               NOP
015382: 20               NOP
015383: 20               NOP
015384: 20               NOP
015385: 20               NOP
015386: 20               NOP
015387: 20               NOP
015388: 20               NOP
015389: 20               NOP
01538a: 20               NOP
01538b: 20               NOP
01538c: 20               NOP
01538d: 20               NOP
01538e: 20               NOP
01538f: 20               NOP
015390: 20               NOP
015391: 20               NOP
015392: 20               NOP
015393: 20               NOP
015394: 20               NOP
015395: 20               NOP
015396: 20               NOP
015397: 20               NOP
015398: 20               NOP
015399: 20               NOP
01539a: 20               NOP
01539b: 20               NOP
01539c: 20               NOP
01539d: 20               NOP
01539e: 20               NOP
01539f: 20               NOP
0153a0: 20               NOP
0153a1: 20               NOP
0153a2: 20               NOP
0153a3: 20               NOP
0153a4: 20               NOP
0153a5: 20               NOP
0153a6: 20               NOP
0153a7: 20               NOP
0153a8: 20               NOP
0153a9: 20               NOP
0153aa: 20               NOP
0153ab: 20               NOP
0153ac: 20               NOP
0153ad: 20               NOP
0153ae: 20               NOP
0153af: 20               NOP
0153b0: 20               NOP
0153b1: 20               NOP
0153b2: 20               NOP
0153b3: 20               NOP
0153b4: 20               NOP
0153b5: 20               NOP
0153b6: 20               NOP
0153b7: 20               NOP
0153b8: 20               NOP
0153b9: 20               NOP
0153ba: 20               NOP
0153bb: 20               NOP
0153bc: 20               NOP
0153bd: 20               NOP
0153be: 20               NOP
0153bf: 20               NOP
0153c0: 20               NOP
0153c1: 20               NOP
0153c2: 20               NOP
0153c3: 20               NOP
0153c4: 20               NOP
0153c5: 20               NOP
0153c6: 20               NOP
0153c7: 20               NOP
0153c8: 20               NOP
0153c9: 20               NOP
0153ca: 20               NOP
0153cb: 20               NOP
0153cc: 20               NOP
0153cd: 20               NOP
0153ce: 20               NOP
0153cf: 20               NOP
0153d0: 20               NOP
0153d1: 20               NOP
0153d2: 20               NOP
0153d3: 20               NOP
0153d4: 20               NOP
0153d5: 20               NOP
0153d6: 20               NOP
0153d7: 20               NOP
0153d8: 20               NOP
0153d9: 20               NOP
0153da: 20               NOP
0153db: 20               NOP
0153dc: 20               NOP
0153dd: 20               NOP
0153de: 20               NOP
0153df: 20               NOP
0153e0: 20               NOP
0153e1: 20               NOP
0153e2: 20               NOP
0153e3: 20               NOP
0153e4: 20               NOP
0153e5: 20               NOP
0153e6: 20               NOP
0153e7: 20               NOP
0153e8: 20               NOP
0153e9: 20               NOP
0153ea: 20               NOP
0153eb: 20               NOP
0153ec: 20               NOP
0153ed: 20               NOP
0153ee: 20               NOP
0153ef: 20               NOP
0153f0: 20               NOP
0153f1: 20               NOP
0153f2: 20               NOP
0153f3: 20               NOP
0153f4: 20               NOP
0153f5: 20               NOP
0153f6: 20               NOP
0153f7: 20               NOP
0153f8: 20               NOP
0153f9: 20               NOP
0153fa: 20               NOP
0153fb: 20               NOP
0153fc: 20               NOP
0153fd: 20               NOP
0153fe: 20               NOP
0153ff: 20               NOP
015400: 20               NOP
015401: 20               NOP
015402: 20               NOP
015403: 20               NOP
015404: 20               NOP
015405: 20               NOP
015406: 20               NOP
015407: 20               NOP
015408: 20               NOP
015409: 20               NOP
01540a: 20               NOP
01540b: 20               NOP
01540c: 20               NOP
01540d: 20               NOP
01540e: 20               NOP
01540f: 20               NOP
015410: 20               NOP
015411: 20               NOP
015412: 20               NOP
015413: 20               NOP
015414: 20               NOP
015415: 20               NOP
015416: 20               NOP
015417: 20               NOP
015418: 20               NOP
015419: 20               NOP
01541a: 20               NOP
01541b: 20               NOP
01541c: 20               NOP
01541d: 20               NOP
01541e: 20               NOP
01541f: 20               NOP
015420: 20               NOP
015421: 20               NOP
015422: 20               NOP
015423: 20               NOP
015424: 20               NOP
015425: 20               NOP
015426: 20               NOP
015427: 20               NOP
015428: 20               NOP
015429: 20               NOP
01542a: 20               NOP
01542b: 20               NOP
01542c: 20               NOP
01542d: 20               NOP
01542e: 20               NOP
01542f: 20               NOP
015430: 20               NOP
015431: 20               NOP
015432: 20               NOP
015433: 20               NOP
015434: 20               NOP
015435: 20               NOP
015436: 20               NOP
015437: 20               NOP
015438: 20               NOP
015439: 20               NOP
01543a: 20               NOP
01543b: 20               NOP
01543c: 20               NOP
01543d: 20               NOP
01543e: 20               NOP
01543f: 20               NOP
015440: 20               NOP
015441: 20               NOP
015442: 20               NOP
015443: 20               NOP
015444: 20               NOP
015445: 20               NOP
015446: 20               NOP
015447: 20               NOP
015448: 20               NOP
015449: 20               NOP
01544a: 20               NOP
01544b: 20               NOP
01544c: 20               NOP
01544d: 20               NOP
01544e: 20               NOP
01544f: 20               NOP
015450: 20               NOP
015451: 20               NOP
015452: 20               NOP
015453: 20               NOP
015454: 20               NOP
015455: 20               NOP
015456: 20               NOP
015457: 20               NOP
015458: 20               NOP
015459: 20               NOP
01545a: 20               NOP
01545b: 20               NOP
01545c: 20               NOP
01545d: 20               NOP
01545e: 20               NOP
01545f: 20               NOP
015460: 20               NOP
015461: 20               NOP
015462: 20               NOP
015463: 20               NOP
015464: 20               NOP
015465: 20               NOP
015466: 20               NOP
015467: 20               NOP
015468: 20               NOP
015469: 20               NOP
01546a: 20               NOP
01546b: 20               NOP
01546c: 20               NOP
01546d: 20               NOP
01546e: 20               NOP
01546f: 20               NOP
015470: 20               NOP
015471: 20               NOP
015472: 20               NOP
015473: 20               NOP
015474: 20               NOP
015475: 20               NOP
015476: 20               NOP
015477: 20               NOP
015478: 20               NOP
015479: 20               NOP
01547a: 20               NOP
01547b: 20               NOP
01547c: 20               NOP
01547d: 20               NOP
01547e: 20               NOP
01547f: 20               NOP
015480: 20               NOP
015481: 20               NOP
015482: 20               NOP
015483: 20               NOP
015484: 20               NOP
015485: 20               NOP
015486: 20               NOP
015487: 20               NOP
015488: 20               NOP
015489: 20               NOP
01548a: 20               NOP
01548b: 20               NOP
01548c: 20               NOP
01548d: 20               NOP
01548e: 20               NOP
01548f: 20               NOP
015490: 20               NOP
015491: 20               NOP
015492: 20               NOP
015493: 20               NOP
015494: 20               NOP
015495: 20               NOP
015496: 20               NOP
015497: 20               NOP
015498: 20               NOP
015499: 20               NOP
01549a: 20               NOP
01549b: 20               NOP
01549c: 20               NOP
01549d: 20               NOP
01549e: 20               NOP
01549f: 20               NOP
0154a0: 20               NOP
0154a1: 20               NOP
0154a2: 20               NOP
0154a3: 20               NOP
0154a4: 20               NOP
0154a5: 20               NOP
0154a6: 20               NOP
0154a7: 20               NOP
0154a8: 20               NOP
0154a9: 20               NOP
0154aa: 20               NOP
0154ab: 20               NOP
0154ac: 20               NOP
0154ad: 20               NOP
0154ae: 20               NOP
0154af: 20               NOP
0154b0: 20               NOP
0154b1: 20               NOP
0154b2: 20               NOP
0154b3: 20               NOP
0154b4: 20               NOP
0154b5: 20               NOP
0154b6: 20               NOP
0154b7: 20               NOP
0154b8: 20               NOP
0154b9: 20               NOP
0154ba: 20               NOP
0154bb: 20               NOP
0154bc: 20               NOP
0154bd: 20               NOP
0154be: 20               NOP
0154bf: 20               NOP
0154c0: 20               NOP
0154c1: 20               NOP
0154c2: 20               NOP
0154c3: 20               NOP
0154c4: 20               NOP
0154c5: 20               NOP
0154c6: 20               NOP
0154c7: 20               NOP
0154c8: 20               NOP
0154c9: 20               NOP
0154ca: 20               NOP
0154cb: 20               NOP
0154cc: 20               NOP
0154cd: 20               NOP
0154ce: 20               NOP
0154cf: 20               NOP
0154d0: 20               NOP
0154d1: 20               NOP
0154d2: 20               NOP
0154d3: 20               NOP
0154d4: 20               NOP
0154d5: 20               NOP
0154d6: 20               NOP
0154d7: 20               NOP
0154d8: 20               NOP
0154d9: 20               NOP
0154da: 20               NOP
0154db: 20               NOP
0154dc: 20               NOP
0154dd: 20               NOP
0154de: 20               NOP
0154df: 20               NOP
0154e0: 20               NOP
0154e1: 20               NOP
0154e2: 20               NOP
0154e3: 20               NOP
0154e4: 20               NOP
0154e5: 20               NOP
0154e6: 20               NOP
0154e7: 20               NOP
0154e8: 20               NOP
0154e9: 20               NOP
0154ea: 20               NOP
0154eb: 20               NOP
0154ec: 20               NOP
0154ed: 20               NOP
0154ee: 20               NOP
0154ef: 20               NOP
0154f0: 20               NOP
0154f1: 20               NOP
0154f2: 20               NOP
0154f3: 20               NOP
0154f4: 20               NOP
0154f5: 20               NOP
0154f6: 20               NOP
0154f7: 20               NOP
0154f8: 20               NOP
0154f9: 20               NOP
0154fa: 20               NOP
0154fb: 20               NOP
0154fc: 20               NOP
0154fd: 20               NOP
0154fe: 20               NOP
0154ff: 20               NOP
015500: 20               NOP
015501: 20               NOP
015502: 20               NOP
015503: 20               NOP
015504: 20               NOP
015505: 20               NOP
015506: 20               NOP
015507: 20               NOP
015508: 20               NOP
015509: 20               NOP
01550a: 20               NOP
01550b: 20               NOP
01550c: 20               NOP
01550d: 20               NOP
01550e: 20               NOP
01550f: 20               NOP
015510: 20               NOP
015511: 20               NOP
015512: 20               NOP
015513: 20               NOP
015514: 20               NOP
015515: 20               NOP
015516: 20               NOP
015517: 20               NOP
015518: 20               NOP
015519: 20               NOP
01551a: 20               NOP
01551b: 20               NOP
01551c: 20               NOP
01551d: 20               NOP
01551e: 20               NOP
01551f: 20               NOP
015520: 20               NOP
015521: 20               NOP
015522: 20               NOP
015523: 20               NOP
015524: 20               NOP
015525: 20               NOP
015526: 20               NOP
015527: 20               NOP
015528: 20               NOP
015529: 20               NOP
01552a: 20               NOP
01552b: 20               NOP
01552c: 20               NOP
01552d: 20               NOP
01552e: 20               NOP
01552f: 20               NOP
015530: 20               NOP
015531: 20               NOP
015532: 20               NOP
015533: 20               NOP
015534: 20               NOP
015535: 20               NOP
015536: 20               NOP
015537: 20               NOP
015538: 20               NOP
015539: 20               NOP
01553a: 20               NOP
01553b: 20               NOP
01553c: 20               NOP
01553d: 20               NOP
01553e: 20               NOP
01553f: 20               NOP
015540: 20               NOP
015541: 20               NOP
015542: 20               NOP
015543: 20               NOP
015544: 20               NOP
015545: 20               NOP
015546: 20               NOP
015547: 20               NOP
015548: 20               NOP
015549: 20               NOP
01554a: 20               NOP
01554b: 20               NOP
01554c: 20               NOP
01554d: 20               NOP
01554e: 20               NOP
01554f: 20               NOP
015550: 20               NOP
015551: 20               NOP
015552: 20               NOP
015553: 20               NOP
015554: 20               NOP
015555: 20               NOP
015556: 20               NOP
015557: 20               NOP
015558: 20               NOP
015559: 20               NOP
01555a: 20               NOP
01555b: 20               NOP
01555c: 20               NOP
01555d: 20               NOP
01555e: 20               NOP
01555f: 20               NOP
015560: 20               NOP
015561: 20               NOP
015562: 20               NOP
015563: 20               NOP
015564: 20               NOP
015565: 20               NOP
015566: 20               NOP
015567: 20               NOP
015568: 20               NOP
015569: 20               NOP
01556a: 20               NOP
01556b: 20               NOP
01556c: 20               NOP
01556d: 20               NOP
01556e: 20               NOP
01556f: 20               NOP
015570: 20               NOP
015571: 20               NOP
015572: 20               NOP
015573: 20               NOP
015574: 20               NOP
015575: 20               NOP
015576: 20               NOP
015577: 20               NOP
015578: 20               NOP
015579: 20               NOP
01557a: 20               NOP
01557b: 20               NOP
01557c: 20               NOP
01557d: 20               NOP
01557e: 20               NOP
01557f: 20               NOP
015580: 20               NOP
015581: 20               NOP
015582: 20               NOP
015583: 20               NOP
015584: 20               NOP
015585: 20               NOP
015586: 20               NOP
015587: 20               NOP
015588: 20               NOP
015589: 20               NOP
01558a: 20               NOP
01558b: 20               NOP
01558c: 20               NOP
01558d: 20               NOP
01558e: 20               NOP
01558f: 20               NOP
015590: 20               NOP
015591: 20               NOP
015592: 20               NOP
015593: 20               NOP
015594: 20               NOP
015595: 20               NOP
015596: 20               NOP
015597: 20               NOP
015598: 20               NOP
015599: 20               NOP
01559a: 20               NOP
01559b: 20               NOP
01559c: 20               NOP
01559d: 20               NOP
01559e: 20               NOP
01559f: 20               NOP
0155a0: 20               NOP
0155a1: 20               NOP
0155a2: 20               NOP
0155a3: 20               NOP
0155a4: 20               NOP
0155a5: 20               NOP
0155a6: 20               NOP
0155a7: 20               NOP
0155a8: 20               NOP
0155a9: 20               NOP
0155aa: 20               NOP
0155ab: 20               NOP
0155ac: 20               NOP
0155ad: 20               NOP
0155ae: 20               NOP
0155af: 20               NOP
0155b0: 20               NOP
0155b1: 20               NOP
0155b2: 20               NOP
0155b3: 20               NOP
0155b4: 20               NOP
0155b5: 20               NOP
0155b6: 20               NOP
0155b7: 20               NOP
0155b8: 20               NOP
0155b9: 20               NOP
0155ba: 20               NOP
0155bb: 20               NOP
0155bc: 20               NOP
0155bd: 20               NOP
0155be: 20               NOP
0155bf: 20               NOP
0155c0: 20               NOP
0155c1: 20               NOP
0155c2: 20               NOP
0155c3: 20               NOP
0155c4: 20               NOP
0155c5: 20               NOP
0155c6: 20               NOP
0155c7: 20               NOP
0155c8: 20               NOP
0155c9: 20               NOP
0155ca: 20               NOP
0155cb: 20               NOP
0155cc: 20               NOP
0155cd: 20               NOP
0155ce: 20               NOP
0155cf: 20               NOP
0155d0: 20               NOP
0155d1: 20               NOP
0155d2: 20               NOP
0155d3: 20               NOP
0155d4: 20               NOP
0155d5: 20               NOP
0155d6: 20               NOP
0155d7: 20               NOP
0155d8: 20               NOP
0155d9: 20               NOP
0155da: 20               NOP
0155db: 20               NOP
0155dc: 20               NOP
0155dd: 20               NOP
0155de: 20               NOP
0155df: 20               NOP
0155e0: 20               NOP
0155e1: 20               NOP
0155e2: 20               NOP
0155e3: 20               NOP
0155e4: 20               NOP
0155e5: 20               NOP
0155e6: 20               NOP
0155e7: 20               NOP
0155e8: 20               NOP
0155e9: 20               NOP
0155ea: 20               NOP
0155eb: 20               NOP
0155ec: 20               NOP
0155ed: 20               NOP
0155ee: 20               NOP
0155ef: 20               NOP
0155f0: 20               NOP
0155f1: 20               NOP
0155f2: 20               NOP
0155f3: 20               NOP
0155f4: 20               NOP
0155f5: 20               NOP
0155f6: 20               NOP
0155f7: 20               NOP
0155f8: 20               NOP
0155f9: 20               NOP
0155fa: 20               NOP
0155fb: 20               NOP
0155fc: 20               NOP
0155fd: 20               NOP
0155fe: 20               NOP
0155ff: 20               NOP
015600: 20               NOP
015601: 20               NOP
015602: 20               NOP
015603: 20               NOP
015604: 20               NOP
015605: 20               NOP
015606: 20               NOP
015607: 20               NOP
015608: 20               NOP
015609: 20               NOP
01560a: 20               NOP
01560b: 20               NOP
01560c: 20               NOP
01560d: 20               NOP
01560e: 20               NOP
01560f: 20               NOP
015610: 20               NOP
015611: 20               NOP
015612: 20               NOP
015613: 20               NOP
015614: 20               NOP
015615: 20               NOP
015616: 20               NOP
015617: 20               NOP
015618: 20               NOP
015619: 20               NOP
01561a: 20               NOP
01561b: 20               NOP
01561c: 20               NOP
01561d: 20               NOP
01561e: 20               NOP
01561f: 20               NOP
015620: 20               NOP
015621: 20               NOP
015622: 20               NOP
015623: 20               NOP
015624: 20               NOP
015625: 20               NOP
015626: 20               NOP
015627: 20               NOP
015628: 20               NOP
015629: 20               NOP
01562a: 20               NOP
01562b: 20               NOP
01562c: 20               NOP
01562d: 20               NOP
01562e: 20               NOP
01562f: 20               NOP
015630: 20               NOP
015631: 20               NOP
015632: 20               NOP
015633: 20               NOP
015634: 20               NOP
015635: 20               NOP
015636: 20               NOP
015637: 20               NOP
015638: 20               NOP
015639: 20               NOP
01563a: 20               NOP
01563b: 20               NOP
01563c: 20               NOP
01563d: 20               NOP
01563e: 20               NOP
01563f: 20               NOP
015640: 20               NOP
015641: 20               NOP
015642: 20               NOP
015643: 20               NOP
015644: 20               NOP
015645: 20               NOP
015646: 20               NOP
015647: 20               NOP
015648: 20               NOP
015649: 20               NOP
01564a: 20               NOP
01564b: 20               NOP
01564c: 20               NOP
01564d: 20               NOP
01564e: 20               NOP
01564f: 20               NOP
015650: 20               NOP
015651: 20               NOP
015652: 20               NOP
015653: 20               NOP
015654: 20               NOP
015655: 20               NOP
015656: 20               NOP
015657: 20               NOP
015658: 20               NOP
015659: 20               NOP
01565a: 20               NOP
01565b: 20               NOP
01565c: 20               NOP
01565d: 20               NOP
01565e: 20               NOP
01565f: 20               NOP
015660: 20               NOP
015661: 20               NOP
015662: 20               NOP
015663: 20               NOP
015664: 20               NOP
015665: 20               NOP
015666: 20               NOP
015667: 20               NOP
015668: 20               NOP
015669: 20               NOP
01566a: 20               NOP
01566b: 20               NOP
01566c: 20               NOP
01566d: 20               NOP
01566e: 20               NOP
01566f: 20               NOP
015670: 20               NOP
015671: 20               NOP
015672: 20               NOP
015673: 20               NOP
015674: 20               NOP
015675: 20               NOP
015676: 20               NOP
015677: 20               NOP
015678: 20               NOP
015679: 20               NOP
01567a: 20               NOP
01567b: 20               NOP
01567c: 20               NOP
01567d: 20               NOP
01567e: 20               NOP
01567f: 20               NOP
015680: 20               NOP
015681: 20               NOP
015682: 20               NOP
015683: 20               NOP
015684: 20               NOP
015685: 20               NOP
015686: 20               NOP
015687: 20               NOP
015688: 20               NOP
015689: 20               NOP
01568a: 20               NOP
01568b: 20               NOP
01568c: 20               NOP
01568d: 20               NOP
01568e: 20               NOP
01568f: 20               NOP
015690: 20               NOP
015691: 20               NOP
015692: 20               NOP
015693: 20               NOP
015694: 20               NOP
015695: 20               NOP
015696: 20               NOP
015697: 20               NOP
015698: 20               NOP
015699: 20               NOP
01569a: 20               NOP
01569b: 20               NOP
01569c: 20               NOP
01569d: 20               NOP
01569e: 20               NOP
01569f: 20               NOP
0156a0: 20               NOP
0156a1: 20               NOP
0156a2: 20               NOP
0156a3: 20               NOP
0156a4: 20               NOP
0156a5: 20               NOP
0156a6: 20               NOP
0156a7: 20               NOP
0156a8: 20               NOP
0156a9: 20               NOP
0156aa: 20               NOP
0156ab: 20               NOP
0156ac: 20               NOP
0156ad: 20               NOP
0156ae: 20               NOP
0156af: 20               NOP
0156b0: 20               NOP
0156b1: 20               NOP
0156b2: 20               NOP
0156b3: 20               NOP
0156b4: 20               NOP
0156b5: 20               NOP
0156b6: 20               NOP
0156b7: 20               NOP
0156b8: 20               NOP
0156b9: 20               NOP
0156ba: 20               NOP
0156bb: 20               NOP
0156bc: 20               NOP
0156bd: 20               NOP
0156be: 20               NOP
0156bf: 20               NOP
0156c0: 20               NOP
0156c1: 20               NOP
0156c2: 20               NOP
0156c3: 20               NOP
0156c4: 20               NOP
0156c5: 20               NOP
0156c6: 20               NOP
0156c7: 20               NOP
0156c8: 20               NOP
0156c9: 20               NOP
0156ca: 20               NOP
0156cb: 20               NOP
0156cc: 20               NOP
0156cd: 20               NOP
0156ce: 20               NOP
0156cf: 20               NOP
0156d0: 20               NOP
0156d1: 20               NOP
0156d2: 20               NOP
0156d3: 20               NOP
0156d4: 20               NOP
0156d5: 20               NOP
0156d6: 20               NOP
0156d7: 20               NOP
0156d8: 20               NOP
0156d9: 20               NOP
0156da: 20               NOP
0156db: 20               NOP
0156dc: 20               NOP
0156dd: 20               NOP
0156de: 20               NOP
0156df: 20               NOP
0156e0: 20               NOP
0156e1: 20               NOP
0156e2: 20               NOP
0156e3: 20               NOP
0156e4: 20               NOP
0156e5: 20               NOP
0156e6: 20               NOP
0156e7: 20               NOP
0156e8: 20               NOP
0156e9: 20               NOP
0156ea: 20               NOP
0156eb: 20               NOP
0156ec: 20               NOP
0156ed: 20               NOP
0156ee: 20               NOP
0156ef: 20               NOP
0156f0: 20               NOP
0156f1: 20               NOP
0156f2: 20               NOP
0156f3: 20               NOP
0156f4: 20               NOP
0156f5: 20               NOP
0156f6: 20               NOP
0156f7: 20               NOP
0156f8: 20               NOP
0156f9: 20               NOP
0156fa: 20               NOP
0156fb: 20               NOP
0156fc: 20               NOP
0156fd: 20               NOP
0156fe: 20               NOP
0156ff: 20               NOP
015700: 20               NOP
015701: 20               NOP
015702: 20               NOP
015703: 20               NOP
015704: 20               NOP
015705: 20               NOP
015706: 20               NOP
015707: 20               NOP
015708: 20               NOP
015709: 20               NOP
01570a: 20               NOP
01570b: 20               NOP
01570c: 20               NOP
01570d: 20               NOP
01570e: 20               NOP
01570f: 20               NOP
015710: 20               NOP
015711: 20               NOP
015712: 20               NOP
015713: 20               NOP
015714: 20               NOP
015715: 20               NOP
015716: 20               NOP
015717: 20               NOP
015718: 20               NOP
015719: 20               NOP
01571a: 20               NOP
01571b: 20               NOP
01571c: 20               NOP
01571d: 20               NOP
01571e: 20               NOP
01571f: 20               NOP
015720: 20               NOP
015721: 20               NOP
015722: 20               NOP
015723: 20               NOP
015724: 20               NOP
015725: 20               NOP
015726: 20               NOP
015727: 20               NOP
015728: 20               NOP
015729: 20               NOP
01572a: 20               NOP
01572b: 20               NOP
01572c: 20               NOP
01572d: 20               NOP
01572e: 20               NOP
01572f: 20               NOP
015730: 20               NOP
015731: 20               NOP
015732: 20               NOP
015733: 20               NOP
015734: 20               NOP
015735: 20               NOP
015736: 20               NOP
015737: 20               NOP
015738: 20               NOP
015739: 20               NOP
01573a: 20               NOP
01573b: 20               NOP
01573c: 20               NOP
01573d: 20               NOP
01573e: 20               NOP
01573f: 20               NOP
015740: 20               NOP
015741: 20               NOP
015742: 20               NOP
015743: 20               NOP
015744: 20               NOP
015745: 20               NOP
015746: 20               NOP
015747: 20               NOP
015748: 20               NOP
015749: 20               NOP
01574a: 20               NOP
01574b: 20               NOP
01574c: 20               NOP
01574d: 20               NOP
01574e: 20               NOP
01574f: 20               NOP
015750: 20               NOP
015751: 20               NOP
015752: 20               NOP
015753: 20               NOP
015754: 20               NOP
015755: 20               NOP
015756: 20               NOP
015757: 20               NOP
015758: 20               NOP
015759: 20               NOP
01575a: 20               NOP
01575b: 20               NOP
01575c: 20               NOP
01575d: 20               NOP
01575e: 20               NOP
01575f: 20               NOP
015760: 20               NOP
015761: 20               NOP
015762: 20               NOP
015763: 20               NOP
015764: 20               NOP
015765: 20               NOP
015766: 20               NOP
015767: 20               NOP
015768: 20               NOP
015769: 20               NOP
01576a: 20               NOP
01576b: 20               NOP
01576c: 20               NOP
01576d: 20               NOP
01576e: 20               NOP
01576f: 20               NOP
015770: 20               NOP
015771: 20               NOP
015772: 20               NOP
015773: 20               NOP
015774: 20               NOP
015775: 20               NOP
015776: 20               NOP
015777: 20               NOP
015778: 20               NOP
015779: 20               NOP
01577a: 20               NOP
01577b: 20               NOP
01577c: 20               NOP
01577d: 20               NOP
01577e: 20               NOP
01577f: 20               NOP
015780: 20               NOP
015781: 20               NOP
015782: 20               NOP
015783: 20               NOP
015784: 20               NOP
015785: 20               NOP
015786: 20               NOP
015787: 20               NOP
015788: 20               NOP
015789: 20               NOP
01578a: 20               NOP
01578b: 20               NOP
01578c: 20               NOP
01578d: 20               NOP
01578e: 20               NOP
01578f: 20               NOP
015790: 20               NOP
015791: 20               NOP
015792: 20               NOP
015793: 20               NOP
015794: 20               NOP
015795: 20               NOP
015796: 20               NOP
015797: 20               NOP
015798: 20               NOP
015799: 20               NOP
01579a: 20               NOP
01579b: 20               NOP
01579c: 20               NOP
01579d: 20               NOP
01579e: 20               NOP
01579f: 20               NOP
0157a0: 20               NOP
0157a1: 20               NOP
0157a2: 20               NOP
0157a3: 20               NOP
0157a4: 20               NOP
0157a5: 20               NOP
0157a6: 20               NOP
0157a7: 20               NOP
0157a8: 20               NOP
0157a9: 20               NOP
0157aa: 20               NOP
0157ab: 20               NOP
0157ac: 20               NOP
0157ad: 20               NOP
0157ae: 20               NOP
0157af: 20               NOP
0157b0: 20               NOP
0157b1: 20               NOP
0157b2: 20               NOP
0157b3: 20               NOP
0157b4: 20               NOP
0157b5: 20               NOP
0157b6: 20               NOP
0157b7: 20               NOP
0157b8: 20               NOP
0157b9: 20               NOP
0157ba: 20               NOP
0157bb: 20               NOP
0157bc: 20               NOP
0157bd: 20               NOP
0157be: 20               NOP
0157bf: 20               NOP
0157c0: 20               NOP
0157c1: 20               NOP
0157c2: 20               NOP
0157c3: 20               NOP
0157c4: 20               NOP
0157c5: 20               NOP
0157c6: 20               NOP
0157c7: 20               NOP
0157c8: 20               NOP
0157c9: 20               NOP
0157ca: 20               NOP
0157cb: 20               NOP
0157cc: 20               NOP
0157cd: 20               NOP
0157ce: 20               NOP
0157cf: 20               NOP
0157d0: 20               NOP
0157d1: 20               NOP
0157d2: 20               NOP
0157d3: 20               NOP
0157d4: 20               NOP
0157d5: 20               NOP
0157d6: 20               NOP
0157d7: 20               NOP
0157d8: 20               NOP
0157d9: 20               NOP
0157da: 20               NOP
0157db: 20               NOP
0157dc: 20               NOP
0157dd: 20               NOP
0157de: 20               NOP
0157df: 20               NOP
0157e0: 20               NOP
0157e1: 20               NOP
0157e2: 20               NOP
0157e3: 20               NOP
0157e4: 20               NOP
0157e5: 20               NOP
0157e6: 20               NOP
0157e7: 20               NOP
0157e8: 20               NOP
0157e9: 20               NOP
0157ea: 20               NOP
0157eb: 20               NOP
0157ec: 20               NOP
0157ed: 20               NOP
0157ee: 20               NOP
0157ef: 20               NOP
0157f0: 20               NOP
0157f1: 20               NOP
0157f2: 20               NOP
0157f3: 20               NOP
0157f4: 20               NOP
0157f5: 20               NOP
0157f6: 20               NOP
0157f7: 20               NOP
0157f8: 20               NOP
0157f9: 20               NOP
0157fa: 20               NOP
0157fb: 20               NOP
0157fc: 20               NOP
0157fd: 20               NOP
0157fe: 20               NOP
0157ff: 20               NOP
015800: 20               NOP
015801: 20               NOP
015802: 20               NOP
015803: 20               NOP
015804: 20               NOP
015805: 20               NOP
015806: 20               NOP
015807: 20               NOP
015808: 20               NOP
015809: 20               NOP
01580a: 20               NOP
01580b: 20               NOP
01580c: 20               NOP
01580d: 20               NOP
01580e: 20               NOP
01580f: 20               NOP
015810: 20               NOP
015811: 20               NOP
015812: 20               NOP
015813: 20               NOP
015814: 20               NOP
015815: 20               NOP
015816: 20               NOP
015817: 20               NOP
015818: 20               NOP
015819: 20               NOP
01581a: 20               NOP
01581b: 20               NOP
01581c: 20               NOP
01581d: 20               NOP
01581e: 20               NOP
01581f: 20               NOP
015820: 20               NOP
015821: 20               NOP
015822: 20               NOP
015823: 20               NOP
015824: 20               NOP
015825: 20               NOP
015826: 20               NOP
015827: 20               NOP
015828: 20               NOP
015829: 20               NOP
01582a: 20               NOP
01582b: 20               NOP
01582c: 20               NOP
01582d: 20               NOP
01582e: 20               NOP
01582f: 20               NOP
015830: 20               NOP
015831: 20               NOP
015832: 20               NOP
015833: 20               NOP
015834: 20               NOP
015835: 20               NOP
015836: 20               NOP
015837: 20               NOP
015838: 20               NOP
015839: 20               NOP
01583a: 20               NOP
01583b: 20               NOP
01583c: 20               NOP
01583d: 20               NOP
01583e: 20               NOP
01583f: 20               NOP
015840: 20               NOP
015841: 20               NOP
015842: 20               NOP
015843: 20               NOP
015844: 20               NOP
015845: 20               NOP
015846: 20               NOP
015847: 20               NOP
015848: 20               NOP
015849: 20               NOP
01584a: 20               NOP
01584b: 20               NOP
01584c: 20               NOP
01584d: 20               NOP
01584e: 20               NOP
01584f: 20               NOP
015850: 20               NOP
015851: 20               NOP
015852: 20               NOP
015853: 20               NOP
015854: 20               NOP
015855: 20               NOP
015856: 20               NOP
015857: 20               NOP
015858: 20               NOP
015859: 20               NOP
01585a: 20               NOP
01585b: 20               NOP
01585c: 20               NOP
01585d: 20               NOP
01585e: 20               NOP
01585f: 20               NOP
015860: 20               NOP
015861: 20               NOP
015862: 20               NOP
015863: 20               NOP
015864: 20               NOP
015865: 20               NOP
015866: 20               NOP
015867: 20               NOP
015868: 20               NOP
015869: 20               NOP
01586a: 20               NOP
01586b: 20               NOP
01586c: 20               NOP
01586d: 20               NOP
01586e: 20               NOP
01586f: 20               NOP
015870: 20               NOP
015871: 20               NOP
015872: 20               NOP
015873: 20               NOP
015874: 20               NOP
015875: 20               NOP
015876: 20               NOP
015877: 20               NOP
015878: 20               NOP
015879: 20               NOP
01587a: 20               NOP
01587b: 20               NOP
01587c: 20               NOP
01587d: 20               NOP
01587e: 20               NOP
01587f: 20               NOP
015880: 20               NOP
015881: 20               NOP
015882: 20               NOP
015883: 20               NOP
015884: 20               NOP
015885: 20               NOP
015886: 20               NOP
015887: 20               NOP
015888: 20               NOP
015889: 20               NOP
01588a: 20               NOP
01588b: 20               NOP
01588c: 20               NOP
01588d: 20               NOP
01588e: 20               NOP
01588f: 20               NOP
015890: 20               NOP
015891: 20               NOP
015892: 20               NOP
015893: 20               NOP
015894: 20               NOP
015895: 20               NOP
015896: 20               NOP
015897: 20               NOP
015898: 20               NOP
015899: 20               NOP
01589a: 20               NOP
01589b: 20               NOP
01589c: 20               NOP
01589d: 20               NOP
01589e: 20               NOP
01589f: 20               NOP
0158a0: 20               NOP
0158a1: 20               NOP
0158a2: 20               NOP
0158a3: 20               NOP
0158a4: 20               NOP
0158a5: 20               NOP
0158a6: 20               NOP
0158a7: 20               NOP
0158a8: 20               NOP
0158a9: 20               NOP
0158aa: 20               NOP
0158ab: 20               NOP
0158ac: 20               NOP
0158ad: 20               NOP
0158ae: 20               NOP
0158af: 20               NOP
0158b0: 20               NOP
0158b1: 20               NOP
0158b2: 20               NOP
0158b3: 20               NOP
0158b4: 20               NOP
0158b5: 20               NOP
0158b6: 20               NOP
0158b7: 20               NOP
0158b8: 20               NOP
0158b9: 20               NOP
0158ba: 20               NOP
0158bb: 20               NOP
0158bc: 20               NOP
0158bd: 20               NOP
0158be: 20               NOP
0158bf: 20               NOP
0158c0: 20               NOP
0158c1: 20               NOP
0158c2: 20               NOP
0158c3: 20               NOP
0158c4: 20               NOP
0158c5: 20               NOP
0158c6: 20               NOP
0158c7: 20               NOP
0158c8: 20               NOP
0158c9: 20               NOP
0158ca: 20               NOP
0158cb: 20               NOP
0158cc: 20               NOP
0158cd: 20               NOP
0158ce: 20               NOP
0158cf: 20               NOP
0158d0: 20               NOP
0158d1: 20               NOP
0158d2: 20               NOP
0158d3: 20               NOP
0158d4: 20               NOP
0158d5: 20               NOP
0158d6: 20               NOP
0158d7: 20               NOP
0158d8: 20               NOP
0158d9: 20               NOP
0158da: 20               NOP
0158db: 20               NOP
0158dc: 20               NOP
0158dd: 20               NOP
0158de: 20               NOP
0158df: 20               NOP
0158e0: 20               NOP
0158e1: 20               NOP
0158e2: 20               NOP
0158e3: 20               NOP
0158e4: 20               NOP
0158e5: 20               NOP
0158e6: 20               NOP
0158e7: 20               NOP
0158e8: 20               NOP
0158e9: 20               NOP
0158ea: 20               NOP
0158eb: 20               NOP
0158ec: 20               NOP
0158ed: 20               NOP
0158ee: 20               NOP
0158ef: 20               NOP
0158f0: 20               NOP
0158f1: 20               NOP
0158f2: 20               NOP
0158f3: 20               NOP
0158f4: 20               NOP
0158f5: 20               NOP
0158f6: 20               NOP
0158f7: 20               NOP
0158f8: 20               NOP
0158f9: 20               NOP
0158fa: 20               NOP
0158fb: 20               NOP
0158fc: 20               NOP
0158fd: 20               NOP
0158fe: 20               NOP
0158ff: 20               NOP
015900: 20               NOP
015901: 20               NOP
015902: 20               NOP
015903: 20               NOP
015904: 20               NOP
015905: 20               NOP
015906: 20               NOP
015907: 20               NOP
015908: 20               NOP
015909: 20               NOP
01590a: 20               NOP
01590b: 20               NOP
01590c: 20               NOP
01590d: 20               NOP
01590e: 20               NOP
01590f: 20               NOP
015910: 20               NOP
015911: 20               NOP
015912: 20               NOP
015913: 20               NOP
015914: 20               NOP
015915: 20               NOP
015916: 20               NOP
015917: 20               NOP
015918: 20               NOP
015919: 20               NOP
01591a: 20               NOP
01591b: 20               NOP
01591c: 20               NOP
01591d: 20               NOP
01591e: 20               NOP
01591f: 20               NOP
015920: 20               NOP
015921: 20               NOP
015922: 20               NOP
015923: 20               NOP
015924: 20               NOP
015925: 20               NOP
015926: 20               NOP
015927: 20               NOP
015928: 20               NOP
015929: 20               NOP
01592a: 20               NOP
01592b: 20               NOP
01592c: 20               NOP
01592d: 20               NOP
01592e: 20               NOP
01592f: 20               NOP
015930: 20               NOP
015931: 20               NOP
015932: 20               NOP
015933: 20               NOP
015934: 20               NOP
015935: 20               NOP
015936: 20               NOP
015937: 20               NOP
015938: 20               NOP
015939: 20               NOP
01593a: 20               NOP
01593b: 20               NOP
01593c: 20               NOP
01593d: 20               NOP
01593e: 20               NOP
01593f: 20               NOP
015940: 20               NOP
015941: 20               NOP
015942: 20               NOP
015943: 20               NOP
015944: 20               NOP
015945: 20               NOP
015946: 20               NOP
015947: 20               NOP
015948: 20               NOP
015949: 20               NOP
01594a: 20               NOP
01594b: 20               NOP
01594c: 20               NOP
01594d: 20               NOP
01594e: 20               NOP
01594f: 20               NOP
015950: 20               NOP
015951: 20               NOP
015952: 20               NOP
015953: 20               NOP
015954: 20               NOP
015955: 20               NOP
015956: 20               NOP
015957: 20               NOP
015958: 20               NOP
015959: 20               NOP
01595a: 20               NOP
01595b: 20               NOP
01595c: 20               NOP
01595d: 20               NOP
01595e: 20               NOP
01595f: 20               NOP
015960: 20               NOP
015961: 20               NOP
015962: 20               NOP
015963: 20               NOP
015964: 20               NOP
015965: 20               NOP
015966: 20               NOP
015967: 20               NOP
015968: 20               NOP
015969: 20               NOP
01596a: 20               NOP
01596b: 20               NOP
01596c: 20               NOP
01596d: 20               NOP
01596e: 20               NOP
01596f: 20               NOP
015970: 20               NOP
015971: 20               NOP
015972: 20               NOP
015973: 20               NOP
015974: 20               NOP
015975: 20               NOP
015976: 20               NOP
015977: 20               NOP
015978: 20               NOP
015979: 20               NOP
01597a: 20               NOP
01597b: 20               NOP
01597c: 20               NOP
01597d: 20               NOP
01597e: 20               NOP
01597f: 20               NOP
015980: 20               NOP
015981: 20               NOP
015982: 20               NOP
015983: 20               NOP
015984: 20               NOP
015985: 20               NOP
015986: 20               NOP
015987: 20               NOP
015988: 20               NOP
015989: 20               NOP
01598a: 20               NOP
01598b: 20               NOP
01598c: 20               NOP
01598d: 20               NOP
01598e: 20               NOP
01598f: 20               NOP
015990: 20               NOP
015991: 20               NOP
015992: 20               NOP
015993: 20               NOP
015994: 20               NOP
015995: 20               NOP
015996: 20               NOP
015997: 20               NOP
015998: 20               NOP
015999: 20               NOP
01599a: 20               NOP
01599b: 20               NOP
01599c: 20               NOP
01599d: 20               NOP
01599e: 20               NOP
01599f: 20               NOP
0159a0: 20               NOP
0159a1: 20               NOP
0159a2: 20               NOP
0159a3: 20               NOP
0159a4: 20               NOP
0159a5: 20               NOP
0159a6: 20               NOP
0159a7: 20               NOP
0159a8: 20               NOP
0159a9: 20               NOP
0159aa: 20               NOP
0159ab: 20               NOP
0159ac: 20               NOP
0159ad: 20               NOP
0159ae: 20               NOP
0159af: 20               NOP
0159b0: 20               NOP
0159b1: 20               NOP
0159b2: 20               NOP
0159b3: 20               NOP
0159b4: 20               NOP
0159b5: 20               NOP
0159b6: 20               NOP
0159b7: 20               NOP
0159b8: 20               NOP
0159b9: 20               NOP
0159ba: 20               NOP
0159bb: 20               NOP
0159bc: 20               NOP
0159bd: 20               NOP
0159be: 20               NOP
0159bf: 20               NOP
0159c0: 20               NOP
0159c1: 20               NOP
0159c2: 20               NOP
0159c3: 20               NOP
0159c4: 20               NOP
0159c5: 20               NOP
0159c6: 20               NOP
0159c7: 20               NOP
0159c8: 20               NOP
0159c9: 20               NOP
0159ca: 20               NOP
0159cb: 20               NOP
0159cc: 20               NOP
0159cd: 20               NOP
0159ce: 20               NOP
0159cf: 20               NOP
0159d0: 20               NOP
0159d1: 20               NOP
0159d2: 20               NOP
0159d3: 20               NOP
0159d4: 20               NOP
0159d5: 20               NOP
0159d6: 20               NOP
0159d7: 20               NOP
0159d8: 20               NOP
0159d9: 20               NOP
0159da: 20               NOP
0159db: 20               NOP
0159dc: 20               NOP
0159dd: 20               NOP
0159de: 20               NOP
0159df: 20               NOP
0159e0: 20               NOP
0159e1: 20               NOP
0159e2: 20               NOP
0159e3: 20               NOP
0159e4: 20               NOP
0159e5: 20               NOP
0159e6: 20               NOP
0159e7: 20               NOP
0159e8: 20               NOP
0159e9: 20               NOP
0159ea: 20               NOP
0159eb: 20               NOP
0159ec: 20               NOP
0159ed: 20               NOP
0159ee: 20               NOP
0159ef: 20               NOP
0159f0: 20               NOP
0159f1: 20               NOP
0159f2: 20               NOP
0159f3: 20               NOP
0159f4: 20               NOP
0159f5: 20               NOP
0159f6: 20               NOP
0159f7: 20               NOP
0159f8:               _fgetc2:
0159f8: 6c0199eb         CALL _coverage_log
0159fc: 4efd             AADD #-3,SP
0159fe: eb0085           MOV XAR0,dbl(@#00h)
015a01: ed00bf           MOV dbl(@#00h),XAR3
015a04: ed61bf           MOV dbl(*AR3),XAR3
015a07: a961             MOV *AR3,AR1
015a09: c904             MOV AR1,@#02h
015a0b: ed00af           MOV dbl(@#00h),XAR2
015a0e: ed41bf           MOV dbl(*AR2),XAR3
015a11: b463             AMAR *AR3+
015a13: eb41b5           MOV XAR3,dbl(*AR2)
015a16: a404             MOV @#02h,T0
015a18: 4e03             AADD #3,SP
015a1a: 4804             RET
015a1c:               _getint:
015a1c: 6c0199eb         CALL _coverage_log
015a20: 4ef9             AADD #-7,SP
015a22: eb0085           MOV XAR0,dbl(@#00h)
015a25: 08ffd0           CALL _fgetc2
015a28: 2240             MOV T0,AC0
015a2a: eb0408           MOV AC0,dbl(@#02h)
015a2d:               $C$L1:
015a2d:               $C$DW$L$_getint$2$B:
015a2d: 76002308         MOV #35,AC0
015a31: ed0418           MOV dbl(@#02h),AC1
015a34: 121c00           CMP AC1 != AC0, TC1
015a37: 046431           BCC $C$DW$L$_getint$4$E,TC1
015a3a: 6c0199eb         CALL _coverage_log
015a3e:               $C$DW$L$_getint$2$E:
015a3e:               $C$DW$L$_getint$3$B:
015a3e: ed0418_3da0      MOV dbl(@#02h),AC1 || MOV #10,AC0
015a43: 121000           CMP AC1 == AC0, TC1
015a46: 046422           BCC $C$DW$L$_getint$4$E,TC1
015a49: 6c0199eb         CALL _coverage_log
015a4d:               $C$DW$L$_getint$3$E:
015a4d:               $C$L2:
015a4d: 6c0199eb         CALL _coverage_log
015a51:               $C$DW$L$_getint$4$B:
015a51: ed008f           MOV dbl(@#00h),XAR0
015a54: 08ffa1           CALL _fgetc2
015a57: 2240             MOV T0,AC0
015a59: eb0408           MOV AC0,dbl(@#02h)
015a5c: ed0418_3da0      MOV dbl(@#02h),AC1 || MOV #10,AC0
015a61: 121c00           CMP AC1 != AC0, TC1
015a64: 0464e6           BCC $C$DW$L$_getint$3$E,TC1
015a67: 6c0199eb         CALL _coverage_log
015a6b:               $C$DW$L$_getint$4$E:
015a6b:               $C$L3:
015a6b: 6c0199eb         CALL _coverage_log
015a6f:               $C$DW$L$_getint$5$B:
015a6f: ed0418_3f10      MOV dbl(@#02h),AC1 || MOV #-1,AC0
015a74: 121c00           CMP AC1 != AC0, TC1
015a77: 64e4             BCC $C$L4,TC1
015a79: 6c0199eb         CALL _coverage_log
015a7d:               $C$DW$L$_getint$5$E:
015a7d: 3e14             MOV #-1,T0
015a7f: 0600a3           B $C$L10
015a82:               $C$L4:
015a82: 6c0199eb         CALL _coverage_log
015a86:               $C$DW$L$_getint$7$B:
015a86: 76003008         MOV #48,AC0
015a8a: ed0418           MOV dbl(@#02h),AC1
015a8d: 121400           CMP AC1 < AC0, TC1
015a90: 046415           BCC $C$DW$L$_getint$9$E,TC1
015a93: 6c0199eb         CALL _coverage_log
015a97:               $C$DW$L$_getint$7$E:
015a97:               $C$DW$L$_getint$8$B:
015a97: 76003908         MOV #57,AC0
015a9b: ed0418           MOV dbl(@#02h),AC1
015a9e: 120410           CMP AC0 < AC1, TC1
015aa1: 047416           BCC $C$DW$L$_getint$10$E,!TC1
015aa4: 6c0199eb         CALL _coverage_log
015aa8:               $C$DW$L$_getint$9$E:
015aa8:               $C$L5:
015aa8:               $C$DW$L$_getint$8$E:
015aa8:               $C$DW$L$_getint$9$B:
015aa8: 6c0199eb         CALL _coverage_log
015aac:               $C$DW$L$_getint$10$B:
015aac: ed008f           MOV dbl(@#00h),XAR0
015aaf: 08ff46           CALL _fgetc2
015ab2: 2240             MOV T0,AC0
015ab4: eb0408           MOV AC0,dbl(@#02h)
015ab7: 06ff73           B $C$L1
015aba:               $C$DW$L$_getint$10$E:
015aba:               $C$L6:
015aba: 6c0199eb         CALL _coverage_log
015abe: 3c00             MOV #0,AC0
015ac0: eb0808           MOV AC0,dbl(@#04h)
015ac3:               $C$L7:
015ac3: 6c0199eb         CALL _coverage_log
015ac7:               $C$DW$L$_getint$12$B:
015ac7: ed0808           MOV dbl(@#04h),AC0
015aca: 104501           SFTS AC0,#1,AC1
015acd: 104303           ADD AC0 << #3,AC1
015ad0: ed0440           ADD dbl(@#02h),AC1,AC0
015ad3: 7c003000         SUB #48,AC0,AC0
015ad7: eb0808           MOV AC0,dbl(@#04h)
015ada: ed008f           MOV dbl(@#00h),XAR0
015add: 08ff18           CALL _fgetc2
015ae0: 2240             MOV T0,AC0
015ae2: eb0408           MOV AC0,dbl(@#02h)
015ae5: ed0418_3f10      MOV dbl(@#02h),AC1 || MOV #-1,AC0
015aea: 121c00           CMP AC1 != AC0, TC1
015aed: 6464             BCC $C$L8,TC1
015aef: 6c0199eb         CALL _coverage_log
015af3:               $C$DW$L$_getint$12$E:
015af3: a40a             MOV @#05h,T0
015af5: 4a2e             B $C$L10
015af7:               $C$L8:
015af7: 6c0199eb         CALL _coverage_log
015afb:               $C$DW$L$_getint$14$B:
015afb: 76003008         MOV #48,AC0
015aff: ed0418           MOV dbl(@#02h),AC1
015b02: 121400           CMP AC1 < AC0, TC1
015b05: 046417           BCC $C$L9,TC1
015b08: 6c0199eb         CALL _coverage_log
015b0c:               $C$DW$L$_getint$14$E:
015b0c:               $C$DW$L$_getint$15$B:
015b0c: 76003908         MOV #57,AC0
015b10: ed0418           MOV dbl(@#02h),AC1
015b13: 120810           CMP AC0 >= AC1, TC1
015b16: 0464aa           BCC $C$L7,TC1
015b19: 6c0199eb         CALL _coverage_log
015b1d:               $C$DW$L$_getint$15$E:
015b1d: 4a00             B $C$L9
015b1f:               $C$L9:
015b1f: 6c0199eb         CALL _coverage_log
015b23: a40a             MOV @#05h,T0
015b25:               $C$L10:
015b25: 4e07             AADD #7,SP
015b27: 4804             RET
015b29:               _get_image:
015b29: 6c0199eb         CALL _coverage_log
015b2d: 4e95             AADD #-107,SP
015b2f: eb08a5           MOV XAR2,dbl(@#04h)
015b32: eb0495           MOV XAR1,dbl(@#02h)
015b35: eb0085           MOV XAR0,dbl(@#00h)
015b38: 08febd           CALL _fgetc2
015b3b: c40c             MOV T0,@#06h
015b3d: ed008f           MOV dbl(@#00h),XAR0
015b40: 08feb5           CALL _fgetc2
015b43: c40e             MOV T0,@#07h
015b45: f00c0050         CMP @#06h == #80, TC1
015b49: 6774             BCC $C$L11,!TC1
015b4b: 6c0199eb         CALL _coverage_log
015b4f: f00e0035         CMP @#07h == #53, TC1
015b53: 66e4             BCC $C$L12,TC1
015b55: 6c0199eb         CALL _coverage_log
015b59:               $C$L11:
015b59: 6c0199eb         CALL _coverage_log
015b5d: 3e14             MOV #-1,T0
015b5f: 06005c           B $C$L15
015b62:               $C$L12:
015b62: 6c0199eb         CALL _coverage_log
015b66: ed008f           MOV dbl(@#00h),XAR0
015b69: 08feb0           CALL _getint
015b6c: ed04bf           MOV dbl(@#02h),XAR3
015b6f: 2240             MOV T0,AC0
015b71: eb6108           MOV AC0,dbl(*AR3)
015b74: ed04bf           MOV dbl(@#02h),XAR3
015b77: ed6118_3f10      MOV dbl(*AR3),AC1 || MOV #-1,AC0
015b7c: 121c00           CMP AC1 != AC0, TC1
015b7f: 6464             BCC $C$L13,TC1
015b81: 6c0199eb         CALL _coverage_log
015b85: 3e14             MOV #-1,T0
015b87: 4a35             B $C$L15
015b89:               $C$L13:
015b89: 6c0199eb         CALL _coverage_log
015b8d: ed008f           MOV dbl(@#00h),XAR0
015b90: 08fe89           CALL _getint
015b93: ed08bf           MOV dbl(@#04h),XAR3
015b96: 2240             MOV T0,AC0
015b98: eb6108           MOV AC0,dbl(*AR3)
015b9b: ed08bf           MOV dbl(@#04h),XAR3
015b9e: ed6118_3f10      MOV dbl(*AR3),AC1 || MOV #-1,AC0
015ba3: 121c00           CMP AC1 != AC0, TC1
015ba6: 6464             BCC $C$L14,TC1
015ba8: 6c0199eb         CALL _coverage_log
015bac: 3e14             MOV #-1,T0
015bae: 4a0e             B $C$L15
015bb0:               $C$L14:
015bb0: 6c0199eb         CALL _coverage_log
015bb4: ed008f           MOV dbl(@#00h),XAR0
015bb7: 08fe62           CALL _getint
015bba: c4d4             MOV T0,@#6ah
015bbc: 3c04             MOV #0,T0
015bbe:               $C$L15:
015bbe: 4e6b             AADD #107,SP
015bc0: 4804             RET
015bc2:               _int_to_uchar:
015bc2: 6c0199eb         CALL _coverage_log
015bc6: 4ef3             AADD #-13,SP
015bc8: eb0808           MOV AC0,dbl(@#04h)
015bcb: eb0495           MOV XAR1,dbl(@#02h)
015bce: eb0085           MOV XAR0,dbl(@#00h)
015bd1: ed00bf           MOV dbl(@#00h),XAR3
015bd4: ed6108           MOV dbl(*AR3),AC0
015bd7: eb1008           MOV AC0,dbl(@#08h)
015bda: ed00bf           MOV dbl(@#00h),XAR3
015bdd: ed6108           MOV dbl(*AR3),AC0
015be0: eb1408           MOV AC0,dbl(@#0ah)
015be3: 3c00             MOV #0,AC0
015be5: eb0c08           MOV AC0,dbl(@#06h)
015be8: ed0c18           MOV dbl(@#06h),AC1
015beb: ed0808           MOV dbl(@#04h),AC0
015bee: 121800           CMP AC1 >= AC0, TC1
015bf1: 046468           BCC $C$DW$L$_int_to_uchar$6$E,TC1
015bf4: 6c0199eb         CALL _coverage_log
015bf8:               $C$L16:
015bf8: 6c0199eb         CALL _coverage_log
015bfc:               $C$DW$L$_int_to_uchar$2$B:
015bfc: ed00bf           MOV dbl(@#00h),XAR3
015bff: a40e             MOV @#07h,T0
015c01: 5040             SFTL T0,#1
015c03: ed1008           MOV dbl(@#08h),AC0
015c06: ed6b18           MOV dbl(*AR3(AR0)),AC1
015c09: 120810           CMP AC0 >= AC1, TC1
015c0c: 6764             BCC $C$DW$L$_int_to_uchar$3$E,TC1
015c0e: 6c0199eb         CALL _coverage_log
015c12:               $C$DW$L$_int_to_uchar$2$E:
015c12:               $C$DW$L$_int_to_uchar$3$B:
015c12: a40e             MOV @#07h,T0
015c14: 5040             SFTL T0,#1
015c16: ed6b08           MOV dbl(*AR3(AR0)),AC0
015c19: eb1008           MOV AC0,dbl(@#08h)
015c1c:               $C$DW$L$_int_to_uchar$3$E:
015c1c:               $C$L17:
015c1c: 6c0199eb         CALL _coverage_log
015c20:               $C$DW$L$_int_to_uchar$4$B:
015c20: ed00bf           MOV dbl(@#00h),XAR3
015c23: a40e             MOV @#07h,T0
015c25: 5040             SFTL T0,#1
015c27: ed1408           MOV dbl(@#0ah),AC0
015c2a: ed6b18           MOV dbl(*AR3(AR0)),AC1
015c2d: 121800           CMP AC1 >= AC0, TC1
015c30: 6764             BCC $C$DW$L$_int_to_uchar$5$E,TC1
015c32: 6c0199eb         CALL _coverage_log
015c36:               $C$DW$L$_int_to_uchar$4$E:
015c36:               $C$DW$L$_int_to_uchar$5$B:
015c36: a40e             MOV @#07h,T0
015c38: 5040             SFTL T0,#1
015c3a: ed6b08           MOV dbl(*AR3(AR0)),AC0
015c3d: eb1408           MOV AC0,dbl(@#0ah)
015c40:               $C$DW$L$_int_to_uchar$5$E:
015c40:               $C$L18:
015c40: 6c0199eb         CALL _coverage_log
015c44:               $C$DW$L$_int_to_uchar$6$B:
015c44: ed0c08           MOV dbl(@#06h),AC0
015c47: 4010             ADD #1,AC0
015c49: eb0c08           MOV AC0,dbl(@#06h)
015c4c: ed0c18           MOV dbl(@#06h),AC1
015c4f: ed0808           MOV dbl(@#04h),AC0
015c52: 121400           CMP AC1 < AC0, TC1
015c55: 0464a0           BCC $C$L16,TC1
015c58: 6c0199eb         CALL _coverage_log
015c5c:               $C$DW$L$_int_to_uchar$6$E:
015c5c:               $C$L19:
015c5c: 6c0199eb         CALL _coverage_log
015c60: ed1408           MOV dbl(@#0ah),AC0
015c63: ed1004           SUB AC0,dbl(@#08h),AC0
015c66: eb1008           MOV AC0,dbl(@#08h)
015c69: 3c00             MOV #0,AC0
015c6b: eb0c08           MOV AC0,dbl(@#06h)
015c6e: ed0c18           MOV dbl(@#06h),AC1
015c71: ed0808           MOV dbl(@#04h),AC0
015c74: 121800           CMP AC1 >= AC0, TC1
015c77: 046440           BCC $C$L21,TC1
015c7a: 6c0199eb         CALL _coverage_log
015c7e:               $C$L20:
015c7e: 6c0199eb         CALL _coverage_log
015c82:               $C$DW$L$_int_to_uchar$8$B:
015c82: ed00bf           MOV dbl(@#00h),XAR3
015c85: a40e             MOV @#07h,T0
015c87: 5040             SFTL T0,#1
015c89: ed1408           MOV dbl(@#0ah),AC0
015c8c: ed6b14           SUB AC0,dbl(*AR3(AR0)),AC1
015c8f: 101508           SFTS AC1,#8,AC0
015c92: ed1018_2710      MOV dbl(@#08h),AC1 || SUB AC1,AC0
015c97: 6c019f8c         CALL __divli
015c9b: a40e             MOV @#07h,T0
015c9d: ed04bf           MOV dbl(@#02h),XAR3
015ca0: c06b             MOV AC0,*AR3(AR0)
015ca2: ed0c08           MOV dbl(@#06h),AC0
015ca5: 4010             ADD #1,AC0
015ca7: eb0c08           MOV AC0,dbl(@#06h)
015caa: ed0808           MOV dbl(@#04h),AC0
015cad: ed0c18           MOV dbl(@#06h),AC1
015cb0: 121400           CMP AC1 < AC0, TC1
015cb3: 0464c8           BCC $C$L20,TC1
015cb6: 6c0199eb         CALL _coverage_log
015cba:               $C$L21:
015cba:               $C$DW$L$_int_to_uchar$8$E:
015cba: 6c0199eb         CALL _coverage_log
015cbe: 4e0d             AADD #13,SP
015cc0: 4804             RET
015cc2:               _setup_brightness_lut:
015cc2: 6c0199eb         CALL _coverage_log
015cc6: 4ef3             AADD #-13,SP
015cc8: eb0818           MOV AC1,dbl(@#04h)
015ccb: eb0408           MOV AC0,dbl(@#02h)
015cce: eb0085           MOV XAR0,dbl(@#00h)
015cd1: ed00af           MOV dbl(@#00h),XAR2
015cd4: ec31be010000     AMAR *(#010000h),XAR3
015cda: eb41b5           MOV XAR3,dbl(*AR2)
015cdd: ed00bf           MOV dbl(@#00h),XAR3
015ce0: ed61bf           MOV dbl(*AR3),XAR3
015ce3: ed00af           MOV dbl(@#00h),XAR2
015ce6: b46f0102         AMAR *+AR3(#0102h)
015cea: eb41b5           MOV XAR3,dbl(*AR2)
015ced: 76ff0008         MOV #-256,AC0
015cf1: eb0c08           MOV AC0,dbl(@#06h)
015cf4: 76010108         MOV #257,AC0
015cf8: ed0c18           MOV dbl(@#06h),AC1
015cfb: 121800           CMP AC1 >= AC0, TC1
015cfe: 6d64009c         BCC $C$L24,TC1
015d02: 6c0199eb         CALL _coverage_log
015d06:               $C$L22:
015d06: 6c0199eb         CALL _coverage_log
015d0a:               $C$DW$L$_setup_brightness_lut$2$B:
015d0a: ed0c08           MOV dbl(@#06h),AC0
015d0d: 6c019e2d         CALL __fltlid
015d11: eb1408           MOV AC0,dbl(@#0ah)
015d14: ed0408           MOV dbl(@#02h),AC0
015d17: 6c019e2d         CALL __fltlid
015d1b: ed1408_1b0010    MOV dbl(@#0ah),AC0 || OR #0,AC0,AC1
015d21: 6c018454         CALL __divd
015d25: eb1008           MOV AC0,dbl(@#08h)
015d28: ed1018           MOV dbl(@#08h),AC1
015d2b: 6c019470         CALL __mpyd
015d2f: eb1008           MOV AC0,dbl(@#08h)
015d32: ed0818_3d60      MOV dbl(@#04h),AC1 || MOV #6,AC0
015d37: 121c00           CMP AC1 != AC0, TC1
015d3a: 046418           BCC $C$DW$L$_setup_brightness_lut$3$E,TC1
015d3d: 6c0199eb         CALL _coverage_log
015d41:               $C$DW$L$_setup_brightness_lut$2$E:
015d41:               $C$DW$L$_setup_brightness_lut$3$B:
015d41: ed1008           MOV dbl(@#08h),AC0
015d44: ed1018           MOV dbl(@#08h),AC1
015d47: 6c019470         CALL __mpyd
015d4b: ed1018           MOV dbl(@#08h),AC1
015d4e: 6c019470         CALL __mpyd
015d52: eb1008           MOV AC0,dbl(@#08h)
015d55:               $C$DW$L$_setup_brightness_lut$3$E:
015d55:               $C$L23:
015d55: 6c0199eb         CALL _coverage_log
015d59:               $C$DW$L$_setup_brightness_lut$4$B:
015d59: ed1008           MOV dbl(@#08h),AC0
015d5c: 6c01a1d6         CALL __negd
015d60: 6c0192ba         CALL _exp
015d64: 1a0010           OR #0,AC0,AC1
015d67: ed3108016ac8     MOV dbl(*(#016ac8h)),AC0
015d6d: 6c019470         CALL __mpyd
015d71: eb1008           MOV AC0,dbl(@#08h)
015d74: 6c01a15a         CALL __fixdu
015d78: ed00bf           MOV dbl(@#00h),XAR3
015d7b: a40e_2349        MOV @#07h,T0 || MOV T0,AR1
015d7f: ed61bf           MOV dbl(*AR3),XAR3
015d82: c96b             MOV AR1,*AR3(AR0)
015d84: ed0c08           MOV dbl(@#06h),AC0
015d87: 4010             ADD #1,AC0
015d89: eb0c08           MOV AC0,dbl(@#06h)
015d8c: 76010108         MOV #257,AC0
015d90: ed0c18           MOV dbl(@#06h),AC1
015d93: 121400           CMP AC1 < AC0, TC1
015d96: 6d64ff6c         BCC $C$L22,TC1
015d9a: 6c0199eb         CALL _coverage_log
015d9e:               $C$L24:
015d9e:               $C$DW$L$_setup_brightness_lut$4$E:
015d9e: 6c0199eb         CALL _coverage_log
015da2: 4e0d             AADD #13,SP
015da4: 4804             RET
015da6:               _edge_draw:
015da6: 6c0199eb         CALL _coverage_log
015daa: 4eef             AADD #-17,SP
015dac: eb1028           MOV AC2,dbl(@#08h)
015daf: eb0c18           MOV AC1,dbl(@#06h)
015db2: eb0808           MOV AC0,dbl(@#04h)
015db5: eb0495           MOV XAR1,dbl(@#02h)
015db8: eb0085           MOV XAR0,dbl(@#00h)
015dbb: ed1008           MOV dbl(@#08h),AC0
015dbe: 6d100108         BCC $C$DW$L$_edge_draw$5$E,AC0 != #0
015dc2: 6c0199eb         CALL _coverage_log
015dc6: ed04bf           MOV dbl(@#02h),XAR3
015dc9: eb1cb5           MOV XAR3,dbl(@#0eh)
015dcc: 3c00             MOV #0,AC0
015dce: eb1408           MOV AC0,dbl(@#0ah)
015dd1: ed0c18           MOV dbl(@#06h),AC1
015dd4: ed0808           MOV dbl(@#04h),AC0
015dd7: 6c01a1a0         CALL I$$LMPY
015ddb: ed1418           MOV dbl(@#0ah),AC1
015dde: 121800           CMP AC1 >= AC0, TC1
015de1: 6d6400e5         BCC $C$DW$L$_edge_draw$5$E,TC1
015de5: 6c0199eb         CALL _coverage_log
015de9:               $C$L25:
015de9: 6c0199eb         CALL _coverage_log
015ded:               $C$DW$L$_edge_draw$3$B:
015ded: ed1cbf           MOV dbl(@#0eh),XAR3
015df0: a961_3d8a        MOV *AR3,AR1 || MOV #8,AR2
015df4: 1298a4           CMPU AR1 >= AR2, TC1
015df7: 6d6400a3         BCC $C$DW$L$_edge_draw$4$E,TC1
015dfb: 6c0199eb         CALL _coverage_log
015dff:               $C$DW$L$_edge_draw$3$E:
015dff:               $C$DW$L$_edge_draw$4$B:
015dff: ed04bf           MOV dbl(@#02h),XAR3
015e02: ed1caf           MOV dbl(@#0eh),XAR2
015e05: 14b1a2           ASUB XAR3,XAR2
015e08: ed00bf           MOV dbl(@#00h),XAR3
015e0b: a90a             MOV @#05h,AR1
015e0d: 14a1b0           AADD XAR2,XAR3
015e10: 1490b2           ASUB AR1,AR3
015e13: b465             AMAR *AR3-
015e15: eb18b5           MOV XAR3,dbl(@#0ch)
015e18: ed18af           MOV dbl(@#0ch),XAR2
015e1b: b463             AMAR *AR3+
015e1d: eb18b5           MOV XAR3,dbl(@#0ch)
015e20: fb4100ff         MOV #255,*AR2
015e24: ed18af           MOV dbl(@#0ch),XAR2
015e27: ec41be           AMAR *AR2,XAR3
015e2a: b463             AMAR *AR3+
015e2c: eb18b5           MOV XAR3,dbl(@#0ch)
015e2f: fb4100ff         MOV #255,*AR2
015e33: ed18bf           MOV dbl(@#0ch),XAR3
015e36: fb6100ff         MOV #255,*AR3
015e3a: ed18bf           MOV dbl(@#0ch),XAR3
015e3d: ed0808           MOV dbl(@#04h),AC0
015e40: 4220             SUB #2,AC0
015e42: 2209             MOV AC0,AR1
015e44: 8e18bb10b590     MOV XAR3,dbl(@#0ch) || AADD AR1,AR3
015e4a: ed18af           MOV dbl(@#0ch),XAR2
015e4d: b463             AMAR *AR3+
015e4f: eb18b5           MOV XAR3,dbl(@#0ch)
015e52: fb4100ff         MOV #255,*AR2
015e56: ed18af           MOV dbl(@#0ch),XAR2
015e59: ec41be           AMAR *AR2,XAR3
015e5c: b463             AMAR *AR3+
015e5e: eb18b5           MOV XAR3,dbl(@#0ch)
015e61: fb4100ff         MOV #255,*AR2
015e65: ed18bf           MOV dbl(@#0ch),XAR3
015e68: fb6100ff         MOV #255,*AR3
015e6c: ed18bf           MOV dbl(@#0ch),XAR3
015e6f: ed0808           MOV dbl(@#04h),AC0
015e72: 4220             SUB #2,AC0
015e74: 2209             MOV AC0,AR1
015e76: 8e18bb10b590     MOV XAR3,dbl(@#0ch) || AADD AR1,AR3
015e7c: ed18af           MOV dbl(@#0ch),XAR2
015e7f: b463             AMAR *AR3+
015e81: eb18b5           MOV XAR3,dbl(@#0ch)
015e84: fb4100ff         MOV #255,*AR2
015e88: ed18af           MOV dbl(@#0ch),XAR2
015e8b: ec41be           AMAR *AR2,XAR3
015e8e: b463             AMAR *AR3+
015e90: eb18b5           MOV XAR3,dbl(@#0ch)
015e93: fb4100ff         MOV #255,*AR2
015e97: ed18bf           MOV dbl(@#0ch),XAR3
015e9a: fb6100ff         MOV #255,*AR3
015e9e:               $C$DW$L$_edge_draw$4$E:
015e9e:               $C$L26:
015e9e: 6c0199eb         CALL _coverage_log
015ea2:               $C$DW$L$_edge_draw$5$B:
015ea2: ed1cbf           MOV dbl(@#0eh),XAR3
015ea5: b463             AMAR *AR3+
015ea7: eb1cb5           MOV XAR3,dbl(@#0eh)
015eaa: ed1408           MOV dbl(@#0ah),AC0
015ead: 4010             ADD #1,AC0
015eaf: eb1408           MOV AC0,dbl(@#0ah)
015eb2: ed0c18           MOV dbl(@#06h),AC1
015eb5: ed0808           MOV dbl(@#04h),AC0
015eb8: 6c01a1a0         CALL I$$LMPY
015ebc: ed1418           MOV dbl(@#0ah),AC1
015ebf: 121400           CMP AC1 < AC0, TC1
015ec2: 6d64ff23         BCC $C$L25,TC1
015ec6: 6c0199eb         CALL _coverage_log
015eca:               $C$DW$L$_edge_draw$5$E:
015eca:               $C$L27:
015eca: 6c0199eb         CALL _coverage_log
015ece: ed04bf           MOV dbl(@#02h),XAR3
015ed1: eb1cb5           MOV XAR3,dbl(@#0eh)
015ed4: 3c00             MOV #0,AC0
015ed6: eb1408           MOV AC0,dbl(@#0ah)
015ed9: ed0c18           MOV dbl(@#06h),AC1
015edc: ed0808           MOV dbl(@#04h),AC0
015edf: 6c01a1a0         CALL I$$LMPY
015ee3: ed1418           MOV dbl(@#0ah),AC1
015ee6: 121800           CMP AC1 >= AC0, TC1
015ee9: 046458           BCC $C$L30,TC1
015eec: 6c0199eb         CALL _coverage_log
015ef0:               $C$L28:
015ef0: 6c0199eb         CALL _coverage_log
015ef4:               $C$DW$L$_edge_draw$7$B:
015ef4: ed1cbf           MOV dbl(@#0eh),XAR3
015ef7: a961_3d8a        MOV *AR3,AR1 || MOV #8,AR2
015efb: 1298a4           CMPU AR1 >= AR2, TC1
015efe: 046418           BCC $C$DW$L$_edge_draw$8$E,TC1
015f01: 6c0199eb         CALL _coverage_log
015f05:               $C$DW$L$_edge_draw$7$E:
015f05:               $C$DW$L$_edge_draw$8$B:
015f05: ed04bf           MOV dbl(@#02h),XAR3
015f08: 90b1             MOV XAR3,AC1
015f0a: ed1cbf           MOV dbl(@#0eh),XAR3
015f0d: 90b0             MOV XAR3,AC0
015f0f: ed00bf           MOV dbl(@#00h),XAR3
015f12: 2610             SUB AC1,AC0
015f14: 2204             MOV AC0,T0
015f16: e66b00           MOV #0,*AR3(AR0)
015f19:               $C$DW$L$_edge_draw$8$E:
015f19:               $C$L29:
015f19: 6c0199eb         CALL _coverage_log
015f1d:               $C$DW$L$_edge_draw$9$B:
015f1d: ed1cbf           MOV dbl(@#0eh),XAR3
015f20: b463             AMAR *AR3+
015f22: eb1cb5           MOV XAR3,dbl(@#0eh)
015f25: ed1408           MOV dbl(@#0ah),AC0
015f28: 4010             ADD #1,AC0
015f2a: eb1408           MOV AC0,dbl(@#0ah)
015f2d: ed0c18           MOV dbl(@#06h),AC1
015f30: ed0808           MOV dbl(@#04h),AC0
015f33: 6c01a1a0         CALL I$$LMPY
015f37: ed1418           MOV dbl(@#0ah),AC1
015f3a: 121400           CMP AC1 < AC0, TC1
015f3d: 0464b0           BCC $C$L28,TC1
015f40: 6c0199eb         CALL _coverage_log
015f44:               $C$L30:
015f44:               $C$DW$L$_edge_draw$9$E:
015f44: 6c0199eb         CALL _coverage_log
015f48: 4e11             AADD #17,SP
015f4a: 4804             RET
015f4c:               _susan_principle_small:
015f4c: 6c0199eb         CALL _coverage_log
015f50: 4ee9             AADD #-23,SP
015f52: eb1428           MOV AC2,dbl(@#0ah)
015f55: eb1018           MOV AC1,dbl(@#08h)
015f58: eb0c08           MOV AC0,dbl(@#06h)
015f5b: eb08a5           MOV XAR2,dbl(@#04h)
015f5e: eb0495           MOV XAR1,dbl(@#02h)
015f61: eb0085           MOV XAR0,dbl(@#00h)
015f64: ed1008           MOV dbl(@#08h),AC0
015f67: ed1418           MOV dbl(@#0ah),AC1
015f6a: 6c01a1a0         CALL I$$LMPY
015f6e: ed088f           MOV dbl(@#04h),XAR0
015f71: 4450_3d04        SFTS AC0,#1 || MOV #0,T0
015f75: 6c01a1c5_2305    CALL _memset || MOV AC0,T1
015f7b: 7602da08         MOV #730,AC0
015f7f: eb0c08           MOV AC0,dbl(@#06h)
015f82: 3c10             MOV #1,AC0
015f84: eb1808           MOV AC0,dbl(@#0ch)
015f87: ed1408           MOV dbl(@#0ah),AC0
015f8a: ed1818_4310      MOV dbl(@#0ch),AC1 || SUB #1,AC0
015f8f: 121800           CMP AC1 >= AC0, TC1
015f92: 6d64019d         BCC $C$L35,TC1
015f96: 6c0199eb         CALL _coverage_log
015f9a:               $C$L31:
015f9a: 6c0199eb         CALL _coverage_log
015f9e:               $C$DW$L$_susan_principle_small$2$B:
015f9e: 3c10             MOV #1,AC0
015fa0: eb1c08           MOV AC0,dbl(@#0eh)
015fa3: ed1008           MOV dbl(@#08h),AC0
015fa6: ed1c18_4310      MOV dbl(@#0eh),AC1 || SUB #1,AC0
015fab: 121800           CMP AC1 >= AC0, TC1
015fae: 6d640162         BCC $C$DW$L$_susan_principle_small$5$E,TC1
015fb2: 6c0199eb         CALL _coverage_log
015fb6:               $C$DW$L$_susan_principle_small$2$E:
015fb6:               $C$L32:
015fb6: 6c0199eb         CALL _coverage_log
015fba:               $C$DW$L$_susan_principle_small$3$B:
015fba: 76006408         MOV #100,AC0
015fbe: eb2008           MOV AC0,dbl(@#10h)
015fc1: ed1018_3d10      MOV dbl(@#08h),AC1 || MOV #1,AC0
015fc6: ed1804           SUB AC0,dbl(@#0ch),AC0
015fc9: 6c01a1a0         CALL I$$LMPY
015fcd: 2209             MOV AC0,AR1
015fcf: ed00bf           MOV dbl(@#00h),XAR3
015fd2: 8a1eb91890       MOV @#0fh,AR1 || AADD AR1,AR3
015fd7: 1490b0           AADD AR1,AR3
015fda: b465             AMAR *AR3-
015fdc: eb24b5           MOV XAR3,dbl(@#12h)
015fdf: ed1808           MOV dbl(@#0ch),AC0
015fe2: ed1018           MOV dbl(@#08h),AC1
015fe5: 6c01a1a0         CALL I$$LMPY
015fe9: ed00bf           MOV dbl(@#00h),XAR3
015fec: ed1c00           ADD dbl(@#0eh),AC0,AC0
015fef: 2204             MOV AC0,T0
015ff1: a96b             MOV *AR3(AR0),AR1
015ff3: ed04bf           MOV dbl(@#02h),XAR3
015ff6: 8e28bb10b590     MOV XAR3,dbl(@#14h) || AADD AR1,AR3
015ffc: ed24bf           MOV dbl(@#12h),XAR3
015fff: a963             MOV *AR3+,AR1
016001: eb24b5           MOV XAR3,dbl(@#12h)
016004: ed28bf           MOV dbl(@#14h),XAR3
016007: 1490b2           ASUB AR1,AR3
01600a: df6105           MOV uns(*AR3),AC0
01600d: ed2000           ADD dbl(@#10h),AC0,AC0
016010: eb2008           MOV AC0,dbl(@#10h)
016013: ed24bf           MOV dbl(@#12h),XAR3
016016: a963             MOV *AR3+,AR1
016018: eb24b5           MOV XAR3,dbl(@#12h)
01601b: ed28bf           MOV dbl(@#14h),XAR3
01601e: 1490b2           ASUB AR1,AR3
016021: df6105           MOV uns(*AR3),AC0
016024: ed2000           ADD dbl(@#10h),AC0,AC0
016027: eb2008           MOV AC0,dbl(@#10h)
01602a: ed24bf           MOV dbl(@#12h),XAR3
01602d: a961             MOV *AR3,AR1
01602f: ed28bf           MOV dbl(@#14h),XAR3
016032: 1490b2           ASUB AR1,AR3
016035: df6105           MOV uns(*AR3),AC0
016038: ed2000           ADD dbl(@#10h),AC0,AC0
01603b: eb2008           MOV AC0,dbl(@#10h)
01603e: ed24bf           MOV dbl(@#12h),XAR3
016041: ed1008           MOV dbl(@#08h),AC0
016044: 4220             SUB #2,AC0
016046: 2209             MOV AC0,AR1
016048: 8e24bb10b590     MOV XAR3,dbl(@#12h) || AADD AR1,AR3
01604e: a961             MOV *AR3,AR1
016050: ed28bf           MOV dbl(@#14h),XAR3
016053: 1490b2           ASUB AR1,AR3
016056: df6105           MOV uns(*AR3),AC0
016059: ed2000           ADD dbl(@#10h),AC0,AC0
01605c: eb2008           MOV AC0,dbl(@#10h)
01605f: ed24bf           MOV dbl(@#12h),XAR3
016062: 8e24bb14b502     MOV XAR3,dbl(@#12h) || AADD #2,AR3
016068: a961             MOV *AR3,AR1
01606a: ed28bf           MOV dbl(@#14h),XAR3
01606d: 1490b2           ASUB AR1,AR3
016070: df6105           MOV uns(*AR3),AC0
016073: ed2000           ADD dbl(@#10h),AC0,AC0
016076: eb2008           MOV AC0,dbl(@#10h)
016079: ed24bf           MOV dbl(@#12h),XAR3
01607c: ed1008           MOV dbl(@#08h),AC0
01607f: 4220             SUB #2,AC0
016081: 2209             MOV AC0,AR1
016083: 8e24bb10b590     MOV XAR3,dbl(@#12h) || AADD AR1,AR3
016089: a963             MOV *AR3+,AR1
01608b: eb24b5           MOV XAR3,dbl(@#12h)
01608e: ed28bf           MOV dbl(@#14h),XAR3
016091: 1490b2           ASUB AR1,AR3
016094: df6105           MOV uns(*AR3),AC0
016097: ed2000           ADD dbl(@#10h),AC0,AC0
01609a: eb2008           MOV AC0,dbl(@#10h)
01609d: ed24bf           MOV dbl(@#12h),XAR3
0160a0: a963             MOV *AR3+,AR1
0160a2: eb24b5           MOV XAR3,dbl(@#12h)
0160a5: ed28bf           MOV dbl(@#14h),XAR3
0160a8: 1490b2           ASUB AR1,AR3
0160ab: df6105           MOV uns(*AR3),AC0
0160ae: ed2000           ADD dbl(@#10h),AC0,AC0
0160b1: eb2008           MOV AC0,dbl(@#10h)
0160b4: ed24bf           MOV dbl(@#12h),XAR3
0160b7: a961             MOV *AR3,AR1
0160b9: ed28bf           MOV dbl(@#14h),XAR3
0160bc: 1490b2           ASUB AR1,AR3
0160bf: df6105           MOV uns(*AR3),AC0
0160c2: ed2000           ADD dbl(@#10h),AC0,AC0
0160c5: eb2008           MOV AC0,dbl(@#10h)
0160c8: ed0c08           MOV dbl(@#06h),AC0
0160cb: ed2018           MOV dbl(@#10h),AC1
0160ce: 120410           CMP AC0 < AC1, TC1
0160d1: 046421           BCC $C$DW$L$_susan_principle_small$4$E,TC1
0160d4: 6c0199eb         CALL _coverage_log
0160d8:               $C$DW$L$_susan_principle_small$3$E:
0160d8:               $C$DW$L$_susan_principle_small$4$B:
0160d8: ed1808           MOV dbl(@#0ch),AC0
0160db: ed1018           MOV dbl(@#08h),AC1
0160de: 6c01a1a0         CALL I$$LMPY
0160e2: ed08bf           MOV dbl(@#04h),XAR3
0160e5: ed1c00           ADD dbl(@#0eh),AC0,AC0
0160e8: 2204             MOV AC0,T0
0160ea: 5040             SFTL T0,#1
0160ec: ed2008           MOV dbl(@#10h),AC0
0160ef: ed0c04           SUB AC0,dbl(@#06h),AC0
0160f2: eb6b08           MOV AC0,dbl(*AR3(AR0))
0160f5:               $C$DW$L$_susan_principle_small$4$E:
0160f5:               $C$L33:
0160f5: 6c0199eb         CALL _coverage_log
0160f9:               $C$DW$L$_susan_principle_small$5$B:
0160f9: ed1c08           MOV dbl(@#0eh),AC0
0160fc: 4010             ADD #1,AC0
0160fe: eb1c08           MOV AC0,dbl(@#0eh)
016101: ed1008           MOV dbl(@#08h),AC0
016104: ed1c18_4310      MOV dbl(@#0eh),AC1 || SUB #1,AC0
016109: 121400           CMP AC1 < AC0, TC1
01610c: 6d64fea6         BCC $C$DW$L$_susan_principle_small$2$E,TC1
016110: 6c0199eb         CALL _coverage_log
016114:               $C$DW$L$_susan_principle_small$5$E:
016114:               $C$L34:
016114: 6c0199eb         CALL _coverage_log
016118:               $C$DW$L$_susan_principle_small$6$B:
016118: ed1808           MOV dbl(@#0ch),AC0
01611b: 4010             ADD #1,AC0
01611d: eb1808           MOV AC0,dbl(@#0ch)
016120: ed1408           MOV dbl(@#0ah),AC0
016123: ed1818_4310      MOV dbl(@#0ch),AC1 || SUB #1,AC0
016128: 121400           CMP AC1 < AC0, TC1
01612b: 6d64fe6b         BCC $C$L31,TC1
01612f: 6c0199eb         CALL _coverage_log
016133:               $C$L35:
016133:               $C$DW$L$_susan_principle_small$6$E:
016133: 6c0199eb         CALL _coverage_log
016137: 4e17             AADD #23,SP
016139: 4804             RET
01613b:               _susan_edges_small:
01613b: 6c0199eb         CALL _coverage_log
01613f: 4ed3             AADD #-45,SP
016141: eb1828           MOV AC2,dbl(@#0ch)
016144: eb1418           MOV AC1,dbl(@#0ah)
016147: eb1008           MOV AC0,dbl(@#08h)
01614a: eb0cb5           MOV XAR3,dbl(@#06h)
01614d: eb08a5           MOV XAR2,dbl(@#04h)
016150: eb0495           MOV XAR1,dbl(@#02h)
016153: eb0085           MOV XAR0,dbl(@#00h)
016156: ed1408           MOV dbl(@#0ah),AC0
016159: ed1818           MOV dbl(@#0ch),AC1
01615c: 6c01a1a0         CALL I$$LMPY
016160: ed048f           MOV dbl(@#02h),XAR0
016163: 4450_3d04        SFTS AC0,#1 || MOV #0,T0
016167: 6c01a1c5_2305    CALL _memset || MOV AC0,T1
01616d: 7602da08         MOV #730,AC0
016171: eb1008           MOV AC0,dbl(@#08h)
016174: 3c10             MOV #1,AC0
016176: eb2408           MOV AC0,dbl(@#12h)
016179: ed1808           MOV dbl(@#0ch),AC0
01617c: ed2418_4310      MOV dbl(@#12h),AC1 || SUB #1,AC0
016181: 121800           CMP AC1 >= AC0, TC1
016184: 6d64019d         BCC $C$DW$L$_susan_edges_small$6$E,TC1
016188: 6c0199eb         CALL _coverage_log
01618c:               $C$L36:
01618c: 6c0199eb         CALL _coverage_log
016190:               $C$DW$L$_susan_edges_small$2$B:
016190: 3c10             MOV #1,AC0
016192: eb2808           MOV AC0,dbl(@#14h)
016195: ed1408           MOV dbl(@#0ah),AC0
016198: ed2818_4310      MOV dbl(@#14h),AC1 || SUB #1,AC0
01619d: 121800           CMP AC1 >= AC0, TC1
0161a0: 6d640162         BCC $C$DW$L$_susan_edges_small$5$E,TC1
0161a4: 6c0199eb         CALL _coverage_log
0161a8:               $C$DW$L$_susan_edges_small$2$E:
0161a8:               $C$L37:
0161a8: 6c0199eb         CALL _coverage_log
0161ac:               $C$DW$L$_susan_edges_small$3$B:
0161ac: 76006408         MOV #100,AC0
0161b0: eb3008           MOV AC0,dbl(@#18h)
0161b3: ed1418_3d10      MOV dbl(@#0ah),AC1 || MOV #1,AC0
0161b8: ed2404           SUB AC0,dbl(@#12h),AC0
0161bb: 6c01a1a0         CALL I$$LMPY
0161bf: 2209             MOV AC0,AR1
0161c1: ed00bf           MOV dbl(@#00h),XAR3
0161c4: 8a2ab91890       MOV @#15h,AR1 || AADD AR1,AR3
0161c9: 1490b0           AADD AR1,AR3
0161cc: b465             AMAR *AR3-
0161ce: eb4cb5           MOV XAR3,dbl(@#26h)
0161d1: ed2408           MOV dbl(@#12h),AC0
0161d4: ed1418           MOV dbl(@#0ah),AC1
0161d7: 6c01a1a0         CALL I$$LMPY
0161db: ed00bf           MOV dbl(@#00h),XAR3
0161de: ed2800           ADD dbl(@#14h),AC0,AC0
0161e1: 2204             MOV AC0,T0
0161e3: a96b             MOV *AR3(AR0),AR1
0161e5: ed0cbf           MOV dbl(@#06h),XAR3
0161e8: 8e50bb10b590     MOV XAR3,dbl(@#28h) || AADD AR1,AR3
0161ee: ed4cbf           MOV dbl(@#26h),XAR3
0161f1: a963             MOV *AR3+,AR1
0161f3: eb4cb5           MOV XAR3,dbl(@#26h)
0161f6: ed50bf           MOV dbl(@#28h),XAR3
0161f9: 1490b2           ASUB AR1,AR3
0161fc: df6105           MOV uns(*AR3),AC0
0161ff: ed3000           ADD dbl(@#18h),AC0,AC0
016202: eb3008           MOV AC0,dbl(@#18h)
016205: ed4cbf           MOV dbl(@#26h),XAR3
016208: a963             MOV *AR3+,AR1
01620a: eb4cb5           MOV XAR3,dbl(@#26h)
01620d: ed50bf           MOV dbl(@#28h),XAR3
016210: 1490b2           ASUB AR1,AR3
016213: df6105           MOV uns(*AR3),AC0
016216: ed3000           ADD dbl(@#18h),AC0,AC0
016219: eb3008           MOV AC0,dbl(@#18h)
01621c: ed4cbf           MOV dbl(@#26h),XAR3
01621f: a961             MOV *AR3,AR1
016221: ed50bf           MOV dbl(@#28h),XAR3
016224: 1490b2           ASUB AR1,AR3
016227: df6105           MOV uns(*AR3),AC0
01622a: ed3000           ADD dbl(@#18h),AC0,AC0
01622d: eb3008           MOV AC0,dbl(@#18h)
016230: ed4cbf           MOV dbl(@#26h),XAR3
016233: ed1408           MOV dbl(@#0ah),AC0
016236: 4220             SUB #2,AC0
016238: 2209             MOV AC0,AR1
01623a: 8e4cbb10b590     MOV XAR3,dbl(@#26h) || AADD AR1,AR3
016240: a961             MOV *AR3,AR1
016242: ed50bf           MOV dbl(@#28h),XAR3
016245: 1490b2           ASUB AR1,AR3
016248: df6105           MOV uns(*AR3),AC0
01624b: ed3000           ADD dbl(@#18h),AC0,AC0
01624e: eb3008           MOV AC0,dbl(@#18h)
016251: ed4cbf           MOV dbl(@#26h),XAR3
016254: 8e4cbb14b502     MOV XAR3,dbl(@#26h) || AADD #2,AR3
01625a: a961             MOV *AR3,AR1
01625c: ed50bf           MOV dbl(@#28h),XAR3
01625f: 1490b2           ASUB AR1,AR3
016262: df6105           MOV uns(*AR3),AC0
016265: ed3000           ADD dbl(@#18h),AC0,AC0
016268: eb3008           MOV AC0,dbl(@#18h)
01626b: ed4cbf           MOV dbl(@#26h),XAR3
01626e: ed1408           MOV dbl(@#0ah),AC0
016271: 4220             SUB #2,AC0
016273: 2209             MOV AC0,AR1
016275: 8e4cbb10b590     MOV XAR3,dbl(@#26h) || AADD AR1,AR3
01627b: a963             MOV *AR3+,AR1
01627d: eb4cb5           MOV XAR3,dbl(@#26h)
016280: ed50bf           MOV dbl(@#28h),XAR3
016283: 1490b2           ASUB AR1,AR3
016286: df6105           MOV uns(*AR3),AC0
016289: ed3000           ADD dbl(@#18h),AC0,AC0
01628c: eb3008           MOV AC0,dbl(@#18h)
01628f: ed4cbf           MOV dbl(@#26h),XAR3
016292: a963             MOV *AR3+,AR1
016294: eb4cb5           MOV XAR3,dbl(@#26h)
016297: ed50bf           MOV dbl(@#28h),XAR3
01629a: 1490b2           ASUB AR1,AR3
01629d: df6105           MOV uns(*AR3),AC0
0162a0: ed3000           ADD dbl(@#18h),AC0,AC0
0162a3: eb3008           MOV AC0,dbl(@#18h)
0162a6: ed4cbf           MOV dbl(@#26h),XAR3
0162a9: a961             MOV *AR3,AR1
0162ab: ed50bf           MOV dbl(@#28h),XAR3
0162ae: 1490b2           ASUB AR1,AR3
0162b1: df6105           MOV uns(*AR3),AC0
0162b4: ed3000           ADD dbl(@#18h),AC0,AC0
0162b7: eb3008           MOV AC0,dbl(@#18h)
0162ba: ed1008           MOV dbl(@#08h),AC0
0162bd: ed3018           MOV dbl(@#18h),AC1
0162c0: 120410           CMP AC0 < AC1, TC1
0162c3: 046421           BCC $C$DW$L$_susan_edges_small$4$E,TC1
0162c6: 6c0199eb         CALL _coverage_log
0162ca:               $C$DW$L$_susan_edges_small$3$E:
0162ca:               $C$DW$L$_susan_edges_small$4$B:
0162ca: ed2408           MOV dbl(@#12h),AC0
0162cd: ed1418           MOV dbl(@#0ah),AC1
0162d0: 6c01a1a0         CALL I$$LMPY
0162d4: ed04bf           MOV dbl(@#02h),XAR3
0162d7: ed2800           ADD dbl(@#14h),AC0,AC0
0162da: 2204             MOV AC0,T0
0162dc: 5040             SFTL T0,#1
0162de: ed3008           MOV dbl(@#18h),AC0
0162e1: ed1004           SUB AC0,dbl(@#08h),AC0
0162e4: eb6b08           MOV AC0,dbl(*AR3(AR0))
0162e7:               $C$DW$L$_susan_edges_small$4$E:
0162e7:               $C$L38:
0162e7: 6c0199eb         CALL _coverage_log
0162eb:               $C$DW$L$_susan_edges_small$5$B:
0162eb: ed2808           MOV dbl(@#14h),AC0
0162ee: 4010             ADD #1,AC0
0162f0: eb2808           MOV AC0,dbl(@#14h)
0162f3: ed1408           MOV dbl(@#0ah),AC0
0162f6: ed2818_4310      MOV dbl(@#14h),AC1 || SUB #1,AC0
0162fb: 121400           CMP AC1 < AC0, TC1
0162fe: 6d64fea6         BCC $C$DW$L$_susan_edges_small$2$E,TC1
016302: 6c0199eb         CALL _coverage_log
016306:               $C$DW$L$_susan_edges_small$5$E:
016306:               $C$L39:
016306: 6c0199eb         CALL _coverage_log
01630a:               $C$DW$L$_susan_edges_small$6$B:
01630a: ed2408           MOV dbl(@#12h),AC0
01630d: 4010             ADD #1,AC0
01630f: eb2408           MOV AC0,dbl(@#12h)
016312: ed1808           MOV dbl(@#0ch),AC0
016315: ed2418_4310      MOV dbl(@#12h),AC1 || SUB #1,AC0
01631a: 121400           CMP AC1 < AC0, TC1
01631d: 6d64fe6b         BCC $C$L36,TC1
016321: 6c0199eb         CALL _coverage_log
016325:               $C$DW$L$_susan_edges_small$6$E:
016325:               $C$L40:
016325: 6c0199eb         CALL _coverage_log
016329: 3c20             MOV #2,AC0
01632b: eb2408           MOV AC0,dbl(@#12h)
01632e: ed1808           MOV dbl(@#0ch),AC0
016331: ed2418_4320      MOV dbl(@#12h),AC1 || SUB #2,AC0
016336: 121800           CMP AC1 >= AC0, TC1
016339: 6d64062c         BCC $C$L62,TC1
01633d: 6c0199eb         CALL _coverage_log
016341:               $C$L41:
016341: 6c0199eb         CALL _coverage_log
016345:               $C$DW$L$_susan_edges_small$8$B:
016345: 3c20             MOV #2,AC0
016347: eb2808           MOV AC0,dbl(@#14h)
01634a: ed1408           MOV dbl(@#0ah),AC0
01634d: ed2818_4320      MOV dbl(@#14h),AC1 || SUB #2,AC0
016352: 121800           CMP AC1 >= AC0, TC1
016355: 6d6405f1         BCC $C$DW$L$_susan_edges_small$44$E,TC1
016359: 6c0199eb         CALL _coverage_log
01635d:               $C$DW$L$_susan_edges_small$8$E:
01635d:               $C$L42:
01635d: 6c0199eb         CALL _coverage_log
016361:               $C$DW$L$_susan_edges_small$9$B:
016361: ed2408           MOV dbl(@#12h),AC0
016364: ed1418           MOV dbl(@#0ah),AC1
016367: 6c01a1a0         CALL I$$LMPY
01636b: ed04bf           MOV dbl(@#02h),XAR3
01636e: ed2800           ADD dbl(@#14h),AC0,AC0
016371: 2204             MOV AC0,T0
016373: 5040             SFTL T0,#1
016375: ed6b08           MOV dbl(*AR3(AR0)),AC0
016378: 6d3005af         BCC $C$DW$L$_susan_edges_small$43$E,AC0 <= #0
01637c: 6c0199eb         CALL _coverage_log
016380:               $C$DW$L$_susan_edges_small$9$E:
016380:               $C$DW$L$_susan_edges_small$10$B:
016380: ed2408           MOV dbl(@#12h),AC0
016383: ed1418           MOV dbl(@#0ah),AC1
016386: 6c01a1a0         CALL I$$LMPY
01638a: ed04bf           MOV dbl(@#02h),XAR3
01638d: ed2800           ADD dbl(@#14h),AC0,AC0
016390: 2204             MOV AC0,T0
016392: 5040             SFTL T0,#1
016394: ed6b08           MOV dbl(*AR3(AR0)),AC0
016397: eb2c08           MOV AC0,dbl(@#16h)
01639a: ed2c08           MOV dbl(@#16h),AC0
01639d: ed1004           SUB AC0,dbl(@#08h),AC0
0163a0: eb3008           MOV AC0,dbl(@#18h)
0163a3: ed2408           MOV dbl(@#12h),AC0
0163a6: ed1418           MOV dbl(@#0ah),AC1
0163a9: 6c01a1a0         CALL I$$LMPY
0163ad: ed00bf           MOV dbl(@#00h),XAR3
0163b0: ed2800           ADD dbl(@#14h),AC0,AC0
0163b3: 2204             MOV AC0,T0
0163b5: a96b             MOV *AR3(AR0),AR1
0163b7: ed0cbf           MOV dbl(@#06h),XAR3
0163ba: 8e50bb10b590     MOV XAR3,dbl(@#28h) || AADD AR1,AR3
0163c0: 7600fa08         MOV #250,AC0
0163c4: ed3018           MOV dbl(@#18h),AC1
0163c7: 120810           CMP AC0 >= AC1, TC1
0163ca: 6d6402d6         BCC $C$DW$L$_susan_edges_small$28$E,TC1
0163ce: 6c0199eb         CALL _coverage_log
0163d2:               $C$DW$L$_susan_edges_small$10$E:
0163d2:               $C$DW$L$_susan_edges_small$11$B:
0163d2: ed1418_3d10      MOV dbl(@#0ah),AC1 || MOV #1,AC0
0163d7: ed2404           SUB AC0,dbl(@#12h),AC0
0163da: 6c01a1a0         CALL I$$LMPY
0163de: 2209             MOV AC0,AR1
0163e0: ed00bf           MOV dbl(@#00h),XAR3
0163e3: 8a2ab91890       MOV @#15h,AR1 || AADD AR1,AR3
0163e8: 1490b0           AADD AR1,AR3
0163eb: b465             AMAR *AR3-
0163ed: eb4cb5           MOV XAR3,dbl(@#26h)
0163f0: 3c00             MOV #0,AC0
0163f2: eb3c08           MOV AC0,dbl(@#1eh)
0163f5: eb4008           MOV AC0,dbl(@#20h)
0163f8: ed4cbf           MOV dbl(@#26h),XAR3
0163fb: a963             MOV *AR3+,AR1
0163fd: eb4cb5           MOV XAR3,dbl(@#26h)
016400: ed50bf           MOV dbl(@#28h),XAR3
016403: 1490b2           ASUB AR1,AR3
016406: a961             MOV *AR3,AR1
016408: c948             MOV AR1,@#24h
01640a: df4805           MOV uns(@#24h),AC0
01640d: ed3c04           SUB AC0,dbl(@#1eh),AC0
016410: eb3c08           MOV AC0,dbl(@#1eh)
016413: df4805           MOV uns(@#24h),AC0
016416: ed4004           SUB AC0,dbl(@#20h),AC0
016419: eb4008           MOV AC0,dbl(@#20h)
01641c: ed4cbf           MOV dbl(@#26h),XAR3
01641f: a963             MOV *AR3+,AR1
016421: eb4cb5           MOV XAR3,dbl(@#26h)
016424: ed50bf           MOV dbl(@#28h),XAR3
016427: 1490b2           ASUB AR1,AR3
01642a: a961             MOV *AR3,AR1
01642c: c948             MOV AR1,@#24h
01642e: df4805           MOV uns(@#24h),AC0
016431: ed4004           SUB AC0,dbl(@#20h),AC0
016434: eb4008           MOV AC0,dbl(@#20h)
016437: ed4cbf           MOV dbl(@#26h),XAR3
01643a: a961             MOV *AR3,AR1
01643c: ed50bf           MOV dbl(@#28h),XAR3
01643f: 1490b2           ASUB AR1,AR3
016442: a961             MOV *AR3,AR1
016444: c948             MOV AR1,@#24h
016446: df4805           MOV uns(@#24h),AC0
016449: ed3c00           ADD dbl(@#1eh),AC0,AC0
01644c: eb3c08           MOV AC0,dbl(@#1eh)
01644f: df4805           MOV uns(@#24h),AC0
016452: ed4004           SUB AC0,dbl(@#20h),AC0
016455: eb4008           MOV AC0,dbl(@#20h)
016458: ed4cbf           MOV dbl(@#26h),XAR3
01645b: ed1408           MOV dbl(@#0ah),AC0
01645e: 4220             SUB #2,AC0
016460: 2209             MOV AC0,AR1
016462: 8e4cbb10b590     MOV XAR3,dbl(@#26h) || AADD AR1,AR3
016468: a961             MOV *AR3,AR1
01646a: ed50bf           MOV dbl(@#28h),XAR3
01646d: 1490b2           ASUB AR1,AR3
016470: a961             MOV *AR3,AR1
016472: c948             MOV AR1,@#24h
016474: df4805           MOV uns(@#24h),AC0
016477: ed3c04           SUB AC0,dbl(@#1eh),AC0
01647a: eb3c08           MOV AC0,dbl(@#1eh)
01647d: ed4cbf           MOV dbl(@#26h),XAR3
016480: 8e4cbb14b502     MOV XAR3,dbl(@#26h) || AADD #2,AR3
016486: a961             MOV *AR3,AR1
016488: ed50bf           MOV dbl(@#28h),XAR3
01648b: 1490b2           ASUB AR1,AR3
01648e: a961             MOV *AR3,AR1
016490: c948             MOV AR1,@#24h
016492: df4805           MOV uns(@#24h),AC0
016495: ed3c00           ADD dbl(@#1eh),AC0,AC0
016498: eb3c08           MOV AC0,dbl(@#1eh)
01649b: ed4cbf           MOV dbl(@#26h),XAR3
01649e: ed1408           MOV dbl(@#0ah),AC0
0164a1: 4220             SUB #2,AC0
0164a3: 2209             MOV AC0,AR1
0164a5: 8e4cbb10b590     MOV XAR3,dbl(@#26h) || AADD AR1,AR3
0164ab: a963             MOV *AR3+,AR1
0164ad: eb4cb5           MOV XAR3,dbl(@#26h)
0164b0: ed50bf           MOV dbl(@#28h),XAR3
0164b3: 1490b2           ASUB AR1,AR3
0164b6: a961             MOV *AR3,AR1
0164b8: c948             MOV AR1,@#24h
0164ba: df4805           MOV uns(@#24h),AC0
0164bd: ed3c04           SUB AC0,dbl(@#1eh),AC0
0164c0: eb3c08           MOV AC0,dbl(@#1eh)
0164c3: df4805           MOV uns(@#24h),AC0
0164c6: ed4000           ADD dbl(@#20h),AC0,AC0
0164c9: eb4008           MOV AC0,dbl(@#20h)
0164cc: ed4cbf           MOV dbl(@#26h),XAR3
0164cf: a963             MOV *AR3+,AR1
0164d1: eb4cb5           MOV XAR3,dbl(@#26h)
0164d4: ed50bf           MOV dbl(@#28h),XAR3
0164d7: 1490b2           ASUB AR1,AR3
0164da: a961             MOV *AR3,AR1
0164dc: c948             MOV AR1,@#24h
0164de: df4805           MOV uns(@#24h),AC0
0164e1: ed4000           ADD dbl(@#20h),AC0,AC0
0164e4: eb4008           MOV AC0,dbl(@#20h)
0164e7: ed4cbf           MOV dbl(@#26h),XAR3
0164ea: a961             MOV *AR3,AR1
0164ec: ed50bf           MOV dbl(@#28h),XAR3
0164ef: 1490b2           ASUB AR1,AR3
0164f2: a961             MOV *AR3,AR1
0164f4: c948             MOV AR1,@#24h
0164f6: df4805           MOV uns(@#24h),AC0
0164f9: ed3c00           ADD dbl(@#1eh),AC0,AC0
0164fc: eb3c08           MOV AC0,dbl(@#1eh)
0164ff: df4805           MOV uns(@#24h),AC0
016502: ed4000           ADD dbl(@#20h),AC0,AC0
016505: eb4008           MOV AC0,dbl(@#20h)
016508: ed3c08           MOV dbl(@#1eh),AC0
01650b: ed3c18           MOV dbl(@#1eh),AC1
01650e: 6c01a1a0         CALL I$$LMPY
016512: ed4018           MOV dbl(@#20h),AC1
016515: ed4008_1b0020    MOV dbl(@#20h),AC0 || OR #0,AC0,AC2
01651b: 6c01a1a0         CALL I$$LMPY
01651f: 6c019e2d_2520    CALL __fltlid || ADD AC2,AC0
016525: 6c0195bc         CALL _sqrt
016529: eb1c08           MOV AC0,dbl(@#0eh)
01652c: ed3008           MOV dbl(@#18h),AC0
01652f: 6c019e2d         CALL __fltlid
016533: 1a0010           OR #0,AC0,AC1
016536: ed3108016aca     MOV dbl(*(#016acah)),AC0
01653c: 6c019470         CALL __mpyd
016540: ed1c08_1b0010    MOV dbl(@#0eh),AC0 || OR #0,AC0,AC1
016546: 6c019262         CALL __cmpd
01654a: 6d34014b         BCC $C$DW$L$_susan_edges_small$27$E,T0 <= #0
01654e: 6c0199eb         CALL _coverage_log
016552:               $C$DW$L$_susan_edges_small$11$E:
016552:               $C$DW$L$_susan_edges_small$12$B:
016552: 3c00             MOV #0,AC0
016554: eb2008           MOV AC0,dbl(@#10h)
016557: ed3c08           MOV dbl(@#1eh),AC0
01655a: 6790             BCC $C$DW$L$_susan_edges_small$13$E,AC0 != #0
01655c: 6c0199eb         CALL _coverage_log
016560:               $C$DW$L$_susan_edges_small$12$E:
016560:               $C$DW$L$_susan_edges_small$13$B:
016560: ed3108016acc     MOV dbl(*(#016acch)),AC0
016566: eb1c08           MOV AC0,dbl(@#0eh)
016569: 4a22             B $C$DW$L$_susan_edges_small$14$E
01656b:               $C$DW$L$_susan_edges_small$13$E:
01656b:               $C$L43:
01656b: 6c0199eb         CALL _coverage_log
01656f:               $C$DW$L$_susan_edges_small$14$B:
01656f: ed4008           MOV dbl(@#20h),AC0
016572: 6c019e2d         CALL __fltlid
016576: eb5408           MOV AC0,dbl(@#2ah)
016579: ed3c08           MOV dbl(@#1eh),AC0
01657c: 6c019e2d         CALL __fltlid
016580: ed5408_1b0010    MOV dbl(@#2ah),AC0 || OR #0,AC0,AC1
016586: 6c018454         CALL __divd
01658a: eb1c08           MOV AC0,dbl(@#0eh)
01658d:               $C$DW$L$_susan_edges_small$14$E:
01658d:               $C$L44:
01658d: 6c0199eb         CALL _coverage_log
016591:               $C$DW$L$_susan_edges_small$15$B:
016591: ed3118016ace     MOV dbl(*(#016aceh)),AC1
016597: 6c019262         CALL __cmpd
01659b: 045415           BCC $C$DW$L$_susan_edges_small$16$E,T0 >= #0
01659e: 6c0199eb         CALL _coverage_log
0165a2:               $C$DW$L$_susan_edges_small$15$E:
0165a2:               $C$DW$L$_susan_edges_small$16$B:
0165a2: ed1c08           MOV dbl(@#0eh),AC0
0165a5: 6c01a1d6         CALL __negd
0165a9: eb1c08           MOV AC0,dbl(@#0eh)
0165ac: 3e10             MOV #-1,AC0
0165ae: eb4408           MOV AC0,dbl(@#22h)
0165b1: 4a09             B $C$DW$L$_susan_edges_small$17$E
0165b3:               $C$DW$L$_susan_edges_small$16$E:
0165b3:               $C$L45:
0165b3: 6c0199eb         CALL _coverage_log
0165b7:               $C$DW$L$_susan_edges_small$17$B:
0165b7: 3c10             MOV #1,AC0
0165b9: eb4408           MOV AC0,dbl(@#22h)
0165bc:               $C$DW$L$_susan_edges_small$17$E:
0165bc:               $C$L46:
0165bc: 6c0199eb         CALL _coverage_log
0165c0:               $C$DW$L$_susan_edges_small$18$B:
0165c0: ed1c08           MOV dbl(@#0eh),AC0
0165c3: ed3118016ad0     MOV dbl(*(#016ad0h)),AC1
0165c9: 6c019262         CALL __cmpd
0165cd: 045411           BCC $C$DW$L$_susan_edges_small$19$E,T0 >= #0
0165d0: 6c0199eb         CALL _coverage_log
0165d4:               $C$DW$L$_susan_edges_small$18$E:
0165d4:               $C$DW$L$_susan_edges_small$19$B:
0165d4: 3c00             MOV #0,AC0
0165d6: eb3408           MOV AC0,dbl(@#1ah)
0165d9: 3c10             MOV #1,AC0
0165db: eb3808           MOV AC0,dbl(@#1ch)
0165de: 060049           B $C$DW$L$_susan_edges_small$24$E
0165e1:               $C$DW$L$_susan_edges_small$19$E:
0165e1:               $C$L47:
0165e1: 6c0199eb         CALL _coverage_log
0165e5:               $C$DW$L$_susan_edges_small$20$B:
0165e5: ed1c08           MOV dbl(@#0eh),AC0
0165e8: ed3118016ad2     MOV dbl(*(#016ad2h)),AC1
0165ee: 6c019262         CALL __cmpd
0165f2: 043410           BCC $C$DW$L$_susan_edges_small$21$E,T0 <= #0
0165f5: 6c0199eb         CALL _coverage_log
0165f9:               $C$DW$L$_susan_edges_small$20$E:
0165f9:               $C$DW$L$_susan_edges_small$21$B:
0165f9: 3c10             MOV #1,AC0
0165fb: eb3408           MOV AC0,dbl(@#1ah)
0165fe: 3c00             MOV #0,AC0
016600: eb3808           MOV AC0,dbl(@#1ch)
016603: 4a25             B $C$DW$L$_susan_edges_small$24$E
016605:               $C$DW$L$_susan_edges_small$21$E:
016605:               $C$L48:
016605: 6c0199eb         CALL _coverage_log
016609:               $C$DW$L$_susan_edges_small$22$B:
016609: ed4408           MOV dbl(@#22h),AC0
01660c: 6730             BCC $C$DW$L$_susan_edges_small$23$E,AC0 <= #0
01660e: 6c0199eb         CALL _coverage_log
016612:               $C$DW$L$_susan_edges_small$22$E:
016612:               $C$DW$L$_susan_edges_small$23$B:
016612: 3c10             MOV #1,AC0
016614: eb3408           MOV AC0,dbl(@#1ah)
016617: eb3808           MOV AC0,dbl(@#1ch)
01661a: 4a0e             B $C$DW$L$_susan_edges_small$24$E
01661c:               $C$DW$L$_susan_edges_small$23$E:
01661c:               $C$L49:
01661c: 6c0199eb         CALL _coverage_log
016620:               $C$DW$L$_susan_edges_small$24$B:
016620: 3e10             MOV #-1,AC0
016622: eb3408           MOV AC0,dbl(@#1ah)
016625: 3c10             MOV #1,AC0
016627: eb3808           MOV AC0,dbl(@#1ch)
01662a:               $C$DW$L$_susan_edges_small$24$E:
01662a:               $C$L50:
01662a: 6c0199eb         CALL _coverage_log
01662e:               $C$DW$L$_susan_edges_small$25$B:
01662e: ed3408           MOV dbl(@#1ah),AC0
016631: ed1418           MOV dbl(@#0ah),AC1
016634: ed2400           ADD dbl(@#12h),AC0,AC0
016637: 6c01a1a0         CALL I$$LMPY
01663b: ed04bf           MOV dbl(@#02h),XAR3
01663e: ed2800           ADD dbl(@#14h),AC0,AC0
016641: ed3800           ADD dbl(@#1ch),AC0,AC0
016644: 2204             MOV AC0,T0
016646: 5040             SFTL T0,#1
016648: ed2c18           MOV dbl(@#16h),AC1
01664b: ed6b08           MOV dbl(*AR3(AR0)),AC0
01664e: 120810           CMP AC0 >= AC1, TC1
016651: 046459           BCC $C$DW$L$_susan_edges_small$29$E,TC1
016654: 6c0199eb         CALL _coverage_log
016658:               $C$DW$L$_susan_edges_small$25$E:
016658:               $C$DW$L$_susan_edges_small$26$B:
016658: ed3408           MOV dbl(@#1ah),AC0
01665b: ed1418           MOV dbl(@#0ah),AC1
01665e: ed2404           SUB AC0,dbl(@#12h),AC0
016661: 6c01a1a0         CALL I$$LMPY
016665: ed04bf           MOV dbl(@#02h),XAR3
016668: ed2800           ADD dbl(@#14h),AC0,AC0
01666b: ed3802           SUB dbl(@#1ch),AC0,AC0
01666e: 2204             MOV AC0,T0
016670: 5040             SFTL T0,#1
016672: ed2c18           MOV dbl(@#16h),AC1
016675: ed6b08           MOV dbl(*AR3(AR0)),AC0
016678: 121400           CMP AC1 < AC0, TC1
01667b: 04642f           BCC $C$DW$L$_susan_edges_small$29$E,TC1
01667e: 6c0199eb         CALL _coverage_log
016682:               $C$DW$L$_susan_edges_small$26$E:
016682:               $C$DW$L$_susan_edges_small$27$B:
016682: ed2408           MOV dbl(@#12h),AC0
016685: ed1418           MOV dbl(@#0ah),AC1
016688: 6c01a1a0         CALL I$$LMPY
01668c: ed08bf           MOV dbl(@#04h),XAR3
01668f: ed2800           ADD dbl(@#14h),AC0,AC0
016692: 2204             MOV AC0,T0
016694: e66b01           MOV #1,*AR3(AR0)
016697: 4a14             B $C$DW$L$_susan_edges_small$29$E
016699:               $C$DW$L$_susan_edges_small$27$E:
016699:               $C$L51:
016699: 6c0199eb         CALL _coverage_log
01669d:               $C$DW$L$_susan_edges_small$28$B:
01669d: 3c10             MOV #1,AC0
01669f: eb2008           MOV AC0,dbl(@#10h)
0166a2: 4a09             B $C$DW$L$_susan_edges_small$29$E
0166a4:               $C$DW$L$_susan_edges_small$28$E:
0166a4:               $C$L52:
0166a4: 6c0199eb         CALL _coverage_log
0166a8:               $C$DW$L$_susan_edges_small$29$B:
0166a8: 3c10             MOV #1,AC0
0166aa: eb2008           MOV AC0,dbl(@#10h)
0166ad:               $C$DW$L$_susan_edges_small$29$E:
0166ad:               $C$L53:
0166ad: 6c0199eb         CALL _coverage_log
0166b1:               $C$DW$L$_susan_edges_small$30$B:
0166b1: ed2018_3d10      MOV dbl(@#10h),AC1 || MOV #1,AC0
0166b6: 121c00           CMP AC1 != AC0, TC1
0166b9: 6d64026e         BCC $C$DW$L$_susan_edges_small$43$E,TC1
0166bd: 6c0199eb         CALL _coverage_log
0166c1:               $C$DW$L$_susan_edges_small$30$E:
0166c1:               $C$DW$L$_susan_edges_small$31$B:
0166c1: ed2404           SUB AC0,dbl(@#12h),AC0
0166c4: ed1418           MOV dbl(@#0ah),AC1
0166c7: 6c01a1a0         CALL I$$LMPY
0166cb: 2209             MOV AC0,AR1
0166cd: ed00bf           MOV dbl(@#00h),XAR3
0166d0: 8a2ab91890       MOV @#15h,AR1 || AADD AR1,AR3
0166d5: 1490b0           AADD AR1,AR3
0166d8: b465             AMAR *AR3-
0166da: eb4cb5           MOV XAR3,dbl(@#26h)
0166dd: 3c00             MOV #0,AC0
0166df: eb3c08           MOV AC0,dbl(@#1eh)
0166e2: eb4008           MOV AC0,dbl(@#20h)
0166e5: eb4408           MOV AC0,dbl(@#22h)
0166e8: ed4cbf           MOV dbl(@#26h),XAR3
0166eb: a963             MOV *AR3+,AR1
0166ed: eb4cb5           MOV XAR3,dbl(@#26h)
0166f0: ed50bf           MOV dbl(@#28h),XAR3
0166f3: 1490b2           ASUB AR1,AR3
0166f6: a961             MOV *AR3,AR1
0166f8: c948             MOV AR1,@#24h
0166fa: df4805           MOV uns(@#24h),AC0
0166fd: ed3c00           ADD dbl(@#1eh),AC0,AC0
016700: eb3c08           MOV AC0,dbl(@#1eh)
016703: df4805           MOV uns(@#24h),AC0
016706: ed4000           ADD dbl(@#20h),AC0,AC0
016709: eb4008           MOV AC0,dbl(@#20h)
01670c: df4805           MOV uns(@#24h),AC0
01670f: ed4400           ADD dbl(@#22h),AC0,AC0
016712: eb4408           MOV AC0,dbl(@#22h)
016715: ed4cbf           MOV dbl(@#26h),XAR3
016718: a963             MOV *AR3+,AR1
01671a: eb4cb5           MOV XAR3,dbl(@#26h)
01671d: ed50bf           MOV dbl(@#28h),XAR3
016720: 1490b2           ASUB AR1,AR3
016723: a961             MOV *AR3,AR1
016725: c948             MOV AR1,@#24h
016727: df4805           MOV uns(@#24h),AC0
01672a: ed4000           ADD dbl(@#20h),AC0,AC0
01672d: eb4008           MOV AC0,dbl(@#20h)
016730: ed4cbf           MOV dbl(@#26h),XAR3
016733: a961             MOV *AR3,AR1
016735: ed50bf           MOV dbl(@#28h),XAR3
016738: 1490b2           ASUB AR1,AR3
01673b: a961             MOV *AR3,AR1
01673d: c948             MOV AR1,@#24h
01673f: df4805           MOV uns(@#24h),AC0
016742: ed3c00           ADD dbl(@#1eh),AC0,AC0
016745: eb3c08           MOV AC0,dbl(@#1eh)
016748: df4805           MOV uns(@#24h),AC0
01674b: ed4000           ADD dbl(@#20h),AC0,AC0
01674e: eb4008           MOV AC0,dbl(@#20h)
016751: df4805           MOV uns(@#24h),AC0
016754: ed4404           SUB AC0,dbl(@#22h),AC0
016757: eb4408           MOV AC0,dbl(@#22h)
01675a: ed4cbf           MOV dbl(@#26h),XAR3
01675d: ed1408           MOV dbl(@#0ah),AC0
016760: 4220             SUB #2,AC0
016762: 2209             MOV AC0,AR1
016764: 8e4cbb10b590     MOV XAR3,dbl(@#26h) || AADD AR1,AR3
01676a: a961             MOV *AR3,AR1
01676c: ed50bf           MOV dbl(@#28h),XAR3
01676f: 1490b2           ASUB AR1,AR3
016772: a961             MOV *AR3,AR1
016774: c948             MOV AR1,@#24h
016776: df4805           MOV uns(@#24h),AC0
016779: ed3c00           ADD dbl(@#1eh),AC0,AC0
01677c: eb3c08           MOV AC0,dbl(@#1eh)
01677f: ed4cbf           MOV dbl(@#26h),XAR3
016782: 8e4cbb14b502     MOV XAR3,dbl(@#26h) || AADD #2,AR3
016788: a961             MOV *AR3,AR1
01678a: ed50bf           MOV dbl(@#28h),XAR3
01678d: 1490b2           ASUB AR1,AR3
016790: a961             MOV *AR3,AR1
016792: c948             MOV AR1,@#24h
016794: df4805           MOV uns(@#24h),AC0
016797: ed3c00           ADD dbl(@#1eh),AC0,AC0
01679a: eb3c08           MOV AC0,dbl(@#1eh)
01679d: ed4cbf           MOV dbl(@#26h),XAR3
0167a0: ed1408           MOV dbl(@#0ah),AC0
0167a3: 4220             SUB #2,AC0
0167a5: 2209             MOV AC0,AR1
0167a7: 8e4cbb10b590     MOV XAR3,dbl(@#26h) || AADD AR1,AR3
0167ad: a963             MOV *AR3+,AR1
0167af: eb4cb5           MOV XAR3,dbl(@#26h)
0167b2: ed50bf           MOV dbl(@#28h),XAR3
0167b5: 1490b2           ASUB AR1,AR3
0167b8: a961             MOV *AR3,AR1
0167ba: c948             MOV AR1,@#24h
0167bc: df4805           MOV uns(@#24h),AC0
0167bf: ed3c00           ADD dbl(@#1eh),AC0,AC0
0167c2: eb3c08           MOV AC0,dbl(@#1eh)
0167c5: df4805           MOV uns(@#24h),AC0
0167c8: ed4000           ADD dbl(@#20h),AC0,AC0
0167cb: eb4008           MOV AC0,dbl(@#20h)
0167ce: df4805           MOV uns(@#24h),AC0
0167d1: ed4404           SUB AC0,dbl(@#22h),AC0
0167d4: eb4408           MOV AC0,dbl(@#22h)
0167d7: ed4cbf           MOV dbl(@#26h),XAR3
0167da: a963             MOV *AR3+,AR1
0167dc: eb4cb5           MOV XAR3,dbl(@#26h)
0167df: ed50bf           MOV dbl(@#28h),XAR3
0167e2: 1490b2           ASUB AR1,AR3
0167e5: a961             MOV *AR3,AR1
0167e7: c948             MOV AR1,@#24h
0167e9: df4805           MOV uns(@#24h),AC0
0167ec: ed4000           ADD dbl(@#20h),AC0,AC0
0167ef: eb4008           MOV AC0,dbl(@#20h)
0167f2: ed4cbf           MOV dbl(@#26h),XAR3
0167f5: a961             MOV *AR3,AR1
0167f7: ed50bf           MOV dbl(@#28h),XAR3
0167fa: 1490b2           ASUB AR1,AR3
0167fd: a961             MOV *AR3,AR1
0167ff: c948             MOV AR1,@#24h
016801: df4805           MOV uns(@#24h),AC0
016804: ed3c00           ADD dbl(@#1eh),AC0,AC0
016807: eb3c08           MOV AC0,dbl(@#1eh)
01680a: df4805           MOV uns(@#24h),AC0
01680d: ed4000           ADD dbl(@#20h),AC0,AC0
016810: eb4008           MOV AC0,dbl(@#20h)
016813: df4805           MOV uns(@#24h),AC0
016816: ed4400           ADD dbl(@#22h),AC0,AC0
016819: eb4408           MOV AC0,dbl(@#22h)
01681c: ed4008           MOV dbl(@#20h),AC0
01681f: 6790             BCC $C$DW$L$_susan_edges_small$32$E,AC0 != #0
016821: 6c0199eb         CALL _coverage_log
016825:               $C$DW$L$_susan_edges_small$31$E:
016825:               $C$DW$L$_susan_edges_small$32$B:
016825: ed3108016acc     MOV dbl(*(#016acch)),AC0
01682b: eb1c08           MOV AC0,dbl(@#0eh)
01682e: 4a22             B $C$DW$L$_susan_edges_small$33$E
016830:               $C$DW$L$_susan_edges_small$32$E:
016830:               $C$L54:
016830: 6c0199eb         CALL _coverage_log
016834:               $C$DW$L$_susan_edges_small$33$B:
016834: ed3c08           MOV dbl(@#1eh),AC0
016837: 6c019e2d         CALL __fltlid
01683b: eb5408           MOV AC0,dbl(@#2ah)
01683e: ed4008           MOV dbl(@#20h),AC0
016841: 6c019e2d         CALL __fltlid
016845: ed5408_1b0010    MOV dbl(@#2ah),AC0 || OR #0,AC0,AC1
01684b: 6c018454         CALL __divd
01684f: eb1c08           MOV AC0,dbl(@#0eh)
016852:               $C$DW$L$_susan_edges_small$33$E:
016852:               $C$L55:
016852: 6c0199eb         CALL _coverage_log
016856:               $C$DW$L$_susan_edges_small$34$B:
016856: ed3118016ad0     MOV dbl(*(#016ad0h)),AC1
01685c: 6c019262         CALL __cmpd
016860: 045411           BCC $C$DW$L$_susan_edges_small$35$E,T0 >= #0
016863: 6c0199eb         CALL _coverage_log
016867:               $C$DW$L$_susan_edges_small$34$E:
016867:               $C$DW$L$_susan_edges_small$35$B:
016867: 3c00             MOV #0,AC0
016869: eb3408           MOV AC0,dbl(@#1ah)
01686c: 3c10             MOV #1,AC0
01686e: eb3808           MOV AC0,dbl(@#1ch)
016871: 06004a           B $C$DW$L$_susan_edges_small$40$E
016874:               $C$DW$L$_susan_edges_small$35$E:
016874:               $C$L56:
016874: 6c0199eb         CALL _coverage_log
016878:               $C$DW$L$_susan_edges_small$36$B:
016878: ed1c08           MOV dbl(@#0eh),AC0
01687b: ed3118016ad2     MOV dbl(*(#016ad2h)),AC1
016881: 6c019262         CALL __cmpd
016885: 043410           BCC $C$DW$L$_susan_edges_small$37$E,T0 <= #0
016888: 6c0199eb         CALL _coverage_log
01688c:               $C$DW$L$_susan_edges_small$36$E:
01688c:               $C$DW$L$_susan_edges_small$37$B:
01688c: 3c10             MOV #1,AC0
01688e: eb3408           MOV AC0,dbl(@#1ah)
016891: 3c00             MOV #0,AC0
016893: eb3808           MOV AC0,dbl(@#1ch)
016896: 4a26             B $C$DW$L$_susan_edges_small$40$E
016898:               $C$DW$L$_susan_edges_small$37$E:
016898:               $C$L57:
016898: 6c0199eb         CALL _coverage_log
01689c:               $C$DW$L$_susan_edges_small$38$B:
01689c: ed4408           MOV dbl(@#22h),AC0
01689f: 043010           BCC $C$DW$L$_susan_edges_small$39$E,AC0 <= #0
0168a2: 6c0199eb         CALL _coverage_log
0168a6:               $C$DW$L$_susan_edges_small$38$E:
0168a6:               $C$DW$L$_susan_edges_small$39$B:
0168a6: 3e10             MOV #-1,AC0
0168a8: eb3408           MOV AC0,dbl(@#1ah)
0168ab: 3c10             MOV #1,AC0
0168ad: eb3808           MOV AC0,dbl(@#1ch)
0168b0: 4a0c             B $C$DW$L$_susan_edges_small$40$E
0168b2:               $C$DW$L$_susan_edges_small$39$E:
0168b2:               $C$L58:
0168b2: 6c0199eb         CALL _coverage_log
0168b6:               $C$DW$L$_susan_edges_small$40$B:
0168b6: 3c10             MOV #1,AC0
0168b8: eb3408           MOV AC0,dbl(@#1ah)
0168bb: eb3808           MOV AC0,dbl(@#1ch)
0168be:               $C$DW$L$_susan_edges_small$40$E:
0168be:               $C$L59:
0168be: 6c0199eb         CALL _coverage_log
0168c2:               $C$DW$L$_susan_edges_small$41$B:
0168c2: ed3408           MOV dbl(@#1ah),AC0
0168c5: ed1418           MOV dbl(@#0ah),AC1
0168c8: ed2400           ADD dbl(@#12h),AC0,AC0
0168cb: 6c01a1a0         CALL I$$LMPY
0168cf: ed04bf           MOV dbl(@#02h),XAR3
0168d2: ed2800           ADD dbl(@#14h),AC0,AC0
0168d5: ed3800           ADD dbl(@#1ch),AC0,AC0
0168d8: 2204             MOV AC0,T0
0168da: 5040             SFTL T0,#1
0168dc: ed2c18           MOV dbl(@#16h),AC1
0168df: ed6b08           MOV dbl(*AR3(AR0)),AC0
0168e2: 120810           CMP AC0 >= AC1, TC1
0168e5: 046443           BCC $C$DW$L$_susan_edges_small$43$E,TC1
0168e8: 6c0199eb         CALL _coverage_log
0168ec:               $C$DW$L$_susan_edges_small$41$E:
0168ec:               $C$DW$L$_susan_edges_small$42$B:
0168ec: ed3408           MOV dbl(@#1ah),AC0
0168ef: ed1418           MOV dbl(@#0ah),AC1
0168f2: ed2404           SUB AC0,dbl(@#12h),AC0
0168f5: 6c01a1a0         CALL I$$LMPY
0168f9: ed04bf           MOV dbl(@#02h),XAR3
0168fc: ed2800           ADD dbl(@#14h),AC0,AC0
0168ff: ed3802           SUB dbl(@#1ch),AC0,AC0
016902: 2204             MOV AC0,T0
016904: 5040             SFTL T0,#1
016906: ed2c18           MOV dbl(@#16h),AC1
016909: ed6b08           MOV dbl(*AR3(AR0)),AC0
01690c: 121400           CMP AC1 < AC0, TC1
01690f: 046419           BCC $C$DW$L$_susan_edges_small$43$E,TC1
016912: 6c0199eb         CALL _coverage_log
016916:               $C$DW$L$_susan_edges_small$42$E:
016916:               $C$DW$L$_susan_edges_small$43$B:
016916: ed2408           MOV dbl(@#12h),AC0
016919: ed1418           MOV dbl(@#0ah),AC1
01691c: 6c01a1a0         CALL I$$LMPY
016920: ed08bf           MOV dbl(@#04h),XAR3
016923: ed2800           ADD dbl(@#14h),AC0,AC0
016926: 2204             MOV AC0,T0
016928: e66b02           MOV #2,*AR3(AR0)
01692b:               $C$DW$L$_susan_edges_small$43$E:
01692b:               $C$L60:
01692b: 6c0199eb         CALL _coverage_log
01692f:               $C$DW$L$_susan_edges_small$44$B:
01692f: ed2808           MOV dbl(@#14h),AC0
016932: 4010             ADD #1,AC0
016934: eb2808           MOV AC0,dbl(@#14h)
016937: ed1408           MOV dbl(@#0ah),AC0
01693a: ed2818_4320      MOV dbl(@#14h),AC1 || SUB #2,AC0
01693f: 121400           CMP AC1 < AC0, TC1
016942: 6d64fa17         BCC $C$DW$L$_susan_edges_small$8$E,TC1
016946: 6c0199eb         CALL _coverage_log
01694a:               $C$DW$L$_susan_edges_small$44$E:
01694a:               $C$L61:
01694a: 6c0199eb         CALL _coverage_log
01694e:               $C$DW$L$_susan_edges_small$45$B:
01694e: ed2408           MOV dbl(@#12h),AC0
016951: 4010             ADD #1,AC0
016953: eb2408           MOV AC0,dbl(@#12h)
016956: ed1808           MOV dbl(@#0ch),AC0
016959: ed2418_4320      MOV dbl(@#12h),AC1 || SUB #2,AC0
01695e: 121400           CMP AC1 < AC0, TC1
016961: 6d64f9dc         BCC $C$L41,TC1
016965: 6c0199eb         CALL _coverage_log
016969:               $C$L62:
016969:               $C$DW$L$_susan_edges_small$45$E:
016969: 6c0199eb         CALL _coverage_log
01696d: 4e2d             AADD #45,SP
01696f: 4804             RET
016971:               _susan_edges:
016971: 6c0199eb         CALL _coverage_log
016975: 4ee9             AADD #-23,SP
016977: eb0085           MOV XAR0,dbl(@#00h)
01697a: 76001408         MOV #20,AC0
01697e: eb0808           MOV AC0,dbl(@#04h)
016981: 760a5a08         MOV #2650,AC0
016985: eb0c08           MOV AC0,dbl(@#06h)
016988: 3e10             MOV #-1,AC0
01698a: eb1008           MOV AC0,dbl(@#08h)
01698d: eb1408           MOV AC0,dbl(@#0ah)
016990: e61800           MOV #0,@#0ch
016993: ec109e           AMAR @#08h,XAR1
016996: ec14ae           AMAR @#0ah,XAR2
016999: ec008e           AMAR @#00h,XAR0
01699c: 08f18a           CALL _get_image
01699f: c418             MOV T0,@#0ch
0169a1: 2249             MOV T0,AR1
0169a3: 64d9             BCC $C$L63,AR1 >= #0
0169a5: 6c0199eb         CALL _coverage_log
0169a9: 3e14             MOV #-1,T0
0169ab: 060112           B $C$L69
0169ae:               $C$L63:
0169ae: 6c0199eb         CALL _coverage_log
0169b2: ed00bf           MOV dbl(@#00h),XAR3
0169b5: df6193           MOV uns(low_byte(*AR3)),AR1
0169b8: c91c             MOV AR1,@#0eh
0169ba: ec048e           AMAR @#02h,XAR0
0169bd: ed0808           MOV dbl(@#04h),AC0
0169c0: 08f2fd_3d61      CALL _setup_brightness_lut || MOV #6,AC1
0169c5: ed1408           MOV dbl(@#0ah),AC0
0169c8: ed1010           ADD dbl(@#08h),AC0,AC1
0169cb: 101721           SFTL AC1,#-31,AC0
0169ce: 2410             ADD AC1,AC0
0169d0: 4440             SFTS AC0,#-1
0169d2: c01a             MOV AC0,@#0dh
0169d4: 760055a8         MOV #85,AR2
0169d8: a91c             MOV @#0eh,AR1
0169da: 1298a4           CMPU AR1 >= AR2, TC1
0169dd: 04641f           BCC $C$L64,TC1
0169e0: 6c0199eb         CALL _coverage_log
0169e4: ed008f           MOV dbl(@#00h),XAR0
0169e7: ed049f           MOV dbl(@#02h),XAR1
0169ea: ed0c08           MOV dbl(@#06h),AC0
0169ed: ed1018           MOV dbl(@#08h),AC1
0169f0: ed1428           MOV dbl(@#0ah),AC2
0169f3: ec31ae010204     AMAR *(#010204h),XAR2
0169f9: 08f550           CALL _susan_principle_small
0169fc: 060045           B $C$L66
0169ff:               $C$L64:
0169ff: 6c0199eb         CALL _coverage_log
016a03: 7600aaa8         MOV #170,AR2
016a07: 1298a4           CMPU AR1 >= AR2, TC1
016a0a: 046421           BCC $C$L65,TC1
016a0d: 6c0199eb         CALL _coverage_log
016a11: ed008f           MOV dbl(@#00h),XAR0
016a14: ec1aae           AMAR @#0dh,XAR2
016a17: ed04bf           MOV dbl(@#02h),XAR3
016a1a: ed0c08           MOV dbl(@#06h),AC0
016a1d: ed1018           MOV dbl(@#08h),AC1
016a20: ed1428           MOV dbl(@#0ah),AC2
016a23: ec319e010204     AMAR *(#010204h),XAR1
016a29: 08f70f           CALL _susan_edges_small
016a2c: 4a16             B $C$L66
016a2e:               $C$L65:
016a2e: 6c0199eb         CALL _coverage_log
016a32: 180129           AND #1,AR1,AC2
016a35: ed008f           MOV dbl(@#00h),XAR0
016a38: ed1008           MOV dbl(@#08h),AC0
016a3b: ed1418           MOV dbl(@#0ah),AC1
016a3e: ec1a9e           AMAR @#0dh,XAR1
016a41: 08f362           CALL _edge_draw
016a44:               $C$L66:
016a44: 6c0199eb         CALL _coverage_log
016a48: ed1008           MOV dbl(@#08h),AC0
016a4b: ed1418           MOV dbl(@#0ah),AC1
016a4e: 6c01a1a0         CALL I$$LMPY
016a52: ec318e010204     AMAR *(#010204h),XAR0
016a58: ed009f           MOV dbl(@#00h),XAR1
016a5b: 08f164           CALL _int_to_uchar
016a5e: 3c00             MOV #0,AC0
016a60: eb2408           MOV AC0,dbl(@#12h)
016a63: eb2808           MOV AC0,dbl(@#14h)
016a66: ed1008           MOV dbl(@#08h),AC0
016a69: ed1418           MOV dbl(@#0ah),AC1
016a6c: 6c01a1a0         CALL I$$LMPY
016a70: ed2818           MOV dbl(@#14h),AC1
016a73: 121800           CMP AC1 >= AC0, TC1
016a76: 046435           BCC $C$DW$L$_susan_edges$9$E,TC1
016a79: 6c0199eb         CALL _coverage_log
016a7d:               $C$L67:
016a7d: 6c0199eb         CALL _coverage_log
016a81:               $C$DW$L$_susan_edges$9$B:
016a81: a42a             MOV @#15h,T0
016a83: ed00bf           MOV dbl(@#00h),XAR3
016a86: df6b05           MOV uns(*AR3(AR0)),AC0
016a89: ed2400           ADD dbl(@#12h),AC0,AC0
016a8c: eb2408           MOV AC0,dbl(@#12h)
016a8f: ed2808           MOV dbl(@#14h),AC0
016a92: 4010             ADD #1,AC0
016a94: eb2808           MOV AC0,dbl(@#14h)
016a97: ed1418           MOV dbl(@#0ah),AC1
016a9a: ed1008           MOV dbl(@#08h),AC0
016a9d: 6c01a1a0         CALL I$$LMPY
016aa1: ed2818           MOV dbl(@#14h),AC1
016aa4: 121400           CMP AC1 < AC0, TC1
016aa7: 0464d3           BCC $C$L67,TC1
016aaa: 6c0199eb         CALL _coverage_log
016aae:               $C$DW$L$_susan_edges$9$E:
016aae:               $C$L68:
016aae: 6c0199eb         CALL _coverage_log
016ab2: ed2408           MOV dbl(@#12h),AC0
016ab5: eb2008           MOV AC0,dbl(@#10h)
016ab8: 20               NOP
016ab9: 20               NOP
016aba: 20               NOP
016abb: ed2008           MOV dbl(@#10h),AC0
016abe: 3c04             MOV #0,T0
016ac0:               $C$L69:
016ac0: 6c0199eb         CALL _coverage_log
016ac4: 4e17             AADD #23,SP
016ac6: 4804             RET
016ac8:               .const:
016ac8:               $C$FL1:
016ac8: 42c8             SUB #12,AR0
016aca: 00003e           RPTCC #62, AC0 == #0
016acd: cccc                MOV AR4,@#66h
016acf: cd49             MOV AR5,*(AR2-AR0)
016ad1: 74240000         XOR #9216 << #0,AC0,AC0
016ad5: 000000_3f00      RPTCC #0, AC0 == #0 || MOV #-0,AC0
016ada: 000040              RPTCC #64, AC0 == #0
016add: 000000              RPTCC #0, AC0 == #0
016ae0: 20                  NOP
016ae1: 20               NOP
