
Disassembly of DSPFuzz.out:

DATA section .cinit, 0x77 words load/run at 0x9B8C
009b8c:               ___cinit__:
009b8c:               cinit:
009b8c:               .cinit:
009b8c: 0001             .word 0x0001
009b8d: 012e             .word 0x012e
009b8e: a600             .word 0xa600
009b8f: 0000             .word 0x0000
009b90: 0001             .word 0x0001
009b91: 012e             .word 0x012e
009b92: a700             .word 0xa700
009b93: 0000             .word 0x0000
009b94: 0002             .word 0x0002
009b95: 012e             .word 0x012e
009b96: aa00             .word 0xaa00
009b97: 0000             .word 0x0000
009b98: 0000             .word 0x0000
009b99: 0001             .word 0x0001
009b9a: 0130             .word 0x0130
009b9b: 3c00             .word 0x3c00
009b9c: 0000             .word 0x0000
009b9d: 0002             .word 0x0002
009b9e: 0130             .word 0x0130
009b9f: 3e00             .word 0x3e00
009ba0: 0000             .word 0x0000
009ba1: 0000             .word 0x0000
009ba2: 0001             .word 0x0001
009ba3: 0130             .word 0x0130
009ba4: 3d00             .word 0x3d00
009ba5: 0000             .word 0x0000
009ba6: 0001             .word 0x0001
009ba7: 0130             .word 0x0130
009ba8: 4000             .word 0x4000
009ba9: 0004             .word 0x0004
009baa: 0001             .word 0x0001
009bab: 0130             .word 0x0130
009bac: 4100             .word 0x4100
009bad: 0000             .word 0x0000
009bae: 0001             .word 0x0001
009baf: 0130             .word 0x0130
009bb0: 5200             .word 0x5200
009bb1: 0000             .word 0x0000
009bb2: 0001             .word 0x0001
009bb3: 0130             .word 0x0130
009bb4: 5300             .word 0x5300
009bb5: 0000             .word 0x0000
009bb6: 0001             .word 0x0001
009bb7: 0130             .word 0x0130
009bb8: 5400             .word 0x5400
009bb9: 0000             .word 0x0000
009bba: 0001             .word 0x0001
009bbb: 0130             .word 0x0130
009bbc: 5500             .word 0x5500
009bbd: 0000             .word 0x0000
009bbe: 0001             .word 0x0001
009bbf: 0130             .word 0x0130
009bc0: 5600             .word 0x5600
009bc1: 0001             .word 0x0001
009bc2: 0001             .word 0x0001
009bc3: 0130             .word 0x0130
009bc4: 5700             .word 0x5700
009bc5: 02ee             .word 0x02ee
009bc6: 0002             .word 0x0002
009bc7: 0130             .word 0x0130
009bc8: 5800             .word 0x5800
009bc9: 0000             .word 0x0000
009bca: 0000             .word 0x0000
009bcb: 0002             .word 0x0002
009bcc: 0130             .word 0x0130
009bcd: 5c00             .word 0x5c00
009bce: 0000             .word 0x0000
009bcf: 0000             .word 0x0000
009bd0:               .cinit:
009bd0: 000e             .word 0x000e
009bd1: 0131             .word 0x0131
009bd2: b200             .word 0xb200
009bd3: 3914             .word 0x3914
009bd4: 2e40             .word 0x2e40
009bd5: 3aae             .word 0x3aae
009bd6: 4f6f             .word 0x4f6f
009bd7: 3c08             .word 0x3c08
009bd8: 026d             .word 0x026d
009bd9: 3d2a             .word 0x3d2a
009bda: a0e5             .word 0xa0e5
009bdb: 3e2a             .word 0x3e2a
009bdc: aa4f             .word 0xaa4f
009bdd: 3eff             .word 0x3eff
009bde: fffd             .word 0xfffd
009bdf: 3f80             .word 0x3f80
009be0: 0000             .word 0x0000
009be1:               .cinit:
009be1: 0002             .word 0x0002
009be2: 0131             .word 0x0131
009be3: c600             .word 0xc600
009be4: 0001             .word 0x0001
009be5: 36df             .word 0x36df
009be6: 0002             .word 0x0002
009be7: 0131             .word 0x0131
009be8: c800             .word 0xc800
009be9: 0001             .word 0x0001
009bea: 36df             .word 0x36df
009beb:               .cinit:
009beb: 0002             .word 0x0002
009bec: 0131             .word 0x0131
009bed: ca00             .word 0xca00
009bee: 0000             .word 0x0000
009bef: 0000             .word 0x0000
009bf0: 0002             .word 0x0002
009bf1: 0131             .word 0x0131
009bf2: cc00             .word 0xcc00
009bf3: 0000             .word 0x0000
009bf4: 0000             .word 0x0000
009bf5:               .cinit:
009bf5: 0002             .word 0x0002
009bf6: 0131             .word 0x0131
009bf7: ce00             .word 0xce00
009bf8: 0000             .word 0x0000
009bf9: 0001             .word 0x0001
009bfa:               .cinit:
009bfa: 0001             .word 0x0001
009bfb: 0131             .word 0x0131
009bfc: d000             .word 0xd000
009bfd: 0000             .word 0x0000
009bfe:               .cinit:
009bfe: 0001             .word 0x0001
009bff: 0131             .word 0x0131
009c00: c500             .word 0xc500
009c01: 0001             .word 0x0001
009c02: 0000             .word 0x0000

TEXT section .text, 0x3718 bytes load/run at 0x10000
010000:               _crash_void:
010000:               $C$L2:
010000:               $C$DW$L$_crash_void$2$B:
010000: 4a7e             B _crash_void
010002:               _start_timer:
010002:               $C$DW$L$_crash_void$2$E:
010002: 4ef5             AADD #-11,SP
010004: eb0085           MOV XAR0,dbl(@#00h)
010007: ec049e           AMAR @#02h,XAR1
01000a: ec108e           AMAR @#08h,XAR0
01000d: 6c0120a7_3d04    CALL _GPT_open || MOV #0,T0
010013: ed00bf           MOV dbl(@#00h),XAR3
010016: eb6185           MOV XAR0,dbl(*AR3)
010019: ed00bf           MOV dbl(@#00h),XAR3
01001c: ed618f           MOV dbl(*AR3),XAR0
01001f: 6c01216a         CALL _GPT_reset
010023: c404             MOV T0,@#02h
010025: 6c01108a         CALL _IRQ_clearAll
010029: 6c011225         CALL _IRQ_disableAll
01002d: 7a00000a         MOV #0 << #16,AC0
010031: 7e070000         OR #1792,AC0,AC0
010035: 6c0113ce         CALL _IRQ_setVecs
010039: 76001848         MOV #24,T0
01003d: 7a00010a         MOV #1 << #16,AC0
010041: 7e1e8100         OR #7809,AC0,AC0
010045: 6c012fa2         CALL _IRQ_plug
010049: 7a00010a         MOV #1 << #16,AC0
01004d: 7e1d3800         OR #7480,AC0,AC0
010051: 6c012fa2_3d44    CALL _IRQ_plug || MOV #4,T0
010057: 76001948         MOV #25,T0
01005b: 6c011233         CALL _IRQ_enable
01005f: 76001848         MOV #24,T0
010063: 6c011233         CALL _IRQ_enable
010067: 6c011233_3d44    CALL _IRQ_enable || MOV #4,T0
01006d: e60601           MOV #1,@#03h
010070: e60a01           MOV #1,@#05h
010073: e60800           MOV #0,@#04h
010076: ed310801305a     MOV dbl(*(#01305ah)),AC0
01007c: 10073e           SFTL AC0,#-2,AC0
01007f: c00c             MOV AC0,@#06h
010081: e60e00           MOV #0,@#07h
010084: ed00bf           MOV dbl(@#00h),XAR3
010087: ec069e           AMAR @#03h,XAR1
01008a: ed618f           MOV dbl(*AR3),XAR0
01008d: 6c0122eb         CALL _GPT_config
010091: c404             MOV T0,@#02h
010093: 6c01148a         CALL _IRQ_globalEnable
010097: ed00bf           MOV dbl(@#00h),XAR3
01009a: ed618f           MOV dbl(*AR3),XAR0
01009d: 6c012259         CALL _GPT_start
0100a1: 4e0b             AADD #11,SP
0100a3: 4804             RET
0100a5:               _stop_timer:
0100a5: 4efd             AADD #-3,SP
0100a7: eb0085           MOV XAR0,dbl(@#00h)
0100aa: 6c011471         CALL _IRQ_globalDisable
0100ae: 6c01108a         CALL _IRQ_clearAll
0100b2: 6c011225         CALL _IRQ_disableAll
0100b6: ed00bf           MOV dbl(@#00h),XAR3
0100b9: ed618f           MOV dbl(*AR3),XAR0
0100bc: 6c012286         CALL _GPT_stop
0100c0: c404             MOV T0,@#02h
0100c2: ed00bf           MOV dbl(@#00h),XAR3
0100c5: ed618f           MOV dbl(*AR3),XAR0
0100c8: 6c01216a         CALL _GPT_reset
0100cc: c404             MOV T0,@#02h
0100ce: 4e03             AADD #3,SP
0100d0: 4804             RET
0100d2:               _setup:
0100d2: 4efd             AADD #-3,SP
0100d4: eb0085           MOV XAR0,dbl(@#00h)
0100d7: 7602ee48         MOV #750,T0
0100db: 6c011946_3d15    CALL _calloc || MOV #1,T1
0100e1: eb3185012ea8     MOV XAR0,dbl(*(#012ea8h))
0100e7: ed31bf012ea8     MOV dbl(*(#012ea8h)),XAR3
0100ed: 90b0             MOV XAR3,AC0
0100ef: 6310             BCC $C$L3,AC0 != #0
0100f1: 6c013574_3f14    CALL _exit || MOV #-1,T0
0100f7:               $C$L3:
0100f7: ec318e012eaa     AMAR *(#012eaah),XAR0
0100fd: 76019058         MOV #400,T1
010101: 6c0136e1_3d04    CALL _memset || MOV #0,T0
010107: 760ea658         MOV #3750,T1
01010b: ec318e012000     AMAR *(#012000h),XAR0
010111: 6c0136e1_3d04    CALL _memset || MOV #0,T0
010117: ec31be012eaa     AMAR *(#012eaah),XAR3
01011d: eb31b501303a     MOV XAR3,dbl(*(#01303ah))
010123: ed00bf           MOV dbl(@#00h),XAR3
010126: eb31b501303e     MOV XAR3,dbl(*(#01303eh))
01012c: 7a00010a         MOV #1 << #16,AC0
010130: 7e2eaa00         OR #11946,AC0,AC0
010134: 6210             BCC $C$L4,AC0 != #0
010136: 3e14             MOV #-1,T0
010138: 4a02             B $C$L5
01013a:               $C$L4:
01013a: 3c04             MOV #0,T0
01013c:               $C$L5:
01013c: 4e03             AADD #3,SP
01013e: 4804             RET
010140:               _mutator:
010140: 4ef7             AADD #-9,SP
010142: ec318e000000     AMAR *(#00000h),XAR0
010148: 6c013691         CALL _time
01014c: c004             MOV AC0,@#02h
01014e: 6c0133b0_2304    CALL _srand || MOV AC0,T0
010154: a931013057       MOV *(#013057h),AR1
010159: 6319             BCC $C$L6,AR1 != #0
01015b: 6c013574_3f34    CALL _exit || MOV #-3,T0
010161:               $C$L6:
010161: 7600c0a8         MOV #192,AR2
010165: a931013052       MOV *(#013052h),AR1
01016a: 1298a4           CMPU AR1 >= AR2, TC1
01016d: 6664             BCC $C$L7,TC1
01016f: 3c1a             MOV #1,AR2
010171: a931013056       MOV *(#013056h),AR1
010176: 12a894           CMPU AR2 >= AR1, TC1
010179: 64e4             BCC $C$L8,TC1
01017b:               $C$L7:
01017b: e63108013055     MOV #8,*(#013055h)
010181: 060082           B $C$L16
010184:               $C$L8:
010184: 3c2a             MOV #2,AR2
010186: a931013052       MOV *(#013052h),AR1
01018b: 1298a4           CMPU AR1 >= AR2, TC1
01018e: 64e4             BCC $C$L9,TC1
010190: e63100013055     MOV #0,*(#013055h)
010196: 06006d           B $C$L16
010199:               $C$L9:
010199: 3c4a             MOV #4,AR2
01019b: 1298a4           CMPU AR1 >= AR2, TC1
01019e: 64e4             BCC $C$L10,TC1
0101a0: e63101013055     MOV #1,*(#013055h)
0101a6: 06005d           B $C$L16
0101a9:               $C$L10:
0101a9: 3c6a             MOV #6,AR2
0101ab: 1298a4           CMPU AR1 >= AR2, TC1
0101ae: 64e4             BCC $C$L11,TC1
0101b0: e63102013055     MOV #2,*(#013055h)
0101b6: 06004d           B $C$L16
0101b9:               $C$L11:
0101b9: 3c8a             MOV #8,AR2
0101bb: 1298a4           CMPU AR1 >= AR2, TC1
0101be: 6464             BCC $C$L12,TC1
0101c0: e63103013055     MOV #3,*(#013055h)
0101c6: 4a3e             B $C$L16
0101c8:               $C$L12:
0101c8: 3caa             MOV #10,AR2
0101ca: 1298a4           CMPU AR1 >= AR2, TC1
0101cd: 6464             BCC $C$L13,TC1
0101cf: e63104013055     MOV #4,*(#013055h)
0101d5: 4a2f             B $C$L16
0101d7:               $C$L13:
0101d7: 3cca             MOV #12,AR2
0101d9: 1298a4           CMPU AR1 >= AR2, TC1
0101dc: 6464             BCC $C$L14,TC1
0101de: e63105013055     MOV #5,*(#013055h)
0101e4: 4a20             B $C$L16
0101e6:               $C$L14:
0101e6: 760052a8         MOV #82,AR2
0101ea: 1298a4           CMPU AR1 >= AR2, TC1
0101ed: 6464             BCC $C$L15,TC1
0101ef: e63106013055     MOV #6,*(#013055h)
0101f5: 4a0f             B $C$L16
0101f7:               $C$L15:
0101f7: 760098a8         MOV #152,AR2
0101fb: 1298a4           CMPU AR1 >= AR2, TC1
0101fe: 6364             BCC $C$L16,TC1
010200: e63107013055     MOV #7,*(#013055h)
010206:               $C$L16:
010206: 3c2a             MOV #2,AR2
010208: a931013056       MOV *(#013056h),AR1
01020d: 12a894           CMPU AR2 >= AR1, TC1
010210: 046424           BCC $C$L17,TC1
010213: a431013057       MOV *(#013057h),T0
010218: a531013056       MOV *(#013056h),T1
01021d: 6c01364c         CALL I$$UDIV
010221: 2245             MOV T0,T1
010223: a431013057       MOV *(#013057h),T0
010228: 6c01364c         CALL I$$UDIV
01022c: c40e             MOV T0,@#07h
01022e: 2249             MOV T0,AR1
010230: 6419             BCC $C$L18,AR1 != #0
010232: e60e01           MOV #1,@#07h
010235: 4a03             B $C$L18
010237:               $C$L17:
010237: e60e01           MOV #1,@#07h
01023a:               $C$L18:
01023a: a931013052       MOV *(#013052h),AR1
01023f: 180109           AND #1,AR1,AC0
010242: c00c             MOV AC0,@#06h
010244: a931013055       MOV *(#013055h),AR1
010249: 041969           BCC $C$L22,AR1 != #0
01024c: e60000           MOV #0,@#00h
01024f: a931013057       MOV *(#013057h),AR1
010254: aa00             MOV @#00h,AR2
010256: 12a894           CMPU AR2 >= AR1, TC1
010259: 6d6406b2         BCC $C$DW$L$_mutator$85$E,TC1
01025d:               $C$L19:
01025d:               $C$DW$L$_mutator$28$B:
01025d: a90c             MOV @#06h,AR1
01025f: c902             MOV AR1,@#01h
010261: 76001008         MOV #16,AC0
010265: df0c0f_239a      SUB uns(@#06h),AC0,AC0 || MOV AR1,AR2
01026a: 2209             MOV AC0,AR1
01026c: 12a894           CMPU AR2 >= AR1, TC1
01026f: 04642c           BCC $C$DW$L$_mutator$29$E,TC1
010272:               $C$DW$L$_mutator$28$E:
010272:               $C$L20:
010272:               $C$DW$L$_mutator$29$B:
010272: a400             MOV @#00h,T0
010274: ed31bf012ea8     MOV dbl(*(#012ea8h)),XAR3
01027a: a502_3d10        MOV @#01h,T1 || MOV #1,AC0
01027e: 5c05             SFTS AC0,T1,AC0
010280: db6b90           XOR *AR3(AR0),AC0,AR1
010283: c96b             MOV AR1,*AR3(AR0)
010285: f7020001         ADD #1,@#01h
010289: f7020001         ADD #1,@#01h
01028d: 76001008         MOV #16,AC0
010291: df0c0f           SUB uns(@#06h),AC0,AC0
010294: aa02_2309        MOV @#01h,AR2 || MOV AC0,AR1
010298: 12a494           CMPU AR2 < AR1, TC1
01029b: 0464d4           BCC $C$DW$L$_mutator$28$E,TC1
01029e:               $C$DW$L$_mutator$29$E:
01029e:               $C$L21:
01029e:               $C$DW$L$_mutator$30$B:
01029e: a90e             MOV @#07h,AR1
0102a0: d60099           ADD @#00h,AR1,AR1
0102a3: c900             MOV AR1,@#00h
0102a5: aa00             MOV @#00h,AR2
0102a7: a931013057       MOV *(#013057h),AR1
0102ac: 12a494           CMPU AR2 < AR1, TC1
0102af: 0464ab           BCC $C$L19,TC1
0102b2:               $C$DW$L$_mutator$30$E:
0102b2: 06065a           B $C$DW$L$_mutator$85$E
0102b5:               $C$L22:
0102b5: f0310001013055   CMP *(#013055h) == #1, TC1
0102bc: 04747e           BCC $C$L26,!TC1
0102bf: e60000           MOV #0,@#00h
0102c2: a931013057       MOV *(#013057h),AR1
0102c7: aa00             MOV @#00h,AR2
0102c9: 12a894           CMPU AR2 >= AR1, TC1
0102cc: 6d64063f         BCC $C$DW$L$_mutator$85$E,TC1
0102d0:               $C$L23:
0102d0:               $C$DW$L$_mutator$34$B:
0102d0: a90c             MOV @#06h,AR1
0102d2: c902             MOV AR1,@#01h
0102d4: 76001008         MOV #16,AC0
0102d8: df0c0f_239a      SUB uns(@#06h),AC0,AC0 || MOV AR1,AR2
0102dd: 2209             MOV AC0,AR1
0102df: 12a894           CMPU AR2 >= AR1, TC1
0102e2: 046441           BCC $C$DW$L$_mutator$35$E,TC1
0102e5:               $C$DW$L$_mutator$34$E:
0102e5:               $C$L24:
0102e5:               $C$DW$L$_mutator$35$B:
0102e5: a400             MOV @#00h,T0
0102e7: ed31bf012ea8     MOV dbl(*(#012ea8h)),XAR3
0102ed: a502_3d10        MOV @#01h,T1 || MOV #1,AC0
0102f1: 5c05             SFTS AC0,T1,AC0
0102f3: db6b90           XOR *AR3(AR0),AC0,AR1
0102f6: c96b             MOV AR1,*AR3(AR0)
0102f8: a400             MOV @#00h,T0
0102fa: ed31bf012ea8     MOV dbl(*(#012ea8h)),XAR3
010300: a502             MOV @#01h,T1
010302: 4015_3d10        ADD #1,T1 || MOV #1,AC0
010306: 5c05             SFTS AC0,T1,AC0
010308: db6b90           XOR *AR3(AR0),AC0,AR1
01030b: c96b             MOV AR1,*AR3(AR0)
01030d: f7020002         ADD #2,@#01h
010311: f7020001         ADD #1,@#01h
010315: 76001008         MOV #16,AC0
010319: df0c0f           SUB uns(@#06h),AC0,AC0
01031c: aa02_2309        MOV @#01h,AR2 || MOV AC0,AR1
010320: 12a494           CMPU AR2 < AR1, TC1
010323: 0464bf           BCC $C$DW$L$_mutator$34$E,TC1
010326:               $C$DW$L$_mutator$35$E:
010326:               $C$L25:
010326:               $C$DW$L$_mutator$36$B:
010326: a90e             MOV @#07h,AR1
010328: d60099           ADD @#00h,AR1,AR1
01032b: c900             MOV AR1,@#00h
01032d: aa00             MOV @#00h,AR2
01032f: a931013057       MOV *(#013057h),AR1
010334: 12a494           CMPU AR2 < AR1, TC1
010337: 046496           BCC $C$L23,TC1
01033a:               $C$DW$L$_mutator$36$E:
01033a: 0605d2           B $C$DW$L$_mutator$85$E
01033d:               $C$L26:
01033d: f0310002013055   CMP *(#013055h) == #2, TC1
010344: 6d7400aa         BCC $C$L30,!TC1
010348: 2209             MOV AC0,AR1
01034a: c900             MOV AR1,@#00h
01034c: 220a             MOV AC0,AR2
01034e: a931013057       MOV *(#013057h),AR1
010353: 12a894           CMPU AR2 >= AR1, TC1
010356: 6d6405b5         BCC $C$DW$L$_mutator$85$E,TC1
01035a:               $C$L27:
01035a:               $C$DW$L$_mutator$40$B:
01035a: a90c             MOV @#06h,AR1
01035c: c902             MOV AR1,@#01h
01035e: 76001008         MOV #16,AC0
010362: df0c0f_239a      SUB uns(@#06h),AC0,AC0 || MOV AR1,AR2
010367: 2209             MOV AC0,AR1
010369: 12a894           CMPU AR2 >= AR1, TC1
01036c: 04646b           BCC $C$DW$L$_mutator$41$E,TC1
01036f:               $C$DW$L$_mutator$40$E:
01036f:               $C$L28:
01036f:               $C$DW$L$_mutator$41$B:
01036f: a400             MOV @#00h,T0
010371: ed31bf012ea8     MOV dbl(*(#012ea8h)),XAR3
010377: a502_3d10        MOV @#01h,T1 || MOV #1,AC0
01037b: 5c05             SFTS AC0,T1,AC0
01037d: db6b90           XOR *AR3(AR0),AC0,AR1
010380: c96b             MOV AR1,*AR3(AR0)
010382: a400             MOV @#00h,T0
010384: ed31bf012ea8     MOV dbl(*(#012ea8h)),XAR3
01038a: a502             MOV @#01h,T1
01038c: 4015_3d10        ADD #1,T1 || MOV #1,AC0
010390: 5c05             SFTS AC0,T1,AC0
010392: db6b90           XOR *AR3(AR0),AC0,AR1
010395: c96b             MOV AR1,*AR3(AR0)
010397: a400             MOV @#00h,T0
010399: ed31bf012ea8     MOV dbl(*(#012ea8h)),XAR3
01039f: a502             MOV @#01h,T1
0103a1: 4025_3d10        ADD #2,T1 || MOV #1,AC0
0103a5: 5c05             SFTS AC0,T1,AC0
0103a7: db6b90           XOR *AR3(AR0),AC0,AR1
0103aa: c96b             MOV AR1,*AR3(AR0)
0103ac: a400             MOV @#00h,T0
0103ae: ed31bf012ea8     MOV dbl(*(#012ea8h)),XAR3
0103b4: a502             MOV @#01h,T1
0103b6: 4035_3d10        ADD #3,T1 || MOV #1,AC0
0103ba: 5c05             SFTS AC0,T1,AC0
0103bc: db6b90           XOR *AR3(AR0),AC0,AR1
0103bf: c96b             MOV AR1,*AR3(AR0)
0103c1: f7020004         ADD #4,@#01h
0103c5: f7020001         ADD #1,@#01h
0103c9: 76001008         MOV #16,AC0
0103cd: df0c0f           SUB uns(@#06h),AC0,AC0
0103d0: aa02_2309        MOV @#01h,AR2 || MOV AC0,AR1
0103d4: 12a494           CMPU AR2 < AR1, TC1
0103d7: 046495           BCC $C$DW$L$_mutator$40$E,TC1
0103da:               $C$DW$L$_mutator$41$E:
0103da:               $C$L29:
0103da:               $C$DW$L$_mutator$42$B:
0103da: a90e             MOV @#07h,AR1
0103dc: d60099           ADD @#00h,AR1,AR1
0103df: c900             MOV AR1,@#00h
0103e1: aa00             MOV @#00h,AR2
0103e3: a931013057       MOV *(#013057h),AR1
0103e8: 12a494           CMPU AR2 < AR1, TC1
0103eb: 6d64ff6b         BCC $C$L27,TC1
0103ef:               $C$DW$L$_mutator$42$E:
0103ef: 06051d           B $C$DW$L$_mutator$85$E
0103f2:               $C$L30:
0103f2: f0310003013055   CMP *(#013055h) == #3, TC1
0103f9: 047448           BCC $C$L32,!TC1
0103fc: e60000           MOV #0,@#00h
0103ff: a931013057       MOV *(#013057h),AR1
010404: aa00             MOV @#00h,AR2
010406: 12a894           CMPU AR2 >= AR1, TC1
010409: 6d640502         BCC $C$DW$L$_mutator$85$E,TC1
01040d:               $C$L31:
01040d:               $C$DW$L$_mutator$46$B:
01040d: a931013052       MOV *(#013052h),AR1
010412: a400             MOV @#00h,T0
010414: ed31bf012ea8     MOV dbl(*(#012ea8h)),XAR3
01041a: 180109           AND #1,AR1,AC0
01041d: 100703           SFTL AC0,#3,AC0
010420: 7600ff18_2305    MOV #255,AC1 || MOV AC0,T1
010426: 5c15             SFTS AC1,T1,AC0
010428: db6b90           XOR *AR3(AR0),AC0,AR1
01042b: c96b             MOV AR1,*AR3(AR0)
01042d: a90e             MOV @#07h,AR1
01042f: d60099           ADD @#00h,AR1,AR1
010432: c900             MOV AR1,@#00h
010434: aa00             MOV @#00h,AR2
010436: a931013057       MOV *(#013057h),AR1
01043b: 12a494           CMPU AR2 < AR1, TC1
01043e: 0464cc           BCC $C$L31,TC1
010441:               $C$DW$L$_mutator$46$E:
010441: 0604cb           B $C$DW$L$_mutator$85$E
010444:               $C$L32:
010444: f0310004013055   CMP *(#013055h) == #4, TC1
01044b: 047447           BCC $C$L34,!TC1
01044e: e60000           MOV #0,@#00h
010451: a931013057       MOV *(#013057h),AR1
010456: aa00             MOV @#00h,AR2
010458: 12a894           CMPU AR2 >= AR1, TC1
01045b: 6d6404b0         BCC $C$DW$L$_mutator$85$E,TC1
01045f:               $C$L33:
01045f:               $C$DW$L$_mutator$50$B:
01045f: a400             MOV @#00h,T0
010461: ed31bf012ea8     MOV dbl(*(#012ea8h)),XAR3
010467: a96b             MOV *AR3(AR0),AR1
010469: 1cff99           XOR #255,AR1,AR1
01046c: c96b             MOV AR1,*AR3(AR0)
01046e: a400             MOV @#00h,T0
010470: ed31bf012ea8     MOV dbl(*(#012ea8h)),XAR3
010476: a96b             MOV *AR3(AR0),AR1
010478: 7fff0099         XOR #65280,AR1,AR1
01047c: c96b             MOV AR1,*AR3(AR0)
01047e: a90e             MOV @#07h,AR1
010480: d60099           ADD @#00h,AR1,AR1
010483: c900             MOV AR1,@#00h
010485: aa00             MOV @#00h,AR2
010487: a931013057       MOV *(#013057h),AR1
01048c: 12a494           CMPU AR2 < AR1, TC1
01048f: 0464cd           BCC $C$L33,TC1
010492:               $C$DW$L$_mutator$50$E:
010492: 06047a           B $C$DW$L$_mutator$85$E
010495:               $C$L34:
010495: f0310005013055   CMP *(#013055h) == #5, TC1
01049c: 6d740084         BCC $C$L36,!TC1
0104a0: e60000           MOV #0,@#00h
0104a3: a931013057       MOV *(#013057h),AR1
0104a8: aa00             MOV @#00h,AR2
0104aa: 12a894           CMPU AR2 >= AR1, TC1
0104ad: 6d64045e         BCC $C$DW$L$_mutator$85$E,TC1
0104b1:               $C$L35:
0104b1:               $C$DW$L$_mutator$54$B:
0104b1: a90e             MOV @#07h,AR1
0104b3: d60ca9           ADD @#06h,AR1,AR2
0104b6: a900             MOV @#00h,AR1
0104b8: 4019             ADD #1,AR1
0104ba: 1294a4           CMPU AR1 < AR2, TC1
0104bd: 6d74044e         BCC $C$DW$L$_mutator$85$E,!TC1
0104c1:               $C$DW$L$_mutator$54$E:
0104c1:               $C$DW$L$_mutator$55$B:
0104c1: a400             MOV @#00h,T0
0104c3: ed31bf012ea8     MOV dbl(*(#012ea8h)),XAR3
0104c9: a96b             MOV *AR3(AR0),AR1
0104cb: 1cff99           XOR #255,AR1,AR1
0104ce: c96b             MOV AR1,*AR3(AR0)
0104d0: a400             MOV @#00h,T0
0104d2: ed31bf012ea8     MOV dbl(*(#012ea8h)),XAR3
0104d8: a96b             MOV *AR3(AR0),AR1
0104da: 7fff0099         XOR #65280,AR1,AR1
0104de: c96b             MOV AR1,*AR3(AR0)
0104e0: a400             MOV @#00h,T0
0104e2: 4014             ADD #1,T0
0104e4: ed31bf012ea8     MOV dbl(*(#012ea8h)),XAR3
0104ea: a96b             MOV *AR3(AR0),AR1
0104ec: a400             MOV @#00h,T0
0104ee: 4014             ADD #1,T0
0104f0: 1cff99           XOR #255,AR1,AR1
0104f3: c96b             MOV AR1,*AR3(AR0)
0104f5: a400             MOV @#00h,T0
0104f7: 4014             ADD #1,T0
0104f9: ed31bf012ea8     MOV dbl(*(#012ea8h)),XAR3
0104ff: a96b             MOV *AR3(AR0),AR1
010501: a400             MOV @#00h,T0
010503: 4014             ADD #1,T0
010505: 7fff0099         XOR #65280,AR1,AR1
010509: c96b             MOV AR1,*AR3(AR0)
01050b: a90e             MOV @#07h,AR1
01050d: d60099           ADD @#00h,AR1,AR1
010510: 4029             ADD #2,AR1
010512: c900             MOV AR1,@#00h
010514: aa00             MOV @#00h,AR2
010516: a931013057       MOV *(#013057h),AR1
01051b: 12a494           CMPU AR2 < AR1, TC1
01051e: 046490           BCC $C$L35,TC1
010521:               $C$DW$L$_mutator$55$E:
010521: 0603eb           B $C$DW$L$_mutator$85$E
010524:               $C$L36:
010524: f0310006013055   CMP *(#013055h) == #6, TC1
01052b: 047453           BCC $C$L38,!TC1
01052e: 2209             MOV AC0,AR1
010530: c900             MOV AR1,@#00h
010532: a031013057       MOV *(#013057h),AC0
010537: df0c0f_239a      SUB uns(@#06h),AC0,AC0 || MOV AR1,AR2
01053c: 2209             MOV AC0,AR1
01053e: 12a894           CMPU AR2 >= AR1, TC1
010541: 6d6403ca         BCC $C$DW$L$_mutator$85$E,TC1
010545:               $C$L37:
010545:               $C$DW$L$_mutator$59$B:
010545: a431013052       MOV *(#013052h),T0
01054a: 76002358         MOV #35,T1
01054e: 6c013661         CALL I$$UMOD
010552: ed31bf012ea8     MOV dbl(*(#012ea8h)),XAR3
010558: a400_2349        MOV @#00h,T0 || MOV T0,AR1
01055c: d66b99           ADD *AR3(AR0),AR1,AR1
01055f: c96b             MOV AR1,*AR3(AR0)
010561: f7000001         ADD #1,@#00h
010565: a90e             MOV @#07h,AR1
010567: d60099           ADD @#00h,AR1,AR1
01056a: c900             MOV AR1,@#00h
01056c: a031013057       MOV *(#013057h),AC0
010571: df0c0f_239a      SUB uns(@#06h),AC0,AC0 || MOV AR1,AR2
010576: 2209             MOV AC0,AR1
010578: 12a494           CMPU AR2 < AR1, TC1
01057b: 0464c7           BCC $C$L37,TC1
01057e:               $C$DW$L$_mutator$59$E:
01057e: 06038e           B $C$DW$L$_mutator$85$E
010581:               $C$L38:
010581: f0310007013055   CMP *(#013055h) == #7, TC1
010588: 047453           BCC $C$L40,!TC1
01058b: 2209             MOV AC0,AR1
01058d: c900             MOV AR1,@#00h
01058f: a031013057       MOV *(#013057h),AC0
010594: df0c0f_239a      SUB uns(@#06h),AC0,AC0 || MOV AR1,AR2
010599: 2209             MOV AC0,AR1
01059b: 12a894           CMPU AR2 >= AR1, TC1
01059e: 6d64036d         BCC $C$DW$L$_mutator$85$E,TC1
0105a2:               $C$L39:
0105a2:               $C$DW$L$_mutator$63$B:
0105a2: a431013052       MOV *(#013052h),T0
0105a7: 76002358         MOV #35,T1
0105ab: 6c013661         CALL I$$UMOD
0105af: ed31bf012ea8     MOV dbl(*(#012ea8h)),XAR3
0105b5: a400_2349        MOV @#00h,T0 || MOV T0,AR1
0105b9: d86b99           SUB AR1,*AR3(AR0),AR1
0105bc: c96b             MOV AR1,*AR3(AR0)
0105be: f7000001         ADD #1,@#00h
0105c2: a90e             MOV @#07h,AR1
0105c4: d60099           ADD @#00h,AR1,AR1
0105c7: c900             MOV AR1,@#00h
0105c9: a031013057       MOV *(#013057h),AC0
0105ce: df0c0f_239a      SUB uns(@#06h),AC0,AC0 || MOV AR1,AR2
0105d3: 2209             MOV AC0,AR1
0105d5: 12a494           CMPU AR2 < AR1, TC1
0105d8: 0464c7           BCC $C$L39,TC1
0105db:               $C$DW$L$_mutator$63$E:
0105db: 060331           B $C$DW$L$_mutator$85$E
0105de:               $C$L40:
0105de: f0310008013055   CMP *(#013055h) == #8, TC1
0105e5: 6d740326         BCC $C$DW$L$_mutator$85$E,!TC1
0105e9: 6c0133d2         CALL _rand
0105ed: 6c0135d1_3dc5    CALL I$$MOD || MOV #12,T1
0105f3: c410             MOV T0,@#08h
0105f5: a931013056       MOV *(#013056h),AR1
0105fa: 6319             BCC $C$L41,AR1 != #0
0105fc: e63101013056     MOV #1,*(#013056h)
010602:               $C$L41:
010602: 6c0133d2         CALL _rand
010606: a531013056       MOV *(#013056h),T1
01060b: 76006448_2349    MOV #100,T0 || MOV T0,AR1
010611: 6c01364c         CALL I$$UDIV
010615: 2245             MOV T0,T1
010617: 6c013661_2394    CALL I$$UMOD || MOV AR1,T0
01061d: c40a             MOV T0,@#05h
01061f: e60000           MOV #0,@#00h
010622: aa00             MOV @#00h,AR2
010624: a90a             MOV @#05h,AR1
010626: 12a894           CMPU AR2 >= AR1, TC1
010629: 6d6402e2         BCC $C$DW$L$_mutator$85$E,TC1
01062d:               $C$L42:
01062d:               $C$DW$L$_mutator$69$B:
01062d: 6c0133d2         CALL _rand
010631: a531013057       MOV *(#013057h),T1
010636: 6c013661         CALL I$$UMOD
01063a: c406             MOV T0,@#03h
01063c: 060293           B $C$DW$L$_mutator$82$E
01063f:               $C$DW$L$_mutator$69$E:
01063f:               $C$L43:
01063f:               $C$DW$L$_mutator$71$B:
01063f: 6c0133d2         CALL _rand
010643: 7600ffa8_2340    MOV #255,AR2 || MOV T0,AC0
010649: ed31bf012ea8     MOV dbl(*(#012ea8h)),XAR3
01064f: 100539_37aa      SFTS AC0,#-7,AC0 || NOT AR2,AR2
010654: 76ff0090         BFXTR #65280,AC0,AR1
010658: 2449             ADD T0,AR1
01065a: 289a             AND AR1,AR2
01065c: a406_2349        MOV @#03h,T0 || MOV T0,AR1
010660: 26a9             SUB AR2,AR1
010662: c96b             MOV AR1,*AR3(AR0)
010664: 06028d           B $C$DW$L$_mutator$84$E
010667:               $C$DW$L$_mutator$71$E:
010667:               $C$L44:
010667:               $C$DW$L$_mutator$72$B:
010667: a431013052       MOV *(#013052h),T0
01066c: 76002258         MOV #34,T1
010670: 6c013661         CALL I$$UMOD
010674: ed31bf012ea8     MOV dbl(*(#012ea8h)),XAR3
01067a: a406_2349        MOV @#03h,T0 || MOV T0,AR1
01067e: d66b99           ADD *AR3(AR0),AR1,AR1
010681: c96b             MOV AR1,*AR3(AR0)
010683: 06026e           B $C$DW$L$_mutator$84$E
010686:               $C$DW$L$_mutator$72$E:
010686:               $C$L45:
010686:               $C$DW$L$_mutator$73$B:
010686: a406             MOV @#03h,T0
010688: ed31bf012ea8     MOV dbl(*(#012ea8h)),XAR3
01068e: df3193013052     MOV uns(low_byte(*(#013052h))),AR1
010694: d66b99           ADD *AR3(AR0),AR1,AR1
010697: c96b             MOV AR1,*AR3(AR0)
010699: 060258           B $C$DW$L$_mutator$84$E
01069c:               $C$DW$L$_mutator$73$E:
01069c:               $C$L46:
01069c:               $C$DW$L$_mutator$74$B:
01069c: a406             MOV @#03h,T0
01069e: ed31bf012ea8     MOV dbl(*(#012ea8h)),XAR3
0106a4: df3193013052     MOV uns(low_byte(*(#013052h))),AR1
0106aa: d86b99           SUB AR1,*AR3(AR0),AR1
0106ad: c96b             MOV AR1,*AR3(AR0)
0106af: 060242           B $C$DW$L$_mutator$84$E
0106b2:               $C$DW$L$_mutator$74$E:
0106b2:               $C$L47:
0106b2:               $C$DW$L$_mutator$75$B:
0106b2: a431013052       MOV *(#013052h),T0
0106b7: 76002258         MOV #34,T1
0106bb: 6c013661         CALL I$$UMOD
0106bf: ed31bf012ea8     MOV dbl(*(#012ea8h)),XAR3
0106c5: a406_2349        MOV @#03h,T0 || MOV T0,AR1
0106c9: d86b99           SUB AR1,*AR3(AR0),AR1
0106cc: c96b             MOV AR1,*AR3(AR0)
0106ce: 060223           B $C$DW$L$_mutator$84$E
0106d1:               $C$DW$L$_mutator$75$E:
0106d1:               $C$L48:
0106d1:               $C$DW$L$_mutator$76$B:
0106d1: 6c0133d2         CALL _rand
0106d5: a531013057       MOV *(#013057h),T1
0106da: 6c013661         CALL I$$UMOD
0106de: 7c000194         SUB #1,T0,AR1
0106e2: c906             MOV AR1,@#03h
0106e4: 6c0133d2         CALL _rand
0106e8: 2240_3dfa        MOV T0,AC0 || MOV #15,AR2
0106ec: 10053d_37aa      SFTS AC0,#-3,AC0 || NOT AR2,AR2
0106f1: 76f00090         BFXTR #61440,AC0,AR1
0106f5: 2449             ADD T0,AR1
0106f7: 289a             AND AR1,AR2
0106f9: 26a4             SUB AR2,T0
0106fb: c408             MOV T0,@#04h
0106fd: a406             MOV @#03h,T0
0106ff: ed31bf012ea8     MOV dbl(*(#012ea8h)),XAR3
010705: a508_3d10        MOV @#04h,T1 || MOV #1,AC0
010709: 5c05             SFTS AC0,T1,AC0
01070b: db6b90           XOR *AR3(AR0),AC0,AR1
01070e: c96b             MOV AR1,*AR3(AR0)
010710: 0601e1           B $C$DW$L$_mutator$84$E
010713:               $C$DW$L$_mutator$76$E:
010713:               $C$L49:
010713:               $C$DW$L$_mutator$77$B:
010713: 6c0133d2         CALL _rand
010717: a531013057       MOV *(#013057h),T1
01071c: 6c013661         CALL I$$UMOD
010720: 7c000194         SUB #1,T0,AR1
010724: c906             MOV AR1,@#03h
010726: 6c0133d2         CALL _rand
01072a: 2240_3dfa        MOV T0,AC0 || MOV #15,AR2
01072e: 10053d_37aa      SFTS AC0,#-3,AC0 || NOT AR2,AR2
010733: 76f00090         BFXTR #61440,AC0,AR1
010737: 2449             ADD T0,AR1
010739: 289a             AND AR1,AR2
01073b: 26a4             SUB AR2,T0
01073d: c408             MOV T0,@#04h
01073f: a406             MOV @#03h,T0
010741: ed31bf012ea8     MOV dbl(*(#012ea8h)),XAR3
010747: a508_3d10        MOV @#04h,T1 || MOV #1,AC0
01074b: 5c05             SFTS AC0,T1,AC0
01074d: db6b90           XOR *AR3(AR0),AC0,AR1
010750: c96b             MOV AR1,*AR3(AR0)
010752: a406             MOV @#03h,T0
010754: ed31bf012ea8     MOV dbl(*(#012ea8h)),XAR3
01075a: a508             MOV @#04h,T1
01075c: 4015_3d10        ADD #1,T1 || MOV #1,AC0
010760: 5c05             SFTS AC0,T1,AC0
010762: db6b90           XOR *AR3(AR0),AC0,AR1
010765: c96b             MOV AR1,*AR3(AR0)
010767: 06018a           B $C$DW$L$_mutator$84$E
01076a:               $C$DW$L$_mutator$77$E:
01076a:               $C$L50:
01076a:               $C$DW$L$_mutator$78$B:
01076a: 6c0133d2         CALL _rand
01076e: a531013057       MOV *(#013057h),T1
010773: 6c013661         CALL I$$UMOD
010777: 7c000194         SUB #1,T0,AR1
01077b: c906             MOV AR1,@#03h
01077d: 6c0133d2         CALL _rand
010781: 2240_3dfa        MOV T0,AC0 || MOV #15,AR2
010785: 10053d_37aa      SFTS AC0,#-3,AC0 || NOT AR2,AR2
01078a: 76f00090         BFXTR #61440,AC0,AR1
01078e: 2449             ADD T0,AR1
010790: 289a             AND AR1,AR2
010792: 26a4             SUB AR2,T0
010794: c408             MOV T0,@#04h
010796: a406             MOV @#03h,T0
010798: ed31bf012ea8     MOV dbl(*(#012ea8h)),XAR3
01079e: a508_3d10        MOV @#04h,T1 || MOV #1,AC0
0107a2: 5c05             SFTS AC0,T1,AC0
0107a4: db6b90           XOR *AR3(AR0),AC0,AR1
0107a7: c96b             MOV AR1,*AR3(AR0)
0107a9: a406             MOV @#03h,T0
0107ab: ed31bf012ea8     MOV dbl(*(#012ea8h)),XAR3
0107b1: a508             MOV @#04h,T1
0107b3: 4015_3d10        ADD #1,T1 || MOV #1,AC0
0107b7: 5c05             SFTS AC0,T1,AC0
0107b9: db6b90           XOR *AR3(AR0),AC0,AR1
0107bc: c96b             MOV AR1,*AR3(AR0)
0107be: a406             MOV @#03h,T0
0107c0: ed31bf012ea8     MOV dbl(*(#012ea8h)),XAR3
0107c6: a508             MOV @#04h,T1
0107c8: 4025_3d10        ADD #2,T1 || MOV #1,AC0
0107cc: 5c05             SFTS AC0,T1,AC0
0107ce: db6b90           XOR *AR3(AR0),AC0,AR1
0107d1: c96b             MOV AR1,*AR3(AR0)
0107d3: a406             MOV @#03h,T0
0107d5: ed31bf012ea8     MOV dbl(*(#012ea8h)),XAR3
0107db: a508             MOV @#04h,T1
0107dd: 4035_3d10        ADD #3,T1 || MOV #1,AC0
0107e1: 5c05             SFTS AC0,T1,AC0
0107e3: db6b90           XOR *AR3(AR0),AC0,AR1
0107e6: c96b             MOV AR1,*AR3(AR0)
0107e8: 060109           B $C$DW$L$_mutator$84$E
0107eb:               $C$DW$L$_mutator$78$E:
0107eb:               $C$L51:
0107eb:               $C$DW$L$_mutator$79$B:
0107eb: 6c0133d2         CALL _rand
0107ef: a531013057       MOV *(#013057h),T1
0107f4: 6c013661         CALL I$$UMOD
0107f8: 7c000194         SUB #1,T0,AR1
0107fc: c906             MOV AR1,@#03h
0107fe: a931013052       MOV *(#013052h),AR1
010803: ed31bf012ea8     MOV dbl(*(#012ea8h)),XAR3
010809: a406             MOV @#03h,T0
01080b: 180109           AND #1,AR1,AC0
01080e: 100703           SFTL AC0,#3,AC0
010811: 7600ff18_2305    MOV #255,AC1 || MOV AC0,T1
010817: 5c15             SFTS AC1,T1,AC0
010819: db6b90           XOR *AR3(AR0),AC0,AR1
01081c: c96b             MOV AR1,*AR3(AR0)
01081e: 0600d3           B $C$DW$L$_mutator$84$E
010821:               $C$DW$L$_mutator$79$E:
010821:               $C$L52:
010821:               $C$DW$L$_mutator$80$B:
010821: 6c0133d2         CALL _rand
010825: a531013057       MOV *(#013057h),T1
01082a: 6c013661         CALL I$$UMOD
01082e: c406             MOV T0,@#03h
010830: ed31bf012ea8     MOV dbl(*(#012ea8h)),XAR3
010836: a406             MOV @#03h,T0
010838: a96b             MOV *AR3(AR0),AR1
01083a: 1cff99           XOR #255,AR1,AR1
01083d: c96b             MOV AR1,*AR3(AR0)
01083f: a406             MOV @#03h,T0
010841: ed31bf012ea8     MOV dbl(*(#012ea8h)),XAR3
010847: a96b             MOV *AR3(AR0),AR1
010849: 7fff0099         XOR #65280,AR1,AR1
01084d: c96b             MOV AR1,*AR3(AR0)
01084f: 0600a2           B $C$DW$L$_mutator$84$E
010852:               $C$DW$L$_mutator$80$E:
010852:               $C$L53:
010852:               $C$DW$L$_mutator$81$B:
010852: 6c0133d2         CALL _rand
010856: a531013057       MOV *(#013057h),T1
01085b: 6c013661         CALL I$$UMOD
01085f: 7c000194         SUB #1,T0,AR1
010863: c906             MOV AR1,@#03h
010865: ed31bf012ea8     MOV dbl(*(#012ea8h)),XAR3
01086b: a406             MOV @#03h,T0
01086d: a96b             MOV *AR3(AR0),AR1
01086f: 1cff99           XOR #255,AR1,AR1
010872: c96b             MOV AR1,*AR3(AR0)
010874: a406             MOV @#03h,T0
010876: ed31bf012ea8     MOV dbl(*(#012ea8h)),XAR3
01087c: a96b             MOV *AR3(AR0),AR1
01087e: 7fff0099         XOR #65280,AR1,AR1
010882: c96b             MOV AR1,*AR3(AR0)
010884: ed31bf012ea8     MOV dbl(*(#012ea8h)),XAR3
01088a: a406             MOV @#03h,T0
01088c: 4014             ADD #1,T0
01088e: a96b             MOV *AR3(AR0),AR1
010890: a406             MOV @#03h,T0
010892: 4014             ADD #1,T0
010894: 1cff99           XOR #255,AR1,AR1
010897: c96b             MOV AR1,*AR3(AR0)
010899: ed31bf012ea8     MOV dbl(*(#012ea8h)),XAR3
01089f: a406             MOV @#03h,T0
0108a1: 4014             ADD #1,T0
0108a3: a96b             MOV *AR3(AR0),AR1
0108a5: a406             MOV @#03h,T0
0108a7: 4014             ADD #1,T0
0108a9: 7fff0099         XOR #65280,AR1,AR1
0108ad: c96b             MOV AR1,*AR3(AR0)
0108af: 060042           B $C$DW$L$_mutator$84$E
0108b2:               $C$DW$L$_mutator$81$E:
0108b2:               $C$L54:
0108b2:               $C$DW$L$_mutator$82$B:
0108b2: 6c0133d2         CALL _rand
0108b6: a531013057       MOV *(#013057h),T1
0108bb: 6c013661         CALL I$$UMOD
0108bf: 7c000194         SUB #1,T0,AR1
0108c3: c906             MOV AR1,@#03h
0108c5: ed31bf012ea8     MOV dbl(*(#012ea8h)),XAR3
0108cb: a406             MOV @#03h,T0
0108cd: e66b00           MOV #0,*AR3(AR0)
0108d0: 4a22             B $C$DW$L$_mutator$84$E
0108d2:               $C$DW$L$_mutator$82$E:
0108d2:               $C$L55:
0108d2:               $C$DW$L$_mutator$83$B:
0108d2: a010             MOV @#08h,AC0
0108d4: 2209_3dba        MOV AC0,AR1 || MOV #11,AR2
0108d8: 12a894           CMPU AR2 >= AR1, TC1
0108db: 047416           BCC $C$DW$L$_mutator$84$E,!TC1
0108de:               $C$DW$L$_mutator$83$E:
0108de:               $C$DW$L$_mutator$84$B:
0108de: 4450             SFTS AC0,#1
0108e0: a110_98          MOV mmap(@AC0L),AC1
0108e3: 7a00010a         MOV #1 << #16,AC0
0108e7: 7ee00000         OR #57344,AC0,AC0
0108eb: 2410             ADD AC1,AC0
0108ed: 900b             MOV AC0,XAR3
0108ef: ed6108           MOV dbl(*AR3),AC0
0108f2: 9100             B AC0
0108f4:               $C$DW$L$_mutator$84$E:
0108f4:               $C$L56:
0108f4:               $C$DW$L$_mutator$85$B:
0108f4: 6c0133d2         CALL _rand
0108f8: 6c0135d1_3dc5    CALL I$$MOD || MOV #12,T1
0108fe: c410             MOV T0,@#08h
010900: f7000001         ADD #1,@#00h
010904: a90a             MOV @#05h,AR1
010906: aa00             MOV @#00h,AR2
010908: 12a494           CMPU AR2 < AR1, TC1
01090b: 6d64fd1e         BCC $C$L42,TC1
01090f:               $C$DW$L$_mutator$85$E:
01090f:               $C$L57:
01090f:               $C$L58:
01090f: f7310001013052   ADD #1,*(#013052h)
010916: 4e09             AADD #9,SP
010918: 4804             RET
01091a:               _dequeue_seed:
01091a: 4efd             AADD #-3,SP
01091c: a931013040       MOV *(#013040h),AR1
010921: aa3101303d       MOV *(#01303dh),AR2
010926: 12ac94           CMPU AR2 != AR1, TC1
010929: 6364             BCC $C$L59,TC1
01092b: e6310001303d     MOV #0,*(#01303dh)
010931:               $C$L59:
010931: f03100fa013052   CMP *(#013052h) == #250, TC1
010938: 66f4             BCC $C$L60,!TC1
01093a: e63100013052     MOV #0,*(#013052h)
010940: f731000101303d   ADD #1,*(#01303dh)
010947:               $C$L60:
010947: a931012ea6       MOV *(#012ea6h),AR1
01094c: aa3101303d       MOV *(#01303dh),AR2
010951: 12a494           CMPU AR2 < AR1, TC1
010954: 66e4             BCC $C$L61,TC1
010956: e6310001303d     MOV #0,*(#01303dh)
01095c: f7310001013053   ADD #1,*(#013053h)
010963:               $C$L61:
010963: 3c5a             MOV #5,AR2
010965: a931013053       MOV *(#013053h),AR1
01096a: 12a894           CMPU AR2 >= AR1, TC1
01096d: 046422           BCC $C$L63,TC1
010970: 3caa             MOV #10,AR2
010972: a931013056       MOV *(#013056h),AR1
010977: 1298a4           CMPU AR1 >= AR2, TC1
01097a: 63e4             BCC $C$L62,TC1
01097c: f7310001013056   ADD #1,*(#013056h)
010983:               $C$L62:
010983: f031000a013056   CMP *(#013056h) == #10, TC1
01098a: 6374             BCC $C$L63,!TC1
01098c: e63101013056     MOV #1,*(#013056h)
010992:               $C$L63:
010992: b03101303d       MOV *(#01303dh) << #16,AC0
010997: 7902ee00         MPYK #750,AC0,AC0
01099b: 2209             MOV AC0,AR1
01099d: ed31af012ea8     MOV dbl(*(#012ea8h)),XAR2
0109a3: ec31be012000     AMAR *(#012000h),XAR3
0109a9: 1490b0           AADD AR1,AR3
0109ac: ec419e_0d02ed    AMAR *AR2,XAR1 || RPT #749
0109b2:               $C$L64:
0109b2:               $C$DW$L$_dequeue_seed$13$B:
0109b2: 806514           MOV *AR3+,*AR2+
0109b5:               $C$DW$L$_dequeue_seed$13$E:
0109b5:               $C$L65:
0109b5: eb0095           MOV XAR1,dbl(@#00h)
0109b8: ed00bf           MOV dbl(@#00h),XAR3
0109bb: 90b0             MOV XAR3,AC0
0109bd: 6000             BCC $C$L66,AC0 == #0
0109bf:               $C$L66:
0109bf: 4e03             AADD #3,SP
0109c1: 4804             RET
0109c3:               _bubble_coverage:
0109c3: 4eff             AADD #-1,SP
0109c5: e60000           MOV #0,@#00h
0109c8: 4e01             AADD #1,SP
0109ca: 4804             RET
0109cc:               _main_harness_loop:
0109cc: 4efd             AADD #-3,SP
0109ce: 7a00040a         MOV #4 << #16,AC0
0109d2: 7eea7100         OR #60017,AC0,AC0
0109d6: 9008             MOV AC0,XAR0
0109d8: 08f6f7           CALL _setup
0109db: e63100012ea7     MOV #0,*(#012ea7h)
0109e1: ec318e013042     AMAR *(#013042h),XAR0
0109e7: 6c0134f0         CALL __setjmp
0109eb:               $C$L67:
0109eb:               $C$DW$L$_main_harness_loop$3$B:
0109eb: f7310001013054   ADD #1,*(#013054h)
0109f2: 08ff25           CALL _dequeue_seed
0109f5: 08f748           CALL _mutator
0109f8: ec008e           AMAR @#00h,XAR0
0109fb: 08f604           CALL _start_timer
0109fe: ed318f012ea8     MOV dbl(*(#012ea8h)),XAR0
010a04: 6c04ea71         CALL _susan_edges
010a08: ec008e           AMAR @#00h,XAR0
010a0b: 08f697           CALL _stop_timer
010a0e: a931013041       MOV *(#013041h),AR1
010a13: 040957           BCC $C$DW$L$_main_harness_loop$8$E,AR1 == #0
010a16:               $C$DW$L$_main_harness_loop$3$E:
010a16:               $C$DW$L$_main_harness_loop$4$B:
010a16: ed3108012eaa     MOV dbl(*(#012eaah)),AC0
010a1c: 04004e           BCC $C$DW$L$_main_harness_loop$8$E,AC0 == #0
010a1f:               $C$DW$L$_main_harness_loop$4$E:
010a1f:               $C$DW$L$_main_harness_loop$5$B:
010a1f: f7310001012ea7   ADD #1,*(#012ea7h)
010a26: 08ff9a           CALL _bubble_coverage
010a29: e60400           MOV #0,@#02h
010a2c: 7600c8a8         MOV #200,AR2
010a30: a904             MOV @#02h,AR1
010a32: 1298a4           CMPU AR1 >= AR2, TC1
010a35: 04641b           BCC $C$DW$L$_main_harness_loop$6$E,TC1
010a38:               $C$DW$L$_main_harness_loop$5$E:
010a38:               $C$L68:
010a38:               $C$DW$L$_main_harness_loop$6$B:
010a38: a404             MOV @#02h,T0
010a3a: 5040             SFTL T0,#1
010a3c: 3c00             MOV #0,AC0
010a3e: ec31be012eaa     AMAR *(#012eaah),XAR3
010a44: eb6b08           MOV AC0,dbl(*AR3(AR0))
010a47: f7040001         ADD #1,@#02h
010a4b: a904             MOV @#02h,AR1
010a4d: 1294a4           CMPU AR1 < AR2, TC1
010a50: 0464e5           BCC $C$DW$L$_main_harness_loop$5$E,TC1
010a53:               $C$DW$L$_main_harness_loop$6$E:
010a53:               $C$L69:
010a53:               $C$DW$L$_main_harness_loop$7$B:
010a53: ec31be012eaa     AMAR *(#012eaah),XAR3
010a59: eb31b501303a     MOV XAR3,dbl(*(#01303ah))
010a5f: e63100013041     MOV #0,*(#013041h)
010a65: e63101013056     MOV #1,*(#013056h)
010a6b: 4a00             B $C$DW$L$_main_harness_loop$8$E
010a6d:               $C$DW$L$_main_harness_loop$8$E:
010a6d:               $C$L71:
010a6d:               $C$DW$L$_main_harness_loop$9$B:
010a6d:               $C$DW$L$_main_harness_loop$7$E:
010a6d:               $C$L70:
010a6d:               $C$DW$L$_main_harness_loop$8$B:
010a6d: ec318e013042     AMAR *(#013042h),XAR0
010a73: 6c013511_3d14    CALL _longjmp || MOV #1,T0
010a79: 06ff6f           B $C$L67
010a7c:               _main:
010a7c:               $C$DW$L$_main_harness_loop$9$E:
010a7c: 4eff             AADD #-1,SP
010a7e: 08ff4b           CALL _main_harness_loop
010a81: 3c04             MOV #0,T0
010a83: 4e01             AADD #1,SP
010a85: 4804             RET
010a87:               _getenv:
010a87: 50d5             PSHBOTH XAR5
010a89: 20               NOP
010a8a: 20               NOP
010a8b: 50f5             PSHBOTH XAR7
010a8d: ec01de           AMAR *AR0,XAR5
010a90: 4eff             AADD #-1,SP
010a92: ed31080131c6     MOV dbl(*(#0131c6h)),AC0
010a98: 9200             CALL AC0
010a9a: 76ffffa8         MOV #-1,AR2
010a9e: eca1be           AMAR *AR5,XAR3
010aa1: b465             AMAR *AR3-
010aa3: a96f0001         MOV *+AR3(#0001h),AR1
010aa7: 401a             ADD #1,AR2
010aa9: 0419f7           BCC #0x010aa3,AR1 != #0
010aac: ec31fe01305e     AMAR *(#01305eh),XAR7
010ab2: eca19e           AMAR *AR5,XAR1
010ab5: 7b00015a         ADD #1,AR2,T1
010ab9: 7600f648         MOV #246,T0
010abd: ece18e           AMAR *AR7,XAR0
010ac0: 6c012dac         CALL _writemsg
010ac4: ec31de013066     AMAR *(#013066h),XAR5
010aca: eca19e           AMAR *AR5,XAR1
010acd: ece18e           AMAR *AR7,XAR0
010ad0: 6c0132dc         CALL _readmsg
010ad4: ed31080131c8     MOV dbl(*(#0131c8h)),AC0
010ada: 9200             CALL AC0
010adc: 76ffff98         MOV #-1,AR1
010ae0: eca18e           AMAR *AR5,XAR0
010ae3: ec01be           AMAR *AR0,XAR3
010ae6: b465             AMAR *AR3-
010ae8: aa6f0001         MOV *+AR3(#0001h),AR2
010aec: 4019             ADD #1,AR1
010aee: 041af7           BCC #0x010ae8,AR2 != #0
010af1: 4e01             AADD #1,SP
010af3: 20               NOP
010af4: 50f4             POPBOTH XAR7
010af6: 50d4             POPBOTH XAR5
010af8: 9609             XCC AR1 == #0
010afa: ec318e000000     AMAR *(#00000h),XAR0
010b00: 4804             RET
010b02:               _HOSTwrite:
010b02: 3876             PSH T3,T2
010b04: 50d5             PSHBOTH XAR5
010b06: 20               NOP
010b07: 2247             MOV T0,T3
010b09: 50f5             PSHBOTH XAR7
010b0b: ec01de_2356      AMAR *AR0,XAR5 || MOV T1,T2
010b10: 4eff             AADD #-1,SP
010b12: ed31080131c6     MOV dbl(*(#0131c6h)),AC0
010b18: 9200             CALL AC0
010b1a: ec31fe01305e     AMAR *(#01305eh),XAR7
010b20: 76010098         MOV #256,AR1
010b24: 129864_21        CMPU AR1 >= T2, TC1 || NOP
010b28: 18ff07           AND #255,T3,AC0
010b2b: 76010068_9ef4    XCCPART !TC1 || MOV #256,T2
010b31: c0e1_2370        MOV AC0,*AR7 || MOV T3,AC0
010b35: 100538           SFTS AC0,#-8,AC0
010b38: 18ff00           AND #255,AC0,AC0
010b3b: c0f3_19ff06      MOV AC0,*(AR7+T1) || AND #255,T2,AC0
010b40: c0f5_2360        MOV AC0,*(AR7-T1) || MOV T2,AC0
010b44: 76ff0090         BFXTR #65280,AC0,AR1
010b48: c9f7             MOV AR1,*AR7(T1)
010b4a: 7600f348         MOV #243,T0
010b4e: ece18e           AMAR *AR7,XAR0
010b51: eca19e_2365      AMAR *AR5,XAR1 || MOV T2,T1
010b56: 6c012dac         CALL _writemsg
010b5a: ec319e000000     AMAR *(#00000h),XAR1
010b60: ece18e           AMAR *AR7,XAR0
010b63: 6c0132dc         CALL _readmsg
010b67: df310501305e     MOV uns(*(#01305eh)),AC0
010b6d: df311501305f     MOV uns(*(#01305fh)),AC1
010b73: 101308           ADD AC1 << #8,AC0
010b76: 100510           SFTS AC0,#16,AC0
010b79: 4406             MOV HI(AC0),T2
010b7b: ed31080131c8     MOV dbl(*(#0131c8h)),AC0
010b81: 9200             CALL AC0
010b83: 4e01             AADD #1,SP
010b85: 50f4             POPBOTH XAR7
010b87: 2264             MOV T2,T0
010b89: 50d4             POPBOTH XAR5
010b8b: 3a76             POP T3,T2
010b8d: 4804             RET
010b8f:               _HOSTunlink:
010b8f: 5066             PSH T2
010b91: 50d5             PSHBOTH XAR5
010b93: 50f5             PSHBOTH XAR7
010b95: 20               NOP
010b96: 20               NOP
010b97: ed31080131c6     MOV dbl(*(#0131c6h)),AC0
010b9d: ec01fe           AMAR *AR0,XAR7
010ba0: 9200             CALL AC0
010ba2: 76ffffa8         MOV #-1,AR2
010ba6: ece1be           AMAR *AR7,XAR3
010ba9: b465             AMAR *AR3-
010bab: a96f0001         MOV *+AR3(#0001h),AR1
010baf: 401a             ADD #1,AR2
010bb1: 0419f7           BCC #0x010bab,AR1 != #0
010bb4: ec31de01305e     AMAR *(#01305eh),XAR5
010bba: ece19e           AMAR *AR7,XAR1
010bbd: 7b00015a         ADD #1,AR2,T1
010bc1: 7600f548         MOV #245,T0
010bc5: eca18e           AMAR *AR5,XAR0
010bc8: 6c012dac         CALL _writemsg
010bcc: ec319e000000     AMAR *(#00000h),XAR1
010bd2: eca18e           AMAR *AR5,XAR0
010bd5: 6c0132dc         CALL _readmsg
010bd9: dfb315           MOV uns(*(AR5+T1)),AC1
010bdc: dfa105           MOV uns(*AR5),AC0
010bdf: 101308           ADD AC1 << #8,AC0
010be2: 100510           SFTS AC0,#16,AC0
010be5: 4406             MOV HI(AC0),T2
010be7: ed31080131c8     MOV dbl(*(#0131c8h)),AC0
010bed: 9200             CALL AC0
010bef: 50f4             POPBOTH XAR7
010bf1: 2264             MOV T2,T0
010bf3: 50d4             POPBOTH XAR5
010bf5: 5062             POP T2
010bf7: 4804             RET
010bf9:               _HOSTtime:
010bf9: 50d5             PSHBOTH XAR5
010bfb: ed31080131c6     MOV dbl(*(#0131c6h)),AC0
010c01: 4efe             AADD #-2,SP
010c03: 9200             CALL AC0
010c05: ec31de01305e     AMAR *(#01305eh),XAR5
010c0b: 7600f848         MOV #248,T0
010c0f: ec319e000000     AMAR *(#00000h),XAR1
010c15: eca18e_3d05      AMAR *AR5,XAR0 || MOV #0,T1
010c1a: 6c012dac         CALL _writemsg
010c1e: ec319e000000     AMAR *(#00000h),XAR1
010c24: eca18e           AMAR *AR5,XAR0
010c27: 6c0132dc         CALL _readmsg
010c2b: df310501305e     MOV uns(*(#01305eh)),AC0
010c31: dfb715           MOV uns(*AR5(T1)),AC1
010c34: dfb515_111318    MOV uns(*(AR5-T1)),AC1 || ADD AC1 << #24,AC0
010c3a: dfb315_111310    MOV uns(*(AR5+T1)),AC1 || ADD AC1 << #16,AC0
010c40: 101308           ADD AC1 << #8,AC0
010c43: eb0008           MOV AC0,dbl(@#00h)
010c46: ed31080131c8     MOV dbl(*(#0131c8h)),AC0
010c4c: 9200             CALL AC0
010c4e: ed0008           MOV dbl(@#00h),AC0
010c51: 4e02             AADD #2,SP
010c53: 50d4             POPBOTH XAR5
010c55: 4804             RET
010c57:               _HOSTrename:
010c57: 5066             PSH T2
010c59: 50d5             PSHBOTH XAR5
010c5b: 20               NOP
010c5c: 20               NOP
010c5d: 50f5             PSHBOTH XAR7
010c5f: ec01de           AMAR *AR0,XAR5
010c62: 4e9c             AADD #-100,SP
010c64: ed31080131c6     MOV dbl(*(#0131c6h)),AC0
010c6a: ec21fe           AMAR *AR1,XAR7
010c6d: 9200             CALL AC0
010c6f: 904a             MOV XSP,XAR2
010c71: eca1be           AMAR *AR5,XAR3
010c74: a961             MOV *AR3,AR1
010c76: 806104           MOV *AR3,*AR2
010c79: 6589             BCC #0x010c86,AR1 == #0
010c7b: a96f0001         MOV *+AR3(#0001h),AR1
010c7f: c94f0001         MOV AR1,*+AR2(#0001h)
010c83: 0419f5           BCC #0x010c7b,AR1 != #0
010c86: 76ffffa8         MOV #-1,AR2
010c8a: b4a5             AMAR *AR5-
010c8c: a9af0001         MOV *+AR5(#0001h),AR1
010c90: 401a             ADD #1,AR2
010c92: 0419f7           BCC #0x010c8c,AR1 != #0
010c95: 7b00015a         ADD #1,AR2,T1
010c99: 904b             MOV XSP,XAR3
010c9b: ece1ae           AMAR *AR7,XAR2
010c9e: 8a41b91850       MOV *AR2,AR1 || AADD T1,AR3
010ca3: c963             MOV AR1,*AR3+
010ca5: 6489             BCC #0x010cb0,AR1 == #0
010ca7: a94f0001         MOV *+AR2(#0001h),AR1
010cab: c963             MOV AR1,*AR3+
010cad: 0419f7           BCC #0x010ca7,AR1 != #0
010cb0: 76ffffa8         MOV #-1,AR2
010cb4: b4e5             AMAR *AR7-
010cb6: a9ef0001         MOV *+AR7(#0001h),AR1
010cba: 401a             ADD #1,AR2
010cbc: 0419f7           BCC #0x010cb6,AR1 != #0
010cbf: 9049             MOV XSP,XAR1
010cc1: ec31de01305e     AMAR *(#01305eh),XAR5
010cc7: 7600f748_25a5    MOV #247,T0 || ADD AR2,T1
010ccd: eca18e_4115      AMAR *AR5,XAR0 || ADD #1,T1
010cd2: 6c012dac         CALL _writemsg
010cd6: ec319e000000     AMAR *(#00000h),XAR1
010cdc: eca18e           AMAR *AR5,XAR0
010cdf: 6c0132dc         CALL _readmsg
010ce3: dfb315           MOV uns(*(AR5+T1)),AC1
010ce6: dfa105           MOV uns(*AR5),AC0
010ce9: 101308           ADD AC1 << #8,AC0
010cec: 100510           SFTS AC0,#16,AC0
010cef: 4406             MOV HI(AC0),T2
010cf1: ed31080131c8     MOV dbl(*(#0131c8h)),AC0
010cf7: 9200             CALL AC0
010cf9: 4e64             AADD #100,SP
010cfb: 50f4             POPBOTH XAR7
010cfd: 2264             MOV T2,T0
010cff: 50d4             POPBOTH XAR5
010d01: 5062             POP T2
010d03: 4804             RET
010d05:               _HOSTread:
010d05: 3876             PSH T3,T2
010d07: 50d5             PSHBOTH XAR5
010d09: 20               NOP
010d0a: 2247             MOV T0,T3
010d0c: 50f5             PSHBOTH XAR7
010d0e: ec01de_2356      AMAR *AR0,XAR5 || MOV T1,T2
010d13: 4eff             AADD #-1,SP
010d15: ed31080131c6     MOV dbl(*(#0131c6h)),AC0
010d1b: 9200             CALL AC0
010d1d: ec31fe01305e     AMAR *(#01305eh),XAR7
010d23: 76010098         MOV #256,AR1
010d27: 129864_21        CMPU AR1 >= T2, TC1 || NOP
010d2b: 18ff07           AND #255,T3,AC0
010d2e: 76010068_9ef4    XCCPART !TC1 || MOV #256,T2
010d34: c0e1_2370        MOV AC0,*AR7 || MOV T3,AC0
010d38: 100538           SFTS AC0,#-8,AC0
010d3b: 18ff00           AND #255,AC0,AC0
010d3e: c0f3_19ff06      MOV AC0,*(AR7+T1) || AND #255,T2,AC0
010d43: c0f5_2360        MOV AC0,*(AR7-T1) || MOV T2,AC0
010d47: 76ff0090         BFXTR #65280,AC0,AR1
010d4b: c9f7             MOV AR1,*AR7(T1)
010d4d: 7600f248         MOV #242,T0
010d51: ece18e_3d05      AMAR *AR7,XAR0 || MOV #0,T1
010d56: ec319e000000     AMAR *(#00000h),XAR1
010d5c: 6c012dac         CALL _writemsg
010d60: eca19e           AMAR *AR5,XAR1
010d63: ece18e           AMAR *AR7,XAR0
010d66: 6c0132dc         CALL _readmsg
010d6a: df310501305e     MOV uns(*(#01305eh)),AC0
010d70: df311501305f     MOV uns(*(#01305fh)),AC1
010d76: 101308           ADD AC1 << #8,AC0
010d79: 100510           SFTS AC0,#16,AC0
010d7c: 4406             MOV HI(AC0),T2
010d7e: ed31080131c8     MOV dbl(*(#0131c8h)),AC0
010d84: 9200             CALL AC0
010d86: 4e01             AADD #1,SP
010d88: 50f4             POPBOTH XAR7
010d8a: 2264             MOV T2,T0
010d8c: 50d4             POPBOTH XAR5
010d8e: 3a76             POP T3,T2
010d90: 4804             RET
010d92:               _HOSTopen:
010d92: 3876             PSH T3,T2
010d94: 50d5             PSHBOTH XAR5
010d96: 50e5             PSHBOTH XAR6
010d98: 20               NOP
010d99: 20               NOP
010d9a: 2246             MOV T0,T2
010d9c: ec01ee_2357      AMAR *AR0,XAR6 || MOV T1,T3
010da1: 50f5             PSHBOTH XAR7
010da3: ed31080131c6     MOV dbl(*(#0131c6h)),AC0
010da9: 9200             CALL AC0
010dab: ec31be01305e     AMAR *(#01305eh),XAR3
010db1: 18ff07           AND #255,T3,AC0
010db4: 76ffffa8         MOV #-1,AR2
010db8: c061_2370        MOV AC0,*AR3 || MOV T3,AC0
010dbc: ec61de_110538    AMAR *AR3,XAR5 || SFTS AC0,#-8,AC0
010dc2: b4a3_19ff00      AMAR *AR5+ || AND #255,AC0,AC0
010dc7: c0a1_19ff06      MOV AC0,*AR5 || AND #255,T2,AC0
010dcc: c075_2360        MOV AC0,*(AR3-T1) || MOV T2,AC0
010dd0: 76ff0090         BFXTR #65280,AC0,AR1
010dd4: ecc1be           AMAR *AR6,XAR3
010dd7: b465             AMAR *AR3-
010dd9: c9b5             MOV AR1,*(AR5-T1)
010ddb: a96f0001         MOV *+AR3(#0001h),AR1
010ddf: 401a             ADD #1,AR2
010de1: 0419f7           BCC #0x010ddb,AR1 != #0
010de4: ec31fe01305e     AMAR *(#01305eh),XAR7
010dea: ecc19e           AMAR *AR6,XAR1
010ded: 7b00015a         ADD #1,AR2,T1
010df1: 7600f048         MOV #240,T0
010df5: ece18e           AMAR *AR7,XAR0
010df8: 6c012dac         CALL _writemsg
010dfc: ec319e000000     AMAR *(#00000h),XAR1
010e02: ece18e           AMAR *AR7,XAR0
010e05: 6c0132dc         CALL _readmsg
010e09: dfa115           MOV uns(*AR5),AC1
010e0c: dfad05ffff       MOV uns(*AR5(#-0001h)),AC0
010e11: 101308           ADD AC1 << #8,AC0
010e14: 100510           SFTS AC0,#16,AC0
010e17: 4406             MOV HI(AC0),T2
010e19: ed31080131c8     MOV dbl(*(#0131c8h)),AC0
010e1f: 9200             CALL AC0
010e21: 2267_9ea6        XCCPART T2 < #0 || MOV T2,T3
010e25: 50f4             POPBOTH XAR7
010e27: 2274             MOV T3,T0
010e29: 50e4             POPBOTH XAR6
010e2b: 50d4             POPBOTH XAR5
010e2d: 3a76             POP T3,T2
010e2f: 4804             RET
010e31:               _HOSTlseek:
010e31: 3876             PSH T3,T2
010e33: 50d5             PSHBOTH XAR5
010e35: 2247             MOV T0,T3
010e37: 4efe             AADD #-2,SP
010e39: eb0008_2356      MOV AC0,dbl(@#00h) || MOV T1,T2
010e3e: ed31080131c6     MOV dbl(*(#0131c6h)),AC0
010e44: 9200             CALL AC0
010e46: ec31de01305e     AMAR *(#01305eh),XAR5
010e4c: 18ff07           AND #255,T3,AC0
010e4f: c0a1_2370        MOV AC0,*AR5 || MOV T3,AC0
010e53: 100538           SFTS AC0,#-8,AC0
010e56: 18ff00           AND #255,AC0,AC0
010e59: c0b3             MOV AC0,*(AR5+T1)
010e5b: ed0008           MOV dbl(@#00h),AC0
010e5e: 18ff00           AND #255,AC0,AC0
010e61: c0b5             MOV AC0,*(AR5-T1)
010e63: ed0008           MOV dbl(@#00h),AC0
010e66: a900_110538      MOV @#00h,AR1 || SFTS AC0,#-8,AC0
010e6b: 18ff00           AND #255,AC0,AC0
010e6e: c0b7_19ff09      MOV AC0,*AR5(T1) || AND #255,AR1,AC0
010e73: 7600f448         MOV #244,T0
010e77: c0b9             MOV AC0,*+AR5
010e79: ec319e000000     AMAR *(#00000h),XAR1
010e7f: ed0008           MOV dbl(@#00h),AC0
010e82: 100528           SFTS AC0,#-24,AC0
010e85: 18ff00           AND #255,AC0,AC0
010e88: c0bb_19ff06      MOV AC0,*-AR5 || AND #255,T2,AC0
010e8d: c0bd_2360        MOV AC0,*(AR5+AR0B) || MOV T2,AC0
010e91: 100538           SFTS AC0,#-8,AC0
010e94: eca18e_19ff00    AMAR *AR5,XAR0 || AND #255,AC0,AC0
010e9a: c0bf_3d05        MOV AC0,*(AR5-AR0B) || MOV #0,T1
010e9e: 6c012dac         CALL _writemsg
010ea2: ec319e000000     AMAR *(#00000h),XAR1
010ea8: eca18e           AMAR *AR5,XAR0
010eab: 6c0132dc         CALL _readmsg
010eaf: df310501305e     MOV uns(*(#01305eh)),AC0
010eb5: df3115013061     MOV uns(*(#013061h)),AC1
010ebb: 101318           ADD AC1 << #24,AC0
010ebe: df3115013060     MOV uns(*(#013060h)),AC1
010ec4: 101310           ADD AC1 << #16,AC0
010ec7: df311501305f     MOV uns(*(#01305fh)),AC1
010ecd: 101308           ADD AC1 << #8,AC0
010ed0: eb0008           MOV AC0,dbl(@#00h)
010ed3: ed31080131c8     MOV dbl(*(#0131c8h)),AC0
010ed9: 9200             CALL AC0
010edb: ed0008           MOV dbl(@#00h),AC0
010ede: 4e02             AADD #2,SP
010ee0: 50d4             POPBOTH XAR5
010ee2: 3a76             POP T3,T2
010ee4: 4804             RET
010ee6:               _HOSTclose:
010ee6: 2246_5166        MOV T0,T2 || PSH T2
010eea: 50d5             PSHBOTH XAR5
010eec: 4eff             AADD #-1,SP
010eee: ed31080131c6     MOV dbl(*(#0131c6h)),AC0
010ef4: 9200             CALL AC0
010ef6: ec31de01305e     AMAR *(#01305eh),XAR5
010efc: 7600f148         MOV #241,T0
010f00: 18ff06           AND #255,T2,AC0
010f03: ec319e000000     AMAR *(#00000h),XAR1
010f09: c0a1_2360        MOV AC0,*AR5 || MOV T2,AC0
010f0d: 100538           SFTS AC0,#-8,AC0
010f10: eca18e_19ff00    AMAR *AR5,XAR0 || AND #255,AC0,AC0
010f16: c0b3_3d05        MOV AC0,*(AR5+T1) || MOV #0,T1
010f1a: 6c012dac         CALL _writemsg
010f1e: ec319e000000     AMAR *(#00000h),XAR1
010f24: eca18e           AMAR *AR5,XAR0
010f27: 6c0132dc         CALL _readmsg
010f2b: df310501305e     MOV uns(*(#01305eh)),AC0
010f31: df311501305f     MOV uns(*(#01305fh)),AC1
010f37: 101308           ADD AC1 << #8,AC0
010f3a: 100510           SFTS AC0,#16,AC0
010f3d: 4406             MOV HI(AC0),T2
010f3f: ed31080131c8     MOV dbl(*(#0131c8h)),AC0
010f45: 9200             CALL AC0
010f47: 4e01             AADD #1,SP
010f49: 50d4             POPBOTH XAR5
010f4b: 2264             MOV T2,T0
010f4d: 5062             POP T2
010f4f: 4804             RET
010f51:               _HOSTclock:
010f51: 50d5             PSHBOTH XAR5
010f53: ed31080131c6     MOV dbl(*(#0131c6h)),AC0
010f59: 4efe             AADD #-2,SP
010f5b: 9200             CALL AC0
010f5d: ec31de01305e     AMAR *(#01305eh),XAR5
010f63: 7600f948         MOV #249,T0
010f67: ec319e000000     AMAR *(#00000h),XAR1
010f6d: eca18e_3d05      AMAR *AR5,XAR0 || MOV #0,T1
010f72: 6c012dac         CALL _writemsg
010f76: ec319e000000     AMAR *(#00000h),XAR1
010f7c: eca18e           AMAR *AR5,XAR0
010f7f: 6c0132dc         CALL _readmsg
010f83: df310501305e     MOV uns(*(#01305eh)),AC0
010f89: dfb715           MOV uns(*AR5(T1)),AC1
010f8c: dfb515_111318    MOV uns(*(AR5-T1)),AC1 || ADD AC1 << #24,AC0
010f92: dfb315_111310    MOV uns(*(AR5+T1)),AC1 || ADD AC1 << #16,AC0
010f98: 101308           ADD AC1 << #8,AC0
010f9b: eb0008           MOV AC0,dbl(@#00h)
010f9e: ed31080131c8     MOV dbl(*(#0131c8h)),AC0
010fa4: 9200             CALL AC0
010fa6: ed0008           MOV dbl(@#00h),AC0
010fa9: 4e02             AADD #2,SP
010fab: 50d4             POPBOTH XAR5
010fad: 4804             RET
010faf:               _IRQ_init:
010faf: 4efb             AADD #-5,SP
010fb1: c404             MOV T0,@#02h
010fb3: eb0085           MOV XAR0,dbl(@#00h)
010fb6: ed00bf           MOV dbl(@#00h),XAR3
010fb9: 90b0             MOV XAR3,AC0
010fbb: ec31be7fffff     AMAR *(#07fffffh),XAR3
010fc1: 90b1             MOV XAR3,AC1
010fc3: 121c04           CMPU AC1 != AC0, TC1
010fc6: 62e4             BCC $C$L1,TC1
010fc8: 3e64             MOV #-6,T0
010fca: 060066           B $C$L6
010fcd:               $C$L1:
010fcd: ed00bf           MOV dbl(@#00h),XAR3
010fd0: eb31b501312e     MOV XAR3,dbl(*(#01312eh))
010fd6: e60600           MOV #0,@#03h
010fd9: 76001fa8         MOV #31,AR2
010fdd: a906             MOV @#03h,AR1
010fdf: 12a494           CMPU AR2 < AR1, TC1
010fe2: 04641b           BCC $C$DW$L$_IRQ_init$4$E,TC1
010fe5:               $C$L2:
010fe5:               $C$DW$L$_IRQ_init$4$B:
010fe5: a406             MOV @#03h,T0
010fe7: 5040             SFTL T0,#1
010fe9: a006             MOV @#03h,AC0
010feb: ec31be013130     AMAR *(#013130h),XAR3
010ff1: eb6b08           MOV AC0,dbl(*AR3(AR0))
010ff4: f7060001         ADD #1,@#03h
010ff8: a906             MOV @#03h,AR1
010ffa: 12a894           CMPU AR2 >= AR1, TC1
010ffd: 0464e5           BCC $C$L2,TC1
011000:               $C$DW$L$_IRQ_init$4$E:
011000:               $C$L3:
011000: e60600           MOV #0,@#03h
011003: a906             MOV @#03h,AR1
011005: 12a494           CMPU AR2 < AR1, TC1
011008: 04641f           BCC $C$DW$L$_IRQ_init$6$E,TC1
01100b:               $C$L4:
01100b:               $C$DW$L$_IRQ_init$6$B:
01100b: a506             MOV @#03h,T1
01100d: 2254             MOV T1,T0
01100f: 5040             SFTL T0,#1
011011: 3c10             MOV #1,AC0
011013: ec31be013170     AMAR *(#013170h),XAR3
011019: 5c05             SFTS AC0,T1,AC0
01101b: eb6b08           MOV AC0,dbl(*AR3(AR0))
01101e: f7060001         ADD #1,@#03h
011022: a906             MOV @#03h,AR1
011024: 12a894           CMPU AR2 >= AR1, TC1
011027: 0464e1           BCC $C$L4,TC1
01102a:               $C$DW$L$_IRQ_init$6$E:
01102a:               $C$L5:
01102a: a904             MOV @#02h,AR1
01102c: c9310131b0       MOV AR1,*(#0131b0h)
011031: 3c04             MOV #0,T0
011033:               $C$L6:
011033: 4e05             AADD #5,SP
011035: 4804             RET
011037:               _IRQ_clear:
011037: 4efd             AADD #-3,SP
011039: c400             MOV T0,@#00h
01103b: 76001fa8_2349    MOV #31,AR2 || MOV T0,AR1
011041: 12a894           CMPU AR2 >= AR1, TC1
011044: 6264             BCC $C$L7,TC1
011046: 3e64             MOV #-6,T0
011048: 4a3c             B $C$L10
01104a:               $C$L7:
01104a: 080424           CALL _IRQ_globalDisable
01104d: c404             MOV T0,@#02h
01104f: a900             MOV @#00h,AR1
011051: c902             MOV AR1,@#01h
011053: a900_3dfa        MOV @#00h,AR1 || MOV #15,AR2
011057: 12a894           CMPU AR2 >= AR1, TC1
01105a: 046413           BCC $C$L8,TC1
01105d: 7c001059_3d10    SUB #16,AR1,T1 || MOV #1,AC0
011063: 5c05             SFTS AC0,T1,AC0
011065: c002             MOV AC0,@#01h
011067: 2209             MOV AC0,AR1
011069: c931000046       MOV AR1,*(#00046h)
01106e: 4a0f             B $C$L9
011070:               $C$L8:
011070: a500_3d10        MOV @#00h,T1 || MOV #1,AC0
011074: 5c05             SFTS AC0,T1,AC0
011076: c002             MOV AC0,@#01h
011078: 2209             MOV AC0,AR1
01107a: c931000001       MOV AR1,*(#00001h)
01107f:               $C$L9:
01107f: a404             MOV @#02h,T0
011081: 08041f           CALL _IRQ_globalRestore
011084: 3c04             MOV #0,T0
011086:               $C$L10:
011086: 4e03             AADD #3,SP
011088: 4804             RET
01108a:               _IRQ_clearAll:
01108a: fb31ffff000001   MOV #-1,*(#00001h)
011091: fb31ffff000046   MOV #-1,*(#00046h)
011098: 4804             RET
01109a:               _IRQ_config:
01109a: 4efb             AADD #-5,SP
01109c: eb0485           MOV XAR0,dbl(@#02h)
01109f: c400             MOV T0,@#00h
0110a1: ed04bf           MOV dbl(@#02h),XAR3
0110a4: 90b0_3d01        MOV XAR3,AC0 || MOV #0,AC1
0110a8: 121c04           CMPU AC1 != AC0, TC1
0110ab: 62e4             BCC $C$L11,TC1
0110ad: 3e64             MOV #-6,T0
0110af: 060069           B $C$L13
0110b2:               $C$L11:
0110b2: 76001fa8_2349    MOV #31,AR2 || MOV T0,AR1
0110b8: 12a894           CMPU AR2 >= AR1, TC1
0110bb: 62e4             BCC $C$L12,TC1
0110bd: 3e64             MOV #-6,T0
0110bf: 060059           B $C$L13
0110c2:               $C$L12:
0110c2: ed31af01312e     MOV dbl(*(#01312eh)),XAR2
0110c8: f9000308         MOV @#00h << #3,AC0
0110cc: 2204             MOV AC0,T0
0110ce: 806170           MOV dbl(*AR3),dbl(*AR2(AR0))
0110d1: ed31bf01312e     MOV dbl(*(#01312eh)),XAR3
0110d7: ed04af           MOV dbl(@#02h),XAR2
0110da: f9000308         MOV @#00h << #3,AC0
0110de: 2209             MOV AC0,AR1
0110e0: 8e55bd180890     MOV dbl(*(AR2-T1)),AC0 || AADD AR1,AR3
0110e6: eb7508           MOV AC0,dbl(*(AR3-T1))
0110e9: ed31bf01312e     MOV dbl(*(#01312eh)),XAR3
0110ef: ed04af           MOV dbl(@#02h),XAR2
0110f2: f9000308         MOV @#00h << #3,AC0
0110f6: 2209             MOV AC0,AR1
0110f8: 8e59bd180890     MOV dbl(*+AR2),AC0 || AADD AR1,AR3
0110fe: eb7908           MOV AC0,dbl(*+AR3)
011101: ed31bf01312e     MOV dbl(*(#01312eh)),XAR3
011107: ed04af           MOV dbl(@#02h),XAR2
01110a: f9000308         MOV @#00h << #3,AC0
01110e: 2209             MOV AC0,AR1
011110: 8e5dbd180890     MOV dbl(*(AR2+AR0B)),AC0 || AADD AR1,AR3
011116: eb7d08           MOV AC0,dbl(*(AR3+AR0B))
011119: 3c04             MOV #0,T0
01111b:               $C$L13:
01111b: 4e05             AADD #5,SP
01111d: 4804             RET
01111f:               _IRQ_getConfig:
01111f: 4efb             AADD #-5,SP
011121: eb0485           MOV XAR0,dbl(@#02h)
011124: c400             MOV T0,@#00h
011126: ed04bf           MOV dbl(@#02h),XAR3
011129: 90b0_3d01        MOV XAR3,AC0 || MOV #0,AC1
01112d: 121c04           CMPU AC1 != AC0, TC1
011130: 62e4             BCC $C$L14,TC1
011132: 3e64             MOV #-6,T0
011134: 06006c           B $C$L16
011137:               $C$L14:
011137: 76001fa8_2349    MOV #31,AR2 || MOV T0,AR1
01113d: 12a894           CMPU AR2 >= AR1, TC1
011140: 62e4             BCC $C$L15,TC1
011142: 3e64             MOV #-6,T0
011144: 06005c           B $C$L16
011147:               $C$L15:
011147: ed31bf01312e     MOV dbl(*(#01312eh)),XAR3
01114d: ed04af           MOV dbl(@#02h),XAR2
011150: f9000308         MOV @#00h << #3,AC0
011154: 2204             MOV AC0,T0
011156: 807d00           MOV dbl(*AR3(AR0)),dbl(*AR2)
011159: ed31bf01312e     MOV dbl(*(#01312eh)),XAR3
01115f: f9000308         MOV @#00h << #3,AC0
011163: 2209             MOV AC0,AR1
011165: 1490b0           AADD AR1,AR3
011168: ed7508           MOV dbl(*(AR3-T1)),AC0
01116b: ed04bf           MOV dbl(@#02h),XAR3
01116e: eb7508           MOV AC0,dbl(*(AR3-T1))
011171: ed31bf01312e     MOV dbl(*(#01312eh)),XAR3
011177: f9000308         MOV @#00h << #3,AC0
01117b: 2209             MOV AC0,AR1
01117d: 1490b0           AADD AR1,AR3
011180: ed7908           MOV dbl(*+AR3),AC0
011183: ed04bf           MOV dbl(@#02h),XAR3
011186: eb7908           MOV AC0,dbl(*+AR3)
011189: ed31bf01312e     MOV dbl(*(#01312eh)),XAR3
01118f: f9000308         MOV @#00h << #3,AC0
011193: 2209             MOV AC0,AR1
011195: 1490b0           AADD AR1,AR3
011198: ed7d08           MOV dbl(*(AR3+AR0B)),AC0
01119b: ed04bf           MOV dbl(@#02h),XAR3
01119e: eb7d08           MOV AC0,dbl(*(AR3+AR0B))
0111a1: 3c04             MOV #0,T0
0111a3:               $C$L16:
0111a3: 4e05             AADD #5,SP
0111a5: 4804             RET
0111a7:               _IRQ_disable:
0111a7: 4efb             AADD #-5,SP
0111a9: c400             MOV T0,@#00h
0111ab: 76001fa8_2349    MOV #31,AR2 || MOV T0,AR1
0111b1: 12a894           CMPU AR2 >= AR1, TC1
0111b4: 62e4             BCC $C$L17,TC1
0111b6: 3e64             MOV #-6,T0
0111b8: 060066           B $C$L20
0111bb:               $C$L17:
0111bb: c902             MOV AR1,@#01h
0111bd: 0802b1           CALL _IRQ_globalDisable
0111c0: c406             MOV T0,@#03h
0111c2: a900_3dfa        MOV @#00h,AR1 || MOV #15,AR2
0111c6: 12a894           CMPU AR2 >= AR1, TC1
0111c9: 04642a           BCC $C$L18,TC1
0111cc: f702fff0         ADD #-16,@#01h
0111d0: df3105000045     MOV uns(*(#00045h)),AC0
0111d6: a902             MOV @#01h,AR1
0111d8: 3495             NEG AR1,T1
0111da: 5c05             SFTS AC0,T1,AC0
0111dc: 180100           AND #1,AC0,AC0
0111df: c004             MOV AC0,@#02h
0111e1: a502_3d10        MOV @#01h,T1 || MOV #1,AC0
0111e5: 5c05             SFTS AC0,T1,AC0
0111e7: 3609             NOT AC0,AR1
0111e9: d93109000045     AND *(#00045h),AR1,AC0
0111ef: c031000045       MOV AC0,*(#00045h)
0111f4: 4a24             B $C$L19
0111f6:               $C$L18:
0111f6: a902             MOV @#01h,AR1
0111f8: df3105000000     MOV uns(*(#00000h)),AC0
0111fe: 3495             NEG AR1,T1
011200: 5c05             SFTS AC0,T1,AC0
011202: 180100           AND #1,AC0,AC0
011205: c004             MOV AC0,@#02h
011207: a502_3d10        MOV @#01h,T1 || MOV #1,AC0
01120b: 5c05             SFTS AC0,T1,AC0
01120d: 3609             NOT AC0,AR1
01120f: d93109000000     AND *(#00000h),AR1,AC0
011215: c031000000       MOV AC0,*(#00000h)
01121a:               $C$L19:
01121a: a406             MOV @#03h,T0
01121c: 080284           CALL _IRQ_globalRestore
01121f: a404             MOV @#02h,T0
011221:               $C$L20:
011221: 4e05             AADD #5,SP
011223: 4804             RET
011225:               _IRQ_disableAll:
011225: e63100000000     MOV #0,*(#00000h)
01122b: e63100000045     MOV #0,*(#00045h)
011231: 4804             RET
011233:               _IRQ_enable:
011233: 4efb             AADD #-5,SP
011235: c400             MOV T0,@#00h
011237: 76001fa8_2349    MOV #31,AR2 || MOV T0,AR1
01123d: 12a894           CMPU AR2 >= AR1, TC1
011240: 62e4             BCC $C$L21,TC1
011242: 3e64             MOV #-6,T0
011244: 060072           B $C$L24
011247:               $C$L21:
011247: c902             MOV AR1,@#01h
011249: 080225           CALL _IRQ_globalDisable
01124c: c406             MOV T0,@#03h
01124e: a900_3dfa        MOV @#00h,AR1 || MOV #15,AR2
011252: 12a894           CMPU AR2 >= AR1, TC1
011255: 046430           BCC $C$L22,TC1
011258: f702fff0         ADD #-16,@#01h
01125c: df3105000045     MOV uns(*(#00045h)),AC0
011262: a902             MOV @#01h,AR1
011264: 3495             NEG AR1,T1
011266: 5c05             SFTS AC0,T1,AC0
011268: 180100           AND #1,AC0,AC0
01126b: c004             MOV AC0,@#02h
01126d: a502_3d10        MOV @#01h,T1 || MOV #1,AC0
011271: 5c05             SFTS AC0,T1,AC0
011273: 3609             NOT AC0,AR1
011275: d93199000045     AND *(#00045h),AR1,AR1
01127b: 3c10             MOV #1,AC0
01127d: 5c05             SFTS AC0,T1,AC0
01127f: 2a90             OR AR1,AC0
011281: c031000045       MOV AC0,*(#00045h)
011286: 4a2a             B $C$L23
011288:               $C$L22:
011288: a902             MOV @#01h,AR1
01128a: df3105000000     MOV uns(*(#00000h)),AC0
011290: 3495             NEG AR1,T1
011292: 5c05             SFTS AC0,T1,AC0
011294: 180100           AND #1,AC0,AC0
011297: c004             MOV AC0,@#02h
011299: a502_3d10        MOV @#01h,T1 || MOV #1,AC0
01129d: 5c05             SFTS AC0,T1,AC0
01129f: 3609             NOT AC0,AR1
0112a1: d93199000000     AND *(#00000h),AR1,AR1
0112a7: 3c10             MOV #1,AC0
0112a9: 5c05             SFTS AC0,T1,AC0
0112ab: 2a90             OR AR1,AC0
0112ad: c031000000       MOV AC0,*(#00000h)
0112b2:               $C$L23:
0112b2: a406             MOV @#03h,T0
0112b4: 0801ec           CALL _IRQ_globalRestore
0112b7: a404             MOV @#02h,T0
0112b9:               $C$L24:
0112b9: 4e05             AADD #5,SP
0112bb: 4804             RET
0112bd:               _IRQ_restore:
0112bd: 4efb             AADD #-5,SP
0112bf: c502             MOV T1,@#01h
0112c1: c400             MOV T0,@#00h
0112c3: 76001fa8_2349    MOV #31,AR2 || MOV T0,AR1
0112c9: 12a894           CMPU AR2 >= AR1, TC1
0112cc: 62e4             BCC $C$L25,TC1
0112ce: 3e64             MOV #-6,T0
0112d0: 060056           B $C$L28
0112d3:               $C$L25:
0112d3: c904             MOV AR1,@#02h
0112d5: 080199           CALL _IRQ_globalDisable
0112d8: c406             MOV T0,@#03h
0112da: a900_3dfa        MOV @#00h,AR1 || MOV #15,AR2
0112de: 12a894           CMPU AR2 >= AR1, TC1
0112e1: 046422           BCC $C$L26,TC1
0112e4: f704fff0         ADD #-16,@#02h
0112e8: a504_3d10        MOV @#02h,T1 || MOV #1,AC0
0112ec: 5c05             SFTS AC0,T1,AC0
0112ee: aa02_3709        MOV @#01h,AR2 || NOT AC0,AR1
0112f2: d93199000045     AND *(#00045h),AR1,AR1
0112f8: 18010a           AND #1,AR2,AC0
0112fb: 5c05             SFTS AC0,T1,AC0
0112fd: 2a90             OR AR1,AC0
0112ff: c031000045       MOV AC0,*(#00045h)
011304: 4a1c             B $C$L27
011306:               $C$L26:
011306: a504_3d10        MOV @#02h,T1 || MOV #1,AC0
01130a: 5c05             SFTS AC0,T1,AC0
01130c: aa02_3709        MOV @#01h,AR2 || NOT AC0,AR1
011310: d93199000000     AND *(#00000h),AR1,AR1
011316: 18010a           AND #1,AR2,AC0
011319: 5c05             SFTS AC0,T1,AC0
01131b: 2a90             OR AR1,AC0
01131d: c031000000       MOV AC0,*(#00000h)
011322:               $C$L27:
011322: a406             MOV @#03h,T0
011324: 08017c           CALL _IRQ_globalRestore
011327: 3c04             MOV #0,T0
011329:               $C$L28:
011329: 4e05             AADD #5,SP
01132b: 4804             RET
01132d:               _IRQ_getArg:
01132d: 4efb             AADD #-5,SP
01132f: eb0485           MOV XAR0,dbl(@#02h)
011332: c400             MOV T0,@#00h
011334: ed04bf           MOV dbl(@#02h),XAR3
011337: 90b0_3d01        MOV XAR3,AC0 || MOV #0,AC1
01133b: 121c04           CMPU AC1 != AC0, TC1
01133e: 6264             BCC $C$L29,TC1
011340: 3e64             MOV #-6,T0
011342: 4a29             B $C$L31
011344:               $C$L29:
011344: 76001fa8_2349    MOV #31,AR2 || MOV T0,AR1
01134a: 12a894           CMPU AR2 >= AR1, TC1
01134d: 6264             BCC $C$L30,TC1
01134f: 3e64             MOV #-6,T0
011351: 4a1a             B $C$L31
011353:               $C$L30:
011353: ed31bf01312e     MOV dbl(*(#01312eh)),XAR3
011359: f9000308         MOV @#00h << #3,AC0
01135d: 2209             MOV AC0,AR1
01135f: ed04af           MOV dbl(@#02h),XAR2
011362: 1490b0           AADD AR1,AR3
011365: 1402b4           AADD #2,AR3
011368: 806100           MOV dbl(*AR3),dbl(*AR2)
01136b: 3c04             MOV #0,T0
01136d:               $C$L31:
01136d: 4e05             AADD #5,SP
01136f: 4804             RET
011371:               _IRQ_setArg:
011371: 4efb             AADD #-5,SP
011373: eb0408           MOV AC0,dbl(@#02h)
011376: c400             MOV T0,@#00h
011378: 76001fa8_2349    MOV #31,AR2 || MOV T0,AR1
01137e: 12a894           CMPU AR2 >= AR1, TC1
011381: 6264             BCC $C$L32,TC1
011383: 3e64             MOV #-6,T0
011385: 4a17             B $C$L33
011387:               $C$L32:
011387: ed31bf01312e     MOV dbl(*(#01312eh)),XAR3
01138d: f9000308         MOV @#00h << #3,AC0
011391: 2209             MOV AC0,AR1
011393: 8e04bd180890     MOV dbl(@#02h),AC0 || AADD AR1,AR3
011399: eb7508           MOV AC0,dbl(*(AR3-T1))
01139c: 3c04             MOV #0,T0
01139e:               $C$L33:
01139e: 4e05             AADD #5,SP
0113a0: 4804             RET
0113a2:               _IRQ_map:
0113a2: 4eff             AADD #-1,SP
0113a4: c400             MOV T0,@#00h
0113a6: 76001fa8_2349    MOV #31,AR2 || MOV T0,AR1
0113ac: 12a894           CMPU AR2 >= AR1, TC1
0113af: 6264             BCC $C$L34,TC1
0113b1: 3e64             MOV #-6,T0
0113b3: 4a15             B $C$L35
0113b5:               $C$L34:
0113b5: a500             MOV @#00h,T1
0113b7: 2254             MOV T1,T0
0113b9: 5040             SFTL T0,#1
0113bb: 3c10             MOV #1,AC0
0113bd: ec31be013130     AMAR *(#013130h),XAR3
0113c3: 5c05             SFTS AC0,T1,AC0
0113c5: eb6b08           MOV AC0,dbl(*AR3(AR0))
0113c8: 3c04             MOV #0,T0
0113ca:               $C$L35:
0113ca: 4e01             AADD #1,SP
0113cc: 4804             RET
0113ce:               _IRQ_setVecs:
0113ce: 4efb             AADD #-5,SP
0113d0: eb0008           MOV AC0,dbl(@#00h)
0113d3: 7affff0a         MOV #-1 << #16,AC0
0113d7: ed0018           MOV dbl(@#00h),AC1
0113da: 7eff0000         OR #65280,AC0,AC0
0113de: 2810             AND AC1,AC0
0113e0: 100738           SFTL AC0,#-8,AC0
0113e3: c006             MOV AC0,@#03h
0113e5: 080089           CALL _IRQ_globalDisable
0113e8: c404             MOV T0,@#02h
0113ea: a906             MOV @#03h,AR1
0113ec: c931000049       MOV AR1,*(#00049h)
0113f1: c93100004a       MOV AR1,*(#0004ah)
0113f6: 0800aa           CALL _IRQ_globalRestore
0113f9: 3c04             MOV #0,T0
0113fb: 4e05             AADD #5,SP
0113fd: 4804             RET
0113ff:               _IRQ_test:
0113ff: 4ef9             AADD #-7,SP
011401: eb0485           MOV XAR0,dbl(@#02h)
011404: c400             MOV T0,@#00h
011406: ed04bf           MOV dbl(@#02h),XAR3
011409: 90b0_3d01        MOV XAR3,AC0 || MOV #0,AC1
01140d: 121c04           CMPU AC1 != AC0, TC1
011410: 62e4             BCC $C$L36,TC1
011412: 3e64             MOV #-6,T0
011414: 060056           B $C$L40
011417:               $C$L36:
011417: 76001fa8_2349    MOV #31,AR2 || MOV T0,AR1
01141d: 12a894           CMPU AR2 >= AR1, TC1
011420: 62e4             BCC $C$L37,TC1
011422: 3e64             MOV #-6,T0
011424: 060046           B $C$L40
011427:               $C$L37:
011427: c908             MOV AR1,@#04h
011429: 080045           CALL _IRQ_globalDisable
01142c: c40a             MOV T0,@#05h
01142e: a900_3dfa        MOV @#00h,AR1 || MOV #15,AR2
011432: 12a894           CMPU AR2 >= AR1, TC1
011435: 04641a           BCC $C$L38,TC1
011438: f708fff0         ADD #-16,@#04h
01143c: a908             MOV @#04h,AR1
01143e: ed04bf           MOV dbl(@#02h),XAR3
011441: df3105000046     MOV uns(*(#00046h)),AC0
011447: 3495             NEG AR1,T1
011449: 5c05             SFTS AC0,T1,AC0
01144b: 180100           AND #1,AC0,AC0
01144e: c061             MOV AC0,*AR3
011450: 4a14             B $C$L39
011452:               $C$L38:
011452: a908             MOV @#04h,AR1
011454: ed04bf           MOV dbl(@#02h),XAR3
011457: df3105000001     MOV uns(*(#00001h)),AC0
01145d: 3495             NEG AR1,T1
01145f: 5c05             SFTS AC0,T1,AC0
011461: 180100           AND #1,AC0,AC0
011464: c061             MOV AC0,*AR3
011466:               $C$L39:
011466: a40a             MOV @#05h,T0
011468: 080038           CALL _IRQ_globalRestore
01146b: 3c04             MOV #0,T0
01146d:               $C$L40:
01146d: 4e07             AADD #7,SP
01146f: 4804             RET
011471:               _IRQ_globalDisable:
011471: 4eff             AADD #-1,SP
011473: a931000003       MOV *(#00003h),AR1
011478: 7d080009         AND #2048,AR1,AC0
01147c: 100535           SFTS AC0,#-11,AC0
01147f: c000             MOV AC0,@#00h
011481: 20               NOP
011482: 46b3             BSET ST1_INTM
011484: 2204             MOV AC0,T0
011486: 4e01             AADD #1,SP
011488: 4804             RET
01148a:               _IRQ_globalEnable:
01148a: 4eff             AADD #-1,SP
01148c: a931000003       MOV *(#00003h),AR1
011491: 7d080009         AND #2048,AR1,AC0
011495: 100535           SFTS AC0,#-11,AC0
011498: c000             MOV AC0,@#00h
01149a: 20               NOP
01149b: 46b2             BCLR ST1_INTM
01149d: 2204             MOV AC0,T0
01149f: 4e01             AADD #1,SP
0114a1: 4804             RET
0114a3:               _IRQ_globalRestore:
0114a3: 4eff             AADD #-1,SP
0114a5: c400             MOV T0,@#00h
0114a7: 2249             MOV T0,AR1
0114a9: 6289             BCC $C$L41,AR1 == #0
0114ab: 20               NOP
0114ac: 46b3             BSET ST1_INTM
0114ae: 4a03             B $C$L42
0114b0:               $C$L41:
0114b0: 20               NOP
0114b1: 46b2             BCLR ST1_INTM
0114b3:               $C$L42:
0114b3: 4e01             AADD #1,SP
0114b5: 4804             RET
0114b7:               _free:
0114b7: 50d5             PSHBOTH XAR5
0114b9: 20               NOP
0114ba: 20               NOP
0114bb: 20               NOP
0114bc: ec01de           AMAR *AR0,XAR5
0114bf: 90d0             MOV XAR5,AC0
0114c1: 6d0000ba         BCC #0x01157f,AC0 == #0
0114c5: ed31080131c6     MOV dbl(*(#0131c6h)),AC0
0114cb: 9200             CALL AC0
0114cd: 1402d6           ASUB #2,AR5
0114d0: 90d3             MOV XAR5,AC3
0114d2: ed31bf0131c0     MOV dbl(*(#0131c0h)),XAR3
0114d8: 1a0013           OR #0,AC3,AC1
0114db: 90b0             MOV XAR3,AC0
0114dd: 1a0020           OR #0,AC0,AC2
0114e0: 122814           CMPU AC2 >= AC1, TC1
0114e3: 046412           BCC #0x0114f8,TC1
0114e6: 900b             MOV AC0,XAR3
0114e8: ed75af           MOV dbl(*(AR3-T1)),XAR2
0114eb: 90a0             MOV XAR2,AC0
0114ed: 1a0020           OR #0,AC0,AC2
0114f0: 122414           CMPU AC2 < AC1, TC1
0114f3: 0464f0           BCC #0x0114e6,TC1
0114f6: 4a06             B #0x0114fe
0114f8: ec31be000000     AMAR *(#00000h),XAR3
0114fe: 903a             MOV AC3,XAR2
011500: a941             MOV *AR2,AR1
011502: 7dfffec9         AND #65534,AR1,AR4
011506: 7dffff2c         AND #65535,AR4,AC2
01150a: 2412             ADD AC1,AC2
01150c: 1a0010           OR #0,AC0,AC1
01150f: 122014           CMPU AC2 == AC1, TC1
011512: eb5508_9e74      XCC !TC1 || MOV AC0,dbl(*(AR2-T1))
011517: 04741d           BCC #0x011537,!TC1
01151a: 900a             MOV AC0,XAR2
01151c: a941             MOV *AR2,AR1
01151e: ec0092           BCLR @#00h,AR1
011521: 24c9             ADD AR4,AR1
011523: ed55cf           MOV dbl(*(AR2-T1)),XAR4
011526: 903a             MOV AC3,XAR2
011528: 7dfffe09         AND #65534,AR1,AC0
01152c: c041             MOV AC0,*AR2
01152e: eb55c5           MOV XAR4,dbl(*(AR2-T1))
011531: a941             MOV *AR2,AR1
011533: 7dfffec9         AND #65534,AR1,AR4
011537: 90b0             MOV XAR3,AC0
011539: 04002f           BCC #0x01156b,AC0 == #0
01153c: a961             MOV *AR3,AR1
01153e: 7dfffe99         AND #65534,AR1,AR1
011542: 7dffff19         AND #65535,AR1,AC1
011546: 2401             ADD AC0,AC1
011548: 1a0003           OR #0,AC3,AC0
01154b: 121004           CMPU AC1 == AC0, TC1
01154e: 9039_9ef4        XCCPART !TC1 || MOV AC3,XAR1
011552: eb7595_9e74      XCC !TC1 || MOV XAR1,dbl(*(AR3-T1))
011557: 047419           BCC #0x011573,!TC1
01155a: 903a             MOV AC3,XAR2
01155c: 24c9             ADD AR4,AR1
01155e: ec0092           BCLR @#00h,AR1
011561: c961             MOV AR1,*AR3
011563: ed55af           MOV dbl(*(AR2-T1)),XAR2
011566: eb75a5           MOV XAR2,dbl(*(AR3-T1))
011569: 4a0c             B #0x011577
01156b: 9039             MOV AC3,XAR1
01156d: eb31950131c0     MOV XAR1,dbl(*(#0131c0h))
011573: 903b             MOV AC3,XAR3
011575: cc61             MOV AR4,*AR3
011577: ed31080131c8     MOV dbl(*(#0131c8h)),AC0
01157d: 9200             CALL AC0
01157f: 50d4             POPBOTH XAR5
011581: 4804             RET
011583:               _minit:
011583: ed31080131c6     MOV dbl(*(#0131c6h)),AC0
011589: 4eff             AADD #-1,SP
01158b: 9200             CALL AC0
01158d: ec31be004000     AMAR *(#04000h),XAR3
011593: 18019b           AND #1,AR3,AR1
011596: 7a00000a         MOV #0 << #16,AC0
01159a: 90b1             MOV XAR3,AC1
01159c: 7e600000         OR #24576,AC0,AC0
0115a0: 5001             SFTL AC0,#-1
0115a2: 2690             SUB AR1,AC0
0115a4: 7dffff09_230a    AND #65535,AR1,AC0 || MOV AC0,AR2
0115aa: ca310131c4       MOV AR2,*(#0131c4h)
0115af: 2410             ADD AC1,AC0
0115b1: 900c             MOV AC0,XAR4
0115b3: 7dffff09         AND #65535,AR1,AC0
0115b7: 2410             ADD AC1,AC0
0115b9: 900b             MOV AC0,XAR3
0115bb: e631000131c5     MOV #0,*(#0131c5h)
0115c1: eb31c50131c0     MOV XAR4,dbl(*(#0131c0h))
0115c7: 7dfffe0a         AND #65534,AR2,AC0
0115cb: eb31c50131c2     MOV XAR4,dbl(*(#0131c2h))
0115d1: c061             MOV AC0,*AR3
0115d3: ec31ae7fffff     AMAR *(#07fffffh),XAR2
0115d9: ed31080131c8     MOV dbl(*(#0131c8h)),AC0
0115df: eb75a5           MOV XAR2,dbl(*(AR3-T1))
0115e2: 9200             CALL AC0
0115e4: 4e01             AADD #1,SP
0115e6: 4804             RET
0115e8:               _malloc:
0115e8: 5066             PSH T2
0115ea: 4efe             AADD #-2,SP
0115ec: 04045e           BCC #0x01164d,T0 == #0
0115ef: 3c49             MOV #4,AR1
0115f1: 7b000264         ADD #2,T0,T2
0115f5: ed31080131c6     MOV dbl(*(#0131c6h)),AC0
0115fb: 129464_21        CMPU AR1 < T2, TC1 || NOP
0115ff: 3c46_9ef4        XCCPART !TC1 || MOV #4,T2
011603: 180196           AND #1,T2,AR1
011606: 2496             ADD AR1,T2
011608: 9200             CALL AC0
01160a: a9310131c5       MOV *(#0131c5h),AR1
01160f: 6189             BCC #0x011614,AR1 == #0
011611: 08ff6f           CALL _minit
011614: ed31bf0131c0     MOV dbl(*(#0131c0h)),XAR3
01161a: eb00b5           MOV XAR3,dbl(@#00h)
01161d: 20               NOP
01161e: 20               NOP
01161f: 20               NOP
011620: ec31be000000     AMAR *(#00000h),XAR3
011626: 4a0c             B #0x011634
011628: ed00bf           MOV dbl(@#00h),XAR3
01162b: ed75af           MOV dbl(*(AR3-T1)),XAR2
01162e: eb00a5           MOV XAR2,dbl(@#00h)
011631: 20               NOP
011632: 20               NOP
011633: 20               NOP
011634: ec31ae7fffff     AMAR *(#07fffffh),XAR2
01163a: ed0008           MOV dbl(@#00h),AC0
01163d: 90a1             MOV XAR2,AC1
01163f: 120c14           CMPU AC0 != AC1, TC1
011642: 046411           BCC #0x011656,TC1
011645: ed31080131c8     MOV dbl(*(#0131c8h)),AC0
01164b: 9200             CALL AC0
01164d: ec318e000000     AMAR *(#00000h),XAR0
011653: 060081           B #0x0116d7
011656: ed00af           MOV dbl(@#00h),XAR2
011659: a941             MOV *AR2,AR1
01165b: 7dfffe99         AND #65534,AR1,AR1
01165f: 129464_21        CMPU AR1 < T2, TC1 || NOP
011663: 0464c2           BCC #0x011628,TC1
011666: 7b0004a6         ADD #4,T2,AR2
01166a: 12a494_21        CMPU AR2 < AR1, TC1 || NOP
01166e: 046424           BCC #0x011695,TC1
011671: 90b0             MOV XAR3,AC0
011673: 6710             BCC #0x011683,AC0 != #0
011675: ed00bf           MOV dbl(@#00h),XAR3
011678: ed75bf           MOV dbl(*(AR3-T1)),XAR3
01167b: eb31b50131c0     MOV XAR3,dbl(*(#0131c0h))
011681: 4a09             B #0x01168c
011683: ed00af           MOV dbl(@#00h),XAR2
011686: ed55af           MOV dbl(*(AR2-T1)),XAR2
011689: eb75a5           MOV XAR2,dbl(*(AR3-T1))
01168c: ed00bf           MOV dbl(@#00h),XAR3
01168f: f5610001         OR #1,*AR3
011693: 4a34             B #0x0116c9
011695: ed00af           MOV dbl(@#00h),XAR2
011698: ed00cf           MOV dbl(@#00h),XAR4
01169b: 7dffff06         AND #65535,T2,AC0
01169f: 90a1             MOV XAR2,AC1
0116a1: 2410             ADD AC1,AC0
0116a3: 900a             MOV AC0,XAR2
0116a5: ed95cf           MOV dbl(*(AR4-T1)),XAR4
0116a8: 90b0             MOV XAR3,AC0
0116aa: eb55c5           MOV XAR4,dbl(*(AR2-T1))
0116ad: eb75a5_9e10      XCC AC0 != #0 || MOV XAR2,dbl(*(AR3-T1))
0116b2: ed00bf           MOV dbl(@#00h),XAR3
0116b5: 2669             SUB T2,AR1
0116b7: ec0092           BCLR @#00h,AR1
0116ba: c941_1b0196      MOV AR1,*AR2 || OR #1,T2,AR1
0116bf: 9600             XCC AC0 == #0
0116c1: eb31a50131c0     MOV XAR2,dbl(*(#0131c0h))
0116c7: c961             MOV AR1,*AR3
0116c9: ed31080131c8     MOV dbl(*(#0131c8h)),AC0
0116cf: 9200             CALL AC0
0116d1: ed008f           MOV dbl(@#00h),XAR0
0116d4: 140284           AADD #2,AR0
0116d7: 4e02             AADD #2,SP
0116d9: 5062             POP T2
0116db: 4804             RET
0116dd:               _realloc:
0116dd: 5066             PSH T2
0116df: 50d5             PSHBOTH XAR5
0116e1: 20               NOP
0116e2: 20               NOP
0116e3: 50f5             PSHBOTH XAR7
0116e5: ec01de_2346      AMAR *AR0,XAR5 || MOV T0,T2
0116ea: 4efc             AADD #-4,SP
0116ec: 6616             BCC #0x0116fa,T2 != #0
0116ee: 08fdc6           CALL _free
0116f1: ec318e000000     AMAR *(#00000h),XAR0
0116f7: 06018a           B #0x011884
0116fa: 90d0             MOV XAR5,AC0
0116fc: 6310             BCC #0x011704,AC0 != #0
0116fe: 08fee7           CALL _malloc
011701: 060180           B #0x011884
011704: 4026             ADD #2,T2
011706: 3c49             MOV #4,AR1
011708: eca1be_139464    AMAR *AR5,XAR3 || CMPU AR1 < T2, TC1
01170e: 3c46_9ef4        XCCPART !TC1 || MOV #4,T2
011712: 1402b6_190196    ASUB #2,AR3 || AND #1,T2,AR1
011718: a961_2596        MOV *AR3,AR1 || ADD AR1,T2
01171c: 90b1             MOV XAR3,AC1
01171e: 7dfffe09         AND #65534,AR1,AC0
011722: eb04b5_2510      MOV XAR3,dbl(@#02h) || ADD AC1,AC0
011727: eb0008           MOV AC0,dbl(@#00h)
01172a: ed31080131c6     MOV dbl(*(#0131c6h)),AC0
011730: 9200             CALL AC0
011732: ed04bf           MOV dbl(@#02h),XAR3
011735: a961             MOV *AR3,AR1
011737: 7dfffe99         AND #65534,AR1,AR1
01173b: 129864_21        CMPU AR1 >= T2, TC1 || NOP
01173f: 046434           BCC #0x011776,TC1
011742: ed31bf0131c2     MOV dbl(*(#0131c2h)),XAR3
011748: df31150131c4     MOV uns(*(#0131c4h)),AC1
01174e: 90b0             MOV XAR3,AC0
011750: ed0008_2501      MOV dbl(@#00h),AC0 || ADD AC0,AC1
011755: 120814           CMPU AC0 >= AC1, TC1
011758: 6d6400f7         BCC #0x011853,TC1
01175c: ed00bf           MOV dbl(@#00h),XAR3
01175f: aa61             MOV *AR3,AR2
011761: ec00a8           BTST @#00h,AR2,TC1
011764: 6d6400eb         BCC #0x011853,TC1
011768: 7dfffeaa         AND #65534,AR2,AR2
01176c: 249a             ADD AR1,AR2
01176e: 12a464_21        CMPU AR2 < T2, TC1 || NOP
011772: 6d6400dd         BCC #0x011853,TC1
011776: ed31bf0131c0     MOV dbl(*(#0131c0h)),XAR3
01177c: 90b0             MOV XAR3,AC0
01177e: ed0418_1b0020    MOV dbl(@#02h),AC1 || OR #0,AC0,AC2
011784: 122814           CMPU AC2 >= AC1, TC1
011787: 046415           BCC #0x01179f,TC1
01178a: 900b             MOV AC0,XAR3
01178c: ed75af           MOV dbl(*(AR3-T1)),XAR2
01178f: 90a0             MOV XAR2,AC0
011791: ed0418_1b0020    MOV dbl(@#02h),AC1 || OR #0,AC0,AC2
011797: 122414           CMPU AC2 < AC1, TC1
01179a: 0464ed           BCC #0x01178a,TC1
01179d: 4a06             B #0x0117a5
01179f: ec31be000000     AMAR *(#00000h),XAR3
0117a5: ed04af           MOV dbl(@#02h),XAR2
0117a8: a941             MOV *AR2,AR1
0117aa: 7dfffe99         AND #65534,AR1,AR1
0117ae: 7dffff29         AND #65535,AR1,AC2
0117b2: 2412             ADD AC1,AC2
0117b4: 1a0010           OR #0,AC0,AC1
0117b7: 121024           CMPU AC1 == AC2, TC1
0117ba: 046423           BCC #0x0117e0,TC1
0117bd: 2669_3d4a        SUB T2,AR1 || MOV #4,AR2
0117c1: 1294a4_21        CMPU AR1 < AR2, TC1 || NOP
0117c5: 04647e           BCC #0x011846,TC1
0117c8: ed04af           MOV dbl(@#02h),XAR2
0117cb: 7dffff16         AND #65535,T2,AC1
0117cf: 90a2             MOV XAR2,AC2
0117d1: 2421             ADD AC2,AC1
0117d3: 901a             MOV AC1,XAR2
0117d5: 7dfffe19         AND #65534,AR1,AC1
0117d9: eb5508           MOV AC0,dbl(*(AR2-T1))
0117dc: c141             MOV AC1,*AR2
0117de: 4a32             B #0x011812
0117e0: 900a             MOV AC0,XAR2
0117e2: aa41             MOV *AR2,AR2
0117e4: ec00a2           BCLR @#00h,AR2
0117e7: 249a             ADD AR1,AR2
0117e9: 22a9             MOV AR2,AR1
0117eb: 7b0004a6         ADD #4,T2,AR2
0117ef: 12a894_21        CMPU AR2 >= AR1, TC1 || NOP
0117f3: 04642f           BCC #0x011825,TC1
0117f6: 900a             MOV AC0,XAR2
0117f8: ed55cf           MOV dbl(*(AR2-T1)),XAR4
0117fb: ed04af           MOV dbl(@#02h),XAR2
0117fe: 7dffff06         AND #65535,T2,AC0
011802: 90a1             MOV XAR2,AC1
011804: 2410             ADD AC1,AC0
011806: 900a             MOV AC0,XAR2
011808: 2669             SUB T2,AR1
01180a: ec0092           BCLR @#00h,AR1
01180d: c941             MOV AR1,*AR2
01180f: eb55c5           MOV XAR4,dbl(*(AR2-T1))
011812: 90b0             MOV XAR3,AC0
011814: 9600             XCC AC0 == #0
011816: eb31a50131c0     MOV XAR2,dbl(*(#0131c0h))
01181c: eb75a5_9e10      XCC AC0 != #0 || MOV XAR2,dbl(*(AR3-T1))
011821: 4a19_2369        B #0x01183e || MOV T2,AR1
011825: 90b1             MOV XAR3,AC1
011827: 6691             BCC #0x011836,AC1 != #0
011829: 900b             MOV AC0,XAR3
01182b: ed75bf           MOV dbl(*(AR3-T1)),XAR3
01182e: eb31b50131c0     MOV XAR3,dbl(*(#0131c0h))
011834: 4a08             B #0x01183e
011836: 900a             MOV AC0,XAR2
011838: ed55af           MOV dbl(*(AR2-T1)),XAR2
01183b: eb75a5           MOV XAR2,dbl(*(AR3-T1))
01183e: ed04bf           MOV dbl(@#02h),XAR3
011841: 1a0199           OR #1,AR1,AR1
011844: c961             MOV AR1,*AR3
011846: ed31080131c8     MOV dbl(*(#0131c8h)),AC0
01184c: 9200             CALL AC0
01184e: eca18e           AMAR *AR5,XAR0
011851: 4a31             B #0x011884
011853: ed31080131c8     MOV dbl(*(#0131c8h)),AC0
011859: 9200             CALL AC0
01185b: 2264             MOV T2,T0
01185d: 08fd88           CALL _malloc
011860: ec01fe           AMAR *AR0,XAR7
011863: 90f0             MOV XAR7,AC0
011865: 040019           BCC #0x011881,AC0 == #0
011868: ed04bf           MOV dbl(@#02h),XAR3
01186b: a961             MOV *AR3,AR1
01186d: ec0092           BCLR @#00h,AR1
011870: 7c000249         SUB #2,AR1,T0
011874: eca19e           AMAR *AR5,XAR1
011877: 6c013535         CALL _memcpy
01187b: eca18e           AMAR *AR5,XAR0
01187e: 08fc36           CALL _free
011881: ece18e           AMAR *AR7,XAR0
011884: 4e04             AADD #4,SP
011886: 50f4             POPBOTH XAR7
011888: 50d4             POPBOTH XAR5
01188a: 5062             POP T2
01188c: 4804             RET
01188e:               _max_free:
01188e: 5066             PSH T2
011890: ed31080131c6     MOV dbl(*(#0131c6h)),AC0
011896: 9200             CALL AC0
011898: a9310131c5       MOV *(#0131c5h),AR1
01189d: ed31bf0131c0     MOV dbl(*(#0131c0h)),XAR3
0118a3: 3c06             MOV #0,T2
0118a5: 90b0             MOV XAR3,AC0
0118a7: 041930           BCC #0x0118da,AR1 != #0
0118aa: ec31be7fffff     AMAR *(#07fffffh),XAR3
0118b0: 1a0020           OR #0,AC0,AC2
0118b3: 90b1             MOV XAR3,AC1
0118b5: 122014           CMPU AC2 == AC1, TC1
0118b8: 04641f           BCC #0x0118da,TC1
0118bb: 900b             MOV AC0,XAR3
0118bd: a961             MOV *AR3,AR1
0118bf: ec0092           BCLR @#00h,AR1
0118c2: 4229             SUB #2,AR1
0118c4: 126894_21        CMPU T2 >= AR1, TC1 || NOP
0118c8: ed75bf           MOV dbl(*(AR3-T1)),XAR3
0118cb: 2296_9ef4        XCCPART !TC1 || MOV AR1,T2
0118cf: 90b0             MOV XAR3,AC0
0118d1: 1a0020           OR #0,AC0,AC2
0118d4: 122c14           CMPU AC2 != AC1, TC1
0118d7: 0464e1           BCC #0x0118bb,TC1
0118da: ed31080131c8     MOV dbl(*(#0131c8h)),AC0
0118e0: 9200             CALL AC0
0118e2: 2264             MOV T2,T0
0118e4: 5062             POP T2
0118e6: 4804             RET
0118e8:               _free_memory:
0118e8: 5066             PSH T2
0118ea: ed31080131c6     MOV dbl(*(#0131c6h)),AC0
0118f0: 9200             CALL AC0
0118f2: a9310131c5       MOV *(#0131c5h),AR1
0118f7: ed31bf0131c0     MOV dbl(*(#0131c0h)),XAR3
0118fd: 3c06             MOV #0,T2
0118ff: 90b0             MOV XAR3,AC0
011901: 04192c           BCC #0x011930,AR1 != #0
011904: ec31be7fffff     AMAR *(#07fffffh),XAR3
01190a: 1a0020           OR #0,AC0,AC2
01190d: 90b1             MOV XAR3,AC1
01190f: 122014           CMPU AC2 == AC1, TC1
011912: 04641b           BCC #0x011930,TC1
011915: 900b             MOV AC0,XAR3
011917: a961             MOV *AR3,AR1
011919: ed75bf           MOV dbl(*(AR3-T1)),XAR3
01191c: 90b0             MOV XAR3,AC0
01191e: ec0092_1b0020    BCLR @#00h,AR1 || OR #0,AC0,AC2
011924: 122c14_2569      CMPU AC2 != AC1, TC1 || ADD T2,AR1
011929: 7c000269         SUB #2,AR1,T2
01192d: 0464e5           BCC #0x011915,TC1
011930: ed31080131c8     MOV dbl(*(#0131c8h)),AC0
011936: 9200             CALL AC0
011938: 2264             MOV T2,T0
01193a: 5062             POP T2
01193c: 4804             RET
01193e:               _chkheap:
01193e: ec318e000000     AMAR *(#00000h),XAR0
011944: 4804             RET
011946:               _calloc:
011946: 5250             MOV T1,HI(AC0)
011948: 5800             MPY T0,AC0,AC0
01194a: 2206_5166        MOV AC0,T2 || PSH T2
01194e: 2264             MOV T2,T0
011950: 08fc95           CALL _malloc
011953: 9080             MOV XAR0,AC0
011955: 040010           BCC #0x011968,AC0 == #0
011958: ec01be           AMAR *AR0,XAR3
01195b: 6586             BCC #0x011968,T2 == #0
01195d: 7c000196         SUB #1,T2,AR1
011961: 529c             MOV AR1,CSR
011963: 4800             RPT CSR
011965: e66300              MOV #0,*AR3+
011968: 5062             POP T2
01196a: 4804             RET
01196c:               __divd:
01196c: 3876             PSH T3,T2
01196e: 4ef1             AADD #-15,SP
011970: eb0008           MOV AC0,dbl(@#00h)
011973: a000             MOV @#00h,AC0
011975: 76800090         BFXTR #32768,AC0,AR1
011979: ed0008           MOV dbl(@#00h),AC0
01197c: 100729           SFTL AC0,#-23,AC0
01197f: 18ffa0           AND #255,AC0,AR2
011982: 7c007faa         SUB #127,AR2,AR2
011986: 22a0             MOV AR2,AC0
011988: eb0408           MOV AC0,dbl(@#02h)
01198b: ed0008           MOV dbl(@#00h),AC0
01198e: eb0018_110708    MOV AC1,dbl(@#00h) || SFTL AC0,#8,AC0
011994: ec3e00           BSET @#1fh,AC0
011997: 7affff1a         MOV #-1 << #16,AC1
01199b: eb0808           MOV AC0,dbl(@#04h)
01199e: a000             MOV @#00h,AC0
0119a0: 76800060         BFXTR #32768,AC0,T2
0119a4: ed0008           MOV dbl(@#00h),AC0
0119a7: 100729           SFTL AC0,#-23,AC0
0119aa: 18ffa0           AND #255,AC0,AR2
0119ad: 7c007faa         SUB #127,AR2,AR2
0119b1: 7eff8111         OR #65409,AC1,AC1
0119b5: 22a0             MOV AR2,AC0
0119b7: eb0c08           MOV AC0,dbl(@#06h)
0119ba: ed0008           MOV dbl(@#00h),AC0
0119bd: 100708           SFTL AC0,#8,AC0
0119c0: ec3e00           BSET @#1fh,AC0
0119c3: eb1008           MOV AC0,dbl(@#08h)
0119c6: ed0408           MOV dbl(@#02h),AC0
0119c9: 120014           CMPU AC0 == AC1, TC1
0119cc: 04642b           BCC #0x0119fa,TC1
0119cf: 76008018         MOV #128,AC1
0119d3: ed0408           MOV dbl(@#02h),AC0
0119d6: 120014           CMPU AC0 == AC1, TC1
0119d9: 04641e           BCC #0x0119fa,TC1
0119dc: 7affff1a         MOV #-1 << #16,AC1
0119e0: ed0c08           MOV dbl(@#06h),AC0
0119e3: 7eff8111         OR #65409,AC1,AC1
0119e7: 120014           CMPU AC0 == AC1, TC1
0119ea: 6764             BCC #0x0119fa,TC1
0119ec: 76008018         MOV #128,AC1
0119f0: ed0c08           MOV dbl(@#06h),AC0
0119f3: 120c14           CMPU AC0 != AC1, TC1
0119f6: 6d640140         BCC #0x011b3a,TC1
0119fa: ed0408           MOV dbl(@#02h),AC0
0119fd: 76008018_2362    MOV #128,AC1 || MOV T2,AC2
011a03: 120c14           CMPU AC0 != AC1, TC1
011a06: 2c92             XOR AR1,AC2
011a08: 6764             BCC #0x011a18,TC1
011a0a: 7a80001a         MOV #-32768 << #16,AC1
011a0e: ed0808           MOV dbl(@#04h),AC0
011a11: 120c14           CMPU AC0 != AC1, TC1
011a14: 6d640088         BCC #0x011aa0,TC1
011a18: 76008018         MOV #128,AC1
011a1c: ed0c08           MOV dbl(@#06h),AC0
011a1f: 120c14           CMPU AC0 != AC1, TC1
011a22: 66e4             BCC #0x011a31,TC1
011a24: 7a80001a         MOV #-32768 << #16,AC1
011a28: ed1008           MOV dbl(@#08h),AC0
011a2b: 120c14           CMPU AC0 != AC1, TC1
011a2e: 04646f           BCC #0x011aa0,TC1
011a31: 76008018         MOV #128,AC1
011a35: ed0408           MOV dbl(@#02h),AC0
011a38: 120c14           CMPU AC0 != AC1, TC1
011a3b: 046426           BCC #0x011a64,TC1
011a3e: 7a80001a         MOV #-32768 << #16,AC1
011a42: ed0808           MOV dbl(@#04h),AC0
011a45: 120c14           CMPU AC0 != AC1, TC1
011a48: 046419           BCC #0x011a64,TC1
011a4b: 76008018         MOV #128,AC1
011a4f: ed0c08           MOV dbl(@#06h),AC0
011a52: 120c14           CMPU AC0 != AC1, TC1
011a55: 66e4             BCC #0x011a64,TC1
011a57: 7a80001a         MOV #-32768 << #16,AC1
011a5b: ed1008           MOV dbl(@#08h),AC0
011a5e: 120014           CMPU AC0 == AC1, TC1
011a61: 04643c           BCC #0x011aa0,TC1
011a64: 7affff1a         MOV #-1 << #16,AC1
011a68: ed0408           MOV dbl(@#02h),AC0
011a6b: 7eff8111         OR #65409,AC1,AC1
011a6f: 120c14           CMPU AC0 != AC1, TC1
011a72: 046444           BCC #0x011ab9,TC1
011a75: 7a80001a         MOV #-32768 << #16,AC1
011a79: ed0808           MOV dbl(@#04h),AC0
011a7c: 120c14           CMPU AC0 != AC1, TC1
011a7f: 046437           BCC #0x011ab9,TC1
011a82: 7affff1a         MOV #-1 << #16,AC1
011a86: ed0c08           MOV dbl(@#06h),AC0
011a89: 7eff8111         OR #65409,AC1,AC1
011a8d: 120c14           CMPU AC0 != AC1, TC1
011a90: 046426           BCC #0x011ab9,TC1
011a93: 7a80001a         MOV #-32768 << #16,AC1
011a97: ed1008           MOV dbl(@#08h),AC0
011a9a: 120c14           CMPU AC0 != AC1, TC1
011a9d: 046419           BCC #0x011ab9,TC1
011aa0: f4007fff         AND #32767,@#00h
011aa4: a000             MOV @#00h,AC0
011aa6: 10210f           OR AC2 << #15, AC0
011aa9: c000             MOV AC0,@#00h
011aab: ed0018           MOV dbl(@#00h),AC1
011aae: 7a7fff0a         MOV #32767 << #16,AC0
011ab2: 7effff00         OR #65535,AC0,AC0
011ab6: 060271           B #0x011d2a
011ab9: 76008018         MOV #128,AC1
011abd: ed0408           MOV dbl(@#02h),AC0
011ac0: 120c14           CMPU AC0 != AC1, TC1
011ac3: 6764             BCC #0x011ad3,TC1
011ac5: 7a80001a         MOV #-32768 << #16,AC1
011ac9: ed0808           MOV dbl(@#04h),AC0
011acc: 120014           CMPU AC0 == AC1, TC1
011acf: 6d6400c2         BCC #0x011b95,TC1
011ad3: 7affff1a         MOV #-1 << #16,AC1
011ad7: ed0c08           MOV dbl(@#06h),AC0
011ada: 7eff8111         OR #65409,AC1,AC1
011ade: 120c14           CMPU AC0 != AC1, TC1
011ae1: 6764             BCC #0x011af1,TC1
011ae3: 7a80001a         MOV #-32768 << #16,AC1
011ae7: ed1008           MOV dbl(@#08h),AC0
011aea: 120c14           CMPU AC0 != AC1, TC1
011aed: 6d7400a4         BCC #0x011b95,!TC1
011af1: 7affff1a         MOV #-1 << #16,AC1
011af5: ed0408           MOV dbl(@#02h),AC0
011af8: 7eff8111         OR #65409,AC1,AC1
011afc: 120c14           CMPU AC0 != AC1, TC1
011aff: 66e4             BCC #0x011b0e,TC1
011b01: 7a80001a         MOV #-32768 << #16,AC1
011b05: ed0808           MOV dbl(@#04h),AC0
011b08: 120014           CMPU AC0 == AC1, TC1
011b0b: 04641a           BCC #0x011b28,TC1
011b0e: 76008018         MOV #128,AC1
011b12: ed0c08           MOV dbl(@#06h),AC0
011b15: 120c14           CMPU AC0 != AC1, TC1
011b18: 04641f           BCC #0x011b3a,TC1
011b1b: 7a80001a         MOV #-32768 << #16,AC1
011b1f: ed1008           MOV dbl(@#08h),AC0
011b22: 120c14           CMPU AC0 != AC1, TC1
011b25: 046412           BCC #0x011b3a,TC1
011b28: f4007fff         AND #32767,@#00h
011b2c: a000             MOV @#00h,AC0
011b2e: 10210f           OR AC2 << #15, AC0
011b31: c000             MOV AC0,@#00h
011b33: 7a80000a         MOV #-32768 << #16,AC0
011b37: 06007a           B #0x011bb4
011b3a: 7affff1a         MOV #-1 << #16,AC1
011b3e: ed0408           MOV dbl(@#02h),AC0
011b41: 7eff8111         OR #65409,AC1,AC1
011b45: 120c14           CMPU AC0 != AC1, TC1
011b48: 2c96             XOR AR1,T2
011b4a: 67e4             BCC #0x011b5b,TC1
011b4c: f4007fff         AND #32767,@#00h
011b50: a100_2360        MOV @#00h,AC1 || MOV T2,AC0
011b54: 10410f           OR AC0 << #15, AC1
011b57: c100             MOV AC1,@#00h
011b59: 4a58             B #0x011b33
011b5b: ed0408           MOV dbl(@#02h),AC0
011b5e: ed0c02           SUB dbl(@#06h),AC0,AC0
011b61: 760080a8_2309    MOV #128,AR2 || MOV AC0,AR1
011b67: 1298a0_21        CMP AR1 >= AR2, TC1 || NOP
011b6b: eb1808           MOV AC0,dbl(@#0ch)
011b6e: 65e4             BCC #0x011b7b,TC1
011b70: 76ff82a8         MOV #-126,AR2
011b74: 12a490_21        CMP AR2 < AR1, TC1 || NOP
011b78: 04644d           BCC #0x011bc8,TC1
011b7b: ed1008           MOV dbl(@#08h),AC0
011b7e: ed0818           MOV dbl(@#04h),AC1
011b81: 760080a8         MOV #128,AR2
011b85: 121804           CMPU AC1 >= AC0, TC1
011b88: 4219_9ef4        XCCPART !TC1 || SUB #1,AR1
011b8c: 1294a0_21        CMP AR1 < AR2, TC1 || NOP
011b90: 2262             MOV T2,AC2
011b92: 046427           BCC #0x011bbc,TC1
011b95: f4007fff         AND #32767,@#00h
011b99: a000             MOV @#00h,AC0
011b9b: 10210f           OR AC2 << #15, AC0
011b9e: c000             MOV AC0,@#00h
011ba0: ed0018           MOV dbl(@#00h),AC1
011ba3: 7a7fff0a         MOV #32767 << #16,AC0
011ba7: 7effff00         OR #65535,AC0,AC0
011bab: 2a10             OR AC1,AC0
011bad: eb0008           MOV AC0,dbl(@#00h)
011bb0: 7aff800a         MOV #-128 << #16,AC0
011bb4: ed0018           MOV dbl(@#00h),AC1
011bb7: 060170_2910      B #0x011d2c || AND AC1,AC0
011bbc: 76ff82a8         MOV #-126,AR2
011bc0: 1298a0_21        CMP AR1 >= AR2, TC1 || NOP
011bc4: 6d74ff60         BCC #0x011b28,!TC1
011bc8: 7a80001a         MOV #-32768 << #16,AC1
011bcc: 7a00010a         MOV #1 << #16,AC0
011bd0: ed1050           ADD dbl(@#08h),AC1,AC1
011bd3: 7ec02600         OR #49190,AC0,AC0
011bd7: 105724           SFTL AC1,#-28,AC1
011bda: 2410             ADD AC1,AC0
011bdc: 900b             MOV AC0,XAR3
011bde: df6105           MOV uns(*AR3),AC0
011be1: 100517           SFTS AC0,#23,AC0
011be4: eb1408           MOV AC0,dbl(@#0ah)
011be7: ed1408           MOV dbl(@#0ah),AC0
011bea: 6390             BCC #0x011bf3,AC0 != #0
011bec: 7a80000a         MOV #-32768 << #16,AC0
011bf0: eb1408           MOV AC0,dbl(@#0ah)
011bf3: 3c57             MOV #5,T3
011bf5: ed1008           MOV dbl(@#08h),AC0
011bf8: ed1418           MOV dbl(@#0ah),AC1
011bfb: 6c01311b         CALL __frcmpyd_div
011bff: 1a0010           OR #0,AC0,AC1
011c02: 101701           SFTL AC1,#1,AC0
011c05: 3600             NOT AC0,AC0
011c07: 7b000110         ADD #1,AC0,AC1
011c0b: ed1408           MOV dbl(@#0ah),AC0
011c0e: 6c01311b         CALL __frcmpyd_div
011c12: eb1408           MOV AC0,dbl(@#0ah)
011c15: ed1408           MOV dbl(@#0ah),AC0
011c18: 5000             SFTL AC0,#1
011c1a: 4217             SUB #1,T3
011c1c: eb1408           MOV AC0,dbl(@#0ah)
011c1f: 0417d3           BCC #0x011bf5,T3 != #0
011c22: ed0808           MOV dbl(@#04h),AC0
011c25: ed1418           MOV dbl(@#0ah),AC1
011c28: 6c01311b         CALL __frcmpyd_div
011c2c: eb1408           MOV AC0,dbl(@#0ah)
011c2f: ed1808           MOV dbl(@#0ch),AC0
011c32: eb1808           MOV AC0,dbl(@#0ch)
011c35: ed1408           MOV dbl(@#0ah),AC0
011c38: 7a80001a_5100    MOV #-32768 << #16,AC1 || SFTL AC0,#1
011c3e: eb1408           MOV AC0,dbl(@#0ah)
011c41: ed1408           MOV dbl(@#0ah),AC0
011c44: 120814           CMPU AC0 >= AC1, TC1
011c47: 046410           BCC #0x011c5a,TC1
011c4a: ed1408           MOV dbl(@#0ah),AC0
011c4d: 5000             SFTL AC0,#1
011c4f: eb1408           MOV AC0,dbl(@#0ah)
011c52: ed1808           MOV dbl(@#0ch),AC0
011c55: 4210             SUB #1,AC0
011c57: eb1808           MOV AC0,dbl(@#0ch)
011c5a: ed1408           MOV dbl(@#0ah),AC0
011c5d: 7b004000         ADD #64,AC0,AC0
011c61: eb1408           MOV AC0,dbl(@#0ah)
011c64: ed1408           MOV dbl(@#0ah),AC0
011c67: 120814           CMPU AC0 >= AC1, TC1
011c6a: 67e4             BCC #0x011c7b,TC1
011c6c: ed1808           MOV dbl(@#0ch),AC0
011c6f: 4010             ADD #1,AC0
011c71: eb1808           MOV AC0,dbl(@#0ch)
011c74: 7a80000a         MOV #-32768 << #16,AC0
011c78: eb1408           MOV AC0,dbl(@#0ah)
011c7b: 7affff1a         MOV #-1 << #16,AC1
011c7f: ed1408           MOV dbl(@#0ah),AC0
011c82: 7eff8011         OR #65408,AC1,AC1
011c86: 2810             AND AC1,AC0
011c88: eb1408           MOV AC0,dbl(@#0ah)
011c8b: ed1408           MOV dbl(@#0ah),AC0
011c8e: 188000           AND #128,AC0,AC0
011c91: 04005f           BCC #0x011cf3,AC0 == #0
011c94: ed1008           MOV dbl(@#08h),AC0
011c97: ed1418           MOV dbl(@#0ah),AC1
011c9a: 6c01311b         CALL __frcmpyd_div
011c9e: 7a80002a         MOV #-32768 << #16,AC2
011ca2: ed1818           MOV dbl(@#0ch),AC1
011ca5: ed0428_130424    MOV dbl(@#02h),AC2 || CMPU AC0 < AC2, TC1
011cab: ed0c50           ADD dbl(@#06h),AC1,AC1
011cae: 4011_9ef4        XCCPART !TC1 || ADD #1,AC1
011cb2: 5000_9ee4        XCCPART TC1 || SFTL AC0,#1
011cb6: 121420           CMP AC1 < AC2, TC1
011cb9: 046412           BCC #0x011cce,TC1
011cbc: ed0428           MOV dbl(@#02h),AC2
011cbf: 122c14           CMPU AC2 != AC1, TC1
011cc2: 04642e           BCC #0x011cf3,TC1
011cc5: ed0818           MOV dbl(@#04h),AC1
011cc8: 120814           CMPU AC0 >= AC1, TC1
011ccb: 046425           BCC #0x011cf3,TC1
011cce: ed1408           MOV dbl(@#0ah),AC0
011cd1: 7a80001a         MOV #-32768 << #16,AC1
011cd5: 7b008000         ADD #128,AC0,AC0
011cd9: eb1408           MOV AC0,dbl(@#0ah)
011cdc: ed1408           MOV dbl(@#0ah),AC0
011cdf: 120814           CMPU AC0 >= AC1, TC1
011ce2: 67e4             BCC #0x011cf3,TC1
011ce4: ed1808           MOV dbl(@#0ch),AC0
011ce7: 4010             ADD #1,AC0
011ce9: eb1808           MOV AC0,dbl(@#0ch)
011cec: 7a80000a         MOV #-32768 << #16,AC0
011cf0: eb1408           MOV AC0,dbl(@#0ah)
011cf3: f4007fff         AND #32767,@#00h
011cf7: a100             MOV @#00h,AC1
011cf9: 7a80002a_2360    MOV #-32768 << #16,AC2 || MOV T2,AC0
011cff: 10410f           OR AC0 << #15, AC1
011d02: ec31be7fffff     AMAR *(#07fffffh),XAR3
011d08: c100             MOV AC1,@#00h
011d0a: ed0008           MOV dbl(@#00h),AC0
011d0d: 7a3f801a         MOV #16256 << #16,AC1
011d11: ed1808_2902      MOV dbl(@#0ch),AC0 || AND AC0,AC2
011d16: 100717           SFTL AC0,#23,AC0
011d19: 2401             ADD AC0,AC1
011d1b: ec3e12           BCLR @#1fh,AC1
011d1e: ed1408_2b21      MOV dbl(@#0ah),AC0 || OR AC2,AC1
011d23: 108738           SFTL AC0,#-8,AC2
011d26: 90b0             MOV XAR3,AC0
011d28: 2820             AND AC2,AC0
011d2a: 2a10             OR AC1,AC0
011d2c: eb0008           MOV AC0,dbl(@#00h)
011d2f: ed0008           MOV dbl(@#00h),AC0
011d32: 4e0f             AADD #15,SP
011d34: 3a76             POP T3,T2
011d36: 4804             RET
011d38:               _fuzzer_isr:
011d38:               .text:retain:
011d38: f406f91f_98      AND #63775,mmap(@ST1_55)
011d3d: f5064100_98      OR #16640,mmap(@ST1_55)
011d42: f496fa00_98      AND #64000,mmap(@ST2_55)
011d47: f5968000_98      OR #32768,mmap(@ST2_55)
011d4c: b508_98          PSH mmap(@ST3_55)
011d4f: 5007             PSH dbl(AC0)
011d51: b514_98          PSH mmap(@AC0G)
011d54: 5017             PSH dbl(AC1)
011d56: b51a_98          PSH mmap(@AC1G)
011d59: 5027             PSH dbl(AC2)
011d5b: b54c_98          PSH mmap(@AC2G)
011d5e: 5037             PSH dbl(AC3)
011d60: b554_98          PSH mmap(@AC3G)
011d63: 5046             PSH T0
011d65: 5056             PSH T1
011d67: 5085             PSHBOTH XAR0
011d69: 5095             PSHBOTH XAR1
011d6b: 50a5             PSHBOTH XAR2
011d6d: 50b5             PSHBOTH XAR3
011d6f: 50c5             PSHBOTH XAR4
011d71: b562_98          PSH mmap(@BKC)
011d74: b532_98          PSH mmap(@BK03)
011d77: b560_98          PSH mmap(@BK47)
011d7a: b534_98          PSH mmap(@BRC0)
011d7d: b57a_98          PSH mmap(@RSA0L)
011d80: b578_98          PSH mmap(@RSA0H)
011d83: b57e_98          PSH mmap(@REA0L)
011d86: b57c_98          PSH mmap(@REA0H)
011d89: b574_98          PSH mmap(@BRS1)
011d8c: b572_98          PSH mmap(@BRC1)
011d8f: b582_98          PSH mmap(@RSA1L)
011d92: b580_98          PSH mmap(@RSA1H)
011d95: b586_98          PSH mmap(@REA1L)
011d98: b584_98          PSH mmap(@REA1H)
011d9b: b576_98          PSH mmap(@CSR)
011d9e: b588_98          PSH mmap(@RPTC)
011da1: 5075             PSHBOTH XCDP
011da3: b51e_98          PSH mmap(@TRN0)
011da6: b570_98          PSH mmap(@TRN1)
011da9: b564_98          PSH mmap(@BSA01)
011dac: b566_98          PSH mmap(@BSA23)
011daf: b568_98          PSH mmap(@BSA45)
011db2: b56a_98          PSH mmap(@BSA67)
011db5: b56c_98          PSH mmap(@BSAC)
011db8: ec009e           AMAR @#00h,XAR1
011dbb: f49afffe_98      AND #65534,mmap(@SP)
011dc0: 5096             PSH AR1
011dc2: 4eff             AADD #-1,SP
011dc4: 4656             BCLR ST3_SATA
011dc6: 4617             BSET ST3_SMUL
011dc8: 6c011037_3d44    CALL _IRQ_clear || MOV #4,T0
011dce: e651011c14       MOV #1,port(#01c14h)
011dd3: ed310801305c     MOV dbl(*(#01305ch)),AC0
011dd9: 4010             ADD #1,AC0
011ddb: eb310801305c     MOV AC0,dbl(*(#01305ch))
011de1: ec31be0186a0     AMAR *(#0186a0h),XAR3
011de7: ed310801305c     MOV dbl(*(#01305ch)),AC0
011ded: 90b1             MOV XAR3,AC1
011def: 6c01318e         CALL __remul
011df3: 041018           BCC $C$L1,AC0 != #0
011df6: 3c00             MOV #0,AC0
011df8: eb310801305c     MOV AC0,dbl(*(#01305ch))
011dfe: 6c011471         CALL _IRQ_globalDisable
011e02: 6c01108a         CALL _IRQ_clearAll
011e06: 6c011225         CALL _IRQ_disableAll
011e0a: 6c010000         CALL _crash_void
011e0e:               $C$L1:
011e0e: 4e01             AADD #1,SP
011e10: bb9a_98          POP mmap(@SP)
011e13: bb6c_98          POP mmap(@BSAC)
011e16: bb6a_98          POP mmap(@BSA67)
011e19: bb68_98          POP mmap(@BSA45)
011e1c: bb66_98          POP mmap(@BSA23)
011e1f: bb64_98          POP mmap(@BSA01)
011e22: bb70_98          POP mmap(@TRN1)
011e25: bb1e_98          POP mmap(@TRN0)
011e28: 5074             POPBOTH XCDP
011e2a: bb88_98          POP mmap(@RPTC)
011e2d: bb76_98          POP mmap(@CSR)
011e30: bb84_98          POP mmap(@REA1H)
011e33: bb86_98          POP mmap(@REA1L)
011e36: bb80_98          POP mmap(@RSA1H)
011e39: bb82_98          POP mmap(@RSA1L)
011e3c: bb72_98          POP mmap(@BRC1)
011e3f: bb74_98          POP mmap(@BRS1)
011e42: bb7c_98          POP mmap(@REA0H)
011e45: bb7e_98          POP mmap(@REA0L)
011e48: bb78_98          POP mmap(@RSA0H)
011e4b: bb7a_98          POP mmap(@RSA0L)
011e4e: bb34_98          POP mmap(@BRC0)
011e51: bb60_98          POP mmap(@BK47)
011e54: bb32_98          POP mmap(@BK03)
011e57: bb62_98          POP mmap(@BKC)
011e5a: 50c4             POPBOTH XAR4
011e5c: 50b4             POPBOTH XAR3
011e5e: 50a4             POPBOTH XAR2
011e60: 5094             POPBOTH XAR1
011e62: 5084             POPBOTH XAR0
011e64: 5052             POP T1
011e66: 5042             POP T0
011e68: bb54_98          POP mmap(@AC3G)
011e6b: 5033             POP dbl(AC3)
011e6d: bb4c_98          POP mmap(@AC2G)
011e70: 5023             POP dbl(AC2)
011e72: bb1a_98          POP mmap(@AC1G)
011e75: 5013             POP dbl(AC1)
011e77: bb14_98          POP mmap(@AC0G)
011e7a: 5003             POP dbl(AC0)
011e7c: bb08_98          POP mmap(@ST3_55)
011e7f: 4805             RETI
011e81:               _bus_error_isr:
011e81: f406f91f_98      AND #63775,mmap(@ST1_55)
011e86: f5064100_98      OR #16640,mmap(@ST1_55)
011e8b: f496fa00_98      AND #64000,mmap(@ST2_55)
011e90: f5968000_98      OR #32768,mmap(@ST2_55)
011e95: b508_98          PSH mmap(@ST3_55)
011e98: 5007             PSH dbl(AC0)
011e9a: b514_98          PSH mmap(@AC0G)
011e9d: 5017             PSH dbl(AC1)
011e9f: b51a_98          PSH mmap(@AC1G)
011ea2: 5027             PSH dbl(AC2)
011ea4: b54c_98          PSH mmap(@AC2G)
011ea7: 5037             PSH dbl(AC3)
011ea9: b554_98          PSH mmap(@AC3G)
011eac: 5046             PSH T0
011eae: 5056             PSH T1
011eb0: 5085             PSHBOTH XAR0
011eb2: 5095             PSHBOTH XAR1
011eb4: 50a5             PSHBOTH XAR2
011eb6: 50b5             PSHBOTH XAR3
011eb8: 50c5             PSHBOTH XAR4
011eba: b562_98          PSH mmap(@BKC)
011ebd: b532_98          PSH mmap(@BK03)
011ec0: b560_98          PSH mmap(@BK47)
011ec3: b534_98          PSH mmap(@BRC0)
011ec6: b57a_98          PSH mmap(@RSA0L)
011ec9: b578_98          PSH mmap(@RSA0H)
011ecc: b57e_98          PSH mmap(@REA0L)
011ecf: b57c_98          PSH mmap(@REA0H)
011ed2: b574_98          PSH mmap(@BRS1)
011ed5: b572_98          PSH mmap(@BRC1)
011ed8: b582_98          PSH mmap(@RSA1L)
011edb: b580_98          PSH mmap(@RSA1H)
011ede: b586_98          PSH mmap(@REA1L)
011ee1: b584_98          PSH mmap(@REA1H)
011ee4: b576_98          PSH mmap(@CSR)
011ee7: b588_98          PSH mmap(@RPTC)
011eea: 5075             PSHBOTH XCDP
011eec: b51e_98          PSH mmap(@TRN0)
011eef: b570_98          PSH mmap(@TRN1)
011ef2: b564_98          PSH mmap(@BSA01)
011ef5: b566_98          PSH mmap(@BSA23)
011ef8: b568_98          PSH mmap(@BSA45)
011efb: b56a_98          PSH mmap(@BSA67)
011efe: b56c_98          PSH mmap(@BSAC)
011f01: ec009e           AMAR @#00h,XAR1
011f04: f49afffe_98      AND #65534,mmap(@SP)
011f09: 5096             PSH AR1
011f0b: 4eff             AADD #-1,SP
011f0d: 4656             BCLR ST3_SATA
011f0f: 76001848_4717    MOV #24,T0 || BSET ST3_SMUL
011f15: 6c011037         CALL _IRQ_clear
011f19: 6c01108a         CALL _IRQ_clearAll
011f1d: 6c010000         CALL _crash_void
011f21: 4e01             AADD #1,SP
011f23: bb9a_98          POP mmap(@SP)
011f26: bb6c_98          POP mmap(@BSAC)
011f29: bb6a_98          POP mmap(@BSA67)
011f2c: bb68_98          POP mmap(@BSA45)
011f2f: bb66_98          POP mmap(@BSA23)
011f32: bb64_98          POP mmap(@BSA01)
011f35: bb70_98          POP mmap(@TRN1)
011f38: bb1e_98          POP mmap(@TRN0)
011f3b: 5074             POPBOTH XCDP
011f3d: bb88_98          POP mmap(@RPTC)
011f40: bb76_98          POP mmap(@CSR)
011f43: bb84_98          POP mmap(@REA1H)
011f46: bb86_98          POP mmap(@REA1L)
011f49: bb80_98          POP mmap(@RSA1H)
011f4c: bb82_98          POP mmap(@RSA1L)
011f4f: bb72_98          POP mmap(@BRC1)
011f52: bb74_98          POP mmap(@BRS1)
011f55: bb7c_98          POP mmap(@REA0H)
011f58: bb7e_98          POP mmap(@REA0L)
011f5b: bb78_98          POP mmap(@RSA0H)
011f5e: bb7a_98          POP mmap(@RSA0L)
011f61: bb34_98          POP mmap(@BRC0)
011f64: bb60_98          POP mmap(@BK47)
011f67: bb32_98          POP mmap(@BK03)
011f6a: bb62_98          POP mmap(@BKC)
011f6d: 50c4             POPBOTH XAR4
011f6f: 50b4             POPBOTH XAR3
011f71: 50a4             POPBOTH XAR2
011f73: 5094             POPBOTH XAR1
011f75: 5084             POPBOTH XAR0
011f77: 5052             POP T1
011f79: 5042             POP T0
011f7b: bb54_98          POP mmap(@AC3G)
011f7e: 5033             POP dbl(AC3)
011f80: bb4c_98          POP mmap(@AC2G)
011f83: 5023             POP dbl(AC2)
011f85: bb1a_98          POP mmap(@AC1G)
011f88: 5013             POP dbl(AC1)
011f8a: bb14_98          POP mmap(@AC0G)
011f8d: 5003             POP dbl(AC0)
011f8f: bb08_98          POP mmap(@ST3_55)
011f92: 4805             RETI
011f94:               _data_log_isr:
011f94: f406f91f_98      AND #63775,mmap(@ST1_55)
011f99: f5064100_98      OR #16640,mmap(@ST1_55)
011f9e: f496fa00_98      AND #64000,mmap(@ST2_55)
011fa3: f5968000_98      OR #32768,mmap(@ST2_55)
011fa8: b508_98          PSH mmap(@ST3_55)
011fab: 5007             PSH dbl(AC0)
011fad: b514_98          PSH mmap(@AC0G)
011fb0: 5017             PSH dbl(AC1)
011fb2: b51a_98          PSH mmap(@AC1G)
011fb5: 5027             PSH dbl(AC2)
011fb7: b54c_98          PSH mmap(@AC2G)
011fba: 5037             PSH dbl(AC3)
011fbc: b554_98          PSH mmap(@AC3G)
011fbf: 5046             PSH T0
011fc1: 5056             PSH T1
011fc3: 5085             PSHBOTH XAR0
011fc5: 5095             PSHBOTH XAR1
011fc7: 50a5             PSHBOTH XAR2
011fc9: 50b5             PSHBOTH XAR3
011fcb: 50c5             PSHBOTH XAR4
011fcd: b562_98          PSH mmap(@BKC)
011fd0: b532_98          PSH mmap(@BK03)
011fd3: b560_98          PSH mmap(@BK47)
011fd6: b534_98          PSH mmap(@BRC0)
011fd9: b57a_98          PSH mmap(@RSA0L)
011fdc: b578_98          PSH mmap(@RSA0H)
011fdf: b57e_98          PSH mmap(@REA0L)
011fe2: b57c_98          PSH mmap(@REA0H)
011fe5: b574_98          PSH mmap(@BRS1)
011fe8: b572_98          PSH mmap(@BRC1)
011feb: b582_98          PSH mmap(@RSA1L)
011fee: b580_98          PSH mmap(@RSA1H)
011ff1: b586_98          PSH mmap(@REA1L)
011ff4: b584_98          PSH mmap(@REA1H)
011ff7: b576_98          PSH mmap(@CSR)
011ffa: b588_98          PSH mmap(@RPTC)
011ffd: 5075             PSHBOTH XCDP
011fff: b51e_98          PSH mmap(@TRN0)
012002: b570_98          PSH mmap(@TRN1)
012005: b564_98          PSH mmap(@BSA01)
012008: b566_98          PSH mmap(@BSA23)
01200b: b568_98          PSH mmap(@BSA45)
01200e: b56a_98          PSH mmap(@BSA67)
012011: b56c_98          PSH mmap(@BSAC)
012014: ec009e           AMAR @#00h,XAR1
012017: f49afffe_98      AND #65534,mmap(@SP)
01201c: 5096             PSH AR1
01201e: 4eff             AADD #-1,SP
012020: 4656             BCLR ST3_SATA
012022: 76001948_4717    MOV #25,T0 || BSET ST3_SMUL
012028: 6c011037         CALL _IRQ_clear
01202c: 6c01108a         CALL _IRQ_clearAll
012030: 6c010000         CALL _crash_void
012034: 4e01             AADD #1,SP
012036: bb9a_98          POP mmap(@SP)
012039: bb6c_98          POP mmap(@BSAC)
01203c: bb6a_98          POP mmap(@BSA67)
01203f: bb68_98          POP mmap(@BSA45)
012042: bb66_98          POP mmap(@BSA23)
012045: bb64_98          POP mmap(@BSA01)
012048: bb70_98          POP mmap(@TRN1)
01204b: bb1e_98          POP mmap(@TRN0)
01204e: 5074             POPBOTH XCDP
012050: bb88_98          POP mmap(@RPTC)
012053: bb76_98          POP mmap(@CSR)
012056: bb84_98          POP mmap(@REA1H)
012059: bb86_98          POP mmap(@REA1L)
01205c: bb80_98          POP mmap(@RSA1H)
01205f: bb82_98          POP mmap(@RSA1L)
012062: bb72_98          POP mmap(@BRC1)
012065: bb74_98          POP mmap(@BRS1)
012068: bb7c_98          POP mmap(@REA0H)
01206b: bb7e_98          POP mmap(@REA0L)
01206e: bb78_98          POP mmap(@RSA0H)
012071: bb7a_98          POP mmap(@RSA0L)
012074: bb34_98          POP mmap(@BRC0)
012077: bb60_98          POP mmap(@BK47)
01207a: bb32_98          POP mmap(@BK03)
01207d: bb62_98          POP mmap(@BKC)
012080: 50c4             POPBOTH XAR4
012082: 50b4             POPBOTH XAR3
012084: 50a4             POPBOTH XAR2
012086: 5094             POPBOTH XAR1
012088: 5084             POPBOTH XAR0
01208a: 5052             POP T1
01208c: 5042             POP T0
01208e: bb54_98          POP mmap(@AC3G)
012091: 5033             POP dbl(AC3)
012093: bb4c_98          POP mmap(@AC2G)
012096: 5023             POP dbl(AC2)
012098: bb1a_98          POP mmap(@AC1G)
01209b: 5013             POP dbl(AC1)
01209d: bb14_98          POP mmap(@AC0G)
0120a0: 5003             POP dbl(AC0)
0120a2: bb08_98          POP mmap(@ST3_55)
0120a5: 4805             RETI
0120a7:               _GPT_open:
0120a7: 4ef7             AADD #-9,SP
0120a9: eb0895           MOV XAR1,dbl(@#04h)
0120ac: eb0485           MOV XAR0,dbl(@#02h)
0120af: c400             MOV T0,@#00h
0120b1: ed08bf           MOV dbl(@#04h),XAR3
0120b4: e66100           MOV #0,*AR3
0120b7: 3c00             MOV #0,AC0
0120b9: eb0c08           MOV AC0,dbl(@#06h)
0120bc: ed04bf           MOV dbl(@#02h),XAR3
0120bf: 90b0_3d01        MOV XAR3,AC0 || MOV #0,AC1
0120c3: 121c04           CMPU AC1 != AC0, TC1
0120c6: 6664             BCC $C$L1,TC1
0120c8: ed08bf           MOV dbl(@#04h),XAR3
0120cb: e661fb           MOV #-5,*AR3
0120ce: ed0c8f           MOV dbl(@#06h),XAR0
0120d1: 060092           B $C$L10
0120d4:               $C$L1:
0120d4: a900             MOV @#00h,AR1
0120d6: 63a9             BCC $C$L2,AR1 < #0
0120d8: 3c3a             MOV #3,AR2
0120da: 1294a0           CMP AR1 < AR2, TC1
0120dd: 6664             BCC $C$L3,TC1
0120df:               $C$L2:
0120df: ed08bf           MOV dbl(@#04h),XAR3
0120e2: e661fa           MOV #-6,*AR3
0120e5: ed0c8f           MOV dbl(@#06h),XAR0
0120e8: 06007b           B $C$L10
0120eb:               $C$L3:
0120eb: eb0cb5           MOV XAR3,dbl(@#06h)
0120ee: fb101c00         MOV #7168,@#08h
0120f2: 060057           B $C$L8
0120f5:               $C$L4:
0120f5: ed0cbf           MOV dbl(@#06h),XAR3
0120f8: e66100           MOV #0,*AR3
0120fb: ed0cbf           MOV dbl(@#06h),XAR3
0120fe: fb751810         MOV #6160,*(AR3-T1)
012102: ab10             MOV @#08h,AR3
012104: a975_99          MOV port(*(AR3-T1)),AR1
012107: ec1492           BCLR @#0ah,AR1
01210a: c975_9a          MOV AR1,port(*(AR3-T1))
01210d: 060053           B $C$L9
012110:               $C$L5:
012110: ed0cbf           MOV dbl(@#06h),XAR3
012113: e66101           MOV #1,*AR3
012116: ed0cbf           MOV dbl(@#06h),XAR3
012119: fb751850         MOV #6224,*(AR3-T1)
01211d: ab10             MOV @#08h,AR3
01211f: a975_99          MOV port(*(AR3-T1)),AR1
012122: ec1892           BCLR @#0ch,AR1
012125: c975_9a          MOV AR1,port(*(AR3-T1))
012128: 4a39             B $C$L9
01212a:               $C$L6:
01212a: ed0cbf           MOV dbl(@#06h),XAR3
01212d: e66102           MOV #2,*AR3
012130: ed0cbf           MOV dbl(@#06h),XAR3
012133: fb751890         MOV #6288,*(AR3-T1)
012137: ab10             MOV @#08h,AR3
012139: a975_99          MOV port(*(AR3-T1)),AR1
01213c: ec1a92           BCLR @#0dh,AR1
01213f: c975_9a          MOV AR1,port(*(AR3-T1))
012142: 4a1f             B $C$L9
012144:               $C$L7:
012144: ed08bf           MOV dbl(@#04h),XAR3
012147: e661fa           MOV #-6,*AR3
01214a: 4a17             B $C$L9
01214c:               $C$L8:
01214c: a900             MOV @#00h,AR1
01214e: 0409a4           BCC $C$L4,AR1 == #0
012151: 3c1a             MOV #1,AR2
012153: 1290a0           CMP AR1 == AR2, TC1
012156: 0464b7           BCC $C$L5,TC1
012159: 3c2a             MOV #2,AR2
01215b: 1290a0           CMP AR1 == AR2, TC1
01215e: 0464c9           BCC $C$L6,TC1
012161: 4a61             B $C$L7
012163:               $C$L9:
012163: ed0c8f           MOV dbl(@#06h),XAR0
012166:               $C$L10:
012166: 4e09             AADD #9,SP
012168: 4804             RET
01216a:               _GPT_reset:
01216a: 4efb             AADD #-5,SP
01216c: eb0085           MOV XAR0,dbl(@#00h)
01216f: ed00bf           MOV dbl(@#00h),XAR3
012172: 90b0_3d01        MOV XAR3,AC0 || MOV #0,AC1
012176: 121c04           CMPU AC1 != AC0, TC1
012179: 62e4             BCC $C$L11,TC1
01217b: 3e54             MOV #-5,T0
01217d: 060060           B $C$L18
012180:               $C$L11:
012180: a975             MOV *(AR3-T1),AR1
012182: c904             MOV AR1,@#02h
012184: 229b             MOV AR1,AR3
012186: e66100_9a        MOV #0,port(*AR3)
01218a: ab04             MOV @#02h,AR3
01218c: e67900_9a        MOV #0,port(*+AR3)
012190: ab04             MOV @#02h,AR3
012192: e67b00_9a        MOV #0,port(*-AR3)
012196: ab04             MOV @#02h,AR3
012198: e67500_9a        MOV #0,port(*(AR3-T1))
01219c: ab04             MOV @#02h,AR3
01219e: e67700_9a        MOV #0,port(*AR3(T1))
0121a2: fb061c14         MOV #7188,@#03h
0121a6: 4a1c             B $C$L16
0121a8:               $C$L12:
0121a8: ab06             MOV @#03h,AR3
0121aa: e66101_9a        MOV #1,port(*AR3)
0121ae: 4a2e             B $C$L17
0121b0:               $C$L13:
0121b0: ab06             MOV @#03h,AR3
0121b2: e66102_9a        MOV #2,port(*AR3)
0121b6: 4a26             B $C$L17
0121b8:               $C$L14:
0121b8: ab06             MOV @#03h,AR3
0121ba: e66104_9a        MOV #4,port(*AR3)
0121be: 4a1e             B $C$L17
0121c0:               $C$L15:
0121c0: 3e64             MOV #-6,T0
0121c2: 4a1c             B $C$L18
0121c4:               $C$L16:
0121c4: ed00bf           MOV dbl(@#00h),XAR3
0121c7: a961             MOV *AR3,AR1
0121c9: 0409dc           BCC $C$L12,AR1 == #0
0121cc: 3c1a             MOV #1,AR2
0121ce: 1290a0           CMP AR1 == AR2, TC1
0121d1: 0464dc           BCC $C$L13,TC1
0121d4: 3c2a             MOV #2,AR2
0121d6: 1290a0           CMP AR1 == AR2, TC1
0121d9: 0464dc           BCC $C$L14,TC1
0121dc: 4a62             B $C$L15
0121de:               $C$L17:
0121de: 3c04             MOV #0,T0
0121e0:               $C$L18:
0121e0: 4e05             AADD #5,SP
0121e2: 4804             RET
0121e4:               _GPT_close:
0121e4: 4efd             AADD #-3,SP
0121e6: eb0085           MOV XAR0,dbl(@#00h)
0121e9: ed00bf           MOV dbl(@#00h),XAR3
0121ec: 90b0_3d01        MOV XAR3,AC0 || MOV #0,AC1
0121f0: 121c04           CMPU AC1 != AC0, TC1
0121f3: 62e4             BCC $C$L19,TC1
0121f5: 3e54             MOV #-5,T0
0121f7: 06005b           B $C$L25
0121fa:               $C$L19:
0121fa: fb041c00         MOV #7168,@#02h
0121fe: 4a30             B $C$L23
012200:               $C$L20:
012200: ab04             MOV @#02h,AR3
012202: a975_99          MOV port(*(AR3-T1)),AR1
012205: ec1492           BCLR @#0ah,AR1
012208: ec1490           BSET @#0ah,AR1
01220b: c975_9a          MOV AR1,port(*(AR3-T1))
01220e: 4a38             B $C$L24
012210:               $C$L21:
012210: ab04             MOV @#02h,AR3
012212: a975_99          MOV port(*(AR3-T1)),AR1
012215: ec1892           BCLR @#0ch,AR1
012218: ec1890           BSET @#0ch,AR1
01221b: c975_9a          MOV AR1,port(*(AR3-T1))
01221e: 4a28             B $C$L24
012220:               $C$L22:
012220: ab04             MOV @#02h,AR3
012222: a975_99          MOV port(*(AR3-T1)),AR1
012225: ec1a92           BCLR @#0dh,AR1
012228: ec1a90           BSET @#0dh,AR1
01222b: c975_9a          MOV AR1,port(*(AR3-T1))
01222e: 4a18             B $C$L24
012230:               $C$L23:
012230: ed00bf           MOV dbl(@#00h),XAR3
012233: a961             MOV *AR3,AR1
012235: 0409c8           BCC $C$L20,AR1 == #0
012238: 3c1a             MOV #1,AR2
01223a: 1290a0           CMP AR1 == AR2, TC1
01223d: 0464d0           BCC $C$L21,TC1
012240: 3c2a             MOV #2,AR2
012242: 1290a0           CMP AR1 == AR2, TC1
012245: 0464d8           BCC $C$L22,TC1
012248:               $C$L24:
012248: ed00bf           MOV dbl(@#00h),XAR3
01224b: e67500           MOV #0,*(AR3-T1)
01224e: 3c00             MOV #0,AC0
012250: eb0008           MOV AC0,dbl(@#00h)
012253: 3c04             MOV #0,T0
012255:               $C$L25:
012255: 4e03             AADD #3,SP
012257: 4804             RET
012259:               _GPT_start:
012259: 4efd             AADD #-3,SP
01225b: eb0085           MOV XAR0,dbl(@#00h)
01225e: ed00bf           MOV dbl(@#00h),XAR3
012261: 90b0_3d01        MOV XAR3,AC0 || MOV #0,AC1
012265: 121c04           CMPU AC1 != AC0, TC1
012268: 6264             BCC $C$L26,TC1
01226a: 3e54             MOV #-5,T0
01226c: 4a14             B $C$L27
01226e:               $C$L26:
01226e: a975             MOV *(AR3-T1),AR1
012270: c904             MOV AR1,@#02h
012272: 229b             MOV AR1,AR3
012274: a961_99          MOV port(*AR3),AR1
012277: ec0092           BCLR @#00h,AR1
01227a: ec0090           BSET @#00h,AR1
01227d: c961_9a          MOV AR1,port(*AR3)
012280: 3c04             MOV #0,T0
012282:               $C$L27:
012282: 4e03             AADD #3,SP
012284: 4804             RET
012286:               _GPT_stop:
012286: 4efd             AADD #-3,SP
012288: eb0085           MOV XAR0,dbl(@#00h)
01228b: ed00bf           MOV dbl(@#00h),XAR3
01228e: 90b0_3d01        MOV XAR3,AC0 || MOV #0,AC1
012292: 121c04           CMPU AC1 != AC0, TC1
012295: 6264             BCC $C$L28,TC1
012297: 3e54             MOV #-5,T0
012299: 4a11             B $C$L29
01229b:               $C$L28:
01229b: a975             MOV *(AR3-T1),AR1
01229d: c904             MOV AR1,@#02h
01229f: 229b             MOV AR1,AR3
0122a1: a961_99          MOV port(*AR3),AR1
0122a4: ec0092           BCLR @#00h,AR1
0122a7: c961_9a          MOV AR1,port(*AR3)
0122aa: 3c04             MOV #0,T0
0122ac:               $C$L29:
0122ac: 4e03             AADD #3,SP
0122ae: 4804             RET
0122b0:               _GPT_getCnt:
0122b0: 4ef9             AADD #-7,SP
0122b2: eb0495           MOV XAR1,dbl(@#02h)
0122b5: eb0085           MOV XAR0,dbl(@#00h)
0122b8: ed00bf           MOV dbl(@#00h),XAR3
0122bb: 90b0_3d01        MOV XAR3,AC0 || MOV #0,AC1
0122bf: 121c04           CMPU AC1 != AC0, TC1
0122c2: 6264             BCC $C$L30,TC1
0122c4: 3e54             MOV #-5,T0
0122c6: 4a1f             B $C$L31
0122c8:               $C$L30:
0122c8: a975             MOV *(AR3-T1),AR1
0122ca: c90c             MOV AR1,@#06h
0122cc: 229b             MOV AR1,AR3
0122ce: a979_99          MOV port(*+AR3),AR1
0122d1: c908             MOV AR1,@#04h
0122d3: ab0c             MOV @#06h,AR3
0122d5: a97b_99          MOV port(*-AR3),AR1
0122d8: c90a             MOV AR1,@#05h
0122da: ed04bf           MOV dbl(@#02h),XAR3
0122dd: 5290             MOV AR1,HI(AC0)
0122df: da0800           OR @#04h,AC0,AC0
0122e2: eb6108           MOV AC0,dbl(*AR3)
0122e5: 3c04             MOV #0,T0
0122e7:               $C$L31:
0122e7: 4e07             AADD #7,SP
0122e9: 4804             RET
0122eb:               _GPT_config:
0122eb: 4efb             AADD #-5,SP
0122ed: eb0495           MOV XAR1,dbl(@#02h)
0122f0: eb0085           MOV XAR0,dbl(@#00h)
0122f3: ed00bf           MOV dbl(@#00h),XAR3
0122f6: 90b0_3d01        MOV XAR3,AC0 || MOV #0,AC1
0122fa: 121c04           CMPU AC1 != AC0, TC1
0122fd: 62e4             BCC $C$L32,TC1
0122ff: 3e54             MOV #-5,T0
012301: 06008a           B $C$L34
012304:               $C$L32:
012304: ed04bf           MOV dbl(@#02h),XAR3
012307: 90b0             MOV XAR3,AC0
012309: 121c04           CMPU AC1 != AC0, TC1
01230c: 62e4             BCC $C$L33,TC1
01230e: 3e64             MOV #-6,T0
012310: 06007b           B $C$L34
012313:               $C$L33:
012313: ed00bf           MOV dbl(@#00h),XAR3
012316: a975             MOV *(AR3-T1),AR1
012318: c908             MOV AR1,@#04h
01231a: 229b             MOV AR1,AR3
01231c: a961_99          MOV port(*AR3),AR1
01231f: ec1e92           BCLR @#0fh,AR1
012322: c961_9a          MOV AR1,port(*AR3)
012325: ed04bf           MOV dbl(@#02h),XAR3
012328: f9730208         MOV *(AR3+T1) << #2,AC0
01232c: ab08             MOV @#04h,AR3
01232e: 183c90           AND #60,AC0,AR1
012331: aa61_99          MOV port(*AR3),AR2
012334: 7dffc3aa         AND #65475,AR2,AR2
012338: 2aa9             OR AR2,AR1
01233a: c961_9a          MOV AR1,port(*AR3)
01233d: ed04bf           MOV dbl(@#02h),XAR3
012340: a961             MOV *AR3,AR1
012342: ab08             MOV @#04h,AR3
012344: 5090             SFTL AR1,#1
012346: 180299           AND #2,AR1,AR1
012349: aa61_99          MOV port(*AR3),AR2
01234c: ec02a2           BCLR @#01h,AR2
01234f: 2aa9             OR AR2,AR1
012351: c961_9a          MOV AR1,port(*AR3)
012354: ed04bf           MOV dbl(@#02h),XAR3
012357: f9750f08         MOV *(AR3-T1) << #15,AC0
01235b: ab08             MOV @#04h,AR3
01235d: 7d800090         AND #32768,AC0,AR1
012361: aa61_99          MOV port(*AR3),AR2
012364: ec1ea2           BCLR @#0fh,AR2
012367: 2aa9             OR AR2,AR1
012369: c961_9a          MOV AR1,port(*AR3)
01236c: ab08             MOV @#04h,AR3
01236e: e67900_9a        MOV #0,port(*+AR3)
012372: ab08             MOV @#04h,AR3
012374: e67b00_9a        MOV #0,port(*-AR3)
012378: ed04bf           MOV dbl(@#02h),XAR3
01237b: a977             MOV *AR3(T1),AR1
01237d: ab08             MOV @#04h,AR3
01237f: c975_9a          MOV AR1,port(*(AR3-T1))
012382: ed04bf           MOV dbl(@#02h),XAR3
012385: a979             MOV *+AR3,AR1
012387: ab08             MOV @#04h,AR3
012389: c977_9a          MOV AR1,port(*AR3(T1))
01238c: 3c04             MOV #0,T0
01238e:               $C$L34:
01238e: 4e05             AADD #5,SP
012390: 4804             RET
012392:               __addd:
012392: 4ef3             AADD #-13,SP
012394: eb0808           MOV AC0,dbl(@#04h)
012397: eb1018           MOV AC1,dbl(@#08h)
01239a: ed0808           MOV dbl(@#04h),AC0
01239d: eb0c08           MOV AC0,dbl(@#06h)
0123a0: ed1008           MOV dbl(@#08h),AC0
0123a3: eb0408           MOV AC0,dbl(@#02h)
0123a6: ed0c08           MOV dbl(@#06h),AC0
0123a9: ec3e02           BCLR @#1fh,AC0
0123ac: ed0c18_1b0020    MOV dbl(@#06h),AC1 || OR #0,AC0,AC2
0123b2: eb1418           MOV AC1,dbl(@#0ah)
0123b5: 041215           BCC #0x0123cd,AC2 != #0
0123b8: ed0408           MOV dbl(@#02h),AC0
0123bb: 1a0010           OR #0,AC0,AC1
0123be: ec3e12           BCLR @#1fh,AC1
0123c1: 6d110223         BCC #0x0125e8,AC1 != #0
0123c5: ed0c18           MOV dbl(@#06h),AC1
0123c8: 2810             AND AC1,AC0
0123ca: 06021b           B #0x0125e8
0123cd: ed0418           MOV dbl(@#02h),AC1
0123d0: ec3e12           BCLR @#1fh,AC1
0123d3: 1a0021           OR #0,AC1,AC2
0123d6: eb0028           MOV AC2,dbl(@#00h)
0123d9: ed0428           MOV dbl(@#02h),AC2
0123dc: 6d010205         BCC #0x0125e5,AC1 == #0
0123e0: 7a7f803a         MOV #32640 << #16,AC3
0123e4: 120830           CMP AC0 >= AC3, TC1
0123e7: 6d6401c7         BCC #0x0125b2,TC1
0123eb: 121430           CMP AC1 < AC3, TC1
0123ee: 6d7401c8         BCC #0x0125ba,!TC1
0123f2: 10c529           SFTS AC0,#-23,AC3
0123f5: 223a             MOV AC3,AR2
0123f7: 6d0a01bf         BCC #0x0125ba,AR2 == #0
0123fb: ec31be7fffff     AMAR *(#07fffffh),XAR3
012401: 105529           SFTS AC1,#-23,AC1
012404: 90b3             MOV XAR3,AC3
012406: 221c             MOV AC1,AR4
012408: 7a00800a_2903    MOV #128 << #16,AC0 || AND AC0,AC3
01240e: 2430             ADD AC3,AC0
012410: 6d0c01d1         BCC #0x0125e5,AR4 == #0
012414: 90b1             MOV XAR3,AC1
012416: ed0438_13a4c0    MOV dbl(@#02h),AC3 || CMP AR2 < AR4, TC1
01241c: 7a00803a_2931    MOV #128 << #16,AC3 || AND AC3,AC1
012422: 2413             ADD AC1,AC3
012424: 62e4             BCC #0x01242b,TC1
012426: ed1428           MOV dbl(@#0ah),AC2
012429: 4a0f             B #0x01243a
01242b: 22a9_1b0010      MOV AR2,AR1 || OR #0,AC0,AC1
012430: 1a0003_23ca      OR #0,AC3,AC0 || MOV AR4,AR2
012435: 1a0031_239c      OR #0,AC1,AC3 || MOV AR1,AR4
01243a: 7a80001a         MOV #-32768 << #16,AC1
01243e: ed0c28_2921      MOV dbl(@#06h),AC2 || AND AC2,AC1
012443: eb0818           MOV AC1,dbl(@#04h)
012446: ed0418           MOV dbl(@#02h),AC1
012449: 7a80002a_2d21    MOV #-32768 << #16,AC2 || XOR AC2,AC1
01244f: 2812_23a9        AND AC1,AC2 || MOV AR2,AR1
012453: 3433_9e92        XCCPART AC2 != #0 || NEG AC3,AC3
012457: 760019b8_27c9    MOV #25,AR3 || SUB AR4,AR1
01245d: 1298b0_21        CMP AR1 >= AR3, TC1 || NOP
012461: 04646e           BCC #0x0124d2,TC1
012464: 3495             NEG AR1,T1
012466: 12a0c0_1b0013    CMP AR2 == AR4, TC1 || OR #0,AC3,AC1
01246c: 5c55             SFTS AC1,T1,AC1
01246e: 2410             ADD AC1,AC0
012470: 04644f           BCC #0x0124c2,TC1
012473: 76002058         MOV #32,T1
012477: 2695_1b0013      SUB AR1,T1 || OR #0,AC3,AC1
01247c: 3c1b             MOV #1,AR3
01247e: 7a80001a_5d95    MOV #-32768 << #16,AC1 || SFTS AC1,T1,AC2
012484: 2821_1390b0      AND AC2,AC1 || CMP AR1 == AR3, TC1
012489: eb0418           MOV AC1,dbl(@#02h)
01248c: 046429           BCC #0x0124b8,TC1
01248f: 76002158         MOV #33,T1
012493: 2695_1b0013      SUB AR1,T1 || OR #0,AC3,AC1
012498: 3c2b             MOV #2,AR3
01249a: 7a80001a_5d95    MOV #-32768 << #16,AC1 || SFTS AC1,T1,AC2
0124a0: 2821_1390b0      AND AC2,AC1 || CMP AR1 == AR3, TC1
0124a5: eb0018           MOV AC1,dbl(@#00h)
0124a8: 6564             BCC #0x0124b4,TC1
0124aa: 76002258         MOV #34,T1
0124ae: 2695             SUB AR1,T1
0124b0: 4a2c_5d75        B #0x0124e0 || SFTS AC3,T1,AC1
0124b4: 4a28_3d01        B #0x0124e0 || MOV #0,AC1
0124b8: 3c01             MOV #0,AC1
0124ba: 1a0021           OR #0,AC1,AC2
0124bd: eb0028           MOV AC2,dbl(@#00h)
0124c0: 4a1e             B #0x0124e0
0124c2: 3c01             MOV #0,AC1
0124c4: 1a0021           OR #0,AC1,AC2
0124c7: eb0028           MOV AC2,dbl(@#00h)
0124ca: ed0028           MOV dbl(@#00h),AC2
0124cd: eb0428           MOV AC2,dbl(@#02h)
0124d0: 4a0e             B #0x0124e0
0124d2: 3c01             MOV #0,AC1
0124d4: eb0418           MOV AC1,dbl(@#02h)
0124d7: ed0418           MOV dbl(@#02h),AC1
0124da: eb0018           MOV AC1,dbl(@#00h)
0124dd: ed0018           MOV dbl(@#00h),AC1
0124e0: 044014           BCC #0x0124f7,AC0 > #0
0124e3: ed0428           MOV dbl(@#02h),AC2
0124e6: 6792             BCC #0x0124f7,AC2 != #0
0124e8: 6d0000fc         BCC #0x0125e8,AC0 == #0
0124ec: ed0828           MOV dbl(@#04h),AC2
0124ef: ec3e26           BNOT @#1fh,AC2
0124f2: eb0828_3500      MOV AC2,dbl(@#04h) || NEG AC0,AC0
0124f7: 7a01002a         MOV #256 << #16,AC2
0124fb: 120820           CMP AC0 >= AC2, TC1
0124fe: 046445           BCC #0x012546,TC1
012501: 7a00802a         MOV #128 << #16,AC2
012505: 120420           CMP AC0 < AC2, TC1
012508: 65e4             BCC #0x012515,TC1
01250a: ed0028           MOV dbl(@#00h),AC2
01250d: ed0428_2b21      MOV dbl(@#02h),AC2 || OR AC2,AC1
012512: 060045           B #0x01255a
012515: 3c1b             MOV #1,AR3
012517: 3c09             MOV #0,AR1
012519: 5000             SFTL AC0,#1
01251b: 6599             BCC #0x012528,AR1 != #0
01251d: ed0428_3d03      MOV dbl(@#02h),AC2 || MOV #0,AC3
012522: 3c13_9e92        XCCPART AC2 != #0 || MOV #1,AC3
012526: 2a30             OR AC3,AC0
012528: 129cb0_21        CMP AR1 != AR3, TC1 || NOP
01252c: 6464             BCC #0x012536,TC1
01252e: 3c01             MOV #0,AC1
012530: 1a0021           OR #0,AC1,AC2
012533: eb0028           MOV AC2,dbl(@#00h)
012536: 7a00802a         MOV #128 << #16,AC2
01253a: 120420_4119      CMP AC0 < AC2, TC1 || ADD #1,AR1
01253f: 421a             SUB #1,AR2
012541: 0464d5           BCC #0x012519,TC1
012544: 4a17             B #0x01255d
012546: ed0428           MOV dbl(@#02h),AC2
012549: ed0018_2b12      MOV dbl(@#00h),AC1 || OR AC1,AC2
01254e: 2a12             OR AC1,AC2
012550: 1a0012           OR #0,AC2,AC1
012553: 180120           AND #1,AC0,AC2
012556: 4440_411a        SFTS AC0,#-1 || ADD #1,AR2
01255a: eb0028           MOV AC2,dbl(@#00h)
01255d: ed0028           MOV dbl(@#00h),AC2
012560: 6782             BCC #0x012571,AC2 == #0
012562: 2209             MOV AC0,AR1
012564: 7fffff99         XOR #65535,AR1,AR1
012568: 180199           AND #1,AR1,AR1
01256b: 6109             BCC #0x01256f,AR1 == #0
01256d: 6101             BCC #0x012571,AC1 == #0
01256f: 4010             ADD #1,AC0
012571: 7a01001a         MOV #256 << #16,AC1
012575: 120410           CMP AC0 < AC1, TC1
012578: 401a_9ef4        XCCPART !TC1 || ADD #1,AR2
01257c: 4440_9ef4        XCCPART !TC1 || SFTS AC0,#-1
012580: 043a14           BCC #0x012597,AR2 <= #0
012583: 7600ff98         MOV #255,AR1
012587: 12a490_21        CMP AR2 < AR1, TC1 || NOP
01258b: 3c00_9ef4        XCCPART !TC1 || MOV #0,AC0
01258f: 7600ffa8_9ef4    XCCPART !TC1 || MOV #255,AR2
012595: 4a04             B #0x01259b
012597: 3c0a             MOV #0,AR2
012599: 3c00             MOV #0,AC0
01259b: ec31be7fffff     AMAR *(#07fffffh),XAR3
0125a1: 90b1             MOV XAR3,AC1
0125a3: 2801             AND AC0,AC1
0125a5: 22a0             MOV AR2,AC0
0125a7: 104317           ADD AC0 << #23,AC1
0125aa: ed0850           ADD dbl(@#04h),AC1,AC1
0125ad: 1a0001           OR #0,AC1,AC0
0125b0: 4a36             B #0x0125e8
0125b2: ed0018           MOV dbl(@#00h),AC1
0125b5: 120810           CMP AC0 >= AC1, TC1
0125b8: 62e4             BCC #0x0125bf,TC1
0125ba: ed1008           MOV dbl(@#08h),AC0
0125bd: 4a29             B #0x0125e8
0125bf: 7a7f801a         MOV #32640 << #16,AC1
0125c3: 120c10           CMP AC0 != AC1, TC1
0125c6: 04641c           BCC #0x0125e5,TC1
0125c9: ed0408           MOV dbl(@#02h),AC0
0125cc: ed0c18           MOV dbl(@#06h),AC1
0125cf: 7a80001a_2d10    MOV #-32768 << #16,AC1 || XOR AC1,AC0
0125d5: 120c14           CMPU AC0 != AC1, TC1
0125d8: 7a7f800a_9ef4    XCCPART !TC1 || MOV #32640 << #16,AC0
0125de: 1a0100_9ef4      XCCPART !TC1 || OR #1,AC0,AC0
0125e3: 61f4             BCC #0x0125e8,!TC1
0125e5: ed0808           MOV dbl(@#04h),AC0
0125e8: 4e0d             AADD #13,SP
0125ea: 4804             RET
0125ec:               __neqd:
0125ec: 1a0020           OR #0,AC0,AC2
0125ef: 1a0001           OR #0,AC1,AC0
0125f2: 1a0012           OR #0,AC2,AC1
0125f5: 2c01             XOR AC0,AC1
0125f7: 65d1             BCC #0x012604,AC1 >= #0
0125f9: 7a80000a_2b02    MOV #-32768 << #16,AC0 || OR AC0,AC2
0125ff: 122004           CMPU AC2 == AC0, TC1
012602: 4a14             B #0x012618
012604: 122000           CMP AC2 == AC0, TC1
012607: 3c14_9ef4        XCCPART !TC1 || MOV #1,T0
01260b: 047410           BCC #0x01261e,!TC1
01260e: 7a7f800a         MOV #32640 << #16,AC0
012612: ec3e22           BCLR @#1fh,AC2
012615: 120824           CMPU AC0 >= AC2, TC1
012618: 3c04             MOV #0,T0
01261a: 3c14_9ef4        XCCPART !TC1 || MOV #1,T0
01261e: 4804             RET
012620:               __lssd:
012620: 1a0020           OR #0,AC0,AC2
012623: 1a0001           OR #0,AC1,AC0
012626: 7a7f803a         MOV #32640 << #16,AC3
01262a: 1a0012           OR #0,AC2,AC1
01262d: ec3e12           BCLR @#1fh,AC1
012630: 123814           CMPU AC3 >= AC1, TC1
012633: 047426           BCC #0x01265c,!TC1
012636: 1a0010           OR #0,AC0,AC1
012639: ec3e12           BCLR @#1fh,AC1
01263c: 123814           CMPU AC3 >= AC1, TC1
01263f: 04741a           BCC #0x01265c,!TC1
012642: 1a0012           OR #0,AC2,AC1
012645: 2c01             XOR AC0,AC1
012647: 6421             BCC #0x012651,AC1 < #0
012649: 2602             SUB AC0,AC2
01264b: 3422_9ea0        XCCPART AC0 < #0 || NEG AC2,AC2
01264f: 4a0f             B #0x012660
012651: 7a80001a_2b20    MOV #-32768 << #16,AC1 || OR AC2,AC0
012657: 120c14           CMPU AC0 != AC1, TC1
01265a: 6264             BCC #0x012660,TC1
01265c: 3c04             MOV #0,T0
01265e: 4a06             B #0x012666
012660: 3c04             MOV #0,T0
012662: 3c14_9ea2        XCCPART AC2 < #0 || MOV #1,T0
012666: 4804             RET
012668:               __leqd:
012668: 1a0020           OR #0,AC0,AC2
01266b: 1a0001           OR #0,AC1,AC0
01266e: 7a7f803a         MOV #32640 << #16,AC3
012672: 1a0012           OR #0,AC2,AC1
012675: ec3e12           BCLR @#1fh,AC1
012678: 123814           CMPU AC3 >= AC1, TC1
01267b: 65f4             BCC #0x012688,!TC1
01267d: 1a0010           OR #0,AC0,AC1
012680: ec3e12           BCLR @#1fh,AC1
012683: 123814           CMPU AC3 >= AC1, TC1
012686: 6264             BCC #0x01268c,TC1
012688: 3c04             MOV #0,T0
01268a: 4a27             B #0x0126b3
01268c: 1a0012           OR #0,AC2,AC1
01268f: 2c01             XOR AC0,AC1
012691: 6421             BCC #0x01269b,AC1 < #0
012693: 2602             SUB AC0,AC2
012695: 3422_9ea0        XCCPART AC0 < #0 || NEG AC2,AC2
012699: 4a12             B #0x0126ad
01269b: 7a80001a_2b20    MOV #-32768 << #16,AC1 || OR AC2,AC0
0126a1: 120c14           CMPU AC0 != AC1, TC1
0126a4: 3c14_9ef4        XCCPART !TC1 || MOV #1,T0
0126a8: 64f4             BCC #0x0126b3,!TC1
0126aa: ec0020           BSET @#00h,AC2
0126ad: 3c04             MOV #0,T0
0126af: 3c14_9eb2        XCCPART AC2 <= #0 || MOV #1,T0
0126b3: 4804             RET
0126b5:               __gtrd:
0126b5: 1a0020           OR #0,AC0,AC2
0126b8: 1a0001           OR #0,AC1,AC0
0126bb: 7a7f803a         MOV #32640 << #16,AC3
0126bf: 1a0012           OR #0,AC2,AC1
0126c2: ec3e12           BCLR @#1fh,AC1
0126c5: 123814           CMPU AC3 >= AC1, TC1
0126c8: 047426           BCC #0x0126f1,!TC1
0126cb: 1a0010           OR #0,AC0,AC1
0126ce: ec3e12           BCLR @#1fh,AC1
0126d1: 123814           CMPU AC3 >= AC1, TC1
0126d4: 04741a           BCC #0x0126f1,!TC1
0126d7: 1a0012           OR #0,AC2,AC1
0126da: 2c01             XOR AC0,AC1
0126dc: 6421             BCC #0x0126e6,AC1 < #0
0126de: 2602             SUB AC0,AC2
0126e0: 3422_9ea0        XCCPART AC0 < #0 || NEG AC2,AC2
0126e4: 4a12             B #0x0126f8
0126e6: 7a80001a_2b20    MOV #-32768 << #16,AC1 || OR AC2,AC0
0126ec: 120c14           CMPU AC0 != AC1, TC1
0126ef: 6264             BCC #0x0126f5,TC1
0126f1: 3c04             MOV #0,T0
0126f3: 4a09             B #0x0126fe
0126f5: ec0020           BSET @#00h,AC2
0126f8: 3c04             MOV #0,T0
0126fa: 3c14_9ec2        XCCPART AC2 > #0 || MOV #1,T0
0126fe: 4804             RET
012700:               __geqd:
012700: 1a0020           OR #0,AC0,AC2
012703: 1a0001           OR #0,AC1,AC0
012706: 7a7f803a         MOV #32640 << #16,AC3
01270a: 1a0012           OR #0,AC2,AC1
01270d: ec3e12           BCLR @#1fh,AC1
012710: 123814           CMPU AC3 >= AC1, TC1
012713: 65f4             BCC #0x012720,!TC1
012715: 1a0010           OR #0,AC0,AC1
012718: ec3e12           BCLR @#1fh,AC1
01271b: 123814           CMPU AC3 >= AC1, TC1
01271e: 6264             BCC #0x012724,TC1
012720: 3c04             MOV #0,T0
012722: 4a24             B #0x012748
012724: 1a0012           OR #0,AC2,AC1
012727: 2c01             XOR AC0,AC1
012729: 6421             BCC #0x012733,AC1 < #0
01272b: 2602             SUB AC0,AC2
01272d: 3422_9ea0        XCCPART AC0 < #0 || NEG AC2,AC2
012731: 4a0f             B #0x012742
012733: 7a80001a_2b20    MOV #-32768 << #16,AC1 || OR AC2,AC0
012739: 120c14           CMPU AC0 != AC1, TC1
01273c: 3c14_9ef4        XCCPART !TC1 || MOV #1,T0
012740: 6374             BCC #0x012748,!TC1
012742: 3c04             MOV #0,T0
012744: 3c14_9ed2        XCCPART AC2 >= #0 || MOV #1,T0
012748: 4804             RET
01274a:               __eqld:
01274a: 1a0020           OR #0,AC0,AC2
01274d: 1a0001           OR #0,AC1,AC0
012750: 1a0012           OR #0,AC2,AC1
012753: 2c01             XOR AC0,AC1
012755: 65d1             BCC #0x012762,AC1 >= #0
012757: 7a80000a_2b02    MOV #-32768 << #16,AC0 || OR AC0,AC2
01275d: 122c04           CMPU AC2 != AC0, TC1
012760: 4a14             B #0x012776
012762: 122000           CMP AC2 == AC0, TC1
012765: 3c04_9ef4        XCCPART !TC1 || MOV #0,T0
012769: 047410           BCC #0x01277c,!TC1
01276c: 7a7f800a         MOV #32640 << #16,AC0
012770: ec3e22           BCLR @#1fh,AC2
012773: 120424           CMPU AC0 < AC2, TC1
012776: 3c04             MOV #0,T0
012778: 3c14_9ef4        XCCPART !TC1 || MOV #1,T0
01277c: 4804             RET
01277e:               __cmpd:
01277e: 1a0020           OR #0,AC0,AC2
012781: 1a0001           OR #0,AC1,AC0
012784: 7a7f803a         MOV #32640 << #16,AC3
012788: 1a0012           OR #0,AC2,AC1
01278b: ec3e12           BCLR @#1fh,AC1
01278e: 123814           CMPU AC3 >= AC1, TC1
012791: 65f4             BCC #0x01279e,!TC1
012793: 1a0010           OR #0,AC0,AC1
012796: ec3e12           BCLR @#1fh,AC1
012799: 123814           CMPU AC3 >= AC1, TC1
01279c: 6364             BCC #0x0127a4,TC1
01279e: 76800048         MOV #-32768,T0
0127a2: 4a30             B #0x0127d4
0127a4: 1a0012           OR #0,AC2,AC1
0127a7: 2c01             XOR AC0,AC1
0127a9: 042111           BCC #0x0127bd,AC1 < #0
0127ac: 2602             SUB AC0,AC2
0127ae: 3422_9ea0        XCCPART AC0 < #0 || NEG AC2,AC2
0127b2: 042219           BCC #0x0127ce,AC2 < #0
0127b5: 3c04             MOV #0,T0
0127b7: 3c14_9ec2        XCCPART AC2 > #0 || MOV #1,T0
0127bb: 4a17             B #0x0127d4
0127bd: 7a80001a_2b20    MOV #-32768 << #16,AC1 || OR AC2,AC0
0127c3: 120c14           CMPU AC0 != AC1, TC1
0127c6: 3c04_9ef4        XCCPART !TC1 || MOV #0,T0
0127ca: 6474             BCC #0x0127d4,!TC1
0127cc: 6252             BCC #0x0127d2,AC2 >= #0
0127ce: 3e14             MOV #-1,T0
0127d0: 4a02             B #0x0127d4
0127d2: 3c14             MOV #1,T0
0127d4: 4804             RET
0127d6:               _exp:
0127d6: 5066             PSH T2
0127d8: ed311801c000     MOV dbl(*(#01c000h)),AC1
0127de: 50d5             PSHBOTH XAR5
0127e0: 4ef7             AADD #-9,SP
0127e2: eb0408           MOV AC0,dbl(@#02h)
0127e5: ed0408           MOV dbl(@#02h),AC0
0127e8: 6c01277e         CALL __cmpd
0127ec: 9644             XCC T0 > #0
0127ee: e631020131d0     MOV #2,*(#0131d0h)
0127f4: 9644             XCC T0 > #0
0127f6: ed310801c002     MOV dbl(*(#01c002h)),AC0
0127fc: 6d440184         BCC #0x012984,T0 > #0
012800: ed0408           MOV dbl(@#02h),AC0
012803: ed311801c004     MOV dbl(*(#01c004h)),AC1
012809: 6c01277e         CALL __cmpd
01280d: 9624             XCC T0 < #0
01280f: ed310801c006     MOV dbl(*(#01c006h)),AC0
012815: 6d24016b         BCC #0x012984,T0 < #0
012819: ed0408           MOV dbl(@#02h),AC0
01281c: ed311801c008     MOV dbl(*(#01c008h)),AC1
012822: 5000             SFTL AC0,#1
012824: 5001             SFTL AC0,#-1
012826: 6c01277e         CALL __cmpd
01282a: 9624             XCC T0 < #0
01282c: ed310801c00a     MOV dbl(*(#01c00ah)),AC0
012832: 6d24014e         BCC #0x012984,T0 < #0
012836: ed0408           MOV dbl(@#02h),AC0
012839: ed311801c00c     MOV dbl(*(#01c00ch)),AC1
01283f: 6c01298c         CALL __mpyd
012843: eb0008           MOV AC0,dbl(@#00h)
012846: ed311801c006     MOV dbl(*(#01c006h)),AC1
01284c: ed0008           MOV dbl(@#00h),AC0
01284f: eb0808           MOV AC0,dbl(@#04h)
012852: ed0808           MOV dbl(@#04h),AC0
012855: 6c01277e         CALL __cmpd
012859: 045436           BCC #0x012892,T0 >= #0
01285c: ed0808           MOV dbl(@#04h),AC0
01285f: 6c013622         CALL __fixdi
012863: 6c013702         CALL __fltid
012867: ed0808_1b0010    MOV dbl(@#04h),AC0 || OR #0,AC0,AC1
01286d: 6c01277e         CALL __cmpd
012871: 040419           BCC #0x01288d,T0 == #0
012874: ed0808           MOV dbl(@#04h),AC0
012877: 6c0136f2         CALL __negd
01287b: ed311801c00a     MOV dbl(*(#01c00ah)),AC1
012881: 6c012392         CALL __addd
012885: 6c013622         CALL __fixdi
012889: 4a0c_3544        B #0x012899 || NEG T0,T0
01288d: ed0008           MOV dbl(@#00h),AC0
012890: 4a0b             B #0x01289d
012892: ed0008           MOV dbl(@#00h),AC0
012895: 6c013622         CALL __fixdi
012899: 6c013702         CALL __fltid
01289d: 6c013622         CALL __fixdi
0128a1: 2246             MOV T0,T2
0128a3: 4016             ADD #1,T2
0128a5: 2264             MOV T2,T0
0128a7: 6c013702         CALL __fltid
0128ab: eb0808           MOV AC0,dbl(@#04h)
0128ae: ed311801c006     MOV dbl(*(#01c006h)),AC1
0128b4: ed0408           MOV dbl(@#02h),AC0
0128b7: 6c01277e         CALL __cmpd
0128bb: 045436           BCC #0x0128f4,T0 >= #0
0128be: ed0408           MOV dbl(@#02h),AC0
0128c1: 6c013622         CALL __fixdi
0128c5: 6c013702         CALL __fltid
0128c9: ed0408_1b0010    MOV dbl(@#02h),AC0 || OR #0,AC0,AC1
0128cf: 6c01277e         CALL __cmpd
0128d3: 040419           BCC #0x0128ef,T0 == #0
0128d6: ed0408           MOV dbl(@#02h),AC0
0128d9: 6c0136f2         CALL __negd
0128dd: ed311801c00a     MOV dbl(*(#01c00ah)),AC1
0128e3: 6c012392         CALL __addd
0128e7: 6c013622         CALL __fixdi
0128eb: 4a0c_3544        B #0x0128fb || NEG T0,T0
0128ef: ed0408           MOV dbl(@#02h),AC0
0128f2: 4a0b             B #0x0128ff
0128f4: ed0408           MOV dbl(@#02h),AC0
0128f7: 6c013622         CALL __fixdi
0128fb: 6c013702         CALL __fltid
0128ff: eb0008           MOV AC0,dbl(@#00h)
012902: ed311801c00e     MOV dbl(*(#01c00eh)),AC1
012908: ed0808           MOV dbl(@#04h),AC0
01290b: 6c01298c         CALL __mpyd
01290f: ed0008_1b0010    MOV dbl(@#00h),AC0 || OR #0,AC0,AC1
012915: 6c0136a8         CALL __subd
012919: eb0c08           MOV AC0,dbl(@#06h)
01291c: ed0018           MOV dbl(@#00h),AC1
01291f: ed0408           MOV dbl(@#02h),AC0
012922: 6c0136a8         CALL __subd
012926: ed0c08_1b0010    MOV dbl(@#06h),AC0 || OR #0,AC0,AC1
01292c: 6c012392         CALL __addd
012930: eb0008           MOV AC0,dbl(@#00h)
012933: ed311801c010     MOV dbl(*(#01c010h)),AC1
012939: ed0808           MOV dbl(@#04h),AC0
01293c: 6c01298c         CALL __mpyd
012940: ed0008_1b0010    MOV dbl(@#00h),AC0 || OR #0,AC0,AC1
012946: 6c0136a8         CALL __subd
01294a: ec31de0131b2     AMAR *(#0131b2h),XAR5
012950: eb0008           MOV AC0,dbl(@#00h)
012953: eda108           MOV dbl(*AR5),AC0
012956: ed0018           MOV dbl(@#00h),AC1
012959: 6c01298c         CALL __mpyd
01295d: 160059           MOV #5,BRC0
012960: 1402d4_0f000a    AADD #2,AR5 || RPTB #0x012970
012966: eda318              MOV dbl(*AR5+),AC1
012969: 6c012392            CALL __addd
01296d: ed0018              MOV dbl(@#00h),AC1
012970: 6c01298c            CALL __mpyd
012974: ed311801c00a     MOV dbl(*(#01c00ah)),AC1
01297a: 6c012392         CALL __addd
01297e: 2264             MOV T2,T0
012980: 6c012bee         CALL _ldexp
012984: 4e09             AADD #9,SP
012986: 50d4             POPBOTH XAR5
012988: 5062             POP T2
01298a: 4804             RET
01298c:               __mpyd:
01298c: 5066             PSH T2
01298e: 4ef8             AADD #-8,SP
012990: eb0408           MOV AC0,dbl(@#02h)
012993: eb0018           MOV AC1,dbl(@#00h)
012996: ed0408           MOV dbl(@#02h),AC0
012999: eb0808           MOV AC0,dbl(@#04h)
01299c: ed0838           MOV dbl(@#04h),AC3
01299f: ed0008           MOV dbl(@#00h),AC0
0129a2: ec3e32           BCLR @#1fh,AC3
0129a5: eb0c08           MOV AC0,dbl(@#06h)
0129a8: ed0c18           MOV dbl(@#06h),AC1
0129ab: ed0808           MOV dbl(@#04h),AC0
0129ae: 7a80001a_2d10    MOV #-32768 << #16,AC1 || XOR AC1,AC0
0129b4: eb0808           MOV AC0,dbl(@#04h)
0129b7: ed0808           MOV dbl(@#04h),AC0
0129ba: 2810             AND AC1,AC0
0129bc: eb0808           MOV AC0,dbl(@#04h)
0129bf: 7a7f800a         MOV #32640 << #16,AC0
0129c3: ed0c18_133804    MOV dbl(@#06h),AC1 || CMPU AC3 >= AC0, TC1
0129c9: ec3e12           BCLR @#1fh,AC1
0129cc: 6d6400db         BCC #0x012aab,TC1
0129d0: 121804           CMPU AC1 >= AC0, TC1
0129d3: 6d6400ca         BCC #0x012aa1,TC1
0129d7: 103729           SFTL AC3,#-23,AC0
0129da: 2209             MOV AC0,AR1
0129dc: 3c00             MOV #0,AC0
0129de: 6d0900ed         BCC #0x012acf,AR1 == #0
0129e2: ec31be7fffff     AMAR *(#07fffffh),XAR3
0129e8: 90b2             MOV XAR3,AC2
0129ea: 2823             AND AC2,AC3
0129ec: 041322           BCC #0x012a11,AC3 != #0
0129ef: ed0c18           MOV dbl(@#06h),AC1
0129f2: 105729           SFTL AC1,#-23,AC1
0129f5: 221c             MOV AC1,AR4
0129f7: 18ffac           AND #255,AR4,AR2
0129fa: 6d0a00d1         BCC #0x012acf,AR2 == #0
0129fe: 90b1             MOV XAR3,AC1
012a00: ed0c08_19ff6c    MOV dbl(@#06h),AC0 || AND #255,AR4,T2
012a06: 7a00800a_2901    MOV #128 << #16,AC0 || AND AC0,AC1
012a0c: 06005b_2510      B #0x012a6c || ADD AC1,AC0
012a11: 109729           SFTL AC1,#-23,AC2
012a14: 2226             MOV AC2,T2
012a16: 6d0600b5         BCC #0x012acf,T2 == #0
012a1a: 7a00800a         MOV #128 << #16,AC0
012a1e: 2403             ADD AC0,AC3
012a20: 90b0             MOV XAR3,AC0
012a22: 2801             AND AC0,AC1
012a24: 040142           BCC #0x012a69,AC1 == #0
012a27: 7a00800a_2596    MOV #128 << #16,AC0 || ADD AR1,T2
012a2d: 2401             ADD AC0,AC1
012a2f: 1a0003           OR #0,AC3,AC0
012a32: 6c0130a5         CALL __frcmpyd
012a36: 7a04001a         MOV #1024 << #16,AC1
012a3a: 120414           CMPU AC0 < AC1, TC1
012a3d: 6564             BCC #0x012a49,TC1
012a3f: 180110           AND #1,AC0,AC1
012a42: 10073f           SFTL AC0,#-1,AC0
012a45: 2a10_4116        OR AC1,AC0 || ADD #1,T2
012a49: 3c21             MOV #2,AC1
012a4b: 180720           AND #7,AC0,AC2
012a4e: 122014           CMPU AC2 == AC1, TC1
012a51: 4020_9ef4        XCCPART !TC1 || ADD #2,AC0
012a55: 7a01001a         MOV #256 << #16,AC1
012a59: 10073e           SFTL AC0,#-2,AC0
012a5c: 120414           CMPU AC0 < AC1, TC1
012a5f: 5001_9ef4        XCCPART !TC1 || SFTL AC0,#-1
012a63: 4016_9ef4        XCCPART !TC1 || ADD #1,T2
012a67: 4a05             B #0x012a6e
012a69: 1a0003           OR #0,AC3,AC0
012a6c: 2496             ADD AR1,T2
012a6e: 7c007f66         SUB #127,T2,T2
012a72: 043614           BCC #0x012a89,T2 <= #0
012a75: 7600ff98         MOV #255,AR1
012a79: 126490_21        CMP T2 < AR1, TC1 || NOP
012a7d: 3c00_9ef4        XCCPART !TC1 || MOV #0,AC0
012a81: 7600ff68_9ef4    XCCPART !TC1 || MOV #255,T2
012a87: 4a04             B #0x012a8d
012a89: 3c06             MOV #0,T2
012a8b: 3c00             MOV #0,AC0
012a8d: ec31be7fffff     AMAR *(#07fffffh),XAR3
012a93: 90b1             MOV XAR3,AC1
012a95: 2801             AND AC0,AC1
012a97: 2260             MOV T2,AC0
012a99: 104317           ADD AC0 << #23,AC1
012a9c: 1a0001           OR #0,AC1,AC0
012a9f: 4a2e             B #0x012acf
012aa1: 120814           CMPU AC0 >= AC1, TC1
012aa4: 66f4             BCC #0x012ab3,!TC1
012aa6: 04031f           BCC #0x012ac8,AC3 == #0
012aa9: 4a24             B #0x012acf
012aab: 1a0003           OR #0,AC3,AC0
012aae: 120814           CMPU AC0 >= AC1, TC1
012ab1: 62e4             BCC #0x012ab8,TC1
012ab3: ed0008           MOV dbl(@#00h),AC0
012ab6: 4a1a             B #0x012ad2
012ab8: 7a7f802a         MOV #32640 << #16,AC2
012abc: 122804           CMPU AC2 >= AC0, TC1
012abf: ed0408_9ef4      XCCPART !TC1 || MOV dbl(@#02h),AC0
012ac4: 6674             BCC #0x012ad2,!TC1
012ac6: 6391             BCC #0x012acf,AC1 != #0
012ac8: 7a7f800a         MOV #32640 << #16,AC0
012acc: 1a0100           OR #1,AC0,AC0
012acf: ed0800           ADD dbl(@#04h),AC0,AC0
012ad2: 4e08             AADD #8,SP
012ad4: 5062             POP T2
012ad6: 4804             RET
012ad8:               _sqrt:
012ad8: 4ef9             AADD #-7,SP
012ada: eb0808           MOV AC0,dbl(@#04h)
012add: 7600ff18         MOV #255,AC1
012ae1: ed0808           MOV dbl(@#04h),AC0
012ae4: 108729           SFTL AC0,#-23,AC2
012ae7: 18ff22           AND #255,AC2,AC2
012aea: 122c10           CMP AC2 != AC1, TC1
012aed: 65e4             BCC #0x012afa,TC1
012aef: 100709           SFTL AC0,#9,AC0
012af2: 6310             BCC #0x012afa,AC0 != #0
012af4: ed0808           MOV dbl(@#04h),AC0
012af7: 0600f0           B #0x012bea
012afa: ed0808           MOV dbl(@#04h),AC0
012afd: ed311801c01c     MOV dbl(*(#01c01ch)),AC1
012b03: 6c01277e         CALL __cmpd
012b07: 6d3400c4         BCC #0x012bcf,T0 <= #0
012b0b: 9048             MOV XSP,XAR0
012b0d: ed0808           MOV dbl(@#04h),AC0
012b10: 6c012ce0         CALL _frexp
012b14: ed311801c01e     MOV dbl(*(#01c01eh)),AC1
012b1a: 6c01298c         CALL __mpyd
012b1e: ed311801c020     MOV dbl(*(#01c020h)),AC1
012b24: 6c012392         CALL __addd
012b28: f700ffff         ADD #-1,@#00h
012b2c: dc0000           BTST #0,@#00h,TC1
012b2f: 6774             BCC #0x012b3f,!TC1
012b31: f700ffff         ADD #-1,@#00h
012b35: ed311801c022     MOV dbl(*(#01c022h)),AC1
012b3b: 6c01298c         CALL __mpyd
012b3f: a900             MOV @#00h,AR1
012b41: 4449             SFTS AR1,#-1
012b43: 3694             NOT AR1,T0
012b45: 6c012bee         CALL _ldexp
012b49: 160019           MOV #1,BRC0
012b4c: eb0408_0f0039    MOV AC0,dbl(@#02h) || RPTB #0x012b8b
012b52: ed0408              MOV dbl(@#02h),AC0
012b55: ed0818              MOV dbl(@#04h),AC1
012b58: 6c01298c            CALL __mpyd
012b5c: ed311801c024        MOV dbl(*(#01c024h)),AC1
012b62: 6c01298c            CALL __mpyd
012b66: ed0418              MOV dbl(@#02h),AC1
012b69: 6c01298c            CALL __mpyd
012b6d: 1a0010              OR #0,AC0,AC1
012b70: ed310801c024        MOV dbl(*(#01c024h)),AC0
012b76: 6c0136a8            CALL __subd
012b7a: ed0418              MOV dbl(@#02h),AC1
012b7d: 6c01298c            CALL __mpyd
012b81: ed0408_1b0010       MOV dbl(@#02h),AC0 || OR #0,AC0,AC1
012b87: 6c012392            CALL __addd
012b8b: eb0408              MOV AC0,dbl(@#02h)
012b8e: ed0408           MOV dbl(@#02h),AC0
012b91: ed0818           MOV dbl(@#04h),AC1
012b94: 6c01298c         CALL __mpyd
012b98: eb0808           MOV AC0,dbl(@#04h)
012b9b: ed311801c024     MOV dbl(*(#01c024h)),AC1
012ba1: ed0808           MOV dbl(@#04h),AC0
012ba4: 6c01298c         CALL __mpyd
012ba8: ed0418           MOV dbl(@#02h),AC1
012bab: 6c01298c         CALL __mpyd
012baf: 1a0010           OR #0,AC0,AC1
012bb2: ed310801c024     MOV dbl(*(#01c024h)),AC0
012bb8: 6c0136a8         CALL __subd
012bbc: ed0818           MOV dbl(@#04h),AC1
012bbf: 6c01298c         CALL __mpyd
012bc3: ed0808_1b0010    MOV dbl(@#04h),AC0 || OR #0,AC0,AC1
012bc9: 6c012392         CALL __addd
012bcd: 4a1b             B #0x012bea
012bcf: ed0808           MOV dbl(@#04h),AC0
012bd2: ed311801c01c     MOV dbl(*(#01c01ch)),AC1
012bd8: 6c01277e         CALL __cmpd
012bdc: ed310801c01c     MOV dbl(*(#01c01ch)),AC0
012be2: 9614             XCC T0 != #0
012be4: e631010131d0     MOV #1,*(#0131d0h)
012bea: 4e07             AADD #7,SP
012bec: 4804             RET
012bee:               _ldexp:
012bee: 5066             PSH T2
012bf0: 4efc             AADD #-4,SP
012bf2: eb0408           MOV AC0,dbl(@#02h)
012bf5: ed0408           MOV dbl(@#02h),AC0
012bf8: eb0008           MOV AC0,dbl(@#00h)
012bfb: ab00             MOV @#00h,AR3
012bfd: 22b0             MOV AR3,AC0
012bff: 100539_2346      SFTS AC0,#-7,AC0 || MOV T0,T2
012c04: 18ffa0           AND #255,AC0,AR2
012c07: 18ff90           AND #255,AC0,AR1
012c0a: 041a30           BCC #0x012c3d,AR2 != #0
012c0d: ed0008           MOV dbl(@#00h),AC0
012c10: ed311801c012     MOV dbl(*(#01c012h)),AC1
012c16: 6c01277e         CALL __cmpd
012c1a: 04042a           BCC #0x012c47,T0 == #0
012c1d: ed0008           MOV dbl(@#00h),AC0
012c20: ed311801c014     MOV dbl(*(#01c014h)),AC1
012c26: 6c01298c         CALL __mpyd
012c2a: eb0008           MOV AC0,dbl(@#00h)
012c2d: ab00             MOV @#00h,AR3
012c2f: 22b0             MOV AR3,AC0
012c31: 100539           SFTS AC0,#-7,AC0
012c34: 18ff90           AND #255,AC0,AR1
012c37: 7c001899         SUB #24,AR1,AR1
012c3b: 4a10             B #0x012c4d
012c3d: 7600ffa8         MOV #255,AR2
012c41: 129ca0_21        CMP AR1 != AR2, TC1 || NOP
012c45: 6364             BCC #0x012c4d,TC1
012c47: ed0408           MOV dbl(@#02h),AC0
012c4a: 06008d           B #0x012cda
012c4d: 7600fea8         MOV #254,AR2
012c51: 269a             SUB AR1,AR2
012c53: 12a460_21        CMP AR2 < T2, TC1 || NOP
012c57: 046454           BCC #0x012cae,TC1
012c5a: 3c1a             MOV #1,AR2
012c5c: 269a             SUB AR1,AR2
012c5e: 1264a0_21        CMP T2 < AR2, TC1 || NOP
012c62: 046412           BCC #0x012c77,TC1
012c65: 2260             MOV T2,AC0
012c67: 7d807f9b_2590    AND #32895,AR3,AR1 || ADD AR1,AC0
012c6d: 100507           SFTS AC0,#7,AC0
012c70: 2a90             OR AR1,AC0
012c72: c000             MOV AC0,@#00h
012c74: 060060           B #0x012cd7
012c77: 76ffeaa8         MOV #-22,AR2
012c7b: 269a             SUB AR1,AR2
012c7d: 1268a0_21        CMP T2 >= AR2, TC1 || NOP
012c81: 9674             XCC !TC1
012c83: ed310801c012     MOV dbl(*(#01c012h)),AC0
012c89: 04744e           BCC #0x012cda,!TC1
012c8c: 2260             MOV T2,AC0
012c8e: 7d807fab_2590    AND #32895,AR3,AR2 || ADD AR1,AC0
012c94: 100507           SFTS AC0,#7,AC0
012c97: 7b0c0090         ADD #3072,AC0,AR1
012c9b: 2aa9             OR AR2,AR1
012c9d: c900             MOV AR1,@#00h
012c9f: ed311801c016     MOV dbl(*(#01c016h)),AC1
012ca5: ed0008           MOV dbl(@#00h),AC0
012ca8: 6c01298c         CALL __mpyd
012cac: 4a2c             B #0x012cda
012cae: ed0408           MOV dbl(@#02h),AC0
012cb1: e631020131d0     MOV #2,*(#0131d0h)
012cb7: ed311801c012     MOV dbl(*(#01c012h)),AC1
012cbd: 6c01277e         CALL __cmpd
012cc1: ed310801c018     MOV dbl(*(#01c018h)),AC0
012cc7: eb0008_9e54      XCC T0 >= #0 || MOV AC0,dbl(@#00h)
012ccc: ed310801c01a     MOV dbl(*(#01c01ah)),AC0
012cd2: eb0008_9e24      XCC T0 < #0 || MOV AC0,dbl(@#00h)
012cd7: ed0008           MOV dbl(@#00h),AC0
012cda: 4e04             AADD #4,SP
012cdc: 5062             POP T2
012cde: 4804             RET
012ce0:               _frexp:
012ce0: 3876             PSH T3,T2
012ce2: 50d5             PSHBOTH XAR5
012ce4: 4efc             AADD #-4,SP
012ce6: eb0408           MOV AC0,dbl(@#02h)
012ce9: ed0408           MOV dbl(@#02h),AC0
012cec: eb0008           MOV AC0,dbl(@#00h)
012cef: a600             MOV @#00h,T2
012cf1: 2260             MOV T2,AC0
012cf3: 100539           SFTS AC0,#-7,AC0
012cf6: 18ff90           AND #255,AC0,AR1
012cf9: ec01de_19ff70    AMAR *AR0,XAR5 || AND #255,AC0,T3
012cff: 04193c           BCC #0x012d3e,AR1 != #0
012d02: ed0008           MOV dbl(@#00h),AC0
012d05: ed311801c02e     MOV dbl(*(#01c02eh)),AC1
012d0b: 6c01277e         CALL __cmpd
012d0f: e6a100_9e04      XCC T0 == #0 || MOV #0,*AR5
012d14: ed0408_9e84      XCCPART T0 == #0 || MOV dbl(@#02h),AC0
012d19: 6d040087         BCC #0x012da4,T0 == #0
012d1d: ed0408           MOV dbl(@#02h),AC0
012d20: ed311801c030     MOV dbl(*(#01c030h)),AC1
012d26: 6c01298c         CALL __mpyd
012d2a: eb0008           MOV AC0,dbl(@#00h)
012d2d: a600             MOV @#00h,T2
012d2f: 2260             MOV T2,AC0
012d31: 100539           SFTS AC0,#-7,AC0
012d34: 18ff90           AND #255,AC0,AR1
012d37: 7c001879         SUB #24,AR1,T3
012d3b: 060053           B #0x012d91
012d3e: 7600ff98         MOV #255,AR1
012d42: 127c90_21        CMP T3 != AR1, TC1 || NOP
012d46: 046448           BCC #0x012d91,TC1
012d49: ed0008           MOV dbl(@#00h),AC0
012d4c: ed311801c032     MOV dbl(*(#01c032h)),AC1
012d52: 6c01277e         CALL __cmpd
012d56: 042429           BCC #0x012d82,T0 < #0
012d59: ed0008           MOV dbl(@#00h),AC0
012d5c: ed311801c034     MOV dbl(*(#01c034h)),AC1
012d62: 6c01277e         CALL __cmpd
012d66: 044411           BCC #0x012d7a,T0 > #0
012d69: e631010131d0     MOV #1,*(#0131d0h)
012d6f: ed310801c02e     MOV dbl(*(#01c02eh)),AC0
012d75: e6a100           MOV #0,*AR5
012d78: 4a2a             B #0x012da4
012d7a: ed310801c034     MOV dbl(*(#01c034h)),AC0
012d80: 4a06             B #0x012d88
012d82: ed310801c032     MOV dbl(*(#01c032h)),AC0
012d88: eb0008           MOV AC0,dbl(@#00h)
012d8b: e631010131d0     MOV #1,*(#0131d0h)
012d91: 7c007e77         SUB #126,T3,T3
012d95: 7d807f96         AND #32895,T2,AR1
012d99: c7a1             MOV T3,*AR5
012d9b: 7e3f0099         OR #16128,AR1,AR1
012d9f: c900             MOV AR1,@#00h
012da1: ed0008           MOV dbl(@#00h),AC0
012da4: 4e04             AADD #4,SP
012da6: 50d4             POPBOTH XAR5
012da8: 3a76             POP T3,T2
012daa: 4804             RET
012dac:               _writemsg:
012dac:               .text:CIO_breakpoint:
012dac: 7600f9a8_5166    MOV #249,AR2 || PSH T2
012db2: ec31be007000     AMAR *(#07000h),XAR3
012db8: c561_1340a4      MOV T1,*AR3 || CMPU T0 == AR2, TC1
012dbd: c473             MOV T0,*(AR3+T1)
012dbf: 6d64009a         BCC #0x012e5d,TC1
012dc3: 160079           MOV #7,BRC0
012dc6: 0e003e_3d02      RPTB #0x012e09 || MOV #0,AC2
012dcb: ec0028              BTST @#00h,AC2,TC1
012dce: 04641f              BCC #0x012df0,TC1
012dd1: 76fffea2            BFXTR #65534,AC2,AR2
012dd5: 90b0                MOV XAR3,AC0
012dd7: 7dffff1a            AND #65535,AR2,AC1
012ddb: 2410                ADD AC1,AC0
012ddd: 106703              SFTL AC2,#3,AC1
012de0: 361a                NOT AC1,AR2
012de2: 18086a              AND #8,AR2,T2
012de5: 900a                MOV AC0,XAR2
012de7: df0333              MOV uns(low_byte(*AR0+)),AC3
012dea: 5c78                SFTL AC3,T2,AC1
012dec: c155                MOV AC1,*(AR2-T1)
012dee: 4a19                B #0x012e09
012df0: 76fffea2            BFXTR #65534,AC2,AR2
012df4: 90b0                MOV XAR3,AC0
012df6: 7dffff1a            AND #65535,AR2,AC1
012dfa: 2410                ADD AC1,AC0
012dfc: 900a                MOV AC0,XAR2
012dfe: 8d03af1cc302        MOV uns(low_byte(*AR0+)),AR4 || AADD #2,AR2
012e04: da41cc              OR *AR2,AR4,AR4
012e07: cc41                MOV AR4,*AR2
012e09: 4012                ADD #1,AC2
012e0b: 04054f           BCC #0x012e5d,T1 == #0
012e0e: 7c0001a5         SUB #1,T1,AR2
012e12: 52ae             MOV AR2,BRC0
012e14: 0e0042_3d02      RPTB #0x012e5b || MOV #0,AC2
012e19: ec0028              BTST @#00h,AC2,TC1
012e1c: 046421              BCC #0x012e40,TC1
012e1f: 7b0008a2            ADD #8,AC2,AR2
012e23: 50a1                SFTL AR2,#-1
012e25: 90b0                MOV XAR3,AC0
012e27: 7dffff1a            AND #65535,AR2,AC1
012e2b: 2410                ADD AC1,AC0
012e2d: 106703              SFTL AC2,#3,AC1
012e30: 361a                NOT AC1,AR2
012e32: 18085a              AND #8,AR2,T1
012e35: 900a                MOV AC0,XAR2
012e37: df2333              MOV uns(low_byte(*AR1+)),AC3
012e3a: 5c74                SFTL AC3,T1,AC1
012e3c: c155                MOV AC1,*(AR2-T1)
012e3e: 4a1b                B #0x012e5b
012e40: 7b0008a2            ADD #8,AC2,AR2
012e44: 50a1                SFTL AR2,#-1
012e46: 90b0                MOV XAR3,AC0
012e48: 7dffff1a            AND #65535,AR2,AC1
012e4c: 2410                ADD AC1,AC0
012e4e: 900a                MOV AC0,XAR2
012e50: 8d23af1cc302        MOV uns(low_byte(*AR1+)),AR4 || AADD #2,AR2
012e56: da41cc              OR *AR2,AR4,AR4
012e59: cc41                MOV AR4,*AR2
012e5b: 4012                ADD #1,AC2
012e5d: 20               NOP
012e5e: 20               NOP
012e5f: 20               NOP
012e60: 20               NOP
012e61:               C$$IO$$:
012e61: 20               NOP
012e62: 5062             POP T2
012e64: 4804             RET
012e66:               __divul:
012e66: 120814           CMPU AC0 >= AC1, TC1
012e69: 108700           SFTL AC0,#0,AC2
012e6c: 3c03_9ef4        XCCPART !TC1 || MOV #0,AC3
012e70: 102820_5166      EXP AC2,T2 || PSH T2
012e75: 109700           SFTL AC1,#0,AC2
012e78: 102810_21        EXP AC2,T1 || NOP
012e7c: 2665             SUB T2,T1
012e7e: 04747f           BCC #0x012f00,!TC1
012e81: 3c03_9e80        XCCPART AC0 == #0 || MOV #0,AC3
012e85: 040078           BCC #0x012f00,AC0 == #0
012e88: 7affff3a_9e81    XCCPART AC1 == #0 || MOV #-1 << #16,AC3
012e8e: 7effff33_9e81    XCCPART AC1 == #0 || OR #65535,AC3,AC3
012e94: 040169           BCC #0x012f00,AC1 == #0
012e97: 3e19_5d94        MOV #-1,AR1 || SFTL AC1,T1,AC2
012e9b: 126c90_3d01      CMP T2 != AR1, TC1 || MOV #0,AC1
012ea0: 3c11_9ef4        XCCPART !TC1 || MOV #1,AC1
012ea4: 120824           CMPU AC0 >= AC2, TC1
012ea7: 5cd4             SFTL AC1,T1,AC3
012ea9: 5031_9ef4        XCCPART !TC1 || SFTL AC3,#-1
012ead: 040115           BCC #0x012ec5,AC1 == #0
012eb0: 120424           CMPU AC0 < AC2, TC1
012eb3: 2620_9ef4        XCCPART !TC1 || SUB AC2,AC0
012eb7: 5021_9ef4        XCCPART !TC1 || SFTL AC2,#-1
012ebb: 5021_9ee4        XCCPART TC1 || SFTL AC2,#-1
012ebf: 2620_9ee4        XCCPART TC1 || SUB AC2,AC0
012ec3: 4a02             B #0x012ec7
012ec5: 4015             ADD #1,T1
012ec7: 043520           BCC #0x012eea,T1 <= #0
012eca: 7c000195         SUB #1,T1,AR1
012ece: 529e             MOV AR1,BRC0
012ed0: 4a95             RPTBLOCAL _coverage_log-32
012ed2: 120424_3d09         CMPU AC0 < AC2, TC1 || MOV #0,AR1
012ed7: 3c19_9ef4           XCCPART !TC1 || MOV #1,AR1
012edb: 120424              CMPU AC0 < AC2, TC1
012ede: 2291                MOV AR1,AC1
012ee0: 2620_9ef4           XCCPART !TC1 || SUB AC2,AC0
012ee4: 104101              OR AC0 << #1, AC1
012ee7: 1a0001              OR #0,AC1,AC0
012eea: 040513           BCC #0x012f00,T1 == #0
012eed: 76002098         MOV #32,AR1
012ef1: 2659             SUB T1,AR1
012ef3: 2295             MOV AR1,T1
012ef5: 5c04             SFTL AC0,T1,AC0
012ef7: 3455             NEG T1,T1
012ef9: 5c04             SFTL AC0,T1,AC0
012efb: 2a30             OR AC3,AC0
012efd: 1a0030           OR #0,AC0,AC3
012f00: 5062             POP T2
012f02: 1a0003           OR #0,AC3,AC0
012f05: 4804             RET
012f07:               _coverage_log:
012f07: 5046             PSH T0
012f09: 5056             PSH T1
012f0b: 5066             PSH T2
012f0d: 5076             PSH T3
012f0f: 5085             PSHBOTH XAR0
012f11: 5095             PSHBOTH XAR1
012f13: 50a5             PSHBOTH XAR2
012f15: 50b5             PSHBOTH XAR3
012f17: 50c5             PSHBOTH XAR4
012f19: 50d5             PSHBOTH XAR5
012f1b: 50e5             PSHBOTH XAR6
012f1d: 50f5             PSHBOTH XAR7
012f1f: 5005             PSHBOTH AC0
012f21: 5015             PSHBOTH AC1
012f23: 5025             PSHBOTH AC2
012f25: 5035             PSHBOTH AC3
012f27: 4efd             AADD #-3,SP
012f29: eb0004           MOV RETA,dbl(@#00h)
012f2c: ed0008           MOV dbl(@#00h),AC0
012f2f: 4240             SUB #4,AC0
012f31: 180140           AND #1,AC0,T0
012f34: 5001             SFTL AC0,#-1
012f36: 9008             MOV AC0,XAR0
012f38: 76002098         MOV #32,AR1
012f3c: 040412           BCC even,T0 == #0
012f3f:               odd:
012f3f: e50195           MOV AR1,low_byte(*AR0)
012f42: 4018             ADD #1,AR0
012f44: e50194           MOV AR1,high_byte(*AR0)
012f47: e50195           MOV AR1,low_byte(*AR0)
012f4a: 4018             ADD #1,AR0
012f4c: e50194           MOV AR1,high_byte(*AR0)
012f4f: 4a10             B map_store
012f51:               even:
012f51: e50195           MOV AR1,low_byte(*AR0)
012f54: e50194           MOV AR1,high_byte(*AR0)
012f57: 4018             ADD #1,AR0
012f59: e50195           MOV AR1,low_byte(*AR0)
012f5c: e50194           MOV AR1,high_byte(*AR0)
012f5f: 4018             ADD #1,AR0
012f61:               map_store:
012f61: ed0008           MOV dbl(@#00h),AC0
012f64: 4240             SUB #4,AC0
012f66:               finish:
012f66: ed31af01303a     MOV dbl(*(#01303ah)),XAR2
012f6c: eb4108           MOV AC0,dbl(*AR2)
012f6f: 1402a4           AADD #2,AR2
012f72: eb31a501303a     MOV XAR2,dbl(*(#01303ah))
012f78: e63101013041     MOV #1,*(#013041h)
012f7e: 4e03             AADD #3,SP
012f80: 5034             POPBOTH AC3
012f82: 5024             POPBOTH AC2
012f84: 5014             POPBOTH AC1
012f86: 5004             POPBOTH AC0
012f88: 50f4             POPBOTH XAR7
012f8a: 50e4             POPBOTH XAR6
012f8c: 50d4             POPBOTH XAR5
012f8e: 50c4             POPBOTH XAR4
012f90: 50b4             POPBOTH XAR3
012f92: 50a4             POPBOTH XAR2
012f94: 5094             POPBOTH XAR1
012f96: 5084             POPBOTH XAR0
012f98: 5072             POP T3
012f9a: 5062             POP T2
012f9c: 5052             POP T1
012f9e: 5042             POP T0
012fa0: 4804             RET
012fa2:               _IRQ_plug:
012fa2: 50b5             PSHBOTH XAR3
012fa4: 50a5             PSHBOTH XAR2
012fa6: 4ef7             AADD #-9,SP
012fa8: eb0408           MOV AC0,dbl(@#02h)
012fab: c40e             MOV T0,@#07h
012fad: 3c00             MOV #0,AC0
012faf: 900a             MOV AC0,XAR2
012fb1: 900b             MOV AC0,XAR3
012fb3: 6c011471         CALL _IRQ_globalDisable
012fb7: c410             MOV T0,@#08h
012fb9: 20               NOP
012fba: 20               NOP
012fbb: 20               NOP
012fbc: 20               NOP
012fbd: 20               NOP
012fbe: ec31ae000049     AMAR *(#00049h),XAR2
012fc4: 20               NOP
012fc5: 20               NOP
012fc6: 20               NOP
012fc7: 20               NOP
012fc8: 20               NOP
012fc9: a10e             MOV @#07h,AC1
012fcb: 181831           AND #24,AC1,AC3
012fce: 7c001033         SUB #16,AC3,AC3
012fd2: 9603             XCC AC3 == #0
012fd4: ec31ae00004a     AMAR *(#0004ah),XAR2
012fda: 105503           SFTS AC1,#3,AC1
012fdd: a041             MOV *AR2,AC0
012fdf: 100504           SFTS AC0,#4,AC0
012fe2: 100504           SFTS AC0,#4,AC0
012fe5: 2a10             OR AC1,AC0
012fe7: 10053f           SFTS AC0,#-1,AC0
012fea: eb0008           MOV AC0,dbl(@#00h)
012fed: ed0408           MOV dbl(@#02h),AC0
012ff0: ed00bf           MOV dbl(@#00h),XAR3
012ff3: a90e             MOV @#07h,AR1
012ff5: 180fa9           AND #15,AR1,AR2
012ff8: eb6108           MOV AC0,dbl(*AR3)
012ffb: 765e8038         MOV #24192,AC3
012fff: 402b             ADD #2,AR3
013001: c361             MOV AC3,*AR3
013003: 401b             ADD #1,AR3
013005: c361             MOV AC3,*AR3
013007: 22a4             MOV AR2,T0
013009: 181099           AND #16,AR1,AR1
01300c: 3c10             MOV #1,AC0
01300e: 5c00             SFTL AC0,T0,AC0
013010: 2203             MOV AC0,AC3
013012: 6319             BCC LIFR1,AR1 != #0
013014: 3c1a             MOV #1,AR2
013016: c341             MOV AC3,*AR2
013018: 4a06             B RESTORE_INTM
01301a:               LIFR1:
01301a: 760046a8         MOV #70,AR2
01301e: c341             MOV AC3,*AR2
013020:               RESTORE_INTM:
013020: a410             MOV @#08h,T0
013022: 6c0114a3         CALL _IRQ_globalRestore
013026:               EPILOGUE:
013026: 4e09             AADD #9,SP
013028: 50a4             POPBOTH XAR2
01302a: 50b4             POPBOTH XAR3
01302c: 4804             RET
01302e:               __fixdul:
01302e: 1a0020           OR #0,AC0,AC2
013031: 106729           SFTL AC2,#-23,AC1
013034: 18ff91           AND #255,AC1,AR1
013037: 3c00_9e89        XCCPART AR1 == #0 || MOV #0,AC0
01303b: 040965           BCC #0x0130a3,AR1 == #0
01303e: 18ffa1           AND #255,AC1,AR2
013041: 76009e98         MOV #158,AR1
013045: 26a9             SUB AR2,AR1
013047: 042940           BCC #0x01308a,AR1 < #0
01304a: 760020a8         MOV #32,AR2
01304e: 1294a0_21        CMP AR1 < AR2, TC1 || NOP
013052: 3c00_9ef4        XCCPART !TC1 || MOV #0,AC0
013056: 04744a           BCC #0x0130a3,!TC1
013059: ec31be7fffff     AMAR *(#07fffffh),XAR3
01305f: 90b1             MOV XAR3,AC1
013061: 2821             AND AC2,AC1
013063: 109708           SFTL AC1,#8,AC2
013066: 7a80001a         MOV #-32768 << #16,AC1
01306a: 2421             ADD AC2,AC1
01306c: 1a0020           OR #0,AC0,AC2
01306f: 7a80000a_3595    MOV #-32768 << #16,AC0 || NEG AR1,T1
013075: 2820             AND AC2,AC0
013077: 5c54             SFTL AC1,T1,AC1
013079: 6500             BCC #0x013085,AC0 == #0
01307b: 6221             BCC #0x013081,AC1 < #0
01307d: 3411             NEG AC1,AC1
01307f: 4a04             B #0x013085
013081: 7a80001a         MOV #-32768 << #16,AC1
013085: 1a0001           OR #0,AC1,AC0
013088: 4a19             B #0x0130a3
01308a: 1a0020           OR #0,AC0,AC2
01308d: 7a80000a         MOV #-32768 << #16,AC0
013091: 2820             AND AC2,AC0
013093: 6300             BCC #0x01309b,AC0 == #0
013095: 7a80000a         MOV #-32768 << #16,AC0
013099: 4a08             B #0x0130a3
01309b: 7affff0a         MOV #-1 << #16,AC0
01309f: 7effff00         OR #65535,AC0,AC0
0130a3: 4804             RET
0130a5:               __frcmpyd:
0130a5: 10d706           SFTL AC1,#6,AC3
0130a8: 223a_114706      MOV AC3,AR2 || SFTL AC0,#6,AC1
0130ad: 4efb             AADD #-5,SP
0130af: 52a0             MOV AR2,HI(AC0)
0130b1: 100700_2319      SFTL AC0,#0,AC0 || MOV AC1,AR1
0130b6: 1a0020           OR #0,AC0,AC2
0130b9: 5290             MOV AR1,HI(AC0)
0130bb: 7affff04         AND #65535 << 16,AC0,AC0
0130bf: 5426             MPY AC2,AC0
0130c1: 7affffe4         AND #65535 << 16,AC3,AC2
0130c5: eb0008_53a0      MOV AC0,dbl(@#00h) || MOV AR2,HI(AC0)
0130ca: 104700_451b      SFTL AC0,#0,AC1 || MOV HI(AC1),AR3
0130cf: 10f700           SFTL AC3,#0,AC3
0130d2: 52b0             MOV AR3,HI(AC0)
0130d4: 7affff04         AND #65535 << 16,AC0,AC0
0130d8: 5416             MPY AC1,AC0
0130da: eb0408_5390      MOV AC0,dbl(@#02h) || MOV AR1,HI(AC0)
0130df: 100700           SFTL AC0,#0,AC0
0130e2: ed0008_5586      MOV dbl(@#00h),AC0 || MPY AC0,AC2
0130e7: 104730           SFTL AC0,#-16,AC1
0130ea: ed0450           ADD dbl(@#02h),AC1,AC1
0130ed: 52b0             MOV AR3,HI(AC0)
0130ef: 2421             ADD AC2,AC1
0130f1: 105730           SFTL AC1,#-16,AC1
0130f4: 7affff04         AND #65535 << 16,AC0,AC0
0130f8: 5436             MPY AC3,AC0
0130fa: ed0408_2501      MOV dbl(@#02h),AC0 || ADD AC0,AC1
0130ff: ed0028_2b20      MOV dbl(@#00h),AC2 || OR AC2,AC0
013104: 2a20             OR AC2,AC0
013106: 180121           AND #1,AC1,AC2
013109: 108110_3d03      OR AC0 << #16, AC2 || MOV #0,AC3
01310e: 3c13_9e92        XCCPART AC2 != #0 || MOV #1,AC3
013112: 10173f           SFTL AC1,#-1,AC0
013115: 2a30             OR AC3,AC0
013117: 4e05             AADD #5,SP
013119: 4804             RET
01311b:               __frcmpyd_div:
01311b: 4ef7             AADD #-9,SP
01311d: eb0018           MOV AC1,dbl(@#00h)
013120: ed0008_1b0030    MOV dbl(@#00h),AC0 || OR #0,AC0,AC3
013126: 7dffff00         AND #65535,AC0,AC0
01312a: eb0408           MOV AC0,dbl(@#02h)
01312d: ed0418_113730    MOV dbl(@#02h),AC1 || SFTL AC3,#-16,AC0
013133: 6c0136bc         CALL I$$LMPY
013137: 7dffff23         AND #65535,AC3,AC2
01313b: eb0808           MOV AC0,dbl(@#04h)
01313e: ed0008_1b0012    MOV dbl(@#00h),AC0 || OR #0,AC2,AC1
013144: 100730           SFTL AC0,#-16,AC0
013147: 6c0136bc         CALL I$$LMPY
01314b: eb0c08           MOV AC0,dbl(@#06h)
01314e: ed0418_1b0002    MOV dbl(@#02h),AC1 || OR #0,AC2,AC0
013154: 6c0136bc         CALL I$$LMPY
013158: 108730           SFTL AC0,#-16,AC2
01315b: ed0018_113730    MOV dbl(@#00h),AC1 || SFTL AC3,#-16,AC0
013161: ed0ca0           ADD dbl(@#06h),AC2,AC2
013164: 105730           SFTL AC1,#-16,AC1
013167: 6c0136bc         CALL I$$LMPY
01316b: 10e730           SFTL AC2,#-16,AC3
01316e: 7dffff22         AND #65535,AC2,AC2
013172: ed0818           MOV dbl(@#04h),AC1
013175: 105730           SFTL AC1,#-16,AC1
013178: 2431             ADD AC3,AC1
01317a: ed0808_2501      MOV dbl(@#04h),AC0 || ADD AC0,AC1
01317f: 7dffff00         AND #65535,AC0,AC0
013183: 2420             ADD AC2,AC0
013185: 100730           SFTL AC0,#-16,AC0
013188: 2410             ADD AC1,AC0
01318a: 4e09             AADD #9,SP
01318c: 4804             RET
01318e:               __remul:
01318e: 108700           SFTL AC0,#0,AC2
013191: 120814           CMPU AC0 >= AC1, TC1
013194: 102820_5166      EXP AC2,T2 || PSH T2
013199: 109700           SFTL AC1,#0,AC2
01319c: 102810_21        EXP AC2,T1 || NOP
0131a0: 2665             SUB T2,T1
0131a2: 047457           BCC #0x0131fc,!TC1
0131a5: 6290             BCC #0x0131ac,AC0 != #0
0131a7: 3c00             MOV #0,AC0
0131a9: 060050           B #0x0131fc
0131ac: 3c00_9e81        XCCPART AC1 == #0 || MOV #0,AC0
0131b0: 040149           BCC #0x0131fc,AC1 == #0
0131b3: 3e19             MOV #-1,AR1
0131b5: 126c90_21        CMP T2 != AR1, TC1 || NOP
0131b9: 5c54             SFTL AC1,T1,AC1
0131bb: 046415           BCC #0x0131d3,TC1
0131be: 120414           CMPU AC0 < AC1, TC1
0131c1: 2610_9ef4        XCCPART !TC1 || SUB AC1,AC0
0131c5: 5011_9ef4        XCCPART !TC1 || SFTL AC1,#-1
0131c9: 5011_9ee4        XCCPART TC1 || SFTL AC1,#-1
0131cd: 2610_9ee4        XCCPART TC1 || SUB AC1,AC0
0131d1: 4a02             B #0x0131d5
0131d3: 4015             ADD #1,T1
0131d5: 043520           BCC #0x0131f8,T1 <= #0
0131d8: 7c000195         SUB #1,T1,AR1
0131dc: 529e             MOV AR1,BRC0
0131de: 4a95             RPTBLOCAL __fixdli-11
0131e0: 120414_3d09         CMPU AC0 < AC1, TC1 || MOV #0,AR1
0131e5: 3c19_9ef4           XCCPART !TC1 || MOV #1,AR1
0131e9: 120414              CMPU AC0 < AC1, TC1
0131ec: 2292                MOV AR1,AC2
0131ee: 2610_9ef4           XCCPART !TC1 || SUB AC1,AC0
0131f2: 108101              OR AC0 << #1, AC2
0131f5: 1a0002              OR #0,AC2,AC0
0131f8: 3455             NEG T1,T1
0131fa: 5c04             SFTL AC0,T1,AC0
0131fc: 5062             POP T2
0131fe: 4804             RET
013200:               __fixdli:
013200: 1a0020           OR #0,AC0,AC2
013203: 106729           SFTL AC2,#-23,AC1
013206: 18ff91           AND #255,AC1,AR1
013209: 3c00_9e89        XCCPART AR1 == #0 || MOV #0,AC0
01320d: 04095d           BCC #0x01326d,AR1 == #0
013210: 18ffa1           AND #255,AC1,AR2
013213: 76009e98         MOV #158,AR1
013217: 26a9             SUB AR2,AR1
013219: 043938           BCC #0x013254,AR1 <= #0
01321c: 760020a8         MOV #32,AR2
013220: 1294a0_21        CMP AR1 < AR2, TC1 || NOP
013224: 3c00_9ef4        XCCPART !TC1 || MOV #0,AC0
013228: 047442           BCC #0x01326d,!TC1
01322b: ec31be7fffff     AMAR *(#07fffffh),XAR3
013231: 90b1             MOV XAR3,AC1
013233: 7a00802a_2921    MOV #128 << #16,AC2 || AND AC2,AC1
013239: 2412             ADD AC1,AC2
01323b: 106708           SFTL AC2,#8,AC1
01323e: 1a0020           OR #0,AC0,AC2
013241: 7a80000a_3595    MOV #-32768 << #16,AC0 || NEG AR1,T1
013247: 2820             AND AC2,AC0
013249: 5c54             SFTL AC1,T1,AC1
01324b: 3411_9e90        XCCPART AC0 != #0 || NEG AC1,AC1
01324f: 1a0001           OR #0,AC1,AC0
013252: 4a19             B #0x01326d
013254: 1a0020           OR #0,AC0,AC2
013257: 7a80000a         MOV #-32768 << #16,AC0
01325b: 2820             AND AC2,AC0
01325d: 6510             BCC #0x013269,AC0 != #0
01325f: 7a7fff0a         MOV #32767 << #16,AC0
013263: 7effff00         OR #65535,AC0,AC0
013267: 4a04             B #0x01326d
013269: 7a80000a         MOV #-32768 << #16,AC0
01326d: 4804             RET
01326f:               reset_isr:
01326f: 46b3             BSET ST1_INTM
013271: fb920007_98      MOV #7,mmap(@IVPD)
013276: fb940007_98      MOV #7,mmap(@IVPH)
01327b: 4676             BCLR ST3_CBERR
01327d: fb02ffff_98      MOV #-1,mmap(@IFR0)
013282: fb8cffff_98      MOV #-1,mmap(@IFR1)
013287: e651201c04       MOV #32,port(#01c04h)
01328c: 5e80             NOP_16
01328e: fb5100ff1c05     MOV #255,port(#01c05h)
013294: 5e80             NOP_16
013296: 6a0135ee         B _c_int00
01329a:               nmi_isr:
01329a: 4a7e             B nmi_isr
01329c:               int0_isr:
01329c: 4a7e             B int0_isr
01329e:               int1_isr:
01329e: 4a7e             B int1_isr
0132a0:               tim_isr:
0132a0: 4a7e             B tim_isr
0132a2:               i2s0_mmc0_tx_isr:
0132a2: 4a7e             B i2s0_mmc0_tx_isr
0132a4:               uart_isr:
0132a4: 4a7e             B uart_isr
0132a6:               i2s0_mmc0_rx_isr:
0132a6: 4a7e             B i2s0_mmc0_rx_isr
0132a8:               dma_isr:
0132a8: 4a7e             B dma_isr
0132aa:               i2s1_mmc1_tx_isr:
0132aa: 4a7e             B i2s1_mmc1_tx_isr
0132ac:               coprocfft_isr:
0132ac: 4a7e             B coprocfft_isr
0132ae:               i2s1_mmc1_rx_isr:
0132ae: 4a7e             B i2s1_mmc1_rx_isr
0132b0:               lcd_isr:
0132b0: 4a7e             B lcd_isr
0132b2:               saradc_isr:
0132b2: 4a7e             B saradc_isr
0132b4:               i2s2_tx_isr:
0132b4: 4a7e             B i2s2_tx_isr
0132b6:               i2s2_rx_isr:
0132b6: 4a7e             B i2s2_rx_isr
0132b8:               i2s3_tx_isr:
0132b8: 4a7e             B i2s3_tx_isr
0132ba:               i2s3_rx_isr:
0132ba: 4a7e             B i2s3_rx_isr
0132bc:               rtc_isr:
0132bc: 4a7e             B rtc_isr
0132be:               spi_isr:
0132be: 4a7e             B spi_isr
0132c0:               usb_isr:
0132c0: 4a7e             B usb_isr
0132c2:               gpio_isr:
0132c2: 4a7e             B gpio_isr
0132c4:               emif_error_isr:
0132c4: 4a7e             B emif_error_isr
0132c6:               i2c_isr:
0132c6: 4a7e             B i2c_isr
0132c8:               berr_isr:
0132c8: 4676             BCLR ST3_CBERR
0132ca: 4a7c             B berr_isr
0132cc:               dlog_isr:
0132cc: 4a7e             B dlog_isr
0132ce:               rtos_isr:
0132ce: 4a7e             B rtos_isr
0132d0:               rtdxrcv_isr:
0132d0: 4a7e             B rtdxrcv_isr
0132d2:               rtdxxmt_isr:
0132d2: 4a7e             B rtdxxmt_isr
0132d4:               emuint_isr:
0132d4: 4a7e             B emuint_isr
0132d6:               sint30_isr:
0132d6: 4a7e             B sint30_isr
0132d8:               sint31_isr:
0132d8: 4a7e             B sint31_isr
0132da:               no_isr:
0132da: 4a7e             B no_isr
0132dc:               _readmsg:
0132dc: ec31be007000     AMAR *(#07000h),XAR3
0132e2: 3c02_170079      MOV #0,AC2 || MOV #7,BRC0
0132e7: ac61_4ba0        MOV *AR3,AR4 || RPTBLOCAL #0x01330b
0132eb: 76fffea2            BFXTR #65534,AC2,AR2
0132ef: 90b0                MOV XAR3,AC0
0132f1: 7dffff1a            AND #65535,AR2,AC1
0132f5: 2410                ADD AC1,AC0
0132f7: 900a                MOV AC0,XAR2
0132f9: 106703              SFTL AC2,#3,AC1
0132fc: df5305_371a         MOV uns(*(AR2+T1)),AC0 || NOT AC1,AR2
013301: 1808aa              AND #8,AR2,AR2
013304: 34a5                NEG AR2,T1
013306: 5c05                SFTS AC0,T1,AC0
013308: 18ff00              AND #255,AC0,AC0
01330b: c003_4112           MOV AC0,*AR0+ || ADD #1,AC2
01330f: 9090             MOV XAR1,AC0
013311: 040033           BCC #0x013347,AC0 == #0
013314: 040c30           BCC #0x013347,AR4 == #0
013317: 7c0001ac         SUB #1,AR4,AR2
01331b: 52ae             MOV AR2,BRC0
01331d: 4aa2_3d02        RPTBLOCAL #0x013343 || MOV #0,AC2
013321: 7b0008a2            ADD #8,AC2,AR2
013325: 50a1                SFTL AR2,#-1
013327: 90b0                MOV XAR3,AC0
013329: 7dffff1a            AND #65535,AR2,AC1
01332d: 2410                ADD AC1,AC0
01332f: 900a                MOV AC0,XAR2
013331: 106703              SFTL AC2,#3,AC1
013334: df5305_371a         MOV uns(*(AR2+T1)),AC0 || NOT AC1,AR2
013339: 1808aa              AND #8,AR2,AR2
01333c: 34a5                NEG AR2,T1
01333e: 5c05                SFTS AC0,T1,AC0
013340: 18ff00              AND #255,AC0,AC0
013343: c023_4112           MOV AC0,*AR1+ || ADD #1,AC2
013347: 4804             RET
013349:               __fltlid:
013349: 1a0010           OR #0,AC0,AC1
01334c: 9601             XCC AC1 == #0
01334e: ed310801c036     MOV dbl(*(#01c036h)),AC0
013354: 040157           BCC #0x0133ae,AC1 == #0
013357: ec31be010000     AMAR *(#010000h),XAR3
01335d: 3410_9eb1        XCCPART AC1 <= #0 || NEG AC1,AC0
013361: 90b2             MOV XAR3,AC2
013363: 120424           CMPU AC0 < AC2, TC1
013366: 76009d98         MOV #157,AR1
01336a: 76008d98_9ee4    XCCPART TC1 || MOV #141,AR1
013370: 7a01002a         MOV #256 << #16,AC2
013374: 100710_9ee4      XCCPART TC1 || SFTL AC0,#16,AC0
013379: 120824           CMPU AC0 >= AC2, TC1
01337c: 7a80002a         MOV #-32768 << #16,AC2
013380: 100708_9ef4      XCCPART !TC1 || SFTL AC0,#8,AC0
013385: 4289_9ef4        XCCPART !TC1 || SUB #8,AR1
013389: 120824           CMPU AC0 >= AC2, TC1
01338c: 6564             BCC #0x013398,TC1
01338e: 4219             SUB #1,AR1
013390: 5000             SFTL AC0,#1
013392: 120424           CMPU AC0 < AC2, TC1
013395: 0464f6           BCC #0x01338e,TC1
013398: 100739           SFTL AC0,#-7,AC0
01339b: 2292             MOV AR1,AC2
01339d: 4010             ADD #1,AC0
01339f: 10a717           SFTL AC2,#23,AC2
0133a2: 5001             SFTL AC0,#-1
0133a4: 2420             ADD AC2,AC0
0133a6: 6351             BCC #0x0133ae,AC1 >= #0
0133a8: 7a80001a         MOV #-32768 << #16,AC1
0133ac: 2410             ADD AC1,AC0
0133ae: 4804             RET
0133b0:               _srand:
0133b0: 5066             PSH T2
0133b2: ed31080131c6     MOV dbl(*(#0131c6h)),AC0
0133b8: 2246             MOV T0,T2
0133ba: 9200             CALL AC0
0133bc: 7dffff06         AND #65535,T2,AC0
0133c0: eb31080131ce     MOV AC0,dbl(*(#0131ceh))
0133c6: ed31080131c8     MOV dbl(*(#0131c8h)),AC0
0133cc: 9200             CALL AC0
0133ce: 5062             POP T2
0133d0: 4804             RET
0133d2:               _rand:
0133d2: ed31080131c6     MOV dbl(*(#0131c6h)),AC0
0133d8: 4efd             AADD #-3,SP
0133da: 9200             CALL AC0
0133dc: 7a41c61a         MOV #16838 << #16,AC1
0133e0: ed31080131ce     MOV dbl(*(#0131ceh)),AC0
0133e6: 7e4e6d11         OR #20077,AC1,AC1
0133ea: 6c0136bc         CALL I$$LMPY
0133ee: 7b303900         ADD #12345,AC0,AC0
0133f2: eb0008           MOV AC0,dbl(@#00h)
0133f5: ed0008           MOV dbl(@#00h),AC0
0133f8: eb31080131ce     MOV AC0,dbl(*(#0131ceh))
0133fe: ed31080131c8     MOV dbl(*(#0131c8h)),AC0
013404: 9200             CALL AC0
013406: a900             MOV @#00h,AR1
013408: 7d7fff49         AND #32767,AR1,T0
01340c: 4e03             AADD #3,SP
01340e: 4804             RET
013410:               _auto_init:
013410: 4eff             AADD #-1,SP
013412: ec318e009b8c     AMAR *(#09b8ch),XAR0
013418: 368f             NOT AR0,AR7
01341a: 040f29           BCC #0x013446,AR7 == #0
01341d: aa03             MOV *AR0+,AR2
01341f: 040a24           BCC #0x013446,AR2 == #0
013422: f9038808_431a    MOV uns(*AR0+) << #8,AC0 || SUB #1,AR2
013428: df0315_53ac      MOV uns(*AR0+),AC1 || MOV AR2,CSR
01342d: 101138           OR AC1 << #-8, AC0
013430: 18ff11           AND #255,AC1,AC1
013433: 900e             MOV AC0,XAR6
013435: 6391             BCC #0x01343e,AC1 != #0
013437: 4800             RPT CSR
013439: 800714              MOV *AR0+,*AR6+
01343c: 4a5f             B #0x01341d
01343e: 4800             RPT CSR
013440: 800714_9a           MOV *AR0+,port(*AR6+)
013444: 4a57             B #0x01341d
013446: ec31ee7fffff     AMAR *(#07fffffh),XAR6
01344c: 36ef             NOT AR6,AR7
01344e: 648f             BCC #0x013459,AR7 == #0
013450: edc308           MOV dbl(*AR6+),AC0
013453: 6200             BCC #0x013459,AC0 == #0
013455: 9200             CALL AC0
013457: 4a77             B #0x013450
013459: 4e01             AADD #1,SP
01345b: 4804             RET
01345d:               __args_main:
01345d: 7affff0a         MOV #-1 << #16,AC0
013461: 7affff1a         MOV #-1 << #16,AC1
013465: 7effff00         OR #65535,AC0,AC0
013469: 7effff11         OR #65535,AC1,AC1
01346d: 121c04           CMPU AC1 != AC0, TC1
013470: 4eff             AADD #-1,SP
013472: 20               NOP
013473: 20               NOP
013474: 3c04_9ef4        XCCPART !TC1 || MOV #0,T0
013478: 9674             XCC !TC1
01347a: ec318e000000     AMAR *(#00000h),XAR0
013480: 04741d           BCC #0x0134a0,!TC1
013483: 7affff0a         MOV #-1 << #16,AC0
013487: 7effff00         OR #65535,AC0,AC0
01348b: 900b             MOV AC0,XAR3
01348d: 7affff0a         MOV #-1 << #16,AC0
013491: a461             MOV *AR3,T0
013493: 7effff00         OR #65535,AC0,AC0
013497: 900b             MOV AC0,XAR3
013499: 1402b4           AADD #2,AR3
01349c: 90b0             MOV XAR3,AC0
01349e: 9008             MOV AC0,XAR0
0134a0: 6c010a7c         CALL _main
0134a4: 4e01             AADD #1,SP
0134a6: 4804             RET
0134a8:               __divli:
0134a8: 1a0021_5166      OR #0,AC1,AC2 || PSH T2
0134ad: 2c02_3d06        XOR AC0,AC2 || MOV #0,T2
0134b1: 7a7fff0a_9e81    XCCPART AC1 == #0 || MOV #32767 << #16,AC0
0134b7: 3c16_9ea2        XCCPART AC2 < #0 || MOV #1,T2
0134bb: 7effff00_9e81    XCCPART AC1 == #0 || OR #65535,AC0,AC0
0134c1: 040128           BCC #0x0134ec,AC1 == #0
0134c4: 7a80002a         MOV #-32768 << #16,AC2
0134c8: 120020           CMP AC0 == AC2, TC1
0134cb: 3200             ABS AC0,AC0
0134cd: 7a80000a_9ee4    XCCPART TC1 || MOV #-32768 << #16,AC0
0134d3: 121020           CMP AC1 == AC2, TC1
0134d6: 3211             ABS AC1,AC1
0134d8: 7a80001a_9ee4    XCCPART TC1 || MOV #-32768 << #16,AC1
0134de: 6c012e66         CALL __divul
0134e2: 1a0010           OR #0,AC0,AC1
0134e5: 3400             NEG AC0,AC0
0134e7: 1a0001_9e86      XCCPART T2 == #0 || OR #0,AC1,AC0
0134ec: 5062             POP T2
0134ee: 4804             RET
0134f0:               __setjmp:
0134f0:               _setjmp:
0134f0: eb0304           MOV RETA,dbl(*AR0+)
0134f3: eb03d5           MOV XAR5,dbl(*AR0+)
0134f6: eb03e5           MOV XAR6,dbl(*AR0+)
0134f9: eb03f5           MOV XAR7,dbl(*AR0+)
0134fc: eb0345           MOV XSP,dbl(*AR0+)
0134ff: eb0355           MOV XSSP,dbl(*AR0+)
013502: 5014             POPBOTH AC1
013504: 5015             PSHBOTH AC1
013506: eb0318           MOV AC1,dbl(*AR0+)
013509: c603             MOV T2,*AR0+
01350b: c703             MOV T3,*AR0+
01350d: 3c04             MOV #0,T0
01350f: 4804             RET
013511:               _longjmp:
013511: ed0306           MOV dbl(*AR0+),RETA
013514: ed03df           MOV dbl(*AR0+),XAR5
013517: ed03ef           MOV dbl(*AR0+),XAR6
01351a: ed03ff           MOV dbl(*AR0+),XAR7
01351d: ed034f           MOV dbl(*AR0+),XSP
013520: ed035f           MOV dbl(*AR0+),XSSP
013523: ed0318           MOV dbl(*AR0+),AC1
013526: 20               NOP
013527: 5024             POPBOTH AC2
013529: 5015             PSHBOTH AC1
01352b: a603             MOV *AR0+,T2
01352d: a703             MOV *AR0+,T3
01352f: 3c14_9e84        XCCPART T0 == #0 || MOV #1,T0
013533: 4804             RET
013535:               _memcpy:
013535: df4005_98        MOV uns(mmap(@T0)),AC0
013539: ec01ae           AMAR *AR0,XAR2
01353c: 6f051824         BCCU #0x013564,AC0 < #24
013540: 228b             MOV AR0,AR3
013542: 2a9b             OR AR1,AR3
013544: 1801bb           AND #1,AR3,AR3
013547: 041b1a           BCC #0x013564,AR3 != #0
01354a: 5001_190150      SFTL AC0,#-1 || AND #1,AC0,T1
01354f: 4210             SUB #1,AC0
013551: 64a0             BCC #0x01355c,AC0 < #0
013553: dc1003_98        MOV mmap(@AC0L),CSR
013557: 4800             RPT CSR
013559: 802510              MOV dbl(*AR1+),dbl(*AR2+)
01355c: 020500           RETCC T1 == #0
01355f: 802104           MOV *AR1,*AR2
013562: 4804             RET
013564: 020000_4310      RETCC AC0 == #0 || SUB #1,AC0
013569: dc1003_98        MOV mmap(@AC0L),CSR
01356d: 4800             RPT CSR
01356f: 802514              MOV *AR1+,*AR2+
013572: 4804             RET
013574:               _exit:
013574: 5066             PSH T2
013576: ed31080131c6     MOV dbl(*(#0131c6h)),AC0
01357c: 2246             MOV T0,T2
01357e: 9200             CALL AC0
013580: ed31080131cc     MOV dbl(*(#0131cch)),AC0
013586: 6500             BCC #0x013592,AC0 == #0
013588: ed31080131cc     MOV dbl(*(#0131cch)),AC0
01358e: 2264             MOV T2,T0
013590: 9200             CALL AC0
013592: ed31080131ca     MOV dbl(*(#0131cah)),AC0
013598: 6400             BCC #0x0135a2,AC0 == #0
01359a: ed31080131ca     MOV dbl(*(#0131cah)),AC0
0135a0: 9200             CALL AC0
0135a2: ed31080131c8     MOV dbl(*(#0131c8h)),AC0
0135a8: 9200             CALL AC0
0135aa: 6c01370e         CALL _abort
0135ae: 5062             POP T2
0135b0: 4804             RET
0135b2:               I$$DIV:
0135b2:               __divi:
0135b2: 4eff             AADD #-1,SP
0135b4: 225c_3351        MOV T1,AR4 || ABS T1,AC1
0135b8: c100_3340        MOV AC1,@#00h || ABS T0,AC0
0135bc: 4682_4d0f        BCLR ST1_SXMD || RPT #15
0135c0: de0003              SUBC @#00h,AC0,AC0
0135c3: 4683             BSET ST1_SXMD
0135c5: 2c4c             XOR T0,AR4
0135c7: 2204             MOV AC0,T0
0135c9: 3444_9eac        XCCPART AR4 < #0 || NEG T0,T0
0135cd: 4e01             AADD #1,SP
0135cf: 4804             RET
0135d1:               I$$MOD:
0135d1:               __remi:
0135d1: 4eff_3351        AADD #-1,SP || ABS T1,AC1
0135d5: c100_3340        MOV AC1,@#00h || ABS T0,AC0
0135d9: 4682_4d0f        BCLR ST1_SXMD || RPT #15
0135dd: de0003              SUBC @#00h,AC0,AC0
0135e0: 4683             BSET ST1_SXMD
0135e2: 2245             MOV T0,T1
0135e4: 4404             MOV HI(AC0),T0
0135e6: 6155             BCC #0x0135ea,T1 >= #0
0135e8: 3444             NEG T0,T0
0135ea: 4e01             AADD #1,SP
0135ec: 4804             RET
0135ee:               _c_int00:
0135ee: ec314e000380     AMAR *(#00380h),XSP
0135f4: ec315e000280     AMAR *(#00280h),XSSP
0135fa: f406f91f_98      AND #63775,mmap(@ST1_55)
0135ff: f5064100_98      OR #16640,mmap(@ST1_55)
013604: f496fa00_98      AND #64000,mmap(@ST2_55)
013609: f5968000_98      OR #32768,mmap(@ST2_55)
01360e: 4656             BCLR ST3_SATA
013610: 4617             BSET ST3_SMUL
013612: 4606             BCLR ST3_SST
013614: 6c013410         CALL _auto_init
013618: 6c01345d         CALL __args_main
01361c: 3c19             MOV #1,AR1
01361e: 6c013574         CALL _exit
013622:               __fixdi:
013622: 4eff             AADD #-1,SP
013624: 6c013200         CALL __fixdli
013628: 3c01             MOV #0,AC1
01362a: 7e800011         OR #32768,AC1,AC1
01362e: 120410           CMP AC0 < AC1, TC1
013631: 767fff08_9ef4    XCCPART !TC1 || MOV #32767,AC0
013637: 66f4             BCC #0x013646,!TC1
013639: 76800018         MOV #-32768,AC1
01363d: 120810           CMP AC0 >= AC1, TC1
013640: 76800008_9ef4    XCCPART !TC1 || MOV #-32768,AC0
013646: 2204             MOV AC0,T0
013648: 4e01             AADD #1,SP
01364a: 4804             RET
01364c:               I$$UDIV:
01364c:               __divu:
01364c: 4eff             AADD #-1,SP
01364e: 4682             BCLR ST1_SXMD
013650: c500_2340        MOV T1,@#00h || MOV T0,AC0
013654: 4c0f             RPT #15
013656: de0003              SUBC @#00h,AC0,AC0
013659: 4683             BSET ST1_SXMD
01365b: 2204             MOV AC0,T0
01365d: 4e01             AADD #1,SP
01365f: 4804             RET
013661:               I$$UMOD:
013661:               __remu:
013661: 4eff             AADD #-1,SP
013663: 4682             BCLR ST1_SXMD
013665: c500_2340        MOV T1,@#00h || MOV T0,AC0
013669: 4c0f             RPT #15
01366b: de0003              SUBC @#00h,AC0,AC0
01366e: 4683             BSET ST1_SXMD
013670: 4404             MOV HI(AC0),T0
013672: 4e01             AADD #1,SP
013674: 4804             RET
013676:               __fixdu:
013676: 4eff             AADD #-1,SP
013678: 6c01302e         CALL __fixdul
01367c: 3c01             MOV #0,AC1
01367e: 7effff11         OR #65535,AC1,AC1
013682: 121804           CMPU AC1 >= AC0, TC1
013685: 76ffff08_9ef4    XCCPART !TC1 || MOV #-1,AC0
01368b: 2204             MOV AC0,T0
01368d: 4e01             AADD #1,SP
01368f: 4804             RET
013691:               _time:
013691: 50d5             PSHBOTH XAR5
013693: 20               NOP
013694: 20               NOP
013695: 20               NOP
013696: ec01de           AMAR *AR0,XAR5
013699: 6c010bf9         CALL _HOSTtime
01369d: 90d1             MOV XAR5,AC1
01369f: eba108_9e11      XCC AC1 != #0 || MOV AC0,dbl(*AR5)
0136a4: 50d4             POPBOTH XAR5
0136a6: 4804             RET
0136a8:               __subd:
0136a8: 4efd             AADD #-3,SP
0136aa: eb0018           MOV AC1,dbl(@#00h)
0136ad: f6008000         XOR #32768,@#00h
0136b1: ed0018           MOV dbl(@#00h),AC1
0136b4: 6c012392         CALL __addd
0136b8: 4e03             AADD #3,SP
0136ba: 4804             RET
0136bc:               I$$LMPY:
0136bc:               __mpyli:
0136bc: 5016_2304        PSH AC1 || MOV AC0,T0
0136c0: d30000           MPYM @#00h,AC0,AC0
0136c3: 5842             MAC AC1,T0,AC0,AC1
0136c5: d3000c           MPYMU @#00h,T0,AC0
0136c8: 101310_4f01      ADD AC1 << #16,AC0 || AADD #1,SP
0136cd: 4804             RET
0136cf:               __register_unlock:
0136cf: eb31080131c8     MOV AC0,dbl(*(#0131c8h))
0136d5: 4804             RET
0136d7:               __register_lock:
0136d7: eb31080131c6     MOV AC0,dbl(*(#0131c6h))
0136dd: 4804             RET
0136df:               __nop:
0136df: 4804             RET
0136e1:               _memset:
0136e1: ec01be           AMAR *AR0,XAR3
0136e4: 6505             BCC #0x0136f0,T1 == #0
0136e6: 7c000195         SUB #1,T1,AR1
0136ea: 529c             MOV AR1,CSR
0136ec: 4800             RPT CSR
0136ee: c463                MOV T0,*AR3+
0136f0: 4804             RET
0136f2:               __negd:
0136f2: 4efd             AADD #-3,SP
0136f4: eb0008           MOV AC0,dbl(@#00h)
0136f7: f6008000         XOR #32768,@#00h
0136fb: ed0008           MOV dbl(@#00h),AC0
0136fe: 4e03             AADD #3,SP
013700: 4804             RET
013702:               __fltid:
013702: 4eff             AADD #-1,SP
013704: 2240             MOV T0,AC0
013706: 6c013349         CALL __fltlid
01370a: 4e01             AADD #1,SP
01370c: 4804             RET
01370e:               _abort:
01370e:               .text:CIO_breakpoint:
01370e: 20               NOP
01370f:               C$$EXIT:
01370f: 20               NOP
013710: 16000c           SIM_TRIG
013713: 4a7e             B #0x013713
013715: 4a7e             B #0x013715
013717: 20               NOP

DATA section .const, 0x38 words load/run at 0x1C000
01c000:               .const:
01c000: 42b1             .word 0x42b1
01c001: 7217             .word 0x7217
01c002: 7f7f             .word 0x7f7f
01c003: ffff             .word 0xffff
01c004: c2ad             .word 0xc2ad
01c005: 496b             .word 0x496b
01c006: 0000             .word 0x0000
01c007: 0000             .word 0x0000
01c008: 3400             .word 0x3400
01c009: 0000             .word 0x0000
01c00a: 3f80             .word 0x3f80
01c00b: 0000             .word 0x0000
01c00c: 3fb8             .word 0x3fb8
01c00d: aa3b             .word 0xaa3b
01c00e: 3f31             .word 0x3f31
01c00f: 8000             .word 0x8000
01c010: b95e             .word 0xb95e
01c011: 8083             .word 0x8083
01c012:               .const:
01c012: 0000             .word 0x0000
01c013: 0000             .word 0x0000
01c014: 4b80             .word 0x4b80
01c015: 0000             .word 0x0000
01c016: 3380             .word 0x3380
01c017: 0000             .word 0x0000
01c018: 7f7f             .word 0x7f7f
01c019: ffff             .word 0xffff
01c01a: ff7f             .word 0xff7f
01c01b: ffff             .word 0xffff
01c01c:               .const:
01c01c: 0000             .word 0x0000
01c01d: 0000             .word 0x0000
01c01e: bf92             .word 0xbf92
01c01f: a002             .word 0xa002
01c020: 4021             .word 0x4021
01c021: cfff             .word 0xcfff
01c022: 3f35             .word 0x3f35
01c023: 04f3             .word 0x04f3
01c024: 3f00             .word 0x3f00
01c025: 0000             .word 0x0000
01c026:               .const:_initial_approx$1:
01c026: 0000             .word 0x0000
01c027: 00e3             .word 0x00e3
01c028: 00cc             .word 0x00cc
01c029: 00ba             .word 0x00ba
01c02a: 00aa             .word 0x00aa
01c02b: 009b             .word 0x009b
01c02c: 0092             .word 0x0092
01c02d: 0088             .word 0x0088
01c02e:               .const:
01c02e: 0000             .word 0x0000
01c02f: 0000             .word 0x0000
01c030: 4b80             .word 0x4b80
01c031: 0000             .word 0x0000
01c032: ff7f             .word 0xff7f
01c033: ffff             .word 0xffff
01c034: 7f7f             .word 0x7f7f
01c035: ffff             .word 0xffff
01c036:               .const:
01c036: 0000             .word 0x0000
01c037: 0000             .word 0x0000

DATA section .switch, 0x18 words load/run at 0x1E000
01e000:               .switch:_mutator:
01e000:               $C$SW1:
01e000:               .switch:
01e000: 0001             .word 0x0001
01e001: 063f             .word 0x063f
01e002: 0001             .word 0x0001
01e003: 0667             .word 0x0667
01e004: 0001             .word 0x0001
01e005: 0686             .word 0x0686
01e006: 0001             .word 0x0001
01e007: 069c             .word 0x069c
01e008: 0001             .word 0x0001
01e009: 06b2             .word 0x06b2
01e00a: 0001             .word 0x0001
01e00b: 06d1             .word 0x06d1
01e00c: 0001             .word 0x0001
01e00d: 0713             .word 0x0713
01e00e: 0001             .word 0x0001
01e00f: 076a             .word 0x076a
01e010: 0001             .word 0x0001
01e011: 07eb             .word 0x07eb
01e012: 0001             .word 0x0001
01e013: 0821             .word 0x0821
01e014: 0001             .word 0x0001
01e015: 0852             .word 0x0852
01e016: 0001             .word 0x0001
01e017: 08b2             .word 0x08b2

TEXT section .program_sandbox, 0x6B72 bytes load/run at 0x48000
048000:               .bss:
048000:               _setbrightness:
048000:               .program_sandbox:
048000: 20               NOP
048001: 20               NOP
048002: 20               NOP
048003: 20               NOP
048004: 20               NOP
048005: 20               NOP
048006: 20               NOP
048007: 20               NOP
048008: 20               NOP
048009: 20               NOP
04800a: 20               NOP
04800b: 20               NOP
04800c: 20               NOP
04800d: 20               NOP
04800e: 20               NOP
04800f: 20               NOP
048010: 20               NOP
048011: 20               NOP
048012: 20               NOP
048013: 20               NOP
048014: 20               NOP
048015: 20               NOP
048016: 20               NOP
048017: 20               NOP
048018: 20               NOP
048019: 20               NOP
04801a: 20               NOP
04801b: 20               NOP
04801c: 20               NOP
04801d: 20               NOP
04801e: 20               NOP
04801f: 20               NOP
048020: 20               NOP
048021: 20               NOP
048022: 20               NOP
048023: 20               NOP
048024: 20               NOP
048025: 20               NOP
048026: 20               NOP
048027: 20               NOP
048028: 20               NOP
048029: 20               NOP
04802a: 20               NOP
04802b: 20               NOP
04802c: 20               NOP
04802d: 20               NOP
04802e: 20               NOP
04802f: 20               NOP
048030: 20               NOP
048031: 20               NOP
048032: 20               NOP
048033: 20               NOP
048034: 20               NOP
048035: 20               NOP
048036: 20               NOP
048037: 20               NOP
048038: 20               NOP
048039: 20               NOP
04803a: 20               NOP
04803b: 20               NOP
04803c: 20               NOP
04803d: 20               NOP
04803e: 20               NOP
04803f: 20               NOP
048040: 20               NOP
048041: 20               NOP
048042: 20               NOP
048043: 20               NOP
048044: 20               NOP
048045: 20               NOP
048046: 20               NOP
048047: 20               NOP
048048: 20               NOP
048049: 20               NOP
04804a: 20               NOP
04804b: 20               NOP
04804c: 20               NOP
04804d: 20               NOP
04804e: 20               NOP
04804f: 20               NOP
048050: 20               NOP
048051: 20               NOP
048052: 20               NOP
048053: 20               NOP
048054: 20               NOP
048055: 20               NOP
048056: 20               NOP
048057: 20               NOP
048058: 20               NOP
048059: 20               NOP
04805a: 20               NOP
04805b: 20               NOP
04805c: 20               NOP
04805d: 20               NOP
04805e: 20               NOP
04805f: 20               NOP
048060: 20               NOP
048061: 20               NOP
048062: 20               NOP
048063: 20               NOP
048064: 20               NOP
048065: 20               NOP
048066: 20               NOP
048067: 20               NOP
048068: 20               NOP
048069: 20               NOP
04806a: 20               NOP
04806b: 20               NOP
04806c: 20               NOP
04806d: 20               NOP
04806e: 20               NOP
04806f: 20               NOP
048070: 20               NOP
048071: 20               NOP
048072: 20               NOP
048073: 20               NOP
048074: 20               NOP
048075: 20               NOP
048076: 20               NOP
048077: 20               NOP
048078: 20               NOP
048079: 20               NOP
04807a: 20               NOP
04807b: 20               NOP
04807c: 20               NOP
04807d: 20               NOP
04807e: 20               NOP
04807f: 20               NOP
048080: 20               NOP
048081: 20               NOP
048082: 20               NOP
048083: 20               NOP
048084: 20               NOP
048085: 20               NOP
048086: 20               NOP
048087: 20               NOP
048088: 20               NOP
048089: 20               NOP
04808a: 20               NOP
04808b: 20               NOP
04808c: 20               NOP
04808d: 20               NOP
04808e: 20               NOP
04808f: 20               NOP
048090: 20               NOP
048091: 20               NOP
048092: 20               NOP
048093: 20               NOP
048094: 20               NOP
048095: 20               NOP
048096: 20               NOP
048097: 20               NOP
048098: 20               NOP
048099: 20               NOP
04809a: 20               NOP
04809b: 20               NOP
04809c: 20               NOP
04809d: 20               NOP
04809e: 20               NOP
04809f: 20               NOP
0480a0: 20               NOP
0480a1: 20               NOP
0480a2: 20               NOP
0480a3: 20               NOP
0480a4: 20               NOP
0480a5: 20               NOP
0480a6: 20               NOP
0480a7: 20               NOP
0480a8: 20               NOP
0480a9: 20               NOP
0480aa: 20               NOP
0480ab: 20               NOP
0480ac: 20               NOP
0480ad: 20               NOP
0480ae: 20               NOP
0480af: 20               NOP
0480b0: 20               NOP
0480b1: 20               NOP
0480b2: 20               NOP
0480b3: 20               NOP
0480b4: 20               NOP
0480b5: 20               NOP
0480b6: 20               NOP
0480b7: 20               NOP
0480b8: 20               NOP
0480b9: 20               NOP
0480ba: 20               NOP
0480bb: 20               NOP
0480bc: 20               NOP
0480bd: 20               NOP
0480be: 20               NOP
0480bf: 20               NOP
0480c0: 20               NOP
0480c1: 20               NOP
0480c2: 20               NOP
0480c3: 20               NOP
0480c4: 20               NOP
0480c5: 20               NOP
0480c6: 20               NOP
0480c7: 20               NOP
0480c8: 20               NOP
0480c9: 20               NOP
0480ca: 20               NOP
0480cb: 20               NOP
0480cc: 20               NOP
0480cd: 20               NOP
0480ce: 20               NOP
0480cf: 20               NOP
0480d0: 20               NOP
0480d1: 20               NOP
0480d2: 20               NOP
0480d3: 20               NOP
0480d4: 20               NOP
0480d5: 20               NOP
0480d6: 20               NOP
0480d7: 20               NOP
0480d8: 20               NOP
0480d9: 20               NOP
0480da: 20               NOP
0480db: 20               NOP
0480dc: 20               NOP
0480dd: 20               NOP
0480de: 20               NOP
0480df: 20               NOP
0480e0: 20               NOP
0480e1: 20               NOP
0480e2: 20               NOP
0480e3: 20               NOP
0480e4: 20               NOP
0480e5: 20               NOP
0480e6: 20               NOP
0480e7: 20               NOP
0480e8: 20               NOP
0480e9: 20               NOP
0480ea: 20               NOP
0480eb: 20               NOP
0480ec: 20               NOP
0480ed: 20               NOP
0480ee: 20               NOP
0480ef: 20               NOP
0480f0: 20               NOP
0480f1: 20               NOP
0480f2: 20               NOP
0480f3: 20               NOP
0480f4: 20               NOP
0480f5: 20               NOP
0480f6: 20               NOP
0480f7: 20               NOP
0480f8: 20               NOP
0480f9: 20               NOP
0480fa: 20               NOP
0480fb: 20               NOP
0480fc: 20               NOP
0480fd: 20               NOP
0480fe: 20               NOP
0480ff: 20               NOP
048100: 20               NOP
048101: 20               NOP
048102: 20               NOP
048103: 20               NOP
048104: 20               NOP
048105: 20               NOP
048106: 20               NOP
048107: 20               NOP
048108: 20               NOP
048109: 20               NOP
04810a: 20               NOP
04810b: 20               NOP
04810c: 20               NOP
04810d: 20               NOP
04810e: 20               NOP
04810f: 20               NOP
048110: 20               NOP
048111: 20               NOP
048112: 20               NOP
048113: 20               NOP
048114: 20               NOP
048115: 20               NOP
048116: 20               NOP
048117: 20               NOP
048118: 20               NOP
048119: 20               NOP
04811a: 20               NOP
04811b: 20               NOP
04811c: 20               NOP
04811d: 20               NOP
04811e: 20               NOP
04811f: 20               NOP
048120: 20               NOP
048121: 20               NOP
048122: 20               NOP
048123: 20               NOP
048124: 20               NOP
048125: 20               NOP
048126: 20               NOP
048127: 20               NOP
048128: 20               NOP
048129: 20               NOP
04812a: 20               NOP
04812b: 20               NOP
04812c: 20               NOP
04812d: 20               NOP
04812e: 20               NOP
04812f: 20               NOP
048130: 20               NOP
048131: 20               NOP
048132: 20               NOP
048133: 20               NOP
048134: 20               NOP
048135: 20               NOP
048136: 20               NOP
048137: 20               NOP
048138: 20               NOP
048139: 20               NOP
04813a: 20               NOP
04813b: 20               NOP
04813c: 20               NOP
04813d: 20               NOP
04813e: 20               NOP
04813f: 20               NOP
048140: 20               NOP
048141: 20               NOP
048142: 20               NOP
048143: 20               NOP
048144: 20               NOP
048145: 20               NOP
048146: 20               NOP
048147: 20               NOP
048148: 20               NOP
048149: 20               NOP
04814a: 20               NOP
04814b: 20               NOP
04814c: 20               NOP
04814d: 20               NOP
04814e: 20               NOP
04814f: 20               NOP
048150: 20               NOP
048151: 20               NOP
048152: 20               NOP
048153: 20               NOP
048154: 20               NOP
048155: 20               NOP
048156: 20               NOP
048157: 20               NOP
048158: 20               NOP
048159: 20               NOP
04815a: 20               NOP
04815b: 20               NOP
04815c: 20               NOP
04815d: 20               NOP
04815e: 20               NOP
04815f: 20               NOP
048160: 20               NOP
048161: 20               NOP
048162: 20               NOP
048163: 20               NOP
048164: 20               NOP
048165: 20               NOP
048166: 20               NOP
048167: 20               NOP
048168: 20               NOP
048169: 20               NOP
04816a: 20               NOP
04816b: 20               NOP
04816c: 20               NOP
04816d: 20               NOP
04816e: 20               NOP
04816f: 20               NOP
048170: 20               NOP
048171: 20               NOP
048172: 20               NOP
048173: 20               NOP
048174: 20               NOP
048175: 20               NOP
048176: 20               NOP
048177: 20               NOP
048178: 20               NOP
048179: 20               NOP
04817a: 20               NOP
04817b: 20               NOP
04817c: 20               NOP
04817d: 20               NOP
04817e: 20               NOP
04817f: 20               NOP
048180: 20               NOP
048181: 20               NOP
048182: 20               NOP
048183: 20               NOP
048184: 20               NOP
048185: 20               NOP
048186: 20               NOP
048187: 20               NOP
048188: 20               NOP
048189: 20               NOP
04818a: 20               NOP
04818b: 20               NOP
04818c: 20               NOP
04818d: 20               NOP
04818e: 20               NOP
04818f: 20               NOP
048190: 20               NOP
048191: 20               NOP
048192: 20               NOP
048193: 20               NOP
048194: 20               NOP
048195: 20               NOP
048196: 20               NOP
048197: 20               NOP
048198: 20               NOP
048199: 20               NOP
04819a: 20               NOP
04819b: 20               NOP
04819c: 20               NOP
04819d: 20               NOP
04819e: 20               NOP
04819f: 20               NOP
0481a0: 20               NOP
0481a1: 20               NOP
0481a2: 20               NOP
0481a3: 20               NOP
0481a4: 20               NOP
0481a5: 20               NOP
0481a6: 20               NOP
0481a7: 20               NOP
0481a8: 20               NOP
0481a9: 20               NOP
0481aa: 20               NOP
0481ab: 20               NOP
0481ac: 20               NOP
0481ad: 20               NOP
0481ae: 20               NOP
0481af: 20               NOP
0481b0: 20               NOP
0481b1: 20               NOP
0481b2: 20               NOP
0481b3: 20               NOP
0481b4: 20               NOP
0481b5: 20               NOP
0481b6: 20               NOP
0481b7: 20               NOP
0481b8: 20               NOP
0481b9: 20               NOP
0481ba: 20               NOP
0481bb: 20               NOP
0481bc: 20               NOP
0481bd: 20               NOP
0481be: 20               NOP
0481bf: 20               NOP
0481c0: 20               NOP
0481c1: 20               NOP
0481c2: 20               NOP
0481c3: 20               NOP
0481c4: 20               NOP
0481c5: 20               NOP
0481c6: 20               NOP
0481c7: 20               NOP
0481c8: 20               NOP
0481c9: 20               NOP
0481ca: 20               NOP
0481cb: 20               NOP
0481cc: 20               NOP
0481cd: 20               NOP
0481ce: 20               NOP
0481cf: 20               NOP
0481d0: 20               NOP
0481d1: 20               NOP
0481d2: 20               NOP
0481d3: 20               NOP
0481d4: 20               NOP
0481d5: 20               NOP
0481d6: 20               NOP
0481d7: 20               NOP
0481d8: 20               NOP
0481d9: 20               NOP
0481da: 20               NOP
0481db: 20               NOP
0481dc: 20               NOP
0481dd: 20               NOP
0481de: 20               NOP
0481df: 20               NOP
0481e0: 20               NOP
0481e1: 20               NOP
0481e2: 20               NOP
0481e3: 20               NOP
0481e4: 20               NOP
0481e5: 20               NOP
0481e6: 20               NOP
0481e7: 20               NOP
0481e8: 20               NOP
0481e9: 20               NOP
0481ea: 20               NOP
0481eb: 20               NOP
0481ec: 20               NOP
0481ed: 20               NOP
0481ee: 20               NOP
0481ef: 20               NOP
0481f0: 20               NOP
0481f1: 20               NOP
0481f2: 20               NOP
0481f3: 20               NOP
0481f4: 20               NOP
0481f5: 20               NOP
0481f6: 20               NOP
0481f7: 20               NOP
0481f8: 20               NOP
0481f9: 20               NOP
0481fa: 20               NOP
0481fb: 20               NOP
0481fc: 20               NOP
0481fd: 20               NOP
0481fe: 20               NOP
0481ff: 20               NOP
048200: 20               NOP
048201: 20               NOP
048202: 20               NOP
048203: 20               NOP
048204: 20               NOP
048205: 20               NOP
048206: 20               NOP
048207: 20               NOP
048208: 20               NOP
048209: 20               NOP
04820a: 20               NOP
04820b: 20               NOP
04820c: 20               NOP
04820d: 20               NOP
04820e: 20               NOP
04820f: 20               NOP
048210: 20               NOP
048211: 20               NOP
048212: 20               NOP
048213: 20               NOP
048214: 20               NOP
048215: 20               NOP
048216: 20               NOP
048217: 20               NOP
048218: 20               NOP
048219: 20               NOP
04821a: 20               NOP
04821b: 20               NOP
04821c: 20               NOP
04821d: 20               NOP
04821e: 20               NOP
04821f: 20               NOP
048220: 20               NOP
048221: 20               NOP
048222: 20               NOP
048223: 20               NOP
048224: 20               NOP
048225: 20               NOP
048226: 20               NOP
048227: 20               NOP
048228: 20               NOP
048229: 20               NOP
04822a: 20               NOP
04822b: 20               NOP
04822c: 20               NOP
04822d: 20               NOP
04822e: 20               NOP
04822f: 20               NOP
048230: 20               NOP
048231: 20               NOP
048232: 20               NOP
048233: 20               NOP
048234: 20               NOP
048235: 20               NOP
048236: 20               NOP
048237: 20               NOP
048238: 20               NOP
048239: 20               NOP
04823a: 20               NOP
04823b: 20               NOP
04823c: 20               NOP
04823d: 20               NOP
04823e: 20               NOP
04823f: 20               NOP
048240: 20               NOP
048241: 20               NOP
048242: 20               NOP
048243: 20               NOP
048244: 20               NOP
048245: 20               NOP
048246: 20               NOP
048247: 20               NOP
048248: 20               NOP
048249: 20               NOP
04824a: 20               NOP
04824b: 20               NOP
04824c: 20               NOP
04824d: 20               NOP
04824e: 20               NOP
04824f: 20               NOP
048250: 20               NOP
048251: 20               NOP
048252: 20               NOP
048253: 20               NOP
048254: 20               NOP
048255: 20               NOP
048256: 20               NOP
048257: 20               NOP
048258: 20               NOP
048259: 20               NOP
04825a: 20               NOP
04825b: 20               NOP
04825c: 20               NOP
04825d: 20               NOP
04825e: 20               NOP
04825f: 20               NOP
048260: 20               NOP
048261: 20               NOP
048262: 20               NOP
048263: 20               NOP
048264: 20               NOP
048265: 20               NOP
048266: 20               NOP
048267: 20               NOP
048268: 20               NOP
048269: 20               NOP
04826a: 20               NOP
04826b: 20               NOP
04826c: 20               NOP
04826d: 20               NOP
04826e: 20               NOP
04826f: 20               NOP
048270: 20               NOP
048271: 20               NOP
048272: 20               NOP
048273: 20               NOP
048274: 20               NOP
048275: 20               NOP
048276: 20               NOP
048277: 20               NOP
048278: 20               NOP
048279: 20               NOP
04827a: 20               NOP
04827b: 20               NOP
04827c: 20               NOP
04827d: 20               NOP
04827e: 20               NOP
04827f: 20               NOP
048280: 20               NOP
048281: 20               NOP
048282: 20               NOP
048283: 20               NOP
048284: 20               NOP
048285: 20               NOP
048286: 20               NOP
048287: 20               NOP
048288: 20               NOP
048289: 20               NOP
04828a: 20               NOP
04828b: 20               NOP
04828c: 20               NOP
04828d: 20               NOP
04828e: 20               NOP
04828f: 20               NOP
048290: 20               NOP
048291: 20               NOP
048292: 20               NOP
048293: 20               NOP
048294: 20               NOP
048295: 20               NOP
048296: 20               NOP
048297: 20               NOP
048298: 20               NOP
048299: 20               NOP
04829a: 20               NOP
04829b: 20               NOP
04829c: 20               NOP
04829d: 20               NOP
04829e: 20               NOP
04829f: 20               NOP
0482a0: 20               NOP
0482a1: 20               NOP
0482a2: 20               NOP
0482a3: 20               NOP
0482a4: 20               NOP
0482a5: 20               NOP
0482a6: 20               NOP
0482a7: 20               NOP
0482a8: 20               NOP
0482a9: 20               NOP
0482aa: 20               NOP
0482ab: 20               NOP
0482ac: 20               NOP
0482ad: 20               NOP
0482ae: 20               NOP
0482af: 20               NOP
0482b0: 20               NOP
0482b1: 20               NOP
0482b2: 20               NOP
0482b3: 20               NOP
0482b4: 20               NOP
0482b5: 20               NOP
0482b6: 20               NOP
0482b7: 20               NOP
0482b8: 20               NOP
0482b9: 20               NOP
0482ba: 20               NOP
0482bb: 20               NOP
0482bc: 20               NOP
0482bd: 20               NOP
0482be: 20               NOP
0482bf: 20               NOP
0482c0: 20               NOP
0482c1: 20               NOP
0482c2: 20               NOP
0482c3: 20               NOP
0482c4: 20               NOP
0482c5: 20               NOP
0482c6: 20               NOP
0482c7: 20               NOP
0482c8: 20               NOP
0482c9: 20               NOP
0482ca: 20               NOP
0482cb: 20               NOP
0482cc: 20               NOP
0482cd: 20               NOP
0482ce: 20               NOP
0482cf: 20               NOP
0482d0: 20               NOP
0482d1: 20               NOP
0482d2: 20               NOP
0482d3: 20               NOP
0482d4: 20               NOP
0482d5: 20               NOP
0482d6: 20               NOP
0482d7: 20               NOP
0482d8: 20               NOP
0482d9: 20               NOP
0482da: 20               NOP
0482db: 20               NOP
0482dc: 20               NOP
0482dd: 20               NOP
0482de: 20               NOP
0482df: 20               NOP
0482e0: 20               NOP
0482e1: 20               NOP
0482e2: 20               NOP
0482e3: 20               NOP
0482e4: 20               NOP
0482e5: 20               NOP
0482e6: 20               NOP
0482e7: 20               NOP
0482e8: 20               NOP
0482e9: 20               NOP
0482ea: 20               NOP
0482eb: 20               NOP
0482ec: 20               NOP
0482ed: 20               NOP
0482ee: 20               NOP
0482ef: 20               NOP
0482f0: 20               NOP
0482f1: 20               NOP
0482f2: 20               NOP
0482f3: 20               NOP
0482f4: 20               NOP
0482f5: 20               NOP
0482f6: 20               NOP
0482f7: 20               NOP
0482f8: 20               NOP
0482f9: 20               NOP
0482fa: 20               NOP
0482fb: 20               NOP
0482fc: 20               NOP
0482fd: 20               NOP
0482fe: 20               NOP
0482ff: 20               NOP
048300: 20               NOP
048301: 20               NOP
048302: 20               NOP
048303: 20               NOP
048304: 20               NOP
048305: 20               NOP
048306: 20               NOP
048307: 20               NOP
048308: 20               NOP
048309: 20               NOP
04830a: 20               NOP
04830b: 20               NOP
04830c: 20               NOP
04830d: 20               NOP
04830e: 20               NOP
04830f: 20               NOP
048310: 20               NOP
048311: 20               NOP
048312: 20               NOP
048313: 20               NOP
048314: 20               NOP
048315: 20               NOP
048316: 20               NOP
048317: 20               NOP
048318: 20               NOP
048319: 20               NOP
04831a: 20               NOP
04831b: 20               NOP
04831c: 20               NOP
04831d: 20               NOP
04831e: 20               NOP
04831f: 20               NOP
048320: 20               NOP
048321: 20               NOP
048322: 20               NOP
048323: 20               NOP
048324: 20               NOP
048325: 20               NOP
048326: 20               NOP
048327: 20               NOP
048328: 20               NOP
048329: 20               NOP
04832a: 20               NOP
04832b: 20               NOP
04832c: 20               NOP
04832d: 20               NOP
04832e: 20               NOP
04832f: 20               NOP
048330: 20               NOP
048331: 20               NOP
048332: 20               NOP
048333: 20               NOP
048334: 20               NOP
048335: 20               NOP
048336: 20               NOP
048337: 20               NOP
048338: 20               NOP
048339: 20               NOP
04833a: 20               NOP
04833b: 20               NOP
04833c: 20               NOP
04833d: 20               NOP
04833e: 20               NOP
04833f: 20               NOP
048340: 20               NOP
048341: 20               NOP
048342: 20               NOP
048343: 20               NOP
048344: 20               NOP
048345: 20               NOP
048346: 20               NOP
048347: 20               NOP
048348: 20               NOP
048349: 20               NOP
04834a: 20               NOP
04834b: 20               NOP
04834c: 20               NOP
04834d: 20               NOP
04834e: 20               NOP
04834f: 20               NOP
048350: 20               NOP
048351: 20               NOP
048352: 20               NOP
048353: 20               NOP
048354: 20               NOP
048355: 20               NOP
048356: 20               NOP
048357: 20               NOP
048358: 20               NOP
048359: 20               NOP
04835a: 20               NOP
04835b: 20               NOP
04835c: 20               NOP
04835d: 20               NOP
04835e: 20               NOP
04835f: 20               NOP
048360: 20               NOP
048361: 20               NOP
048362: 20               NOP
048363: 20               NOP
048364: 20               NOP
048365: 20               NOP
048366: 20               NOP
048367: 20               NOP
048368: 20               NOP
048369: 20               NOP
04836a: 20               NOP
04836b: 20               NOP
04836c: 20               NOP
04836d: 20               NOP
04836e: 20               NOP
04836f: 20               NOP
048370: 20               NOP
048371: 20               NOP
048372: 20               NOP
048373: 20               NOP
048374: 20               NOP
048375: 20               NOP
048376: 20               NOP
048377: 20               NOP
048378: 20               NOP
048379: 20               NOP
04837a: 20               NOP
04837b: 20               NOP
04837c: 20               NOP
04837d: 20               NOP
04837e: 20               NOP
04837f: 20               NOP
048380: 20               NOP
048381: 20               NOP
048382: 20               NOP
048383: 20               NOP
048384: 20               NOP
048385: 20               NOP
048386: 20               NOP
048387: 20               NOP
048388: 20               NOP
048389: 20               NOP
04838a: 20               NOP
04838b: 20               NOP
04838c: 20               NOP
04838d: 20               NOP
04838e: 20               NOP
04838f: 20               NOP
048390: 20               NOP
048391: 20               NOP
048392: 20               NOP
048393: 20               NOP
048394: 20               NOP
048395: 20               NOP
048396: 20               NOP
048397: 20               NOP
048398: 20               NOP
048399: 20               NOP
04839a: 20               NOP
04839b: 20               NOP
04839c: 20               NOP
04839d: 20               NOP
04839e: 20               NOP
04839f: 20               NOP
0483a0: 20               NOP
0483a1: 20               NOP
0483a2: 20               NOP
0483a3: 20               NOP
0483a4: 20               NOP
0483a5: 20               NOP
0483a6: 20               NOP
0483a7: 20               NOP
0483a8: 20               NOP
0483a9: 20               NOP
0483aa: 20               NOP
0483ab: 20               NOP
0483ac: 20               NOP
0483ad: 20               NOP
0483ae: 20               NOP
0483af: 20               NOP
0483b0: 20               NOP
0483b1: 20               NOP
0483b2: 20               NOP
0483b3: 20               NOP
0483b4: 20               NOP
0483b5: 20               NOP
0483b6: 20               NOP
0483b7: 20               NOP
0483b8: 20               NOP
0483b9: 20               NOP
0483ba: 20               NOP
0483bb: 20               NOP
0483bc: 20               NOP
0483bd: 20               NOP
0483be: 20               NOP
0483bf: 20               NOP
0483c0: 20               NOP
0483c1: 20               NOP
0483c2: 20               NOP
0483c3: 20               NOP
0483c4: 20               NOP
0483c5: 20               NOP
0483c6: 20               NOP
0483c7: 20               NOP
0483c8: 20               NOP
0483c9: 20               NOP
0483ca: 20               NOP
0483cb: 20               NOP
0483cc: 20               NOP
0483cd: 20               NOP
0483ce: 20               NOP
0483cf: 20               NOP
0483d0: 20               NOP
0483d1: 20               NOP
0483d2: 20               NOP
0483d3: 20               NOP
0483d4: 20               NOP
0483d5: 20               NOP
0483d6: 20               NOP
0483d7: 20               NOP
0483d8: 20               NOP
0483d9: 20               NOP
0483da: 20               NOP
0483db: 20               NOP
0483dc: 20               NOP
0483dd: 20               NOP
0483de: 20               NOP
0483df: 20               NOP
0483e0: 20               NOP
0483e1: 20               NOP
0483e2: 20               NOP
0483e3: 20               NOP
0483e4: 20               NOP
0483e5: 20               NOP
0483e6: 20               NOP
0483e7: 20               NOP
0483e8: 20               NOP
0483e9: 20               NOP
0483ea: 20               NOP
0483eb: 20               NOP
0483ec: 20               NOP
0483ed: 20               NOP
0483ee: 20               NOP
0483ef: 20               NOP
0483f0: 20               NOP
0483f1: 20               NOP
0483f2: 20               NOP
0483f3: 20               NOP
0483f4: 20               NOP
0483f5: 20               NOP
0483f6: 20               NOP
0483f7: 20               NOP
0483f8: 20               NOP
0483f9: 20               NOP
0483fa: 20               NOP
0483fb: 20               NOP
0483fc: 20               NOP
0483fd: 20               NOP
0483fe: 20               NOP
0483ff: 20               NOP
048400: 20               NOP
048401: 20               NOP
048402: 20               NOP
048403: 20               NOP
048404: 20               NOP
048405: 20               NOP
048406: 20               NOP
048407: 20               NOP
048408:               _g_r:
048408: 20               NOP
048409: 20               NOP
04840a: 20               NOP
04840b: 20               NOP
04840c: 20               NOP
04840d: 20               NOP
04840e: 20               NOP
04840f: 20               NOP
048410: 20               NOP
048411: 20               NOP
048412: 20               NOP
048413: 20               NOP
048414: 20               NOP
048415: 20               NOP
048416: 20               NOP
048417: 20               NOP
048418: 20               NOP
048419: 20               NOP
04841a: 20               NOP
04841b: 20               NOP
04841c: 20               NOP
04841d: 20               NOP
04841e: 20               NOP
04841f: 20               NOP
048420: 20               NOP
048421: 20               NOP
048422: 20               NOP
048423: 20               NOP
048424: 20               NOP
048425: 20               NOP
048426: 20               NOP
048427: 20               NOP
048428: 20               NOP
048429: 20               NOP
04842a: 20               NOP
04842b: 20               NOP
04842c: 20               NOP
04842d: 20               NOP
04842e: 20               NOP
04842f: 20               NOP
048430: 20               NOP
048431: 20               NOP
048432: 20               NOP
048433: 20               NOP
048434: 20               NOP
048435: 20               NOP
048436: 20               NOP
048437: 20               NOP
048438: 20               NOP
048439: 20               NOP
04843a: 20               NOP
04843b: 20               NOP
04843c: 20               NOP
04843d: 20               NOP
04843e: 20               NOP
04843f: 20               NOP
048440: 20               NOP
048441: 20               NOP
048442: 20               NOP
048443: 20               NOP
048444: 20               NOP
048445: 20               NOP
048446: 20               NOP
048447: 20               NOP
048448: 20               NOP
048449: 20               NOP
04844a: 20               NOP
04844b: 20               NOP
04844c: 20               NOP
04844d: 20               NOP
04844e: 20               NOP
04844f: 20               NOP
048450: 20               NOP
048451: 20               NOP
048452: 20               NOP
048453: 20               NOP
048454: 20               NOP
048455: 20               NOP
048456: 20               NOP
048457: 20               NOP
048458: 20               NOP
048459: 20               NOP
04845a: 20               NOP
04845b: 20               NOP
04845c: 20               NOP
04845d: 20               NOP
04845e: 20               NOP
04845f: 20               NOP
048460: 20               NOP
048461: 20               NOP
048462: 20               NOP
048463: 20               NOP
048464: 20               NOP
048465: 20               NOP
048466: 20               NOP
048467: 20               NOP
048468: 20               NOP
048469: 20               NOP
04846a: 20               NOP
04846b: 20               NOP
04846c: 20               NOP
04846d: 20               NOP
04846e: 20               NOP
04846f: 20               NOP
048470: 20               NOP
048471: 20               NOP
048472: 20               NOP
048473: 20               NOP
048474: 20               NOP
048475: 20               NOP
048476: 20               NOP
048477: 20               NOP
048478: 20               NOP
048479: 20               NOP
04847a: 20               NOP
04847b: 20               NOP
04847c: 20               NOP
04847d: 20               NOP
04847e: 20               NOP
04847f: 20               NOP
048480: 20               NOP
048481: 20               NOP
048482: 20               NOP
048483: 20               NOP
048484: 20               NOP
048485: 20               NOP
048486: 20               NOP
048487: 20               NOP
048488: 20               NOP
048489: 20               NOP
04848a: 20               NOP
04848b: 20               NOP
04848c: 20               NOP
04848d: 20               NOP
04848e: 20               NOP
04848f: 20               NOP
048490: 20               NOP
048491: 20               NOP
048492: 20               NOP
048493: 20               NOP
048494: 20               NOP
048495: 20               NOP
048496: 20               NOP
048497: 20               NOP
048498: 20               NOP
048499: 20               NOP
04849a: 20               NOP
04849b: 20               NOP
04849c: 20               NOP
04849d: 20               NOP
04849e: 20               NOP
04849f: 20               NOP
0484a0: 20               NOP
0484a1: 20               NOP
0484a2: 20               NOP
0484a3: 20               NOP
0484a4: 20               NOP
0484a5: 20               NOP
0484a6: 20               NOP
0484a7: 20               NOP
0484a8: 20               NOP
0484a9: 20               NOP
0484aa: 20               NOP
0484ab: 20               NOP
0484ac: 20               NOP
0484ad: 20               NOP
0484ae: 20               NOP
0484af: 20               NOP
0484b0: 20               NOP
0484b1: 20               NOP
0484b2: 20               NOP
0484b3: 20               NOP
0484b4: 20               NOP
0484b5: 20               NOP
0484b6: 20               NOP
0484b7: 20               NOP
0484b8: 20               NOP
0484b9: 20               NOP
0484ba: 20               NOP
0484bb: 20               NOP
0484bc: 20               NOP
0484bd: 20               NOP
0484be: 20               NOP
0484bf: 20               NOP
0484c0: 20               NOP
0484c1: 20               NOP
0484c2: 20               NOP
0484c3: 20               NOP
0484c4: 20               NOP
0484c5: 20               NOP
0484c6: 20               NOP
0484c7: 20               NOP
0484c8: 20               NOP
0484c9: 20               NOP
0484ca: 20               NOP
0484cb: 20               NOP
0484cc: 20               NOP
0484cd: 20               NOP
0484ce: 20               NOP
0484cf: 20               NOP
0484d0: 20               NOP
0484d1: 20               NOP
0484d2: 20               NOP
0484d3: 20               NOP
0484d4: 20               NOP
0484d5: 20               NOP
0484d6: 20               NOP
0484d7: 20               NOP
0484d8: 20               NOP
0484d9: 20               NOP
0484da: 20               NOP
0484db: 20               NOP
0484dc: 20               NOP
0484dd: 20               NOP
0484de: 20               NOP
0484df: 20               NOP
0484e0: 20               NOP
0484e1: 20               NOP
0484e2: 20               NOP
0484e3: 20               NOP
0484e4: 20               NOP
0484e5: 20               NOP
0484e6: 20               NOP
0484e7: 20               NOP
0484e8: 20               NOP
0484e9: 20               NOP
0484ea: 20               NOP
0484eb: 20               NOP
0484ec: 20               NOP
0484ed: 20               NOP
0484ee: 20               NOP
0484ef: 20               NOP
0484f0: 20               NOP
0484f1: 20               NOP
0484f2: 20               NOP
0484f3: 20               NOP
0484f4: 20               NOP
0484f5: 20               NOP
0484f6: 20               NOP
0484f7: 20               NOP
0484f8: 20               NOP
0484f9: 20               NOP
0484fa: 20               NOP
0484fb: 20               NOP
0484fc: 20               NOP
0484fd: 20               NOP
0484fe: 20               NOP
0484ff: 20               NOP
048500: 20               NOP
048501: 20               NOP
048502: 20               NOP
048503: 20               NOP
048504: 20               NOP
048505: 20               NOP
048506: 20               NOP
048507: 20               NOP
048508: 20               NOP
048509: 20               NOP
04850a: 20               NOP
04850b: 20               NOP
04850c: 20               NOP
04850d: 20               NOP
04850e: 20               NOP
04850f: 20               NOP
048510: 20               NOP
048511: 20               NOP
048512: 20               NOP
048513: 20               NOP
048514: 20               NOP
048515: 20               NOP
048516: 20               NOP
048517: 20               NOP
048518: 20               NOP
048519: 20               NOP
04851a: 20               NOP
04851b: 20               NOP
04851c: 20               NOP
04851d: 20               NOP
04851e: 20               NOP
04851f: 20               NOP
048520: 20               NOP
048521: 20               NOP
048522: 20               NOP
048523: 20               NOP
048524: 20               NOP
048525: 20               NOP
048526: 20               NOP
048527: 20               NOP
048528: 20               NOP
048529: 20               NOP
04852a: 20               NOP
04852b: 20               NOP
04852c: 20               NOP
04852d: 20               NOP
04852e: 20               NOP
04852f: 20               NOP
048530: 20               NOP
048531: 20               NOP
048532: 20               NOP
048533: 20               NOP
048534: 20               NOP
048535: 20               NOP
048536: 20               NOP
048537: 20               NOP
048538: 20               NOP
048539: 20               NOP
04853a: 20               NOP
04853b: 20               NOP
04853c: 20               NOP
04853d: 20               NOP
04853e: 20               NOP
04853f: 20               NOP
048540: 20               NOP
048541: 20               NOP
048542: 20               NOP
048543: 20               NOP
048544: 20               NOP
048545: 20               NOP
048546: 20               NOP
048547: 20               NOP
048548: 20               NOP
048549: 20               NOP
04854a: 20               NOP
04854b: 20               NOP
04854c: 20               NOP
04854d: 20               NOP
04854e: 20               NOP
04854f: 20               NOP
048550: 20               NOP
048551: 20               NOP
048552: 20               NOP
048553: 20               NOP
048554: 20               NOP
048555: 20               NOP
048556: 20               NOP
048557: 20               NOP
048558: 20               NOP
048559: 20               NOP
04855a: 20               NOP
04855b: 20               NOP
04855c: 20               NOP
04855d: 20               NOP
04855e: 20               NOP
04855f: 20               NOP
048560: 20               NOP
048561: 20               NOP
048562: 20               NOP
048563: 20               NOP
048564: 20               NOP
048565: 20               NOP
048566: 20               NOP
048567: 20               NOP
048568: 20               NOP
048569: 20               NOP
04856a: 20               NOP
04856b: 20               NOP
04856c: 20               NOP
04856d: 20               NOP
04856e: 20               NOP
04856f: 20               NOP
048570: 20               NOP
048571: 20               NOP
048572: 20               NOP
048573: 20               NOP
048574: 20               NOP
048575: 20               NOP
048576: 20               NOP
048577: 20               NOP
048578: 20               NOP
048579: 20               NOP
04857a: 20               NOP
04857b: 20               NOP
04857c: 20               NOP
04857d: 20               NOP
04857e: 20               NOP
04857f: 20               NOP
048580: 20               NOP
048581: 20               NOP
048582: 20               NOP
048583: 20               NOP
048584: 20               NOP
048585: 20               NOP
048586: 20               NOP
048587: 20               NOP
048588: 20               NOP
048589: 20               NOP
04858a: 20               NOP
04858b: 20               NOP
04858c: 20               NOP
04858d: 20               NOP
04858e: 20               NOP
04858f: 20               NOP
048590: 20               NOP
048591: 20               NOP
048592: 20               NOP
048593: 20               NOP
048594: 20               NOP
048595: 20               NOP
048596: 20               NOP
048597: 20               NOP
048598: 20               NOP
048599: 20               NOP
04859a: 20               NOP
04859b: 20               NOP
04859c: 20               NOP
04859d: 20               NOP
04859e: 20               NOP
04859f: 20               NOP
0485a0: 20               NOP
0485a1: 20               NOP
0485a2: 20               NOP
0485a3: 20               NOP
0485a4: 20               NOP
0485a5: 20               NOP
0485a6: 20               NOP
0485a7: 20               NOP
0485a8: 20               NOP
0485a9: 20               NOP
0485aa: 20               NOP
0485ab: 20               NOP
0485ac: 20               NOP
0485ad: 20               NOP
0485ae: 20               NOP
0485af: 20               NOP
0485b0: 20               NOP
0485b1: 20               NOP
0485b2: 20               NOP
0485b3: 20               NOP
0485b4: 20               NOP
0485b5: 20               NOP
0485b6: 20               NOP
0485b7: 20               NOP
0485b8: 20               NOP
0485b9: 20               NOP
0485ba: 20               NOP
0485bb: 20               NOP
0485bc: 20               NOP
0485bd: 20               NOP
0485be: 20               NOP
0485bf: 20               NOP
0485c0: 20               NOP
0485c1: 20               NOP
0485c2: 20               NOP
0485c3: 20               NOP
0485c4: 20               NOP
0485c5: 20               NOP
0485c6: 20               NOP
0485c7: 20               NOP
0485c8: 20               NOP
0485c9: 20               NOP
0485ca: 20               NOP
0485cb: 20               NOP
0485cc: 20               NOP
0485cd: 20               NOP
0485ce: 20               NOP
0485cf: 20               NOP
0485d0: 20               NOP
0485d1: 20               NOP
0485d2: 20               NOP
0485d3: 20               NOP
0485d4: 20               NOP
0485d5: 20               NOP
0485d6: 20               NOP
0485d7: 20               NOP
0485d8: 20               NOP
0485d9: 20               NOP
0485da: 20               NOP
0485db: 20               NOP
0485dc: 20               NOP
0485dd: 20               NOP
0485de: 20               NOP
0485df: 20               NOP
0485e0: 20               NOP
0485e1: 20               NOP
0485e2: 20               NOP
0485e3: 20               NOP
0485e4: 20               NOP
0485e5: 20               NOP
0485e6: 20               NOP
0485e7: 20               NOP
0485e8: 20               NOP
0485e9: 20               NOP
0485ea: 20               NOP
0485eb: 20               NOP
0485ec: 20               NOP
0485ed: 20               NOP
0485ee: 20               NOP
0485ef: 20               NOP
0485f0: 20               NOP
0485f1: 20               NOP
0485f2: 20               NOP
0485f3: 20               NOP
0485f4: 20               NOP
0485f5: 20               NOP
0485f6: 20               NOP
0485f7: 20               NOP
0485f8: 20               NOP
0485f9: 20               NOP
0485fa: 20               NOP
0485fb: 20               NOP
0485fc: 20               NOP
0485fd: 20               NOP
0485fe: 20               NOP
0485ff: 20               NOP
048600: 20               NOP
048601: 20               NOP
048602: 20               NOP
048603: 20               NOP
048604: 20               NOP
048605: 20               NOP
048606: 20               NOP
048607: 20               NOP
048608: 20               NOP
048609: 20               NOP
04860a: 20               NOP
04860b: 20               NOP
04860c: 20               NOP
04860d: 20               NOP
04860e: 20               NOP
04860f: 20               NOP
048610: 20               NOP
048611: 20               NOP
048612: 20               NOP
048613: 20               NOP
048614: 20               NOP
048615: 20               NOP
048616: 20               NOP
048617: 20               NOP
048618: 20               NOP
048619: 20               NOP
04861a: 20               NOP
04861b: 20               NOP
04861c: 20               NOP
04861d: 20               NOP
04861e: 20               NOP
04861f: 20               NOP
048620: 20               NOP
048621: 20               NOP
048622: 20               NOP
048623: 20               NOP
048624: 20               NOP
048625: 20               NOP
048626: 20               NOP
048627: 20               NOP
048628: 20               NOP
048629: 20               NOP
04862a: 20               NOP
04862b: 20               NOP
04862c: 20               NOP
04862d: 20               NOP
04862e: 20               NOP
04862f: 20               NOP
048630: 20               NOP
048631: 20               NOP
048632: 20               NOP
048633: 20               NOP
048634: 20               NOP
048635: 20               NOP
048636: 20               NOP
048637: 20               NOP
048638: 20               NOP
048639: 20               NOP
04863a: 20               NOP
04863b: 20               NOP
04863c: 20               NOP
04863d: 20               NOP
04863e: 20               NOP
04863f: 20               NOP
048640: 20               NOP
048641: 20               NOP
048642: 20               NOP
048643: 20               NOP
048644: 20               NOP
048645: 20               NOP
048646: 20               NOP
048647: 20               NOP
048648: 20               NOP
048649: 20               NOP
04864a: 20               NOP
04864b: 20               NOP
04864c: 20               NOP
04864d: 20               NOP
04864e: 20               NOP
04864f: 20               NOP
048650: 20               NOP
048651: 20               NOP
048652: 20               NOP
048653: 20               NOP
048654: 20               NOP
048655: 20               NOP
048656: 20               NOP
048657: 20               NOP
048658: 20               NOP
048659: 20               NOP
04865a: 20               NOP
04865b: 20               NOP
04865c: 20               NOP
04865d: 20               NOP
04865e: 20               NOP
04865f: 20               NOP
048660: 20               NOP
048661: 20               NOP
048662: 20               NOP
048663: 20               NOP
048664: 20               NOP
048665: 20               NOP
048666: 20               NOP
048667: 20               NOP
048668: 20               NOP
048669: 20               NOP
04866a: 20               NOP
04866b: 20               NOP
04866c: 20               NOP
04866d: 20               NOP
04866e: 20               NOP
04866f: 20               NOP
048670: 20               NOP
048671: 20               NOP
048672: 20               NOP
048673: 20               NOP
048674: 20               NOP
048675: 20               NOP
048676: 20               NOP
048677: 20               NOP
048678: 20               NOP
048679: 20               NOP
04867a: 20               NOP
04867b: 20               NOP
04867c: 20               NOP
04867d: 20               NOP
04867e: 20               NOP
04867f: 20               NOP
048680: 20               NOP
048681: 20               NOP
048682: 20               NOP
048683: 20               NOP
048684: 20               NOP
048685: 20               NOP
048686: 20               NOP
048687: 20               NOP
048688: 20               NOP
048689: 20               NOP
04868a: 20               NOP
04868b: 20               NOP
04868c: 20               NOP
04868d: 20               NOP
04868e: 20               NOP
04868f: 20               NOP
048690: 20               NOP
048691: 20               NOP
048692: 20               NOP
048693: 20               NOP
048694: 20               NOP
048695: 20               NOP
048696: 20               NOP
048697: 20               NOP
048698: 20               NOP
048699: 20               NOP
04869a: 20               NOP
04869b: 20               NOP
04869c: 20               NOP
04869d: 20               NOP
04869e: 20               NOP
04869f: 20               NOP
0486a0: 20               NOP
0486a1: 20               NOP
0486a2: 20               NOP
0486a3: 20               NOP
0486a4: 20               NOP
0486a5: 20               NOP
0486a6: 20               NOP
0486a7: 20               NOP
0486a8: 20               NOP
0486a9: 20               NOP
0486aa: 20               NOP
0486ab: 20               NOP
0486ac: 20               NOP
0486ad: 20               NOP
0486ae: 20               NOP
0486af: 20               NOP
0486b0: 20               NOP
0486b1: 20               NOP
0486b2: 20               NOP
0486b3: 20               NOP
0486b4: 20               NOP
0486b5: 20               NOP
0486b6: 20               NOP
0486b7: 20               NOP
0486b8: 20               NOP
0486b9: 20               NOP
0486ba: 20               NOP
0486bb: 20               NOP
0486bc: 20               NOP
0486bd: 20               NOP
0486be: 20               NOP
0486bf: 20               NOP
0486c0: 20               NOP
0486c1: 20               NOP
0486c2: 20               NOP
0486c3: 20               NOP
0486c4: 20               NOP
0486c5: 20               NOP
0486c6: 20               NOP
0486c7: 20               NOP
0486c8: 20               NOP
0486c9: 20               NOP
0486ca: 20               NOP
0486cb: 20               NOP
0486cc: 20               NOP
0486cd: 20               NOP
0486ce: 20               NOP
0486cf: 20               NOP
0486d0: 20               NOP
0486d1: 20               NOP
0486d2: 20               NOP
0486d3: 20               NOP
0486d4: 20               NOP
0486d5: 20               NOP
0486d6: 20               NOP
0486d7: 20               NOP
0486d8: 20               NOP
0486d9: 20               NOP
0486da: 20               NOP
0486db: 20               NOP
0486dc: 20               NOP
0486dd: 20               NOP
0486de: 20               NOP
0486df: 20               NOP
0486e0: 20               NOP
0486e1: 20               NOP
0486e2: 20               NOP
0486e3: 20               NOP
0486e4: 20               NOP
0486e5: 20               NOP
0486e6: 20               NOP
0486e7: 20               NOP
0486e8: 20               NOP
0486e9: 20               NOP
0486ea: 20               NOP
0486eb: 20               NOP
0486ec: 20               NOP
0486ed: 20               NOP
0486ee: 20               NOP
0486ef: 20               NOP
0486f0: 20               NOP
0486f1: 20               NOP
0486f2: 20               NOP
0486f3: 20               NOP
0486f4: 20               NOP
0486f5: 20               NOP
0486f6: 20               NOP
0486f7: 20               NOP
0486f8: 20               NOP
0486f9: 20               NOP
0486fa: 20               NOP
0486fb: 20               NOP
0486fc: 20               NOP
0486fd: 20               NOP
0486fe: 20               NOP
0486ff: 20               NOP
048700: 20               NOP
048701: 20               NOP
048702: 20               NOP
048703: 20               NOP
048704: 20               NOP
048705: 20               NOP
048706: 20               NOP
048707: 20               NOP
048708: 20               NOP
048709: 20               NOP
04870a: 20               NOP
04870b: 20               NOP
04870c: 20               NOP
04870d: 20               NOP
04870e: 20               NOP
04870f: 20               NOP
048710: 20               NOP
048711: 20               NOP
048712: 20               NOP
048713: 20               NOP
048714: 20               NOP
048715: 20               NOP
048716: 20               NOP
048717: 20               NOP
048718: 20               NOP
048719: 20               NOP
04871a: 20               NOP
04871b: 20               NOP
04871c: 20               NOP
04871d: 20               NOP
04871e: 20               NOP
04871f: 20               NOP
048720: 20               NOP
048721: 20               NOP
048722: 20               NOP
048723: 20               NOP
048724: 20               NOP
048725: 20               NOP
048726: 20               NOP
048727: 20               NOP
048728: 20               NOP
048729: 20               NOP
04872a: 20               NOP
04872b: 20               NOP
04872c: 20               NOP
04872d: 20               NOP
04872e: 20               NOP
04872f: 20               NOP
048730: 20               NOP
048731: 20               NOP
048732: 20               NOP
048733: 20               NOP
048734: 20               NOP
048735: 20               NOP
048736: 20               NOP
048737: 20               NOP
048738: 20               NOP
048739: 20               NOP
04873a: 20               NOP
04873b: 20               NOP
04873c: 20               NOP
04873d: 20               NOP
04873e: 20               NOP
04873f: 20               NOP
048740: 20               NOP
048741: 20               NOP
048742: 20               NOP
048743: 20               NOP
048744: 20               NOP
048745: 20               NOP
048746: 20               NOP
048747: 20               NOP
048748: 20               NOP
048749: 20               NOP
04874a: 20               NOP
04874b: 20               NOP
04874c: 20               NOP
04874d: 20               NOP
04874e: 20               NOP
04874f: 20               NOP
048750: 20               NOP
048751: 20               NOP
048752: 20               NOP
048753: 20               NOP
048754: 20               NOP
048755: 20               NOP
048756: 20               NOP
048757: 20               NOP
048758: 20               NOP
048759: 20               NOP
04875a: 20               NOP
04875b: 20               NOP
04875c: 20               NOP
04875d: 20               NOP
04875e: 20               NOP
04875f: 20               NOP
048760: 20               NOP
048761: 20               NOP
048762: 20               NOP
048763: 20               NOP
048764: 20               NOP
048765: 20               NOP
048766: 20               NOP
048767: 20               NOP
048768: 20               NOP
048769: 20               NOP
04876a: 20               NOP
04876b: 20               NOP
04876c: 20               NOP
04876d: 20               NOP
04876e: 20               NOP
04876f: 20               NOP
048770: 20               NOP
048771: 20               NOP
048772: 20               NOP
048773: 20               NOP
048774: 20               NOP
048775: 20               NOP
048776: 20               NOP
048777: 20               NOP
048778: 20               NOP
048779: 20               NOP
04877a: 20               NOP
04877b: 20               NOP
04877c: 20               NOP
04877d: 20               NOP
04877e: 20               NOP
04877f: 20               NOP
048780: 20               NOP
048781: 20               NOP
048782: 20               NOP
048783: 20               NOP
048784: 20               NOP
048785: 20               NOP
048786: 20               NOP
048787: 20               NOP
048788: 20               NOP
048789: 20               NOP
04878a: 20               NOP
04878b: 20               NOP
04878c: 20               NOP
04878d: 20               NOP
04878e: 20               NOP
04878f: 20               NOP
048790: 20               NOP
048791: 20               NOP
048792: 20               NOP
048793: 20               NOP
048794: 20               NOP
048795: 20               NOP
048796: 20               NOP
048797: 20               NOP
048798: 20               NOP
048799: 20               NOP
04879a: 20               NOP
04879b: 20               NOP
04879c: 20               NOP
04879d: 20               NOP
04879e: 20               NOP
04879f: 20               NOP
0487a0: 20               NOP
0487a1: 20               NOP
0487a2: 20               NOP
0487a3: 20               NOP
0487a4: 20               NOP
0487a5: 20               NOP
0487a6: 20               NOP
0487a7: 20               NOP
0487a8: 20               NOP
0487a9: 20               NOP
0487aa: 20               NOP
0487ab: 20               NOP
0487ac: 20               NOP
0487ad: 20               NOP
0487ae: 20               NOP
0487af: 20               NOP
0487b0: 20               NOP
0487b1: 20               NOP
0487b2: 20               NOP
0487b3: 20               NOP
0487b4: 20               NOP
0487b5: 20               NOP
0487b6: 20               NOP
0487b7: 20               NOP
0487b8: 20               NOP
0487b9: 20               NOP
0487ba: 20               NOP
0487bb: 20               NOP
0487bc: 20               NOP
0487bd: 20               NOP
0487be: 20               NOP
0487bf: 20               NOP
0487c0: 20               NOP
0487c1: 20               NOP
0487c2: 20               NOP
0487c3: 20               NOP
0487c4: 20               NOP
0487c5: 20               NOP
0487c6: 20               NOP
0487c7: 20               NOP
0487c8: 20               NOP
0487c9: 20               NOP
0487ca: 20               NOP
0487cb: 20               NOP
0487cc: 20               NOP
0487cd: 20               NOP
0487ce: 20               NOP
0487cf: 20               NOP
0487d0: 20               NOP
0487d1: 20               NOP
0487d2: 20               NOP
0487d3: 20               NOP
0487d4: 20               NOP
0487d5: 20               NOP
0487d6: 20               NOP
0487d7: 20               NOP
0487d8: 20               NOP
0487d9: 20               NOP
0487da: 20               NOP
0487db: 20               NOP
0487dc: 20               NOP
0487dd: 20               NOP
0487de: 20               NOP
0487df: 20               NOP
0487e0: 20               NOP
0487e1: 20               NOP
0487e2: 20               NOP
0487e3: 20               NOP
0487e4: 20               NOP
0487e5: 20               NOP
0487e6: 20               NOP
0487e7: 20               NOP
0487e8: 20               NOP
0487e9: 20               NOP
0487ea: 20               NOP
0487eb: 20               NOP
0487ec: 20               NOP
0487ed: 20               NOP
0487ee: 20               NOP
0487ef: 20               NOP
0487f0: 20               NOP
0487f1: 20               NOP
0487f2: 20               NOP
0487f3: 20               NOP
0487f4: 20               NOP
0487f5: 20               NOP
0487f6: 20               NOP
0487f7: 20               NOP
0487f8: 20               NOP
0487f9: 20               NOP
0487fa: 20               NOP
0487fb: 20               NOP
0487fc: 20               NOP
0487fd: 20               NOP
0487fe: 20               NOP
0487ff: 20               NOP
048800: 20               NOP
048801: 20               NOP
048802: 20               NOP
048803: 20               NOP
048804: 20               NOP
048805: 20               NOP
048806: 20               NOP
048807: 20               NOP
048808: 20               NOP
048809: 20               NOP
04880a: 20               NOP
04880b: 20               NOP
04880c: 20               NOP
04880d: 20               NOP
04880e: 20               NOP
04880f: 20               NOP
048810: 20               NOP
048811: 20               NOP
048812: 20               NOP
048813: 20               NOP
048814: 20               NOP
048815: 20               NOP
048816: 20               NOP
048817: 20               NOP
048818: 20               NOP
048819: 20               NOP
04881a: 20               NOP
04881b: 20               NOP
04881c: 20               NOP
04881d: 20               NOP
04881e: 20               NOP
04881f: 20               NOP
048820: 20               NOP
048821: 20               NOP
048822: 20               NOP
048823: 20               NOP
048824: 20               NOP
048825: 20               NOP
048826: 20               NOP
048827: 20               NOP
048828: 20               NOP
048829: 20               NOP
04882a: 20               NOP
04882b: 20               NOP
04882c: 20               NOP
04882d: 20               NOP
04882e: 20               NOP
04882f: 20               NOP
048830: 20               NOP
048831: 20               NOP
048832: 20               NOP
048833: 20               NOP
048834: 20               NOP
048835: 20               NOP
048836: 20               NOP
048837: 20               NOP
048838: 20               NOP
048839: 20               NOP
04883a: 20               NOP
04883b: 20               NOP
04883c: 20               NOP
04883d: 20               NOP
04883e: 20               NOP
04883f: 20               NOP
048840: 20               NOP
048841: 20               NOP
048842: 20               NOP
048843: 20               NOP
048844: 20               NOP
048845: 20               NOP
048846: 20               NOP
048847: 20               NOP
048848: 20               NOP
048849: 20               NOP
04884a: 20               NOP
04884b: 20               NOP
04884c: 20               NOP
04884d: 20               NOP
04884e: 20               NOP
04884f: 20               NOP
048850: 20               NOP
048851: 20               NOP
048852: 20               NOP
048853: 20               NOP
048854: 20               NOP
048855: 20               NOP
048856: 20               NOP
048857: 20               NOP
048858: 20               NOP
048859: 20               NOP
04885a: 20               NOP
04885b: 20               NOP
04885c: 20               NOP
04885d: 20               NOP
04885e: 20               NOP
04885f: 20               NOP
048860: 20               NOP
048861: 20               NOP
048862: 20               NOP
048863: 20               NOP
048864: 20               NOP
048865: 20               NOP
048866: 20               NOP
048867: 20               NOP
048868: 20               NOP
048869: 20               NOP
04886a: 20               NOP
04886b: 20               NOP
04886c: 20               NOP
04886d: 20               NOP
04886e: 20               NOP
04886f: 20               NOP
048870: 20               NOP
048871: 20               NOP
048872: 20               NOP
048873: 20               NOP
048874: 20               NOP
048875: 20               NOP
048876: 20               NOP
048877: 20               NOP
048878: 20               NOP
048879: 20               NOP
04887a: 20               NOP
04887b: 20               NOP
04887c: 20               NOP
04887d: 20               NOP
04887e: 20               NOP
04887f: 20               NOP
048880: 20               NOP
048881: 20               NOP
048882: 20               NOP
048883: 20               NOP
048884: 20               NOP
048885: 20               NOP
048886: 20               NOP
048887: 20               NOP
048888: 20               NOP
048889: 20               NOP
04888a: 20               NOP
04888b: 20               NOP
04888c: 20               NOP
04888d: 20               NOP
04888e: 20               NOP
04888f: 20               NOP
048890: 20               NOP
048891: 20               NOP
048892: 20               NOP
048893: 20               NOP
048894: 20               NOP
048895: 20               NOP
048896: 20               NOP
048897: 20               NOP
048898: 20               NOP
048899: 20               NOP
04889a: 20               NOP
04889b: 20               NOP
04889c: 20               NOP
04889d: 20               NOP
04889e: 20               NOP
04889f: 20               NOP
0488a0: 20               NOP
0488a1: 20               NOP
0488a2: 20               NOP
0488a3: 20               NOP
0488a4: 20               NOP
0488a5: 20               NOP
0488a6: 20               NOP
0488a7: 20               NOP
0488a8: 20               NOP
0488a9: 20               NOP
0488aa: 20               NOP
0488ab: 20               NOP
0488ac: 20               NOP
0488ad: 20               NOP
0488ae: 20               NOP
0488af: 20               NOP
0488b0: 20               NOP
0488b1: 20               NOP
0488b2: 20               NOP
0488b3: 20               NOP
0488b4: 20               NOP
0488b5: 20               NOP
0488b6: 20               NOP
0488b7: 20               NOP
0488b8: 20               NOP
0488b9: 20               NOP
0488ba: 20               NOP
0488bb: 20               NOP
0488bc: 20               NOP
0488bd: 20               NOP
0488be: 20               NOP
0488bf: 20               NOP
0488c0: 20               NOP
0488c1: 20               NOP
0488c2: 20               NOP
0488c3: 20               NOP
0488c4: 20               NOP
0488c5: 20               NOP
0488c6: 20               NOP
0488c7: 20               NOP
0488c8: 20               NOP
0488c9: 20               NOP
0488ca: 20               NOP
0488cb: 20               NOP
0488cc: 20               NOP
0488cd: 20               NOP
0488ce: 20               NOP
0488cf: 20               NOP
0488d0: 20               NOP
0488d1: 20               NOP
0488d2: 20               NOP
0488d3: 20               NOP
0488d4: 20               NOP
0488d5: 20               NOP
0488d6: 20               NOP
0488d7: 20               NOP
0488d8: 20               NOP
0488d9: 20               NOP
0488da: 20               NOP
0488db: 20               NOP
0488dc: 20               NOP
0488dd: 20               NOP
0488de: 20               NOP
0488df: 20               NOP
0488e0: 20               NOP
0488e1: 20               NOP
0488e2: 20               NOP
0488e3: 20               NOP
0488e4: 20               NOP
0488e5: 20               NOP
0488e6: 20               NOP
0488e7: 20               NOP
0488e8: 20               NOP
0488e9: 20               NOP
0488ea: 20               NOP
0488eb: 20               NOP
0488ec: 20               NOP
0488ed: 20               NOP
0488ee: 20               NOP
0488ef: 20               NOP
0488f0: 20               NOP
0488f1: 20               NOP
0488f2: 20               NOP
0488f3: 20               NOP
0488f4: 20               NOP
0488f5: 20               NOP
0488f6: 20               NOP
0488f7: 20               NOP
0488f8: 20               NOP
0488f9: 20               NOP
0488fa: 20               NOP
0488fb: 20               NOP
0488fc: 20               NOP
0488fd: 20               NOP
0488fe: 20               NOP
0488ff: 20               NOP
048900: 20               NOP
048901: 20               NOP
048902: 20               NOP
048903: 20               NOP
048904: 20               NOP
048905: 20               NOP
048906: 20               NOP
048907: 20               NOP
048908: 20               NOP
048909: 20               NOP
04890a: 20               NOP
04890b: 20               NOP
04890c: 20               NOP
04890d: 20               NOP
04890e: 20               NOP
04890f: 20               NOP
048910: 20               NOP
048911: 20               NOP
048912: 20               NOP
048913: 20               NOP
048914: 20               NOP
048915: 20               NOP
048916: 20               NOP
048917: 20               NOP
048918: 20               NOP
048919: 20               NOP
04891a: 20               NOP
04891b: 20               NOP
04891c: 20               NOP
04891d: 20               NOP
04891e: 20               NOP
04891f: 20               NOP
048920: 20               NOP
048921: 20               NOP
048922: 20               NOP
048923: 20               NOP
048924: 20               NOP
048925: 20               NOP
048926: 20               NOP
048927: 20               NOP
048928: 20               NOP
048929: 20               NOP
04892a: 20               NOP
04892b: 20               NOP
04892c: 20               NOP
04892d: 20               NOP
04892e: 20               NOP
04892f: 20               NOP
048930: 20               NOP
048931: 20               NOP
048932: 20               NOP
048933: 20               NOP
048934: 20               NOP
048935: 20               NOP
048936: 20               NOP
048937: 20               NOP
048938: 20               NOP
048939: 20               NOP
04893a: 20               NOP
04893b: 20               NOP
04893c: 20               NOP
04893d: 20               NOP
04893e: 20               NOP
04893f: 20               NOP
048940: 20               NOP
048941: 20               NOP
048942: 20               NOP
048943: 20               NOP
048944: 20               NOP
048945: 20               NOP
048946: 20               NOP
048947: 20               NOP
048948: 20               NOP
048949: 20               NOP
04894a: 20               NOP
04894b: 20               NOP
04894c: 20               NOP
04894d: 20               NOP
04894e: 20               NOP
04894f: 20               NOP
048950: 20               NOP
048951: 20               NOP
048952: 20               NOP
048953: 20               NOP
048954: 20               NOP
048955: 20               NOP
048956: 20               NOP
048957: 20               NOP
048958: 20               NOP
048959: 20               NOP
04895a: 20               NOP
04895b: 20               NOP
04895c: 20               NOP
04895d: 20               NOP
04895e: 20               NOP
04895f: 20               NOP
048960: 20               NOP
048961: 20               NOP
048962: 20               NOP
048963: 20               NOP
048964: 20               NOP
048965: 20               NOP
048966: 20               NOP
048967: 20               NOP
048968: 20               NOP
048969: 20               NOP
04896a: 20               NOP
04896b: 20               NOP
04896c: 20               NOP
04896d: 20               NOP
04896e: 20               NOP
04896f: 20               NOP
048970: 20               NOP
048971: 20               NOP
048972: 20               NOP
048973: 20               NOP
048974: 20               NOP
048975: 20               NOP
048976: 20               NOP
048977: 20               NOP
048978: 20               NOP
048979: 20               NOP
04897a: 20               NOP
04897b: 20               NOP
04897c: 20               NOP
04897d: 20               NOP
04897e: 20               NOP
04897f: 20               NOP
048980: 20               NOP
048981: 20               NOP
048982: 20               NOP
048983: 20               NOP
048984: 20               NOP
048985: 20               NOP
048986: 20               NOP
048987: 20               NOP
048988: 20               NOP
048989: 20               NOP
04898a: 20               NOP
04898b: 20               NOP
04898c: 20               NOP
04898d: 20               NOP
04898e: 20               NOP
04898f: 20               NOP
048990: 20               NOP
048991: 20               NOP
048992: 20               NOP
048993: 20               NOP
048994: 20               NOP
048995: 20               NOP
048996: 20               NOP
048997: 20               NOP
048998: 20               NOP
048999: 20               NOP
04899a: 20               NOP
04899b: 20               NOP
04899c: 20               NOP
04899d: 20               NOP
04899e: 20               NOP
04899f: 20               NOP
0489a0: 20               NOP
0489a1: 20               NOP
0489a2: 20               NOP
0489a3: 20               NOP
0489a4: 20               NOP
0489a5: 20               NOP
0489a6: 20               NOP
0489a7: 20               NOP
0489a8: 20               NOP
0489a9: 20               NOP
0489aa: 20               NOP
0489ab: 20               NOP
0489ac: 20               NOP
0489ad: 20               NOP
0489ae: 20               NOP
0489af: 20               NOP
0489b0: 20               NOP
0489b1: 20               NOP
0489b2: 20               NOP
0489b3: 20               NOP
0489b4: 20               NOP
0489b5: 20               NOP
0489b6: 20               NOP
0489b7: 20               NOP
0489b8: 20               NOP
0489b9: 20               NOP
0489ba: 20               NOP
0489bb: 20               NOP
0489bc: 20               NOP
0489bd: 20               NOP
0489be: 20               NOP
0489bf: 20               NOP
0489c0: 20               NOP
0489c1: 20               NOP
0489c2: 20               NOP
0489c3: 20               NOP
0489c4: 20               NOP
0489c5: 20               NOP
0489c6: 20               NOP
0489c7: 20               NOP
0489c8: 20               NOP
0489c9: 20               NOP
0489ca: 20               NOP
0489cb: 20               NOP
0489cc: 20               NOP
0489cd: 20               NOP
0489ce: 20               NOP
0489cf: 20               NOP
0489d0: 20               NOP
0489d1: 20               NOP
0489d2: 20               NOP
0489d3: 20               NOP
0489d4: 20               NOP
0489d5: 20               NOP
0489d6: 20               NOP
0489d7: 20               NOP
0489d8: 20               NOP
0489d9: 20               NOP
0489da: 20               NOP
0489db: 20               NOP
0489dc: 20               NOP
0489dd: 20               NOP
0489de: 20               NOP
0489df: 20               NOP
0489e0: 20               NOP
0489e1: 20               NOP
0489e2: 20               NOP
0489e3: 20               NOP
0489e4: 20               NOP
0489e5: 20               NOP
0489e6: 20               NOP
0489e7: 20               NOP
0489e8: 20               NOP
0489e9: 20               NOP
0489ea: 20               NOP
0489eb: 20               NOP
0489ec: 20               NOP
0489ed: 20               NOP
0489ee: 20               NOP
0489ef: 20               NOP
0489f0: 20               NOP
0489f1: 20               NOP
0489f2: 20               NOP
0489f3: 20               NOP
0489f4: 20               NOP
0489f5: 20               NOP
0489f6: 20               NOP
0489f7: 20               NOP
0489f8: 20               NOP
0489f9: 20               NOP
0489fa: 20               NOP
0489fb: 20               NOP
0489fc: 20               NOP
0489fd: 20               NOP
0489fe: 20               NOP
0489ff: 20               NOP
048a00: 20               NOP
048a01: 20               NOP
048a02: 20               NOP
048a03: 20               NOP
048a04: 20               NOP
048a05: 20               NOP
048a06: 20               NOP
048a07: 20               NOP
048a08: 20               NOP
048a09: 20               NOP
048a0a: 20               NOP
048a0b: 20               NOP
048a0c: 20               NOP
048a0d: 20               NOP
048a0e: 20               NOP
048a0f: 20               NOP
048a10: 20               NOP
048a11: 20               NOP
048a12: 20               NOP
048a13: 20               NOP
048a14: 20               NOP
048a15: 20               NOP
048a16: 20               NOP
048a17: 20               NOP
048a18: 20               NOP
048a19: 20               NOP
048a1a: 20               NOP
048a1b: 20               NOP
048a1c: 20               NOP
048a1d: 20               NOP
048a1e: 20               NOP
048a1f: 20               NOP
048a20: 20               NOP
048a21: 20               NOP
048a22: 20               NOP
048a23: 20               NOP
048a24: 20               NOP
048a25: 20               NOP
048a26: 20               NOP
048a27: 20               NOP
048a28: 20               NOP
048a29: 20               NOP
048a2a: 20               NOP
048a2b: 20               NOP
048a2c: 20               NOP
048a2d: 20               NOP
048a2e: 20               NOP
048a2f: 20               NOP
048a30: 20               NOP
048a31: 20               NOP
048a32: 20               NOP
048a33: 20               NOP
048a34: 20               NOP
048a35: 20               NOP
048a36: 20               NOP
048a37: 20               NOP
048a38: 20               NOP
048a39: 20               NOP
048a3a: 20               NOP
048a3b: 20               NOP
048a3c: 20               NOP
048a3d: 20               NOP
048a3e: 20               NOP
048a3f: 20               NOP
048a40: 20               NOP
048a41: 20               NOP
048a42: 20               NOP
048a43: 20               NOP
048a44: 20               NOP
048a45: 20               NOP
048a46: 20               NOP
048a47: 20               NOP
048a48: 20               NOP
048a49: 20               NOP
048a4a: 20               NOP
048a4b: 20               NOP
048a4c: 20               NOP
048a4d: 20               NOP
048a4e: 20               NOP
048a4f: 20               NOP
048a50: 20               NOP
048a51: 20               NOP
048a52: 20               NOP
048a53: 20               NOP
048a54: 20               NOP
048a55: 20               NOP
048a56: 20               NOP
048a57: 20               NOP
048a58: 20               NOP
048a59: 20               NOP
048a5a: 20               NOP
048a5b: 20               NOP
048a5c: 20               NOP
048a5d: 20               NOP
048a5e: 20               NOP
048a5f: 20               NOP
048a60: 20               NOP
048a61: 20               NOP
048a62: 20               NOP
048a63: 20               NOP
048a64: 20               NOP
048a65: 20               NOP
048a66: 20               NOP
048a67: 20               NOP
048a68: 20               NOP
048a69: 20               NOP
048a6a: 20               NOP
048a6b: 20               NOP
048a6c: 20               NOP
048a6d: 20               NOP
048a6e: 20               NOP
048a6f: 20               NOP
048a70: 20               NOP
048a71: 20               NOP
048a72: 20               NOP
048a73: 20               NOP
048a74: 20               NOP
048a75: 20               NOP
048a76: 20               NOP
048a77: 20               NOP
048a78: 20               NOP
048a79: 20               NOP
048a7a: 20               NOP
048a7b: 20               NOP
048a7c: 20               NOP
048a7d: 20               NOP
048a7e: 20               NOP
048a7f: 20               NOP
048a80: 20               NOP
048a81: 20               NOP
048a82: 20               NOP
048a83: 20               NOP
048a84: 20               NOP
048a85: 20               NOP
048a86: 20               NOP
048a87: 20               NOP
048a88: 20               NOP
048a89: 20               NOP
048a8a: 20               NOP
048a8b: 20               NOP
048a8c: 20               NOP
048a8d: 20               NOP
048a8e: 20               NOP
048a8f: 20               NOP
048a90: 20               NOP
048a91: 20               NOP
048a92: 20               NOP
048a93: 20               NOP
048a94: 20               NOP
048a95: 20               NOP
048a96: 20               NOP
048a97: 20               NOP
048a98: 20               NOP
048a99: 20               NOP
048a9a: 20               NOP
048a9b: 20               NOP
048a9c: 20               NOP
048a9d: 20               NOP
048a9e: 20               NOP
048a9f: 20               NOP
048aa0: 20               NOP
048aa1: 20               NOP
048aa2: 20               NOP
048aa3: 20               NOP
048aa4: 20               NOP
048aa5: 20               NOP
048aa6: 20               NOP
048aa7: 20               NOP
048aa8: 20               NOP
048aa9: 20               NOP
048aaa: 20               NOP
048aab: 20               NOP
048aac: 20               NOP
048aad: 20               NOP
048aae: 20               NOP
048aaf: 20               NOP
048ab0: 20               NOP
048ab1: 20               NOP
048ab2: 20               NOP
048ab3: 20               NOP
048ab4: 20               NOP
048ab5: 20               NOP
048ab6: 20               NOP
048ab7: 20               NOP
048ab8: 20               NOP
048ab9: 20               NOP
048aba: 20               NOP
048abb: 20               NOP
048abc: 20               NOP
048abd: 20               NOP
048abe: 20               NOP
048abf: 20               NOP
048ac0: 20               NOP
048ac1: 20               NOP
048ac2: 20               NOP
048ac3: 20               NOP
048ac4: 20               NOP
048ac5: 20               NOP
048ac6: 20               NOP
048ac7: 20               NOP
048ac8: 20               NOP
048ac9: 20               NOP
048aca: 20               NOP
048acb: 20               NOP
048acc: 20               NOP
048acd: 20               NOP
048ace: 20               NOP
048acf: 20               NOP
048ad0: 20               NOP
048ad1: 20               NOP
048ad2: 20               NOP
048ad3: 20               NOP
048ad4: 20               NOP
048ad5: 20               NOP
048ad6: 20               NOP
048ad7: 20               NOP
048ad8: 20               NOP
048ad9: 20               NOP
048ada: 20               NOP
048adb: 20               NOP
048adc: 20               NOP
048add: 20               NOP
048ade: 20               NOP
048adf: 20               NOP
048ae0: 20               NOP
048ae1: 20               NOP
048ae2: 20               NOP
048ae3: 20               NOP
048ae4: 20               NOP
048ae5: 20               NOP
048ae6: 20               NOP
048ae7: 20               NOP
048ae8: 20               NOP
048ae9: 20               NOP
048aea: 20               NOP
048aeb: 20               NOP
048aec: 20               NOP
048aed: 20               NOP
048aee: 20               NOP
048aef: 20               NOP
048af0: 20               NOP
048af1: 20               NOP
048af2: 20               NOP
048af3: 20               NOP
048af4: 20               NOP
048af5: 20               NOP
048af6: 20               NOP
048af7: 20               NOP
048af8: 20               NOP
048af9: 20               NOP
048afa: 20               NOP
048afb: 20               NOP
048afc: 20               NOP
048afd: 20               NOP
048afe: 20               NOP
048aff: 20               NOP
048b00: 20               NOP
048b01: 20               NOP
048b02: 20               NOP
048b03: 20               NOP
048b04: 20               NOP
048b05: 20               NOP
048b06: 20               NOP
048b07: 20               NOP
048b08: 20               NOP
048b09: 20               NOP
048b0a: 20               NOP
048b0b: 20               NOP
048b0c: 20               NOP
048b0d: 20               NOP
048b0e: 20               NOP
048b0f: 20               NOP
048b10: 20               NOP
048b11: 20               NOP
048b12: 20               NOP
048b13: 20               NOP
048b14: 20               NOP
048b15: 20               NOP
048b16: 20               NOP
048b17: 20               NOP
048b18: 20               NOP
048b19: 20               NOP
048b1a: 20               NOP
048b1b: 20               NOP
048b1c: 20               NOP
048b1d: 20               NOP
048b1e: 20               NOP
048b1f: 20               NOP
048b20: 20               NOP
048b21: 20               NOP
048b22: 20               NOP
048b23: 20               NOP
048b24: 20               NOP
048b25: 20               NOP
048b26: 20               NOP
048b27: 20               NOP
048b28: 20               NOP
048b29: 20               NOP
048b2a: 20               NOP
048b2b: 20               NOP
048b2c: 20               NOP
048b2d: 20               NOP
048b2e: 20               NOP
048b2f: 20               NOP
048b30: 20               NOP
048b31: 20               NOP
048b32: 20               NOP
048b33: 20               NOP
048b34: 20               NOP
048b35: 20               NOP
048b36: 20               NOP
048b37: 20               NOP
048b38: 20               NOP
048b39: 20               NOP
048b3a: 20               NOP
048b3b: 20               NOP
048b3c: 20               NOP
048b3d: 20               NOP
048b3e: 20               NOP
048b3f: 20               NOP
048b40: 20               NOP
048b41: 20               NOP
048b42: 20               NOP
048b43: 20               NOP
048b44: 20               NOP
048b45: 20               NOP
048b46: 20               NOP
048b47: 20               NOP
048b48: 20               NOP
048b49: 20               NOP
048b4a: 20               NOP
048b4b: 20               NOP
048b4c: 20               NOP
048b4d: 20               NOP
048b4e: 20               NOP
048b4f: 20               NOP
048b50: 20               NOP
048b51: 20               NOP
048b52: 20               NOP
048b53: 20               NOP
048b54: 20               NOP
048b55: 20               NOP
048b56: 20               NOP
048b57: 20               NOP
048b58: 20               NOP
048b59: 20               NOP
048b5a: 20               NOP
048b5b: 20               NOP
048b5c: 20               NOP
048b5d: 20               NOP
048b5e: 20               NOP
048b5f: 20               NOP
048b60: 20               NOP
048b61: 20               NOP
048b62: 20               NOP
048b63: 20               NOP
048b64: 20               NOP
048b65: 20               NOP
048b66: 20               NOP
048b67: 20               NOP
048b68: 20               NOP
048b69: 20               NOP
048b6a: 20               NOP
048b6b: 20               NOP
048b6c: 20               NOP
048b6d: 20               NOP
048b6e: 20               NOP
048b6f: 20               NOP
048b70: 20               NOP
048b71: 20               NOP
048b72: 20               NOP
048b73: 20               NOP
048b74: 20               NOP
048b75: 20               NOP
048b76: 20               NOP
048b77: 20               NOP
048b78: 20               NOP
048b79: 20               NOP
048b7a: 20               NOP
048b7b: 20               NOP
048b7c: 20               NOP
048b7d: 20               NOP
048b7e: 20               NOP
048b7f: 20               NOP
048b80: 20               NOP
048b81: 20               NOP
048b82: 20               NOP
048b83: 20               NOP
048b84: 20               NOP
048b85: 20               NOP
048b86: 20               NOP
048b87: 20               NOP
048b88: 20               NOP
048b89: 20               NOP
048b8a: 20               NOP
048b8b: 20               NOP
048b8c: 20               NOP
048b8d: 20               NOP
048b8e: 20               NOP
048b8f: 20               NOP
048b90: 20               NOP
048b91: 20               NOP
048b92: 20               NOP
048b93: 20               NOP
048b94: 20               NOP
048b95: 20               NOP
048b96: 20               NOP
048b97: 20               NOP
048b98: 20               NOP
048b99: 20               NOP
048b9a: 20               NOP
048b9b: 20               NOP
048b9c: 20               NOP
048b9d: 20               NOP
048b9e: 20               NOP
048b9f: 20               NOP
048ba0: 20               NOP
048ba1: 20               NOP
048ba2: 20               NOP
048ba3: 20               NOP
048ba4: 20               NOP
048ba5: 20               NOP
048ba6: 20               NOP
048ba7: 20               NOP
048ba8: 20               NOP
048ba9: 20               NOP
048baa: 20               NOP
048bab: 20               NOP
048bac: 20               NOP
048bad: 20               NOP
048bae: 20               NOP
048baf: 20               NOP
048bb0: 20               NOP
048bb1: 20               NOP
048bb2: 20               NOP
048bb3: 20               NOP
048bb4: 20               NOP
048bb5: 20               NOP
048bb6: 20               NOP
048bb7: 20               NOP
048bb8: 20               NOP
048bb9: 20               NOP
048bba: 20               NOP
048bbb: 20               NOP
048bbc: 20               NOP
048bbd: 20               NOP
048bbe: 20               NOP
048bbf: 20               NOP
048bc0: 20               NOP
048bc1: 20               NOP
048bc2: 20               NOP
048bc3: 20               NOP
048bc4: 20               NOP
048bc5: 20               NOP
048bc6: 20               NOP
048bc7: 20               NOP
048bc8: 20               NOP
048bc9: 20               NOP
048bca: 20               NOP
048bcb: 20               NOP
048bcc: 20               NOP
048bcd: 20               NOP
048bce: 20               NOP
048bcf: 20               NOP
048bd0: 20               NOP
048bd1: 20               NOP
048bd2: 20               NOP
048bd3: 20               NOP
048bd4: 20               NOP
048bd5: 20               NOP
048bd6: 20               NOP
048bd7: 20               NOP
048bd8: 20               NOP
048bd9: 20               NOP
048bda: 20               NOP
048bdb: 20               NOP
048bdc: 20               NOP
048bdd: 20               NOP
048bde: 20               NOP
048bdf: 20               NOP
048be0: 20               NOP
048be1: 20               NOP
048be2: 20               NOP
048be3: 20               NOP
048be4: 20               NOP
048be5: 20               NOP
048be6: 20               NOP
048be7: 20               NOP
048be8: 20               NOP
048be9: 20               NOP
048bea: 20               NOP
048beb: 20               NOP
048bec: 20               NOP
048bed: 20               NOP
048bee: 20               NOP
048bef: 20               NOP
048bf0: 20               NOP
048bf1: 20               NOP
048bf2: 20               NOP
048bf3: 20               NOP
048bf4: 20               NOP
048bf5: 20               NOP
048bf6: 20               NOP
048bf7: 20               NOP
048bf8: 20               NOP
048bf9: 20               NOP
048bfa: 20               NOP
048bfb: 20               NOP
048bfc: 20               NOP
048bfd: 20               NOP
048bfe: 20               NOP
048bff: 20               NOP
048c00: 20               NOP
048c01: 20               NOP
048c02: 20               NOP
048c03: 20               NOP
048c04: 20               NOP
048c05: 20               NOP
048c06: 20               NOP
048c07: 20               NOP
048c08: 20               NOP
048c09: 20               NOP
048c0a: 20               NOP
048c0b: 20               NOP
048c0c: 20               NOP
048c0d: 20               NOP
048c0e: 20               NOP
048c0f: 20               NOP
048c10: 20               NOP
048c11: 20               NOP
048c12: 20               NOP
048c13: 20               NOP
048c14: 20               NOP
048c15: 20               NOP
048c16: 20               NOP
048c17: 20               NOP
048c18: 20               NOP
048c19: 20               NOP
048c1a: 20               NOP
048c1b: 20               NOP
048c1c: 20               NOP
048c1d: 20               NOP
048c1e: 20               NOP
048c1f: 20               NOP
048c20: 20               NOP
048c21: 20               NOP
048c22: 20               NOP
048c23: 20               NOP
048c24: 20               NOP
048c25: 20               NOP
048c26: 20               NOP
048c27: 20               NOP
048c28: 20               NOP
048c29: 20               NOP
048c2a: 20               NOP
048c2b: 20               NOP
048c2c: 20               NOP
048c2d: 20               NOP
048c2e: 20               NOP
048c2f: 20               NOP
048c30: 20               NOP
048c31: 20               NOP
048c32: 20               NOP
048c33: 20               NOP
048c34: 20               NOP
048c35: 20               NOP
048c36: 20               NOP
048c37: 20               NOP
048c38: 20               NOP
048c39: 20               NOP
048c3a: 20               NOP
048c3b: 20               NOP
048c3c: 20               NOP
048c3d: 20               NOP
048c3e: 20               NOP
048c3f: 20               NOP
048c40: 20               NOP
048c41: 20               NOP
048c42: 20               NOP
048c43: 20               NOP
048c44: 20               NOP
048c45: 20               NOP
048c46: 20               NOP
048c47: 20               NOP
048c48: 20               NOP
048c49: 20               NOP
048c4a: 20               NOP
048c4b: 20               NOP
048c4c: 20               NOP
048c4d: 20               NOP
048c4e: 20               NOP
048c4f: 20               NOP
048c50: 20               NOP
048c51: 20               NOP
048c52: 20               NOP
048c53: 20               NOP
048c54: 20               NOP
048c55: 20               NOP
048c56: 20               NOP
048c57: 20               NOP
048c58: 20               NOP
048c59: 20               NOP
048c5a: 20               NOP
048c5b: 20               NOP
048c5c: 20               NOP
048c5d: 20               NOP
048c5e: 20               NOP
048c5f: 20               NOP
048c60: 20               NOP
048c61: 20               NOP
048c62: 20               NOP
048c63: 20               NOP
048c64: 20               NOP
048c65: 20               NOP
048c66: 20               NOP
048c67: 20               NOP
048c68: 20               NOP
048c69: 20               NOP
048c6a: 20               NOP
048c6b: 20               NOP
048c6c: 20               NOP
048c6d: 20               NOP
048c6e: 20               NOP
048c6f: 20               NOP
048c70: 20               NOP
048c71: 20               NOP
048c72: 20               NOP
048c73: 20               NOP
048c74: 20               NOP
048c75: 20               NOP
048c76: 20               NOP
048c77: 20               NOP
048c78: 20               NOP
048c79: 20               NOP
048c7a: 20               NOP
048c7b: 20               NOP
048c7c: 20               NOP
048c7d: 20               NOP
048c7e: 20               NOP
048c7f: 20               NOP
048c80: 20               NOP
048c81: 20               NOP
048c82: 20               NOP
048c83: 20               NOP
048c84: 20               NOP
048c85: 20               NOP
048c86: 20               NOP
048c87: 20               NOP
048c88: 20               NOP
048c89: 20               NOP
048c8a: 20               NOP
048c8b: 20               NOP
048c8c: 20               NOP
048c8d: 20               NOP
048c8e: 20               NOP
048c8f: 20               NOP
048c90: 20               NOP
048c91: 20               NOP
048c92: 20               NOP
048c93: 20               NOP
048c94: 20               NOP
048c95: 20               NOP
048c96: 20               NOP
048c97: 20               NOP
048c98: 20               NOP
048c99: 20               NOP
048c9a: 20               NOP
048c9b: 20               NOP
048c9c: 20               NOP
048c9d: 20               NOP
048c9e: 20               NOP
048c9f: 20               NOP
048ca0: 20               NOP
048ca1: 20               NOP
048ca2: 20               NOP
048ca3: 20               NOP
048ca4: 20               NOP
048ca5: 20               NOP
048ca6: 20               NOP
048ca7: 20               NOP
048ca8: 20               NOP
048ca9: 20               NOP
048caa: 20               NOP
048cab: 20               NOP
048cac: 20               NOP
048cad: 20               NOP
048cae: 20               NOP
048caf: 20               NOP
048cb0: 20               NOP
048cb1: 20               NOP
048cb2: 20               NOP
048cb3: 20               NOP
048cb4: 20               NOP
048cb5: 20               NOP
048cb6: 20               NOP
048cb7: 20               NOP
048cb8: 20               NOP
048cb9: 20               NOP
048cba: 20               NOP
048cbb: 20               NOP
048cbc: 20               NOP
048cbd: 20               NOP
048cbe: 20               NOP
048cbf: 20               NOP
048cc0: 20               NOP
048cc1: 20               NOP
048cc2: 20               NOP
048cc3: 20               NOP
048cc4: 20               NOP
048cc5: 20               NOP
048cc6: 20               NOP
048cc7: 20               NOP
048cc8: 20               NOP
048cc9: 20               NOP
048cca: 20               NOP
048ccb: 20               NOP
048ccc: 20               NOP
048ccd: 20               NOP
048cce: 20               NOP
048ccf: 20               NOP
048cd0: 20               NOP
048cd1: 20               NOP
048cd2: 20               NOP
048cd3: 20               NOP
048cd4: 20               NOP
048cd5: 20               NOP
048cd6: 20               NOP
048cd7: 20               NOP
048cd8: 20               NOP
048cd9: 20               NOP
048cda: 20               NOP
048cdb: 20               NOP
048cdc: 20               NOP
048cdd: 20               NOP
048cde: 20               NOP
048cdf: 20               NOP
048ce0: 20               NOP
048ce1: 20               NOP
048ce2: 20               NOP
048ce3: 20               NOP
048ce4: 20               NOP
048ce5: 20               NOP
048ce6: 20               NOP
048ce7: 20               NOP
048ce8: 20               NOP
048ce9: 20               NOP
048cea: 20               NOP
048ceb: 20               NOP
048cec: 20               NOP
048ced: 20               NOP
048cee: 20               NOP
048cef: 20               NOP
048cf0: 20               NOP
048cf1: 20               NOP
048cf2: 20               NOP
048cf3: 20               NOP
048cf4: 20               NOP
048cf5: 20               NOP
048cf6: 20               NOP
048cf7: 20               NOP
048cf8: 20               NOP
048cf9: 20               NOP
048cfa: 20               NOP
048cfb: 20               NOP
048cfc: 20               NOP
048cfd: 20               NOP
048cfe: 20               NOP
048cff: 20               NOP
048d00: 20               NOP
048d01: 20               NOP
048d02: 20               NOP
048d03: 20               NOP
048d04: 20               NOP
048d05: 20               NOP
048d06: 20               NOP
048d07: 20               NOP
048d08: 20               NOP
048d09: 20               NOP
048d0a: 20               NOP
048d0b: 20               NOP
048d0c: 20               NOP
048d0d: 20               NOP
048d0e: 20               NOP
048d0f: 20               NOP
048d10: 20               NOP
048d11: 20               NOP
048d12: 20               NOP
048d13: 20               NOP
048d14: 20               NOP
048d15: 20               NOP
048d16: 20               NOP
048d17: 20               NOP
048d18: 20               NOP
048d19: 20               NOP
048d1a: 20               NOP
048d1b: 20               NOP
048d1c: 20               NOP
048d1d: 20               NOP
048d1e: 20               NOP
048d1f: 20               NOP
048d20: 20               NOP
048d21: 20               NOP
048d22: 20               NOP
048d23: 20               NOP
048d24: 20               NOP
048d25: 20               NOP
048d26: 20               NOP
048d27: 20               NOP
048d28: 20               NOP
048d29: 20               NOP
048d2a: 20               NOP
048d2b: 20               NOP
048d2c: 20               NOP
048d2d: 20               NOP
048d2e: 20               NOP
048d2f: 20               NOP
048d30: 20               NOP
048d31: 20               NOP
048d32: 20               NOP
048d33: 20               NOP
048d34: 20               NOP
048d35: 20               NOP
048d36: 20               NOP
048d37: 20               NOP
048d38: 20               NOP
048d39: 20               NOP
048d3a: 20               NOP
048d3b: 20               NOP
048d3c: 20               NOP
048d3d: 20               NOP
048d3e: 20               NOP
048d3f: 20               NOP
048d40: 20               NOP
048d41: 20               NOP
048d42: 20               NOP
048d43: 20               NOP
048d44: 20               NOP
048d45: 20               NOP
048d46: 20               NOP
048d47: 20               NOP
048d48: 20               NOP
048d49: 20               NOP
048d4a: 20               NOP
048d4b: 20               NOP
048d4c: 20               NOP
048d4d: 20               NOP
048d4e: 20               NOP
048d4f: 20               NOP
048d50: 20               NOP
048d51: 20               NOP
048d52: 20               NOP
048d53: 20               NOP
048d54: 20               NOP
048d55: 20               NOP
048d56: 20               NOP
048d57: 20               NOP
048d58: 20               NOP
048d59: 20               NOP
048d5a: 20               NOP
048d5b: 20               NOP
048d5c: 20               NOP
048d5d: 20               NOP
048d5e: 20               NOP
048d5f: 20               NOP
048d60: 20               NOP
048d61: 20               NOP
048d62: 20               NOP
048d63: 20               NOP
048d64: 20               NOP
048d65: 20               NOP
048d66: 20               NOP
048d67: 20               NOP
048d68: 20               NOP
048d69: 20               NOP
048d6a: 20               NOP
048d6b: 20               NOP
048d6c: 20               NOP
048d6d: 20               NOP
048d6e: 20               NOP
048d6f: 20               NOP
048d70: 20               NOP
048d71: 20               NOP
048d72: 20               NOP
048d73: 20               NOP
048d74: 20               NOP
048d75: 20               NOP
048d76: 20               NOP
048d77: 20               NOP
048d78: 20               NOP
048d79: 20               NOP
048d7a: 20               NOP
048d7b: 20               NOP
048d7c: 20               NOP
048d7d: 20               NOP
048d7e: 20               NOP
048d7f: 20               NOP
048d80: 20               NOP
048d81: 20               NOP
048d82: 20               NOP
048d83: 20               NOP
048d84: 20               NOP
048d85: 20               NOP
048d86: 20               NOP
048d87: 20               NOP
048d88: 20               NOP
048d89: 20               NOP
048d8a: 20               NOP
048d8b: 20               NOP
048d8c: 20               NOP
048d8d: 20               NOP
048d8e: 20               NOP
048d8f: 20               NOP
048d90: 20               NOP
048d91: 20               NOP
048d92: 20               NOP
048d93: 20               NOP
048d94: 20               NOP
048d95: 20               NOP
048d96: 20               NOP
048d97: 20               NOP
048d98: 20               NOP
048d99: 20               NOP
048d9a: 20               NOP
048d9b: 20               NOP
048d9c: 20               NOP
048d9d: 20               NOP
048d9e: 20               NOP
048d9f: 20               NOP
048da0: 20               NOP
048da1: 20               NOP
048da2: 20               NOP
048da3: 20               NOP
048da4: 20               NOP
048da5: 20               NOP
048da6: 20               NOP
048da7: 20               NOP
048da8: 20               NOP
048da9: 20               NOP
048daa: 20               NOP
048dab: 20               NOP
048dac: 20               NOP
048dad: 20               NOP
048dae: 20               NOP
048daf: 20               NOP
048db0: 20               NOP
048db1: 20               NOP
048db2: 20               NOP
048db3: 20               NOP
048db4: 20               NOP
048db5: 20               NOP
048db6: 20               NOP
048db7: 20               NOP
048db8: 20               NOP
048db9: 20               NOP
048dba: 20               NOP
048dbb: 20               NOP
048dbc: 20               NOP
048dbd: 20               NOP
048dbe: 20               NOP
048dbf: 20               NOP
048dc0: 20               NOP
048dc1: 20               NOP
048dc2: 20               NOP
048dc3: 20               NOP
048dc4: 20               NOP
048dc5: 20               NOP
048dc6: 20               NOP
048dc7: 20               NOP
048dc8: 20               NOP
048dc9: 20               NOP
048dca: 20               NOP
048dcb: 20               NOP
048dcc: 20               NOP
048dcd: 20               NOP
048dce: 20               NOP
048dcf: 20               NOP
048dd0: 20               NOP
048dd1: 20               NOP
048dd2: 20               NOP
048dd3: 20               NOP
048dd4: 20               NOP
048dd5: 20               NOP
048dd6: 20               NOP
048dd7: 20               NOP
048dd8: 20               NOP
048dd9: 20               NOP
048dda: 20               NOP
048ddb: 20               NOP
048ddc: 20               NOP
048ddd: 20               NOP
048dde: 20               NOP
048ddf: 20               NOP
048de0: 20               NOP
048de1: 20               NOP
048de2: 20               NOP
048de3: 20               NOP
048de4: 20               NOP
048de5: 20               NOP
048de6: 20               NOP
048de7: 20               NOP
048de8: 20               NOP
048de9: 20               NOP
048dea: 20               NOP
048deb: 20               NOP
048dec: 20               NOP
048ded: 20               NOP
048dee: 20               NOP
048def: 20               NOP
048df0: 20               NOP
048df1: 20               NOP
048df2: 20               NOP
048df3: 20               NOP
048df4: 20               NOP
048df5: 20               NOP
048df6: 20               NOP
048df7: 20               NOP
048df8: 20               NOP
048df9: 20               NOP
048dfa: 20               NOP
048dfb: 20               NOP
048dfc: 20               NOP
048dfd: 20               NOP
048dfe: 20               NOP
048dff: 20               NOP
048e00: 20               NOP
048e01: 20               NOP
048e02: 20               NOP
048e03: 20               NOP
048e04: 20               NOP
048e05: 20               NOP
048e06: 20               NOP
048e07: 20               NOP
048e08: 20               NOP
048e09: 20               NOP
048e0a: 20               NOP
048e0b: 20               NOP
048e0c: 20               NOP
048e0d: 20               NOP
048e0e: 20               NOP
048e0f: 20               NOP
048e10: 20               NOP
048e11: 20               NOP
048e12: 20               NOP
048e13: 20               NOP
048e14: 20               NOP
048e15: 20               NOP
048e16: 20               NOP
048e17: 20               NOP
048e18: 20               NOP
048e19: 20               NOP
048e1a: 20               NOP
048e1b: 20               NOP
048e1c: 20               NOP
048e1d: 20               NOP
048e1e: 20               NOP
048e1f: 20               NOP
048e20: 20               NOP
048e21: 20               NOP
048e22: 20               NOP
048e23: 20               NOP
048e24: 20               NOP
048e25: 20               NOP
048e26: 20               NOP
048e27: 20               NOP
048e28: 20               NOP
048e29: 20               NOP
048e2a: 20               NOP
048e2b: 20               NOP
048e2c: 20               NOP
048e2d: 20               NOP
048e2e: 20               NOP
048e2f: 20               NOP
048e30: 20               NOP
048e31: 20               NOP
048e32: 20               NOP
048e33: 20               NOP
048e34: 20               NOP
048e35: 20               NOP
048e36: 20               NOP
048e37: 20               NOP
048e38: 20               NOP
048e39: 20               NOP
048e3a: 20               NOP
048e3b: 20               NOP
048e3c: 20               NOP
048e3d: 20               NOP
048e3e: 20               NOP
048e3f: 20               NOP
048e40: 20               NOP
048e41: 20               NOP
048e42: 20               NOP
048e43: 20               NOP
048e44: 20               NOP
048e45: 20               NOP
048e46: 20               NOP
048e47: 20               NOP
048e48: 20               NOP
048e49: 20               NOP
048e4a: 20               NOP
048e4b: 20               NOP
048e4c: 20               NOP
048e4d: 20               NOP
048e4e: 20               NOP
048e4f: 20               NOP
048e50: 20               NOP
048e51: 20               NOP
048e52: 20               NOP
048e53: 20               NOP
048e54: 20               NOP
048e55: 20               NOP
048e56: 20               NOP
048e57: 20               NOP
048e58: 20               NOP
048e59: 20               NOP
048e5a: 20               NOP
048e5b: 20               NOP
048e5c: 20               NOP
048e5d: 20               NOP
048e5e: 20               NOP
048e5f: 20               NOP
048e60: 20               NOP
048e61: 20               NOP
048e62: 20               NOP
048e63: 20               NOP
048e64: 20               NOP
048e65: 20               NOP
048e66: 20               NOP
048e67: 20               NOP
048e68: 20               NOP
048e69: 20               NOP
048e6a: 20               NOP
048e6b: 20               NOP
048e6c: 20               NOP
048e6d: 20               NOP
048e6e: 20               NOP
048e6f: 20               NOP
048e70: 20               NOP
048e71: 20               NOP
048e72: 20               NOP
048e73: 20               NOP
048e74: 20               NOP
048e75: 20               NOP
048e76: 20               NOP
048e77: 20               NOP
048e78: 20               NOP
048e79: 20               NOP
048e7a: 20               NOP
048e7b: 20               NOP
048e7c: 20               NOP
048e7d: 20               NOP
048e7e: 20               NOP
048e7f: 20               NOP
048e80: 20               NOP
048e81: 20               NOP
048e82: 20               NOP
048e83: 20               NOP
048e84: 20               NOP
048e85: 20               NOP
048e86: 20               NOP
048e87: 20               NOP
048e88: 20               NOP
048e89: 20               NOP
048e8a: 20               NOP
048e8b: 20               NOP
048e8c: 20               NOP
048e8d: 20               NOP
048e8e: 20               NOP
048e8f: 20               NOP
048e90: 20               NOP
048e91: 20               NOP
048e92: 20               NOP
048e93: 20               NOP
048e94: 20               NOP
048e95: 20               NOP
048e96: 20               NOP
048e97: 20               NOP
048e98: 20               NOP
048e99: 20               NOP
048e9a: 20               NOP
048e9b: 20               NOP
048e9c: 20               NOP
048e9d: 20               NOP
048e9e: 20               NOP
048e9f: 20               NOP
048ea0: 20               NOP
048ea1: 20               NOP
048ea2: 20               NOP
048ea3: 20               NOP
048ea4: 20               NOP
048ea5: 20               NOP
048ea6: 20               NOP
048ea7: 20               NOP
048ea8: 20               NOP
048ea9: 20               NOP
048eaa: 20               NOP
048eab: 20               NOP
048eac: 20               NOP
048ead: 20               NOP
048eae: 20               NOP
048eaf: 20               NOP
048eb0: 20               NOP
048eb1: 20               NOP
048eb2: 20               NOP
048eb3: 20               NOP
048eb4: 20               NOP
048eb5: 20               NOP
048eb6: 20               NOP
048eb7: 20               NOP
048eb8: 20               NOP
048eb9: 20               NOP
048eba: 20               NOP
048ebb: 20               NOP
048ebc: 20               NOP
048ebd: 20               NOP
048ebe: 20               NOP
048ebf: 20               NOP
048ec0: 20               NOP
048ec1: 20               NOP
048ec2: 20               NOP
048ec3: 20               NOP
048ec4: 20               NOP
048ec5: 20               NOP
048ec6: 20               NOP
048ec7: 20               NOP
048ec8: 20               NOP
048ec9: 20               NOP
048eca: 20               NOP
048ecb: 20               NOP
048ecc: 20               NOP
048ecd: 20               NOP
048ece: 20               NOP
048ecf: 20               NOP
048ed0: 20               NOP
048ed1: 20               NOP
048ed2: 20               NOP
048ed3: 20               NOP
048ed4: 20               NOP
048ed5: 20               NOP
048ed6: 20               NOP
048ed7: 20               NOP
048ed8: 20               NOP
048ed9: 20               NOP
048eda: 20               NOP
048edb: 20               NOP
048edc: 20               NOP
048edd: 20               NOP
048ede: 20               NOP
048edf: 20               NOP
048ee0: 20               NOP
048ee1: 20               NOP
048ee2: 20               NOP
048ee3: 20               NOP
048ee4: 20               NOP
048ee5: 20               NOP
048ee6: 20               NOP
048ee7: 20               NOP
048ee8: 20               NOP
048ee9: 20               NOP
048eea: 20               NOP
048eeb: 20               NOP
048eec: 20               NOP
048eed: 20               NOP
048eee: 20               NOP
048eef: 20               NOP
048ef0: 20               NOP
048ef1: 20               NOP
048ef2: 20               NOP
048ef3: 20               NOP
048ef4: 20               NOP
048ef5: 20               NOP
048ef6: 20               NOP
048ef7: 20               NOP
048ef8: 20               NOP
048ef9: 20               NOP
048efa: 20               NOP
048efb: 20               NOP
048efc: 20               NOP
048efd: 20               NOP
048efe: 20               NOP
048eff: 20               NOP
048f00: 20               NOP
048f01: 20               NOP
048f02: 20               NOP
048f03: 20               NOP
048f04: 20               NOP
048f05: 20               NOP
048f06: 20               NOP
048f07: 20               NOP
048f08: 20               NOP
048f09: 20               NOP
048f0a: 20               NOP
048f0b: 20               NOP
048f0c: 20               NOP
048f0d: 20               NOP
048f0e: 20               NOP
048f0f: 20               NOP
048f10: 20               NOP
048f11: 20               NOP
048f12: 20               NOP
048f13: 20               NOP
048f14: 20               NOP
048f15: 20               NOP
048f16: 20               NOP
048f17: 20               NOP
048f18: 20               NOP
048f19: 20               NOP
048f1a: 20               NOP
048f1b: 20               NOP
048f1c: 20               NOP
048f1d: 20               NOP
048f1e: 20               NOP
048f1f: 20               NOP
048f20: 20               NOP
048f21: 20               NOP
048f22: 20               NOP
048f23: 20               NOP
048f24: 20               NOP
048f25: 20               NOP
048f26: 20               NOP
048f27: 20               NOP
048f28: 20               NOP
048f29: 20               NOP
048f2a: 20               NOP
048f2b: 20               NOP
048f2c: 20               NOP
048f2d: 20               NOP
048f2e: 20               NOP
048f2f: 20               NOP
048f30: 20               NOP
048f31: 20               NOP
048f32: 20               NOP
048f33: 20               NOP
048f34: 20               NOP
048f35: 20               NOP
048f36: 20               NOP
048f37: 20               NOP
048f38: 20               NOP
048f39: 20               NOP
048f3a: 20               NOP
048f3b: 20               NOP
048f3c: 20               NOP
048f3d: 20               NOP
048f3e: 20               NOP
048f3f: 20               NOP
048f40: 20               NOP
048f41: 20               NOP
048f42: 20               NOP
048f43: 20               NOP
048f44: 20               NOP
048f45: 20               NOP
048f46: 20               NOP
048f47: 20               NOP
048f48: 20               NOP
048f49: 20               NOP
048f4a: 20               NOP
048f4b: 20               NOP
048f4c: 20               NOP
048f4d: 20               NOP
048f4e: 20               NOP
048f4f: 20               NOP
048f50: 20               NOP
048f51: 20               NOP
048f52: 20               NOP
048f53: 20               NOP
048f54: 20               NOP
048f55: 20               NOP
048f56: 20               NOP
048f57: 20               NOP
048f58: 20               NOP
048f59: 20               NOP
048f5a: 20               NOP
048f5b: 20               NOP
048f5c: 20               NOP
048f5d: 20               NOP
048f5e: 20               NOP
048f5f: 20               NOP
048f60: 20               NOP
048f61: 20               NOP
048f62: 20               NOP
048f63: 20               NOP
048f64: 20               NOP
048f65: 20               NOP
048f66: 20               NOP
048f67: 20               NOP
048f68: 20               NOP
048f69: 20               NOP
048f6a: 20               NOP
048f6b: 20               NOP
048f6c: 20               NOP
048f6d: 20               NOP
048f6e: 20               NOP
048f6f: 20               NOP
048f70: 20               NOP
048f71: 20               NOP
048f72: 20               NOP
048f73: 20               NOP
048f74: 20               NOP
048f75: 20               NOP
048f76: 20               NOP
048f77: 20               NOP
048f78: 20               NOP
048f79: 20               NOP
048f7a: 20               NOP
048f7b: 20               NOP
048f7c: 20               NOP
048f7d: 20               NOP
048f7e: 20               NOP
048f7f: 20               NOP
048f80: 20               NOP
048f81: 20               NOP
048f82: 20               NOP
048f83: 20               NOP
048f84: 20               NOP
048f85: 20               NOP
048f86: 20               NOP
048f87: 20               NOP
048f88: 20               NOP
048f89: 20               NOP
048f8a: 20               NOP
048f8b: 20               NOP
048f8c: 20               NOP
048f8d: 20               NOP
048f8e: 20               NOP
048f8f: 20               NOP
048f90: 20               NOP
048f91: 20               NOP
048f92: 20               NOP
048f93: 20               NOP
048f94: 20               NOP
048f95: 20               NOP
048f96: 20               NOP
048f97: 20               NOP
048f98: 20               NOP
048f99: 20               NOP
048f9a: 20               NOP
048f9b: 20               NOP
048f9c: 20               NOP
048f9d: 20               NOP
048f9e: 20               NOP
048f9f: 20               NOP
048fa0: 20               NOP
048fa1: 20               NOP
048fa2: 20               NOP
048fa3: 20               NOP
048fa4: 20               NOP
048fa5: 20               NOP
048fa6: 20               NOP
048fa7: 20               NOP
048fa8: 20               NOP
048fa9: 20               NOP
048faa: 20               NOP
048fab: 20               NOP
048fac: 20               NOP
048fad: 20               NOP
048fae: 20               NOP
048faf: 20               NOP
048fb0: 20               NOP
048fb1: 20               NOP
048fb2: 20               NOP
048fb3: 20               NOP
048fb4: 20               NOP
048fb5: 20               NOP
048fb6: 20               NOP
048fb7: 20               NOP
048fb8: 20               NOP
048fb9: 20               NOP
048fba: 20               NOP
048fbb: 20               NOP
048fbc: 20               NOP
048fbd: 20               NOP
048fbe: 20               NOP
048fbf: 20               NOP
048fc0: 20               NOP
048fc1: 20               NOP
048fc2: 20               NOP
048fc3: 20               NOP
048fc4: 20               NOP
048fc5: 20               NOP
048fc6: 20               NOP
048fc7: 20               NOP
048fc8: 20               NOP
048fc9: 20               NOP
048fca: 20               NOP
048fcb: 20               NOP
048fcc: 20               NOP
048fcd: 20               NOP
048fce: 20               NOP
048fcf: 20               NOP
048fd0: 20               NOP
048fd1: 20               NOP
048fd2: 20               NOP
048fd3: 20               NOP
048fd4: 20               NOP
048fd5: 20               NOP
048fd6: 20               NOP
048fd7: 20               NOP
048fd8: 20               NOP
048fd9: 20               NOP
048fda: 20               NOP
048fdb: 20               NOP
048fdc: 20               NOP
048fdd: 20               NOP
048fde: 20               NOP
048fdf: 20               NOP
048fe0: 20               NOP
048fe1: 20               NOP
048fe2: 20               NOP
048fe3: 20               NOP
048fe4: 20               NOP
048fe5: 20               NOP
048fe6: 20               NOP
048fe7: 20               NOP
048fe8: 20               NOP
048fe9: 20               NOP
048fea: 20               NOP
048feb: 20               NOP
048fec: 20               NOP
048fed: 20               NOP
048fee: 20               NOP
048fef: 20               NOP
048ff0: 20               NOP
048ff1: 20               NOP
048ff2: 20               NOP
048ff3: 20               NOP
048ff4: 20               NOP
048ff5: 20               NOP
048ff6: 20               NOP
048ff7: 20               NOP
048ff8: 20               NOP
048ff9: 20               NOP
048ffa: 20               NOP
048ffb: 20               NOP
048ffc: 20               NOP
048ffd: 20               NOP
048ffe: 20               NOP
048fff: 20               NOP
049000: 20               NOP
049001: 20               NOP
049002: 20               NOP
049003: 20               NOP
049004: 20               NOP
049005: 20               NOP
049006: 20               NOP
049007: 20               NOP
049008: 20               NOP
049009: 20               NOP
04900a: 20               NOP
04900b: 20               NOP
04900c: 20               NOP
04900d: 20               NOP
04900e: 20               NOP
04900f: 20               NOP
049010: 20               NOP
049011: 20               NOP
049012: 20               NOP
049013: 20               NOP
049014: 20               NOP
049015: 20               NOP
049016: 20               NOP
049017: 20               NOP
049018: 20               NOP
049019: 20               NOP
04901a: 20               NOP
04901b: 20               NOP
04901c: 20               NOP
04901d: 20               NOP
04901e: 20               NOP
04901f: 20               NOP
049020: 20               NOP
049021: 20               NOP
049022: 20               NOP
049023: 20               NOP
049024: 20               NOP
049025: 20               NOP
049026: 20               NOP
049027: 20               NOP
049028: 20               NOP
049029: 20               NOP
04902a: 20               NOP
04902b: 20               NOP
04902c: 20               NOP
04902d: 20               NOP
04902e: 20               NOP
04902f: 20               NOP
049030: 20               NOP
049031: 20               NOP
049032: 20               NOP
049033: 20               NOP
049034: 20               NOP
049035: 20               NOP
049036: 20               NOP
049037: 20               NOP
049038: 20               NOP
049039: 20               NOP
04903a: 20               NOP
04903b: 20               NOP
04903c: 20               NOP
04903d: 20               NOP
04903e: 20               NOP
04903f: 20               NOP
049040: 20               NOP
049041: 20               NOP
049042: 20               NOP
049043: 20               NOP
049044: 20               NOP
049045: 20               NOP
049046: 20               NOP
049047: 20               NOP
049048: 20               NOP
049049: 20               NOP
04904a: 20               NOP
04904b: 20               NOP
04904c: 20               NOP
04904d: 20               NOP
04904e: 20               NOP
04904f: 20               NOP
049050: 20               NOP
049051: 20               NOP
049052: 20               NOP
049053: 20               NOP
049054: 20               NOP
049055: 20               NOP
049056: 20               NOP
049057: 20               NOP
049058: 20               NOP
049059: 20               NOP
04905a: 20               NOP
04905b: 20               NOP
04905c: 20               NOP
04905d: 20               NOP
04905e: 20               NOP
04905f: 20               NOP
049060: 20               NOP
049061: 20               NOP
049062: 20               NOP
049063: 20               NOP
049064: 20               NOP
049065: 20               NOP
049066: 20               NOP
049067: 20               NOP
049068: 20               NOP
049069: 20               NOP
04906a: 20               NOP
04906b: 20               NOP
04906c: 20               NOP
04906d: 20               NOP
04906e: 20               NOP
04906f: 20               NOP
049070: 20               NOP
049071: 20               NOP
049072: 20               NOP
049073: 20               NOP
049074: 20               NOP
049075: 20               NOP
049076: 20               NOP
049077: 20               NOP
049078: 20               NOP
049079: 20               NOP
04907a: 20               NOP
04907b: 20               NOP
04907c: 20               NOP
04907d: 20               NOP
04907e: 20               NOP
04907f: 20               NOP
049080: 20               NOP
049081: 20               NOP
049082: 20               NOP
049083: 20               NOP
049084: 20               NOP
049085: 20               NOP
049086: 20               NOP
049087: 20               NOP
049088: 20               NOP
049089: 20               NOP
04908a: 20               NOP
04908b: 20               NOP
04908c: 20               NOP
04908d: 20               NOP
04908e: 20               NOP
04908f: 20               NOP
049090: 20               NOP
049091: 20               NOP
049092: 20               NOP
049093: 20               NOP
049094: 20               NOP
049095: 20               NOP
049096: 20               NOP
049097: 20               NOP
049098: 20               NOP
049099: 20               NOP
04909a: 20               NOP
04909b: 20               NOP
04909c: 20               NOP
04909d: 20               NOP
04909e: 20               NOP
04909f: 20               NOP
0490a0: 20               NOP
0490a1: 20               NOP
0490a2: 20               NOP
0490a3: 20               NOP
0490a4: 20               NOP
0490a5: 20               NOP
0490a6: 20               NOP
0490a7: 20               NOP
0490a8: 20               NOP
0490a9: 20               NOP
0490aa: 20               NOP
0490ab: 20               NOP
0490ac: 20               NOP
0490ad: 20               NOP
0490ae: 20               NOP
0490af: 20               NOP
0490b0: 20               NOP
0490b1: 20               NOP
0490b2: 20               NOP
0490b3: 20               NOP
0490b4: 20               NOP
0490b5: 20               NOP
0490b6: 20               NOP
0490b7: 20               NOP
0490b8: 20               NOP
0490b9: 20               NOP
0490ba: 20               NOP
0490bb: 20               NOP
0490bc: 20               NOP
0490bd: 20               NOP
0490be: 20               NOP
0490bf: 20               NOP
0490c0: 20               NOP
0490c1: 20               NOP
0490c2: 20               NOP
0490c3: 20               NOP
0490c4: 20               NOP
0490c5: 20               NOP
0490c6: 20               NOP
0490c7: 20               NOP
0490c8: 20               NOP
0490c9: 20               NOP
0490ca: 20               NOP
0490cb: 20               NOP
0490cc: 20               NOP
0490cd: 20               NOP
0490ce: 20               NOP
0490cf: 20               NOP
0490d0: 20               NOP
0490d1: 20               NOP
0490d2: 20               NOP
0490d3: 20               NOP
0490d4: 20               NOP
0490d5: 20               NOP
0490d6: 20               NOP
0490d7: 20               NOP
0490d8: 20               NOP
0490d9: 20               NOP
0490da: 20               NOP
0490db: 20               NOP
0490dc: 20               NOP
0490dd: 20               NOP
0490de: 20               NOP
0490df: 20               NOP
0490e0: 20               NOP
0490e1: 20               NOP
0490e2: 20               NOP
0490e3: 20               NOP
0490e4: 20               NOP
0490e5: 20               NOP
0490e6: 20               NOP
0490e7: 20               NOP
0490e8: 20               NOP
0490e9: 20               NOP
0490ea: 20               NOP
0490eb: 20               NOP
0490ec: 20               NOP
0490ed: 20               NOP
0490ee: 20               NOP
0490ef: 20               NOP
0490f0: 20               NOP
0490f1: 20               NOP
0490f2: 20               NOP
0490f3: 20               NOP
0490f4: 20               NOP
0490f5: 20               NOP
0490f6: 20               NOP
0490f7: 20               NOP
0490f8: 20               NOP
0490f9: 20               NOP
0490fa: 20               NOP
0490fb: 20               NOP
0490fc: 20               NOP
0490fd: 20               NOP
0490fe: 20               NOP
0490ff: 20               NOP
049100: 20               NOP
049101: 20               NOP
049102: 20               NOP
049103: 20               NOP
049104: 20               NOP
049105: 20               NOP
049106: 20               NOP
049107: 20               NOP
049108: 20               NOP
049109: 20               NOP
04910a: 20               NOP
04910b: 20               NOP
04910c: 20               NOP
04910d: 20               NOP
04910e: 20               NOP
04910f: 20               NOP
049110: 20               NOP
049111: 20               NOP
049112: 20               NOP
049113: 20               NOP
049114: 20               NOP
049115: 20               NOP
049116: 20               NOP
049117: 20               NOP
049118: 20               NOP
049119: 20               NOP
04911a: 20               NOP
04911b: 20               NOP
04911c: 20               NOP
04911d: 20               NOP
04911e: 20               NOP
04911f: 20               NOP
049120: 20               NOP
049121: 20               NOP
049122: 20               NOP
049123: 20               NOP
049124: 20               NOP
049125: 20               NOP
049126: 20               NOP
049127: 20               NOP
049128: 20               NOP
049129: 20               NOP
04912a: 20               NOP
04912b: 20               NOP
04912c: 20               NOP
04912d: 20               NOP
04912e: 20               NOP
04912f: 20               NOP
049130: 20               NOP
049131: 20               NOP
049132: 20               NOP
049133: 20               NOP
049134: 20               NOP
049135: 20               NOP
049136: 20               NOP
049137: 20               NOP
049138: 20               NOP
049139: 20               NOP
04913a: 20               NOP
04913b: 20               NOP
04913c: 20               NOP
04913d: 20               NOP
04913e: 20               NOP
04913f: 20               NOP
049140: 20               NOP
049141: 20               NOP
049142: 20               NOP
049143: 20               NOP
049144: 20               NOP
049145: 20               NOP
049146: 20               NOP
049147: 20               NOP
049148: 20               NOP
049149: 20               NOP
04914a: 20               NOP
04914b: 20               NOP
04914c: 20               NOP
04914d: 20               NOP
04914e: 20               NOP
04914f: 20               NOP
049150: 20               NOP
049151: 20               NOP
049152: 20               NOP
049153: 20               NOP
049154: 20               NOP
049155: 20               NOP
049156: 20               NOP
049157: 20               NOP
049158: 20               NOP
049159: 20               NOP
04915a: 20               NOP
04915b: 20               NOP
04915c: 20               NOP
04915d: 20               NOP
04915e: 20               NOP
04915f: 20               NOP
049160: 20               NOP
049161: 20               NOP
049162: 20               NOP
049163: 20               NOP
049164: 20               NOP
049165: 20               NOP
049166: 20               NOP
049167: 20               NOP
049168: 20               NOP
049169: 20               NOP
04916a: 20               NOP
04916b: 20               NOP
04916c: 20               NOP
04916d: 20               NOP
04916e: 20               NOP
04916f: 20               NOP
049170: 20               NOP
049171: 20               NOP
049172: 20               NOP
049173: 20               NOP
049174: 20               NOP
049175: 20               NOP
049176: 20               NOP
049177: 20               NOP
049178: 20               NOP
049179: 20               NOP
04917a: 20               NOP
04917b: 20               NOP
04917c: 20               NOP
04917d: 20               NOP
04917e: 20               NOP
04917f: 20               NOP
049180: 20               NOP
049181: 20               NOP
049182: 20               NOP
049183: 20               NOP
049184: 20               NOP
049185: 20               NOP
049186: 20               NOP
049187: 20               NOP
049188: 20               NOP
049189: 20               NOP
04918a: 20               NOP
04918b: 20               NOP
04918c: 20               NOP
04918d: 20               NOP
04918e: 20               NOP
04918f: 20               NOP
049190: 20               NOP
049191: 20               NOP
049192: 20               NOP
049193: 20               NOP
049194: 20               NOP
049195: 20               NOP
049196: 20               NOP
049197: 20               NOP
049198: 20               NOP
049199: 20               NOP
04919a: 20               NOP
04919b: 20               NOP
04919c: 20               NOP
04919d: 20               NOP
04919e: 20               NOP
04919f: 20               NOP
0491a0: 20               NOP
0491a1: 20               NOP
0491a2: 20               NOP
0491a3: 20               NOP
0491a4: 20               NOP
0491a5: 20               NOP
0491a6: 20               NOP
0491a7: 20               NOP
0491a8: 20               NOP
0491a9: 20               NOP
0491aa: 20               NOP
0491ab: 20               NOP
0491ac: 20               NOP
0491ad: 20               NOP
0491ae: 20               NOP
0491af: 20               NOP
0491b0: 20               NOP
0491b1: 20               NOP
0491b2: 20               NOP
0491b3: 20               NOP
0491b4: 20               NOP
0491b5: 20               NOP
0491b6: 20               NOP
0491b7: 20               NOP
0491b8: 20               NOP
0491b9: 20               NOP
0491ba: 20               NOP
0491bb: 20               NOP
0491bc: 20               NOP
0491bd: 20               NOP
0491be: 20               NOP
0491bf: 20               NOP
0491c0: 20               NOP
0491c1: 20               NOP
0491c2: 20               NOP
0491c3: 20               NOP
0491c4: 20               NOP
0491c5: 20               NOP
0491c6: 20               NOP
0491c7: 20               NOP
0491c8: 20               NOP
0491c9: 20               NOP
0491ca: 20               NOP
0491cb: 20               NOP
0491cc: 20               NOP
0491cd: 20               NOP
0491ce: 20               NOP
0491cf: 20               NOP
0491d0: 20               NOP
0491d1: 20               NOP
0491d2: 20               NOP
0491d3: 20               NOP
0491d4: 20               NOP
0491d5: 20               NOP
0491d6: 20               NOP
0491d7: 20               NOP
0491d8: 20               NOP
0491d9: 20               NOP
0491da: 20               NOP
0491db: 20               NOP
0491dc: 20               NOP
0491dd: 20               NOP
0491de: 20               NOP
0491df: 20               NOP
0491e0: 20               NOP
0491e1: 20               NOP
0491e2: 20               NOP
0491e3: 20               NOP
0491e4: 20               NOP
0491e5: 20               NOP
0491e6: 20               NOP
0491e7: 20               NOP
0491e8: 20               NOP
0491e9: 20               NOP
0491ea: 20               NOP
0491eb: 20               NOP
0491ec: 20               NOP
0491ed: 20               NOP
0491ee: 20               NOP
0491ef: 20               NOP
0491f0: 20               NOP
0491f1: 20               NOP
0491f2: 20               NOP
0491f3: 20               NOP
0491f4: 20               NOP
0491f5: 20               NOP
0491f6: 20               NOP
0491f7: 20               NOP
0491f8: 20               NOP
0491f9: 20               NOP
0491fa: 20               NOP
0491fb: 20               NOP
0491fc: 20               NOP
0491fd: 20               NOP
0491fe: 20               NOP
0491ff: 20               NOP
049200: 20               NOP
049201: 20               NOP
049202: 20               NOP
049203: 20               NOP
049204: 20               NOP
049205: 20               NOP
049206: 20               NOP
049207: 20               NOP
049208: 20               NOP
049209: 20               NOP
04920a: 20               NOP
04920b: 20               NOP
04920c: 20               NOP
04920d: 20               NOP
04920e: 20               NOP
04920f: 20               NOP
049210: 20               NOP
049211: 20               NOP
049212: 20               NOP
049213: 20               NOP
049214: 20               NOP
049215: 20               NOP
049216: 20               NOP
049217: 20               NOP
049218: 20               NOP
049219: 20               NOP
04921a: 20               NOP
04921b: 20               NOP
04921c: 20               NOP
04921d: 20               NOP
04921e: 20               NOP
04921f: 20               NOP
049220: 20               NOP
049221: 20               NOP
049222: 20               NOP
049223: 20               NOP
049224: 20               NOP
049225: 20               NOP
049226: 20               NOP
049227: 20               NOP
049228: 20               NOP
049229: 20               NOP
04922a: 20               NOP
04922b: 20               NOP
04922c: 20               NOP
04922d: 20               NOP
04922e: 20               NOP
04922f: 20               NOP
049230: 20               NOP
049231: 20               NOP
049232: 20               NOP
049233: 20               NOP
049234: 20               NOP
049235: 20               NOP
049236: 20               NOP
049237: 20               NOP
049238: 20               NOP
049239: 20               NOP
04923a: 20               NOP
04923b: 20               NOP
04923c: 20               NOP
04923d: 20               NOP
04923e: 20               NOP
04923f: 20               NOP
049240: 20               NOP
049241: 20               NOP
049242: 20               NOP
049243: 20               NOP
049244: 20               NOP
049245: 20               NOP
049246: 20               NOP
049247: 20               NOP
049248: 20               NOP
049249: 20               NOP
04924a: 20               NOP
04924b: 20               NOP
04924c: 20               NOP
04924d: 20               NOP
04924e: 20               NOP
04924f: 20               NOP
049250: 20               NOP
049251: 20               NOP
049252: 20               NOP
049253: 20               NOP
049254: 20               NOP
049255: 20               NOP
049256: 20               NOP
049257: 20               NOP
049258: 20               NOP
049259: 20               NOP
04925a: 20               NOP
04925b: 20               NOP
04925c: 20               NOP
04925d: 20               NOP
04925e: 20               NOP
04925f: 20               NOP
049260: 20               NOP
049261: 20               NOP
049262: 20               NOP
049263: 20               NOP
049264: 20               NOP
049265: 20               NOP
049266: 20               NOP
049267: 20               NOP
049268: 20               NOP
049269: 20               NOP
04926a: 20               NOP
04926b: 20               NOP
04926c: 20               NOP
04926d: 20               NOP
04926e: 20               NOP
04926f: 20               NOP
049270: 20               NOP
049271: 20               NOP
049272: 20               NOP
049273: 20               NOP
049274: 20               NOP
049275: 20               NOP
049276: 20               NOP
049277: 20               NOP
049278: 20               NOP
049279: 20               NOP
04927a: 20               NOP
04927b: 20               NOP
04927c: 20               NOP
04927d: 20               NOP
04927e: 20               NOP
04927f: 20               NOP
049280: 20               NOP
049281: 20               NOP
049282: 20               NOP
049283: 20               NOP
049284: 20               NOP
049285: 20               NOP
049286: 20               NOP
049287: 20               NOP
049288: 20               NOP
049289: 20               NOP
04928a: 20               NOP
04928b: 20               NOP
04928c: 20               NOP
04928d: 20               NOP
04928e: 20               NOP
04928f: 20               NOP
049290: 20               NOP
049291: 20               NOP
049292: 20               NOP
049293: 20               NOP
049294: 20               NOP
049295: 20               NOP
049296: 20               NOP
049297: 20               NOP
049298: 20               NOP
049299: 20               NOP
04929a: 20               NOP
04929b: 20               NOP
04929c: 20               NOP
04929d: 20               NOP
04929e: 20               NOP
04929f: 20               NOP
0492a0: 20               NOP
0492a1: 20               NOP
0492a2: 20               NOP
0492a3: 20               NOP
0492a4: 20               NOP
0492a5: 20               NOP
0492a6: 20               NOP
0492a7: 20               NOP
0492a8: 20               NOP
0492a9: 20               NOP
0492aa: 20               NOP
0492ab: 20               NOP
0492ac: 20               NOP
0492ad: 20               NOP
0492ae: 20               NOP
0492af: 20               NOP
0492b0: 20               NOP
0492b1: 20               NOP
0492b2: 20               NOP
0492b3: 20               NOP
0492b4: 20               NOP
0492b5: 20               NOP
0492b6: 20               NOP
0492b7: 20               NOP
0492b8: 20               NOP
0492b9: 20               NOP
0492ba: 20               NOP
0492bb: 20               NOP
0492bc: 20               NOP
0492bd: 20               NOP
0492be: 20               NOP
0492bf: 20               NOP
0492c0: 20               NOP
0492c1: 20               NOP
0492c2: 20               NOP
0492c3: 20               NOP
0492c4: 20               NOP
0492c5: 20               NOP
0492c6: 20               NOP
0492c7: 20               NOP
0492c8: 20               NOP
0492c9: 20               NOP
0492ca: 20               NOP
0492cb: 20               NOP
0492cc: 20               NOP
0492cd: 20               NOP
0492ce: 20               NOP
0492cf: 20               NOP
0492d0: 20               NOP
0492d1: 20               NOP
0492d2: 20               NOP
0492d3: 20               NOP
0492d4: 20               NOP
0492d5: 20               NOP
0492d6: 20               NOP
0492d7: 20               NOP
0492d8: 20               NOP
0492d9: 20               NOP
0492da: 20               NOP
0492db: 20               NOP
0492dc: 20               NOP
0492dd: 20               NOP
0492de: 20               NOP
0492df: 20               NOP
0492e0: 20               NOP
0492e1: 20               NOP
0492e2: 20               NOP
0492e3: 20               NOP
0492e4: 20               NOP
0492e5: 20               NOP
0492e6: 20               NOP
0492e7: 20               NOP
0492e8: 20               NOP
0492e9: 20               NOP
0492ea: 20               NOP
0492eb: 20               NOP
0492ec: 20               NOP
0492ed: 20               NOP
0492ee: 20               NOP
0492ef: 20               NOP
0492f0: 20               NOP
0492f1: 20               NOP
0492f2: 20               NOP
0492f3: 20               NOP
0492f4: 20               NOP
0492f5: 20               NOP
0492f6: 20               NOP
0492f7: 20               NOP
0492f8: 20               NOP
0492f9: 20               NOP
0492fa: 20               NOP
0492fb: 20               NOP
0492fc: 20               NOP
0492fd: 20               NOP
0492fe: 20               NOP
0492ff: 20               NOP
049300: 20               NOP
049301: 20               NOP
049302: 20               NOP
049303: 20               NOP
049304: 20               NOP
049305: 20               NOP
049306: 20               NOP
049307: 20               NOP
049308: 20               NOP
049309: 20               NOP
04930a: 20               NOP
04930b: 20               NOP
04930c: 20               NOP
04930d: 20               NOP
04930e: 20               NOP
04930f: 20               NOP
049310: 20               NOP
049311: 20               NOP
049312: 20               NOP
049313: 20               NOP
049314: 20               NOP
049315: 20               NOP
049316: 20               NOP
049317: 20               NOP
049318: 20               NOP
049319: 20               NOP
04931a: 20               NOP
04931b: 20               NOP
04931c: 20               NOP
04931d: 20               NOP
04931e: 20               NOP
04931f: 20               NOP
049320: 20               NOP
049321: 20               NOP
049322: 20               NOP
049323: 20               NOP
049324: 20               NOP
049325: 20               NOP
049326: 20               NOP
049327: 20               NOP
049328: 20               NOP
049329: 20               NOP
04932a: 20               NOP
04932b: 20               NOP
04932c: 20               NOP
04932d: 20               NOP
04932e: 20               NOP
04932f: 20               NOP
049330: 20               NOP
049331: 20               NOP
049332: 20               NOP
049333: 20               NOP
049334: 20               NOP
049335: 20               NOP
049336: 20               NOP
049337: 20               NOP
049338: 20               NOP
049339: 20               NOP
04933a: 20               NOP
04933b: 20               NOP
04933c: 20               NOP
04933d: 20               NOP
04933e: 20               NOP
04933f: 20               NOP
049340: 20               NOP
049341: 20               NOP
049342: 20               NOP
049343: 20               NOP
049344: 20               NOP
049345: 20               NOP
049346: 20               NOP
049347: 20               NOP
049348: 20               NOP
049349: 20               NOP
04934a: 20               NOP
04934b: 20               NOP
04934c: 20               NOP
04934d: 20               NOP
04934e: 20               NOP
04934f: 20               NOP
049350: 20               NOP
049351: 20               NOP
049352: 20               NOP
049353: 20               NOP
049354: 20               NOP
049355: 20               NOP
049356: 20               NOP
049357: 20               NOP
049358: 20               NOP
049359: 20               NOP
04935a: 20               NOP
04935b: 20               NOP
04935c: 20               NOP
04935d: 20               NOP
04935e: 20               NOP
04935f: 20               NOP
049360: 20               NOP
049361: 20               NOP
049362: 20               NOP
049363: 20               NOP
049364: 20               NOP
049365: 20               NOP
049366: 20               NOP
049367: 20               NOP
049368: 20               NOP
049369: 20               NOP
04936a: 20               NOP
04936b: 20               NOP
04936c: 20               NOP
04936d: 20               NOP
04936e: 20               NOP
04936f: 20               NOP
049370: 20               NOP
049371: 20               NOP
049372: 20               NOP
049373: 20               NOP
049374: 20               NOP
049375: 20               NOP
049376: 20               NOP
049377: 20               NOP
049378: 20               NOP
049379: 20               NOP
04937a: 20               NOP
04937b: 20               NOP
04937c: 20               NOP
04937d: 20               NOP
04937e: 20               NOP
04937f: 20               NOP
049380: 20               NOP
049381: 20               NOP
049382: 20               NOP
049383: 20               NOP
049384: 20               NOP
049385: 20               NOP
049386: 20               NOP
049387: 20               NOP
049388: 20               NOP
049389: 20               NOP
04938a: 20               NOP
04938b: 20               NOP
04938c: 20               NOP
04938d: 20               NOP
04938e: 20               NOP
04938f: 20               NOP
049390: 20               NOP
049391: 20               NOP
049392: 20               NOP
049393: 20               NOP
049394: 20               NOP
049395: 20               NOP
049396: 20               NOP
049397: 20               NOP
049398: 20               NOP
049399: 20               NOP
04939a: 20               NOP
04939b: 20               NOP
04939c: 20               NOP
04939d: 20               NOP
04939e: 20               NOP
04939f: 20               NOP
0493a0: 20               NOP
0493a1: 20               NOP
0493a2: 20               NOP
0493a3: 20               NOP
0493a4: 20               NOP
0493a5: 20               NOP
0493a6: 20               NOP
0493a7: 20               NOP
0493a8: 20               NOP
0493a9: 20               NOP
0493aa: 20               NOP
0493ab: 20               NOP
0493ac: 20               NOP
0493ad: 20               NOP
0493ae: 20               NOP
0493af: 20               NOP
0493b0: 20               NOP
0493b1: 20               NOP
0493b2: 20               NOP
0493b3: 20               NOP
0493b4: 20               NOP
0493b5: 20               NOP
0493b6: 20               NOP
0493b7: 20               NOP
0493b8: 20               NOP
0493b9: 20               NOP
0493ba: 20               NOP
0493bb: 20               NOP
0493bc: 20               NOP
0493bd: 20               NOP
0493be: 20               NOP
0493bf: 20               NOP
0493c0: 20               NOP
0493c1: 20               NOP
0493c2: 20               NOP
0493c3: 20               NOP
0493c4: 20               NOP
0493c5: 20               NOP
0493c6: 20               NOP
0493c7: 20               NOP
0493c8: 20               NOP
0493c9: 20               NOP
0493ca: 20               NOP
0493cb: 20               NOP
0493cc: 20               NOP
0493cd: 20               NOP
0493ce: 20               NOP
0493cf: 20               NOP
0493d0: 20               NOP
0493d1: 20               NOP
0493d2: 20               NOP
0493d3: 20               NOP
0493d4: 20               NOP
0493d5: 20               NOP
0493d6: 20               NOP
0493d7: 20               NOP
0493d8: 20               NOP
0493d9: 20               NOP
0493da: 20               NOP
0493db: 20               NOP
0493dc: 20               NOP
0493dd: 20               NOP
0493de: 20               NOP
0493df: 20               NOP
0493e0: 20               NOP
0493e1: 20               NOP
0493e2: 20               NOP
0493e3: 20               NOP
0493e4: 20               NOP
0493e5: 20               NOP
0493e6: 20               NOP
0493e7: 20               NOP
0493e8: 20               NOP
0493e9: 20               NOP
0493ea: 20               NOP
0493eb: 20               NOP
0493ec: 20               NOP
0493ed: 20               NOP
0493ee: 20               NOP
0493ef: 20               NOP
0493f0: 20               NOP
0493f1: 20               NOP
0493f2: 20               NOP
0493f3: 20               NOP
0493f4: 20               NOP
0493f5: 20               NOP
0493f6: 20               NOP
0493f7: 20               NOP
0493f8: 20               NOP
0493f9: 20               NOP
0493fa: 20               NOP
0493fb: 20               NOP
0493fc: 20               NOP
0493fd: 20               NOP
0493fe: 20               NOP
0493ff: 20               NOP
049400: 20               NOP
049401: 20               NOP
049402: 20               NOP
049403: 20               NOP
049404: 20               NOP
049405: 20               NOP
049406: 20               NOP
049407: 20               NOP
049408: 20               NOP
049409: 20               NOP
04940a: 20               NOP
04940b: 20               NOP
04940c: 20               NOP
04940d: 20               NOP
04940e: 20               NOP
04940f: 20               NOP
049410: 20               NOP
049411: 20               NOP
049412: 20               NOP
049413: 20               NOP
049414: 20               NOP
049415: 20               NOP
049416: 20               NOP
049417: 20               NOP
049418: 20               NOP
049419: 20               NOP
04941a: 20               NOP
04941b: 20               NOP
04941c: 20               NOP
04941d: 20               NOP
04941e: 20               NOP
04941f: 20               NOP
049420: 20               NOP
049421: 20               NOP
049422: 20               NOP
049423: 20               NOP
049424: 20               NOP
049425: 20               NOP
049426: 20               NOP
049427: 20               NOP
049428: 20               NOP
049429: 20               NOP
04942a: 20               NOP
04942b: 20               NOP
04942c: 20               NOP
04942d: 20               NOP
04942e: 20               NOP
04942f: 20               NOP
049430: 20               NOP
049431: 20               NOP
049432: 20               NOP
049433: 20               NOP
049434: 20               NOP
049435: 20               NOP
049436: 20               NOP
049437: 20               NOP
049438: 20               NOP
049439: 20               NOP
04943a: 20               NOP
04943b: 20               NOP
04943c: 20               NOP
04943d: 20               NOP
04943e: 20               NOP
04943f: 20               NOP
049440: 20               NOP
049441: 20               NOP
049442: 20               NOP
049443: 20               NOP
049444: 20               NOP
049445: 20               NOP
049446: 20               NOP
049447: 20               NOP
049448: 20               NOP
049449: 20               NOP
04944a: 20               NOP
04944b: 20               NOP
04944c: 20               NOP
04944d: 20               NOP
04944e: 20               NOP
04944f: 20               NOP
049450: 20               NOP
049451: 20               NOP
049452: 20               NOP
049453: 20               NOP
049454: 20               NOP
049455: 20               NOP
049456: 20               NOP
049457: 20               NOP
049458: 20               NOP
049459: 20               NOP
04945a: 20               NOP
04945b: 20               NOP
04945c: 20               NOP
04945d: 20               NOP
04945e: 20               NOP
04945f: 20               NOP
049460: 20               NOP
049461: 20               NOP
049462: 20               NOP
049463: 20               NOP
049464: 20               NOP
049465: 20               NOP
049466: 20               NOP
049467: 20               NOP
049468: 20               NOP
049469: 20               NOP
04946a: 20               NOP
04946b: 20               NOP
04946c: 20               NOP
04946d: 20               NOP
04946e: 20               NOP
04946f: 20               NOP
049470: 20               NOP
049471: 20               NOP
049472: 20               NOP
049473: 20               NOP
049474: 20               NOP
049475: 20               NOP
049476: 20               NOP
049477: 20               NOP
049478: 20               NOP
049479: 20               NOP
04947a: 20               NOP
04947b: 20               NOP
04947c: 20               NOP
04947d: 20               NOP
04947e: 20               NOP
04947f: 20               NOP
049480: 20               NOP
049481: 20               NOP
049482: 20               NOP
049483: 20               NOP
049484: 20               NOP
049485: 20               NOP
049486: 20               NOP
049487: 20               NOP
049488: 20               NOP
049489: 20               NOP
04948a: 20               NOP
04948b: 20               NOP
04948c: 20               NOP
04948d: 20               NOP
04948e: 20               NOP
04948f: 20               NOP
049490: 20               NOP
049491: 20               NOP
049492: 20               NOP
049493: 20               NOP
049494: 20               NOP
049495: 20               NOP
049496: 20               NOP
049497: 20               NOP
049498: 20               NOP
049499: 20               NOP
04949a: 20               NOP
04949b: 20               NOP
04949c: 20               NOP
04949d: 20               NOP
04949e: 20               NOP
04949f: 20               NOP
0494a0: 20               NOP
0494a1: 20               NOP
0494a2: 20               NOP
0494a3: 20               NOP
0494a4: 20               NOP
0494a5: 20               NOP
0494a6: 20               NOP
0494a7: 20               NOP
0494a8: 20               NOP
0494a9: 20               NOP
0494aa: 20               NOP
0494ab: 20               NOP
0494ac: 20               NOP
0494ad: 20               NOP
0494ae: 20               NOP
0494af: 20               NOP
0494b0: 20               NOP
0494b1: 20               NOP
0494b2: 20               NOP
0494b3: 20               NOP
0494b4: 20               NOP
0494b5: 20               NOP
0494b6: 20               NOP
0494b7: 20               NOP
0494b8: 20               NOP
0494b9: 20               NOP
0494ba: 20               NOP
0494bb: 20               NOP
0494bc: 20               NOP
0494bd: 20               NOP
0494be: 20               NOP
0494bf: 20               NOP
0494c0: 20               NOP
0494c1: 20               NOP
0494c2: 20               NOP
0494c3: 20               NOP
0494c4: 20               NOP
0494c5: 20               NOP
0494c6: 20               NOP
0494c7: 20               NOP
0494c8: 20               NOP
0494c9: 20               NOP
0494ca: 20               NOP
0494cb: 20               NOP
0494cc: 20               NOP
0494cd: 20               NOP
0494ce: 20               NOP
0494cf: 20               NOP
0494d0: 20               NOP
0494d1: 20               NOP
0494d2: 20               NOP
0494d3: 20               NOP
0494d4: 20               NOP
0494d5: 20               NOP
0494d6: 20               NOP
0494d7: 20               NOP
0494d8: 20               NOP
0494d9: 20               NOP
0494da: 20               NOP
0494db: 20               NOP
0494dc: 20               NOP
0494dd: 20               NOP
0494de: 20               NOP
0494df: 20               NOP
0494e0: 20               NOP
0494e1: 20               NOP
0494e2: 20               NOP
0494e3: 20               NOP
0494e4: 20               NOP
0494e5: 20               NOP
0494e6: 20               NOP
0494e7: 20               NOP
0494e8: 20               NOP
0494e9: 20               NOP
0494ea: 20               NOP
0494eb: 20               NOP
0494ec: 20               NOP
0494ed: 20               NOP
0494ee: 20               NOP
0494ef: 20               NOP
0494f0: 20               NOP
0494f1: 20               NOP
0494f2: 20               NOP
0494f3: 20               NOP
0494f4: 20               NOP
0494f5: 20               NOP
0494f6: 20               NOP
0494f7: 20               NOP
0494f8: 20               NOP
0494f9: 20               NOP
0494fa: 20               NOP
0494fb: 20               NOP
0494fc: 20               NOP
0494fd: 20               NOP
0494fe: 20               NOP
0494ff: 20               NOP
049500: 20               NOP
049501: 20               NOP
049502: 20               NOP
049503: 20               NOP
049504: 20               NOP
049505: 20               NOP
049506: 20               NOP
049507: 20               NOP
049508: 20               NOP
049509: 20               NOP
04950a: 20               NOP
04950b: 20               NOP
04950c: 20               NOP
04950d: 20               NOP
04950e: 20               NOP
04950f: 20               NOP
049510: 20               NOP
049511: 20               NOP
049512: 20               NOP
049513: 20               NOP
049514: 20               NOP
049515: 20               NOP
049516: 20               NOP
049517: 20               NOP
049518: 20               NOP
049519: 20               NOP
04951a: 20               NOP
04951b: 20               NOP
04951c: 20               NOP
04951d: 20               NOP
04951e: 20               NOP
04951f: 20               NOP
049520: 20               NOP
049521: 20               NOP
049522: 20               NOP
049523: 20               NOP
049524: 20               NOP
049525: 20               NOP
049526: 20               NOP
049527: 20               NOP
049528: 20               NOP
049529: 20               NOP
04952a: 20               NOP
04952b: 20               NOP
04952c: 20               NOP
04952d: 20               NOP
04952e: 20               NOP
04952f: 20               NOP
049530: 20               NOP
049531: 20               NOP
049532: 20               NOP
049533: 20               NOP
049534: 20               NOP
049535: 20               NOP
049536: 20               NOP
049537: 20               NOP
049538: 20               NOP
049539: 20               NOP
04953a: 20               NOP
04953b: 20               NOP
04953c: 20               NOP
04953d: 20               NOP
04953e: 20               NOP
04953f: 20               NOP
049540: 20               NOP
049541: 20               NOP
049542: 20               NOP
049543: 20               NOP
049544: 20               NOP
049545: 20               NOP
049546: 20               NOP
049547: 20               NOP
049548: 20               NOP
049549: 20               NOP
04954a: 20               NOP
04954b: 20               NOP
04954c: 20               NOP
04954d: 20               NOP
04954e: 20               NOP
04954f: 20               NOP
049550: 20               NOP
049551: 20               NOP
049552: 20               NOP
049553: 20               NOP
049554: 20               NOP
049555: 20               NOP
049556: 20               NOP
049557: 20               NOP
049558: 20               NOP
049559: 20               NOP
04955a: 20               NOP
04955b: 20               NOP
04955c: 20               NOP
04955d: 20               NOP
04955e: 20               NOP
04955f: 20               NOP
049560: 20               NOP
049561: 20               NOP
049562: 20               NOP
049563: 20               NOP
049564: 20               NOP
049565: 20               NOP
049566: 20               NOP
049567: 20               NOP
049568: 20               NOP
049569: 20               NOP
04956a: 20               NOP
04956b: 20               NOP
04956c: 20               NOP
04956d: 20               NOP
04956e: 20               NOP
04956f: 20               NOP
049570: 20               NOP
049571: 20               NOP
049572: 20               NOP
049573: 20               NOP
049574: 20               NOP
049575: 20               NOP
049576: 20               NOP
049577: 20               NOP
049578: 20               NOP
049579: 20               NOP
04957a: 20               NOP
04957b: 20               NOP
04957c: 20               NOP
04957d: 20               NOP
04957e: 20               NOP
04957f: 20               NOP
049580: 20               NOP
049581: 20               NOP
049582: 20               NOP
049583: 20               NOP
049584: 20               NOP
049585: 20               NOP
049586: 20               NOP
049587: 20               NOP
049588: 20               NOP
049589: 20               NOP
04958a: 20               NOP
04958b: 20               NOP
04958c: 20               NOP
04958d: 20               NOP
04958e: 20               NOP
04958f: 20               NOP
049590: 20               NOP
049591: 20               NOP
049592: 20               NOP
049593: 20               NOP
049594: 20               NOP
049595: 20               NOP
049596: 20               NOP
049597: 20               NOP
049598: 20               NOP
049599: 20               NOP
04959a: 20               NOP
04959b: 20               NOP
04959c: 20               NOP
04959d: 20               NOP
04959e: 20               NOP
04959f: 20               NOP
0495a0: 20               NOP
0495a1: 20               NOP
0495a2: 20               NOP
0495a3: 20               NOP
0495a4: 20               NOP
0495a5: 20               NOP
0495a6: 20               NOP
0495a7: 20               NOP
0495a8: 20               NOP
0495a9: 20               NOP
0495aa: 20               NOP
0495ab: 20               NOP
0495ac: 20               NOP
0495ad: 20               NOP
0495ae: 20               NOP
0495af: 20               NOP
0495b0: 20               NOP
0495b1: 20               NOP
0495b2: 20               NOP
0495b3: 20               NOP
0495b4: 20               NOP
0495b5: 20               NOP
0495b6: 20               NOP
0495b7: 20               NOP
0495b8: 20               NOP
0495b9: 20               NOP
0495ba: 20               NOP
0495bb: 20               NOP
0495bc: 20               NOP
0495bd: 20               NOP
0495be: 20               NOP
0495bf: 20               NOP
0495c0: 20               NOP
0495c1: 20               NOP
0495c2: 20               NOP
0495c3: 20               NOP
0495c4: 20               NOP
0495c5: 20               NOP
0495c6: 20               NOP
0495c7: 20               NOP
0495c8: 20               NOP
0495c9: 20               NOP
0495ca: 20               NOP
0495cb: 20               NOP
0495cc: 20               NOP
0495cd: 20               NOP
0495ce: 20               NOP
0495cf: 20               NOP
0495d0: 20               NOP
0495d1: 20               NOP
0495d2: 20               NOP
0495d3: 20               NOP
0495d4: 20               NOP
0495d5: 20               NOP
0495d6: 20               NOP
0495d7: 20               NOP
0495d8: 20               NOP
0495d9: 20               NOP
0495da: 20               NOP
0495db: 20               NOP
0495dc: 20               NOP
0495dd: 20               NOP
0495de: 20               NOP
0495df: 20               NOP
0495e0: 20               NOP
0495e1: 20               NOP
0495e2: 20               NOP
0495e3: 20               NOP
0495e4: 20               NOP
0495e5: 20               NOP
0495e6: 20               NOP
0495e7: 20               NOP
0495e8: 20               NOP
0495e9: 20               NOP
0495ea: 20               NOP
0495eb: 20               NOP
0495ec: 20               NOP
0495ed: 20               NOP
0495ee: 20               NOP
0495ef: 20               NOP
0495f0: 20               NOP
0495f1: 20               NOP
0495f2: 20               NOP
0495f3: 20               NOP
0495f4: 20               NOP
0495f5: 20               NOP
0495f6: 20               NOP
0495f7: 20               NOP
0495f8: 20               NOP
0495f9: 20               NOP
0495fa: 20               NOP
0495fb: 20               NOP
0495fc: 20               NOP
0495fd: 20               NOP
0495fe: 20               NOP
0495ff: 20               NOP
049600: 20               NOP
049601: 20               NOP
049602: 20               NOP
049603: 20               NOP
049604: 20               NOP
049605: 20               NOP
049606: 20               NOP
049607: 20               NOP
049608: 20               NOP
049609: 20               NOP
04960a: 20               NOP
04960b: 20               NOP
04960c: 20               NOP
04960d: 20               NOP
04960e: 20               NOP
04960f: 20               NOP
049610: 20               NOP
049611: 20               NOP
049612: 20               NOP
049613: 20               NOP
049614: 20               NOP
049615: 20               NOP
049616: 20               NOP
049617: 20               NOP
049618: 20               NOP
049619: 20               NOP
04961a: 20               NOP
04961b: 20               NOP
04961c: 20               NOP
04961d: 20               NOP
04961e: 20               NOP
04961f: 20               NOP
049620: 20               NOP
049621: 20               NOP
049622: 20               NOP
049623: 20               NOP
049624: 20               NOP
049625: 20               NOP
049626: 20               NOP
049627: 20               NOP
049628: 20               NOP
049629: 20               NOP
04962a: 20               NOP
04962b: 20               NOP
04962c: 20               NOP
04962d: 20               NOP
04962e: 20               NOP
04962f: 20               NOP
049630: 20               NOP
049631: 20               NOP
049632: 20               NOP
049633: 20               NOP
049634: 20               NOP
049635: 20               NOP
049636: 20               NOP
049637: 20               NOP
049638: 20               NOP
049639: 20               NOP
04963a: 20               NOP
04963b: 20               NOP
04963c: 20               NOP
04963d: 20               NOP
04963e: 20               NOP
04963f: 20               NOP
049640: 20               NOP
049641: 20               NOP
049642: 20               NOP
049643: 20               NOP
049644: 20               NOP
049645: 20               NOP
049646: 20               NOP
049647: 20               NOP
049648: 20               NOP
049649: 20               NOP
04964a: 20               NOP
04964b: 20               NOP
04964c: 20               NOP
04964d: 20               NOP
04964e: 20               NOP
04964f: 20               NOP
049650: 20               NOP
049651: 20               NOP
049652: 20               NOP
049653: 20               NOP
049654: 20               NOP
049655: 20               NOP
049656: 20               NOP
049657: 20               NOP
049658: 20               NOP
049659: 20               NOP
04965a: 20               NOP
04965b: 20               NOP
04965c: 20               NOP
04965d: 20               NOP
04965e: 20               NOP
04965f: 20               NOP
049660: 20               NOP
049661: 20               NOP
049662: 20               NOP
049663: 20               NOP
049664: 20               NOP
049665: 20               NOP
049666: 20               NOP
049667: 20               NOP
049668: 20               NOP
049669: 20               NOP
04966a: 20               NOP
04966b: 20               NOP
04966c: 20               NOP
04966d: 20               NOP
04966e: 20               NOP
04966f: 20               NOP
049670: 20               NOP
049671: 20               NOP
049672: 20               NOP
049673: 20               NOP
049674: 20               NOP
049675: 20               NOP
049676: 20               NOP
049677: 20               NOP
049678: 20               NOP
049679: 20               NOP
04967a: 20               NOP
04967b: 20               NOP
04967c: 20               NOP
04967d: 20               NOP
04967e: 20               NOP
04967f: 20               NOP
049680: 20               NOP
049681: 20               NOP
049682: 20               NOP
049683: 20               NOP
049684: 20               NOP
049685: 20               NOP
049686: 20               NOP
049687: 20               NOP
049688: 20               NOP
049689: 20               NOP
04968a: 20               NOP
04968b: 20               NOP
04968c: 20               NOP
04968d: 20               NOP
04968e: 20               NOP
04968f: 20               NOP
049690: 20               NOP
049691: 20               NOP
049692: 20               NOP
049693: 20               NOP
049694: 20               NOP
049695: 20               NOP
049696: 20               NOP
049697: 20               NOP
049698: 20               NOP
049699: 20               NOP
04969a: 20               NOP
04969b: 20               NOP
04969c: 20               NOP
04969d: 20               NOP
04969e: 20               NOP
04969f: 20               NOP
0496a0: 20               NOP
0496a1: 20               NOP
0496a2: 20               NOP
0496a3: 20               NOP
0496a4: 20               NOP
0496a5: 20               NOP
0496a6: 20               NOP
0496a7: 20               NOP
0496a8: 20               NOP
0496a9: 20               NOP
0496aa: 20               NOP
0496ab: 20               NOP
0496ac: 20               NOP
0496ad: 20               NOP
0496ae: 20               NOP
0496af: 20               NOP
0496b0: 20               NOP
0496b1: 20               NOP
0496b2: 20               NOP
0496b3: 20               NOP
0496b4: 20               NOP
0496b5: 20               NOP
0496b6: 20               NOP
0496b7: 20               NOP
0496b8: 20               NOP
0496b9: 20               NOP
0496ba: 20               NOP
0496bb: 20               NOP
0496bc: 20               NOP
0496bd: 20               NOP
0496be: 20               NOP
0496bf: 20               NOP
0496c0: 20               NOP
0496c1: 20               NOP
0496c2: 20               NOP
0496c3: 20               NOP
0496c4: 20               NOP
0496c5: 20               NOP
0496c6: 20               NOP
0496c7: 20               NOP
0496c8: 20               NOP
0496c9: 20               NOP
0496ca: 20               NOP
0496cb: 20               NOP
0496cc: 20               NOP
0496cd: 20               NOP
0496ce: 20               NOP
0496cf: 20               NOP
0496d0: 20               NOP
0496d1: 20               NOP
0496d2: 20               NOP
0496d3: 20               NOP
0496d4: 20               NOP
0496d5: 20               NOP
0496d6: 20               NOP
0496d7: 20               NOP
0496d8: 20               NOP
0496d9: 20               NOP
0496da: 20               NOP
0496db: 20               NOP
0496dc: 20               NOP
0496dd: 20               NOP
0496de: 20               NOP
0496df: 20               NOP
0496e0: 20               NOP
0496e1: 20               NOP
0496e2: 20               NOP
0496e3: 20               NOP
0496e4: 20               NOP
0496e5: 20               NOP
0496e6: 20               NOP
0496e7: 20               NOP
0496e8: 20               NOP
0496e9: 20               NOP
0496ea: 20               NOP
0496eb: 20               NOP
0496ec: 20               NOP
0496ed: 20               NOP
0496ee: 20               NOP
0496ef: 20               NOP
0496f0: 20               NOP
0496f1: 20               NOP
0496f2: 20               NOP
0496f3: 20               NOP
0496f4: 20               NOP
0496f5: 20               NOP
0496f6: 20               NOP
0496f7: 20               NOP
0496f8: 20               NOP
0496f9: 20               NOP
0496fa: 20               NOP
0496fb: 20               NOP
0496fc: 20               NOP
0496fd: 20               NOP
0496fe: 20               NOP
0496ff: 20               NOP
049700: 20               NOP
049701: 20               NOP
049702: 20               NOP
049703: 20               NOP
049704: 20               NOP
049705: 20               NOP
049706: 20               NOP
049707: 20               NOP
049708: 20               NOP
049709: 20               NOP
04970a: 20               NOP
04970b: 20               NOP
04970c: 20               NOP
04970d: 20               NOP
04970e: 20               NOP
04970f: 20               NOP
049710: 20               NOP
049711: 20               NOP
049712: 20               NOP
049713: 20               NOP
049714: 20               NOP
049715: 20               NOP
049716: 20               NOP
049717: 20               NOP
049718: 20               NOP
049719: 20               NOP
04971a: 20               NOP
04971b: 20               NOP
04971c: 20               NOP
04971d: 20               NOP
04971e: 20               NOP
04971f: 20               NOP
049720: 20               NOP
049721: 20               NOP
049722: 20               NOP
049723: 20               NOP
049724: 20               NOP
049725: 20               NOP
049726: 20               NOP
049727: 20               NOP
049728: 20               NOP
049729: 20               NOP
04972a: 20               NOP
04972b: 20               NOP
04972c: 20               NOP
04972d: 20               NOP
04972e: 20               NOP
04972f: 20               NOP
049730: 20               NOP
049731: 20               NOP
049732: 20               NOP
049733: 20               NOP
049734: 20               NOP
049735: 20               NOP
049736: 20               NOP
049737: 20               NOP
049738: 20               NOP
049739: 20               NOP
04973a: 20               NOP
04973b: 20               NOP
04973c: 20               NOP
04973d: 20               NOP
04973e: 20               NOP
04973f: 20               NOP
049740: 20               NOP
049741: 20               NOP
049742: 20               NOP
049743: 20               NOP
049744: 20               NOP
049745: 20               NOP
049746: 20               NOP
049747: 20               NOP
049748: 20               NOP
049749: 20               NOP
04974a: 20               NOP
04974b: 20               NOP
04974c: 20               NOP
04974d: 20               NOP
04974e: 20               NOP
04974f: 20               NOP
049750: 20               NOP
049751: 20               NOP
049752: 20               NOP
049753: 20               NOP
049754: 20               NOP
049755: 20               NOP
049756: 20               NOP
049757: 20               NOP
049758: 20               NOP
049759: 20               NOP
04975a: 20               NOP
04975b: 20               NOP
04975c: 20               NOP
04975d: 20               NOP
04975e: 20               NOP
04975f: 20               NOP
049760: 20               NOP
049761: 20               NOP
049762: 20               NOP
049763: 20               NOP
049764: 20               NOP
049765: 20               NOP
049766: 20               NOP
049767: 20               NOP
049768: 20               NOP
049769: 20               NOP
04976a: 20               NOP
04976b: 20               NOP
04976c: 20               NOP
04976d: 20               NOP
04976e: 20               NOP
04976f: 20               NOP
049770: 20               NOP
049771: 20               NOP
049772: 20               NOP
049773: 20               NOP
049774: 20               NOP
049775: 20               NOP
049776: 20               NOP
049777: 20               NOP
049778: 20               NOP
049779: 20               NOP
04977a: 20               NOP
04977b: 20               NOP
04977c: 20               NOP
04977d: 20               NOP
04977e: 20               NOP
04977f: 20               NOP
049780: 20               NOP
049781: 20               NOP
049782: 20               NOP
049783: 20               NOP
049784: 20               NOP
049785: 20               NOP
049786: 20               NOP
049787: 20               NOP
049788: 20               NOP
049789: 20               NOP
04978a: 20               NOP
04978b: 20               NOP
04978c: 20               NOP
04978d: 20               NOP
04978e: 20               NOP
04978f: 20               NOP
049790: 20               NOP
049791: 20               NOP
049792: 20               NOP
049793: 20               NOP
049794: 20               NOP
049795: 20               NOP
049796: 20               NOP
049797: 20               NOP
049798: 20               NOP
049799: 20               NOP
04979a: 20               NOP
04979b: 20               NOP
04979c: 20               NOP
04979d: 20               NOP
04979e: 20               NOP
04979f: 20               NOP
0497a0: 20               NOP
0497a1: 20               NOP
0497a2: 20               NOP
0497a3: 20               NOP
0497a4: 20               NOP
0497a5: 20               NOP
0497a6: 20               NOP
0497a7: 20               NOP
0497a8: 20               NOP
0497a9: 20               NOP
0497aa: 20               NOP
0497ab: 20               NOP
0497ac: 20               NOP
0497ad: 20               NOP
0497ae: 20               NOP
0497af: 20               NOP
0497b0: 20               NOP
0497b1: 20               NOP
0497b2: 20               NOP
0497b3: 20               NOP
0497b4: 20               NOP
0497b5: 20               NOP
0497b6: 20               NOP
0497b7: 20               NOP
0497b8: 20               NOP
0497b9: 20               NOP
0497ba: 20               NOP
0497bb: 20               NOP
0497bc: 20               NOP
0497bd: 20               NOP
0497be: 20               NOP
0497bf: 20               NOP
0497c0: 20               NOP
0497c1: 20               NOP
0497c2: 20               NOP
0497c3: 20               NOP
0497c4: 20               NOP
0497c5: 20               NOP
0497c6: 20               NOP
0497c7: 20               NOP
0497c8: 20               NOP
0497c9: 20               NOP
0497ca: 20               NOP
0497cb: 20               NOP
0497cc: 20               NOP
0497cd: 20               NOP
0497ce: 20               NOP
0497cf: 20               NOP
0497d0: 20               NOP
0497d1: 20               NOP
0497d2: 20               NOP
0497d3: 20               NOP
0497d4: 20               NOP
0497d5: 20               NOP
0497d6: 20               NOP
0497d7: 20               NOP
0497d8: 20               NOP
0497d9: 20               NOP
0497da: 20               NOP
0497db: 20               NOP
0497dc: 20               NOP
0497dd: 20               NOP
0497de: 20               NOP
0497df: 20               NOP
0497e0: 20               NOP
0497e1: 20               NOP
0497e2: 20               NOP
0497e3: 20               NOP
0497e4: 20               NOP
0497e5: 20               NOP
0497e6: 20               NOP
0497e7: 20               NOP
0497e8: 20               NOP
0497e9: 20               NOP
0497ea: 20               NOP
0497eb: 20               NOP
0497ec: 20               NOP
0497ed: 20               NOP
0497ee: 20               NOP
0497ef: 20               NOP
0497f0: 20               NOP
0497f1: 20               NOP
0497f2: 20               NOP
0497f3: 20               NOP
0497f4: 20               NOP
0497f5: 20               NOP
0497f6: 20               NOP
0497f7: 20               NOP
0497f8: 20               NOP
0497f9: 20               NOP
0497fa: 20               NOP
0497fb: 20               NOP
0497fc: 20               NOP
0497fd: 20               NOP
0497fe: 20               NOP
0497ff: 20               NOP
049800: 20               NOP
049801: 20               NOP
049802: 20               NOP
049803: 20               NOP
049804: 20               NOP
049805: 20               NOP
049806: 20               NOP
049807: 20               NOP
049808: 20               NOP
049809: 20               NOP
04980a: 20               NOP
04980b: 20               NOP
04980c: 20               NOP
04980d: 20               NOP
04980e: 20               NOP
04980f: 20               NOP
049810: 20               NOP
049811: 20               NOP
049812: 20               NOP
049813: 20               NOP
049814: 20               NOP
049815: 20               NOP
049816: 20               NOP
049817: 20               NOP
049818: 20               NOP
049819: 20               NOP
04981a: 20               NOP
04981b: 20               NOP
04981c: 20               NOP
04981d: 20               NOP
04981e: 20               NOP
04981f: 20               NOP
049820: 20               NOP
049821: 20               NOP
049822: 20               NOP
049823: 20               NOP
049824: 20               NOP
049825: 20               NOP
049826: 20               NOP
049827: 20               NOP
049828: 20               NOP
049829: 20               NOP
04982a: 20               NOP
04982b: 20               NOP
04982c: 20               NOP
04982d: 20               NOP
04982e: 20               NOP
04982f: 20               NOP
049830: 20               NOP
049831: 20               NOP
049832: 20               NOP
049833: 20               NOP
049834: 20               NOP
049835: 20               NOP
049836: 20               NOP
049837: 20               NOP
049838: 20               NOP
049839: 20               NOP
04983a: 20               NOP
04983b: 20               NOP
04983c: 20               NOP
04983d: 20               NOP
04983e: 20               NOP
04983f: 20               NOP
049840: 20               NOP
049841: 20               NOP
049842: 20               NOP
049843: 20               NOP
049844: 20               NOP
049845: 20               NOP
049846: 20               NOP
049847: 20               NOP
049848: 20               NOP
049849: 20               NOP
04984a: 20               NOP
04984b: 20               NOP
04984c: 20               NOP
04984d: 20               NOP
04984e: 20               NOP
04984f: 20               NOP
049850: 20               NOP
049851: 20               NOP
049852: 20               NOP
049853: 20               NOP
049854: 20               NOP
049855: 20               NOP
049856: 20               NOP
049857: 20               NOP
049858: 20               NOP
049859: 20               NOP
04985a: 20               NOP
04985b: 20               NOP
04985c: 20               NOP
04985d: 20               NOP
04985e: 20               NOP
04985f: 20               NOP
049860: 20               NOP
049861: 20               NOP
049862: 20               NOP
049863: 20               NOP
049864: 20               NOP
049865: 20               NOP
049866: 20               NOP
049867: 20               NOP
049868: 20               NOP
049869: 20               NOP
04986a: 20               NOP
04986b: 20               NOP
04986c: 20               NOP
04986d: 20               NOP
04986e: 20               NOP
04986f: 20               NOP
049870: 20               NOP
049871: 20               NOP
049872: 20               NOP
049873: 20               NOP
049874: 20               NOP
049875: 20               NOP
049876: 20               NOP
049877: 20               NOP
049878: 20               NOP
049879: 20               NOP
04987a: 20               NOP
04987b: 20               NOP
04987c: 20               NOP
04987d: 20               NOP
04987e: 20               NOP
04987f: 20               NOP
049880: 20               NOP
049881: 20               NOP
049882: 20               NOP
049883: 20               NOP
049884: 20               NOP
049885: 20               NOP
049886: 20               NOP
049887: 20               NOP
049888: 20               NOP
049889: 20               NOP
04988a: 20               NOP
04988b: 20               NOP
04988c: 20               NOP
04988d: 20               NOP
04988e: 20               NOP
04988f: 20               NOP
049890: 20               NOP
049891: 20               NOP
049892: 20               NOP
049893: 20               NOP
049894: 20               NOP
049895: 20               NOP
049896: 20               NOP
049897: 20               NOP
049898: 20               NOP
049899: 20               NOP
04989a: 20               NOP
04989b: 20               NOP
04989c: 20               NOP
04989d: 20               NOP
04989e: 20               NOP
04989f: 20               NOP
0498a0: 20               NOP
0498a1: 20               NOP
0498a2: 20               NOP
0498a3: 20               NOP
0498a4: 20               NOP
0498a5: 20               NOP
0498a6: 20               NOP
0498a7: 20               NOP
0498a8: 20               NOP
0498a9: 20               NOP
0498aa: 20               NOP
0498ab: 20               NOP
0498ac: 20               NOP
0498ad: 20               NOP
0498ae: 20               NOP
0498af: 20               NOP
0498b0: 20               NOP
0498b1: 20               NOP
0498b2: 20               NOP
0498b3: 20               NOP
0498b4: 20               NOP
0498b5: 20               NOP
0498b6: 20               NOP
0498b7: 20               NOP
0498b8: 20               NOP
0498b9: 20               NOP
0498ba: 20               NOP
0498bb: 20               NOP
0498bc: 20               NOP
0498bd: 20               NOP
0498be: 20               NOP
0498bf: 20               NOP
0498c0: 20               NOP
0498c1: 20               NOP
0498c2: 20               NOP
0498c3: 20               NOP
0498c4: 20               NOP
0498c5: 20               NOP
0498c6: 20               NOP
0498c7: 20               NOP
0498c8: 20               NOP
0498c9: 20               NOP
0498ca: 20               NOP
0498cb: 20               NOP
0498cc: 20               NOP
0498cd: 20               NOP
0498ce: 20               NOP
0498cf: 20               NOP
0498d0: 20               NOP
0498d1: 20               NOP
0498d2: 20               NOP
0498d3: 20               NOP
0498d4: 20               NOP
0498d5: 20               NOP
0498d6: 20               NOP
0498d7: 20               NOP
0498d8: 20               NOP
0498d9: 20               NOP
0498da: 20               NOP
0498db: 20               NOP
0498dc: 20               NOP
0498dd: 20               NOP
0498de: 20               NOP
0498df: 20               NOP
0498e0: 20               NOP
0498e1: 20               NOP
0498e2: 20               NOP
0498e3: 20               NOP
0498e4: 20               NOP
0498e5: 20               NOP
0498e6: 20               NOP
0498e7: 20               NOP
0498e8: 20               NOP
0498e9: 20               NOP
0498ea: 20               NOP
0498eb: 20               NOP
0498ec: 20               NOP
0498ed: 20               NOP
0498ee: 20               NOP
0498ef: 20               NOP
0498f0: 20               NOP
0498f1: 20               NOP
0498f2: 20               NOP
0498f3: 20               NOP
0498f4: 20               NOP
0498f5: 20               NOP
0498f6: 20               NOP
0498f7: 20               NOP
0498f8: 20               NOP
0498f9: 20               NOP
0498fa: 20               NOP
0498fb: 20               NOP
0498fc: 20               NOP
0498fd: 20               NOP
0498fe: 20               NOP
0498ff: 20               NOP
049900: 20               NOP
049901: 20               NOP
049902: 20               NOP
049903: 20               NOP
049904: 20               NOP
049905: 20               NOP
049906: 20               NOP
049907: 20               NOP
049908: 20               NOP
049909: 20               NOP
04990a: 20               NOP
04990b: 20               NOP
04990c: 20               NOP
04990d: 20               NOP
04990e: 20               NOP
04990f: 20               NOP
049910: 20               NOP
049911: 20               NOP
049912: 20               NOP
049913: 20               NOP
049914: 20               NOP
049915: 20               NOP
049916: 20               NOP
049917: 20               NOP
049918: 20               NOP
049919: 20               NOP
04991a: 20               NOP
04991b: 20               NOP
04991c: 20               NOP
04991d: 20               NOP
04991e: 20               NOP
04991f: 20               NOP
049920: 20               NOP
049921: 20               NOP
049922: 20               NOP
049923: 20               NOP
049924: 20               NOP
049925: 20               NOP
049926: 20               NOP
049927: 20               NOP
049928: 20               NOP
049929: 20               NOP
04992a: 20               NOP
04992b: 20               NOP
04992c: 20               NOP
04992d: 20               NOP
04992e: 20               NOP
04992f: 20               NOP
049930: 20               NOP
049931: 20               NOP
049932: 20               NOP
049933: 20               NOP
049934: 20               NOP
049935: 20               NOP
049936: 20               NOP
049937: 20               NOP
049938: 20               NOP
049939: 20               NOP
04993a: 20               NOP
04993b: 20               NOP
04993c: 20               NOP
04993d: 20               NOP
04993e: 20               NOP
04993f: 20               NOP
049940: 20               NOP
049941: 20               NOP
049942: 20               NOP
049943: 20               NOP
049944: 20               NOP
049945: 20               NOP
049946: 20               NOP
049947: 20               NOP
049948: 20               NOP
049949: 20               NOP
04994a: 20               NOP
04994b: 20               NOP
04994c: 20               NOP
04994d: 20               NOP
04994e: 20               NOP
04994f: 20               NOP
049950: 20               NOP
049951: 20               NOP
049952: 20               NOP
049953: 20               NOP
049954: 20               NOP
049955: 20               NOP
049956: 20               NOP
049957: 20               NOP
049958: 20               NOP
049959: 20               NOP
04995a: 20               NOP
04995b: 20               NOP
04995c: 20               NOP
04995d: 20               NOP
04995e: 20               NOP
04995f: 20               NOP
049960: 20               NOP
049961: 20               NOP
049962: 20               NOP
049963: 20               NOP
049964: 20               NOP
049965: 20               NOP
049966: 20               NOP
049967: 20               NOP
049968: 20               NOP
049969: 20               NOP
04996a: 20               NOP
04996b: 20               NOP
04996c: 20               NOP
04996d: 20               NOP
04996e: 20               NOP
04996f: 20               NOP
049970: 20               NOP
049971: 20               NOP
049972: 20               NOP
049973: 20               NOP
049974: 20               NOP
049975: 20               NOP
049976: 20               NOP
049977: 20               NOP
049978: 20               NOP
049979: 20               NOP
04997a: 20               NOP
04997b: 20               NOP
04997c: 20               NOP
04997d: 20               NOP
04997e: 20               NOP
04997f: 20               NOP
049980: 20               NOP
049981: 20               NOP
049982: 20               NOP
049983: 20               NOP
049984: 20               NOP
049985: 20               NOP
049986: 20               NOP
049987: 20               NOP
049988: 20               NOP
049989: 20               NOP
04998a: 20               NOP
04998b: 20               NOP
04998c: 20               NOP
04998d: 20               NOP
04998e: 20               NOP
04998f: 20               NOP
049990: 20               NOP
049991: 20               NOP
049992: 20               NOP
049993: 20               NOP
049994: 20               NOP
049995: 20               NOP
049996: 20               NOP
049997: 20               NOP
049998: 20               NOP
049999: 20               NOP
04999a: 20               NOP
04999b: 20               NOP
04999c: 20               NOP
04999d: 20               NOP
04999e: 20               NOP
04999f: 20               NOP
0499a0: 20               NOP
0499a1: 20               NOP
0499a2: 20               NOP
0499a3: 20               NOP
0499a4: 20               NOP
0499a5: 20               NOP
0499a6: 20               NOP
0499a7: 20               NOP
0499a8: 20               NOP
0499a9: 20               NOP
0499aa: 20               NOP
0499ab: 20               NOP
0499ac: 20               NOP
0499ad: 20               NOP
0499ae: 20               NOP
0499af: 20               NOP
0499b0: 20               NOP
0499b1: 20               NOP
0499b2: 20               NOP
0499b3: 20               NOP
0499b4: 20               NOP
0499b5: 20               NOP
0499b6: 20               NOP
0499b7: 20               NOP
0499b8: 20               NOP
0499b9: 20               NOP
0499ba: 20               NOP
0499bb: 20               NOP
0499bc: 20               NOP
0499bd: 20               NOP
0499be: 20               NOP
0499bf: 20               NOP
0499c0: 20               NOP
0499c1: 20               NOP
0499c2: 20               NOP
0499c3: 20               NOP
0499c4: 20               NOP
0499c5: 20               NOP
0499c6: 20               NOP
0499c7: 20               NOP
0499c8: 20               NOP
0499c9: 20               NOP
0499ca: 20               NOP
0499cb: 20               NOP
0499cc: 20               NOP
0499cd: 20               NOP
0499ce: 20               NOP
0499cf: 20               NOP
0499d0: 20               NOP
0499d1: 20               NOP
0499d2: 20               NOP
0499d3: 20               NOP
0499d4: 20               NOP
0499d5: 20               NOP
0499d6: 20               NOP
0499d7: 20               NOP
0499d8: 20               NOP
0499d9: 20               NOP
0499da: 20               NOP
0499db: 20               NOP
0499dc: 20               NOP
0499dd: 20               NOP
0499de: 20               NOP
0499df: 20               NOP
0499e0: 20               NOP
0499e1: 20               NOP
0499e2: 20               NOP
0499e3: 20               NOP
0499e4: 20               NOP
0499e5: 20               NOP
0499e6: 20               NOP
0499e7: 20               NOP
0499e8: 20               NOP
0499e9: 20               NOP
0499ea: 20               NOP
0499eb: 20               NOP
0499ec: 20               NOP
0499ed: 20               NOP
0499ee: 20               NOP
0499ef: 20               NOP
0499f0: 20               NOP
0499f1: 20               NOP
0499f2: 20               NOP
0499f3: 20               NOP
0499f4: 20               NOP
0499f5: 20               NOP
0499f6: 20               NOP
0499f7: 20               NOP
0499f8: 20               NOP
0499f9: 20               NOP
0499fa: 20               NOP
0499fb: 20               NOP
0499fc: 20               NOP
0499fd: 20               NOP
0499fe: 20               NOP
0499ff: 20               NOP
049a00: 20               NOP
049a01: 20               NOP
049a02: 20               NOP
049a03: 20               NOP
049a04: 20               NOP
049a05: 20               NOP
049a06: 20               NOP
049a07: 20               NOP
049a08: 20               NOP
049a09: 20               NOP
049a0a: 20               NOP
049a0b: 20               NOP
049a0c: 20               NOP
049a0d: 20               NOP
049a0e: 20               NOP
049a0f: 20               NOP
049a10: 20               NOP
049a11: 20               NOP
049a12: 20               NOP
049a13: 20               NOP
049a14: 20               NOP
049a15: 20               NOP
049a16: 20               NOP
049a17: 20               NOP
049a18: 20               NOP
049a19: 20               NOP
049a1a: 20               NOP
049a1b: 20               NOP
049a1c: 20               NOP
049a1d: 20               NOP
049a1e: 20               NOP
049a1f: 20               NOP
049a20: 20               NOP
049a21: 20               NOP
049a22: 20               NOP
049a23: 20               NOP
049a24: 20               NOP
049a25: 20               NOP
049a26: 20               NOP
049a27: 20               NOP
049a28: 20               NOP
049a29: 20               NOP
049a2a: 20               NOP
049a2b: 20               NOP
049a2c: 20               NOP
049a2d: 20               NOP
049a2e: 20               NOP
049a2f: 20               NOP
049a30: 20               NOP
049a31: 20               NOP
049a32: 20               NOP
049a33: 20               NOP
049a34: 20               NOP
049a35: 20               NOP
049a36: 20               NOP
049a37: 20               NOP
049a38: 20               NOP
049a39: 20               NOP
049a3a: 20               NOP
049a3b: 20               NOP
049a3c: 20               NOP
049a3d: 20               NOP
049a3e: 20               NOP
049a3f: 20               NOP
049a40: 20               NOP
049a41: 20               NOP
049a42: 20               NOP
049a43: 20               NOP
049a44: 20               NOP
049a45: 20               NOP
049a46: 20               NOP
049a47: 20               NOP
049a48: 20               NOP
049a49: 20               NOP
049a4a: 20               NOP
049a4b: 20               NOP
049a4c: 20               NOP
049a4d: 20               NOP
049a4e: 20               NOP
049a4f: 20               NOP
049a50: 20               NOP
049a51: 20               NOP
049a52: 20               NOP
049a53: 20               NOP
049a54: 20               NOP
049a55: 20               NOP
049a56: 20               NOP
049a57: 20               NOP
049a58: 20               NOP
049a59: 20               NOP
049a5a: 20               NOP
049a5b: 20               NOP
049a5c: 20               NOP
049a5d: 20               NOP
049a5e: 20               NOP
049a5f: 20               NOP
049a60: 20               NOP
049a61: 20               NOP
049a62: 20               NOP
049a63: 20               NOP
049a64: 20               NOP
049a65: 20               NOP
049a66: 20               NOP
049a67: 20               NOP
049a68: 20               NOP
049a69: 20               NOP
049a6a: 20               NOP
049a6b: 20               NOP
049a6c: 20               NOP
049a6d: 20               NOP
049a6e: 20               NOP
049a6f: 20               NOP
049a70: 20               NOP
049a71: 20               NOP
049a72: 20               NOP
049a73: 20               NOP
049a74: 20               NOP
049a75: 20               NOP
049a76: 20               NOP
049a77: 20               NOP
049a78: 20               NOP
049a79: 20               NOP
049a7a: 20               NOP
049a7b: 20               NOP
049a7c: 20               NOP
049a7d: 20               NOP
049a7e: 20               NOP
049a7f: 20               NOP
049a80: 20               NOP
049a81: 20               NOP
049a82: 20               NOP
049a83: 20               NOP
049a84: 20               NOP
049a85: 20               NOP
049a86: 20               NOP
049a87: 20               NOP
049a88: 20               NOP
049a89: 20               NOP
049a8a: 20               NOP
049a8b: 20               NOP
049a8c: 20               NOP
049a8d: 20               NOP
049a8e: 20               NOP
049a8f: 20               NOP
049a90: 20               NOP
049a91: 20               NOP
049a92: 20               NOP
049a93: 20               NOP
049a94: 20               NOP
049a95: 20               NOP
049a96: 20               NOP
049a97: 20               NOP
049a98: 20               NOP
049a99: 20               NOP
049a9a: 20               NOP
049a9b: 20               NOP
049a9c: 20               NOP
049a9d: 20               NOP
049a9e: 20               NOP
049a9f: 20               NOP
049aa0: 20               NOP
049aa1: 20               NOP
049aa2: 20               NOP
049aa3: 20               NOP
049aa4: 20               NOP
049aa5: 20               NOP
049aa6: 20               NOP
049aa7: 20               NOP
049aa8: 20               NOP
049aa9: 20               NOP
049aaa: 20               NOP
049aab: 20               NOP
049aac: 20               NOP
049aad: 20               NOP
049aae: 20               NOP
049aaf: 20               NOP
049ab0: 20               NOP
049ab1: 20               NOP
049ab2: 20               NOP
049ab3: 20               NOP
049ab4: 20               NOP
049ab5: 20               NOP
049ab6: 20               NOP
049ab7: 20               NOP
049ab8: 20               NOP
049ab9: 20               NOP
049aba: 20               NOP
049abb: 20               NOP
049abc: 20               NOP
049abd: 20               NOP
049abe: 20               NOP
049abf: 20               NOP
049ac0: 20               NOP
049ac1: 20               NOP
049ac2: 20               NOP
049ac3: 20               NOP
049ac4: 20               NOP
049ac5: 20               NOP
049ac6: 20               NOP
049ac7: 20               NOP
049ac8: 20               NOP
049ac9: 20               NOP
049aca: 20               NOP
049acb: 20               NOP
049acc: 20               NOP
049acd: 20               NOP
049ace: 20               NOP
049acf: 20               NOP
049ad0: 20               NOP
049ad1: 20               NOP
049ad2: 20               NOP
049ad3: 20               NOP
049ad4: 20               NOP
049ad5: 20               NOP
049ad6: 20               NOP
049ad7: 20               NOP
049ad8: 20               NOP
049ad9: 20               NOP
049ada: 20               NOP
049adb: 20               NOP
049adc: 20               NOP
049add: 20               NOP
049ade: 20               NOP
049adf: 20               NOP
049ae0: 20               NOP
049ae1: 20               NOP
049ae2: 20               NOP
049ae3: 20               NOP
049ae4: 20               NOP
049ae5: 20               NOP
049ae6: 20               NOP
049ae7: 20               NOP
049ae8: 20               NOP
049ae9: 20               NOP
049aea: 20               NOP
049aeb: 20               NOP
049aec: 20               NOP
049aed: 20               NOP
049aee: 20               NOP
049aef: 20               NOP
049af0: 20               NOP
049af1: 20               NOP
049af2: 20               NOP
049af3: 20               NOP
049af4: 20               NOP
049af5: 20               NOP
049af6: 20               NOP
049af7: 20               NOP
049af8: 20               NOP
049af9: 20               NOP
049afa: 20               NOP
049afb: 20               NOP
049afc: 20               NOP
049afd: 20               NOP
049afe: 20               NOP
049aff: 20               NOP
049b00: 20               NOP
049b01: 20               NOP
049b02: 20               NOP
049b03: 20               NOP
049b04: 20               NOP
049b05: 20               NOP
049b06: 20               NOP
049b07: 20               NOP
049b08: 20               NOP
049b09: 20               NOP
049b0a: 20               NOP
049b0b: 20               NOP
049b0c: 20               NOP
049b0d: 20               NOP
049b0e: 20               NOP
049b0f: 20               NOP
049b10: 20               NOP
049b11: 20               NOP
049b12: 20               NOP
049b13: 20               NOP
049b14: 20               NOP
049b15: 20               NOP
049b16: 20               NOP
049b17: 20               NOP
049b18: 20               NOP
049b19: 20               NOP
049b1a: 20               NOP
049b1b: 20               NOP
049b1c: 20               NOP
049b1d: 20               NOP
049b1e: 20               NOP
049b1f: 20               NOP
049b20: 20               NOP
049b21: 20               NOP
049b22: 20               NOP
049b23: 20               NOP
049b24: 20               NOP
049b25: 20               NOP
049b26: 20               NOP
049b27: 20               NOP
049b28: 20               NOP
049b29: 20               NOP
049b2a: 20               NOP
049b2b: 20               NOP
049b2c: 20               NOP
049b2d: 20               NOP
049b2e: 20               NOP
049b2f: 20               NOP
049b30: 20               NOP
049b31: 20               NOP
049b32: 20               NOP
049b33: 20               NOP
049b34: 20               NOP
049b35: 20               NOP
049b36: 20               NOP
049b37: 20               NOP
049b38: 20               NOP
049b39: 20               NOP
049b3a: 20               NOP
049b3b: 20               NOP
049b3c: 20               NOP
049b3d: 20               NOP
049b3e: 20               NOP
049b3f: 20               NOP
049b40: 20               NOP
049b41: 20               NOP
049b42: 20               NOP
049b43: 20               NOP
049b44: 20               NOP
049b45: 20               NOP
049b46: 20               NOP
049b47: 20               NOP
049b48: 20               NOP
049b49: 20               NOP
049b4a: 20               NOP
049b4b: 20               NOP
049b4c: 20               NOP
049b4d: 20               NOP
049b4e: 20               NOP
049b4f: 20               NOP
049b50: 20               NOP
049b51: 20               NOP
049b52: 20               NOP
049b53: 20               NOP
049b54: 20               NOP
049b55: 20               NOP
049b56: 20               NOP
049b57: 20               NOP
049b58: 20               NOP
049b59: 20               NOP
049b5a: 20               NOP
049b5b: 20               NOP
049b5c: 20               NOP
049b5d: 20               NOP
049b5e: 20               NOP
049b5f: 20               NOP
049b60: 20               NOP
049b61: 20               NOP
049b62: 20               NOP
049b63: 20               NOP
049b64: 20               NOP
049b65: 20               NOP
049b66: 20               NOP
049b67: 20               NOP
049b68: 20               NOP
049b69: 20               NOP
049b6a: 20               NOP
049b6b: 20               NOP
049b6c: 20               NOP
049b6d: 20               NOP
049b6e: 20               NOP
049b6f: 20               NOP
049b70: 20               NOP
049b71: 20               NOP
049b72: 20               NOP
049b73: 20               NOP
049b74: 20               NOP
049b75: 20               NOP
049b76: 20               NOP
049b77: 20               NOP
049b78: 20               NOP
049b79: 20               NOP
049b7a: 20               NOP
049b7b: 20               NOP
049b7c: 20               NOP
049b7d: 20               NOP
049b7e: 20               NOP
049b7f: 20               NOP
049b80: 20               NOP
049b81: 20               NOP
049b82: 20               NOP
049b83: 20               NOP
049b84: 20               NOP
049b85: 20               NOP
049b86: 20               NOP
049b87: 20               NOP
049b88: 20               NOP
049b89: 20               NOP
049b8a: 20               NOP
049b8b: 20               NOP
049b8c: 20               NOP
049b8d: 20               NOP
049b8e: 20               NOP
049b8f: 20               NOP
049b90: 20               NOP
049b91: 20               NOP
049b92: 20               NOP
049b93: 20               NOP
049b94: 20               NOP
049b95: 20               NOP
049b96: 20               NOP
049b97: 20               NOP
049b98: 20               NOP
049b99: 20               NOP
049b9a: 20               NOP
049b9b: 20               NOP
049b9c: 20               NOP
049b9d: 20               NOP
049b9e: 20               NOP
049b9f: 20               NOP
049ba0: 20               NOP
049ba1: 20               NOP
049ba2: 20               NOP
049ba3: 20               NOP
049ba4: 20               NOP
049ba5: 20               NOP
049ba6: 20               NOP
049ba7: 20               NOP
049ba8: 20               NOP
049ba9: 20               NOP
049baa: 20               NOP
049bab: 20               NOP
049bac: 20               NOP
049bad: 20               NOP
049bae: 20               NOP
049baf: 20               NOP
049bb0: 20               NOP
049bb1: 20               NOP
049bb2: 20               NOP
049bb3: 20               NOP
049bb4: 20               NOP
049bb5: 20               NOP
049bb6: 20               NOP
049bb7: 20               NOP
049bb8: 20               NOP
049bb9: 20               NOP
049bba: 20               NOP
049bbb: 20               NOP
049bbc: 20               NOP
049bbd: 20               NOP
049bbe: 20               NOP
049bbf: 20               NOP
049bc0: 20               NOP
049bc1: 20               NOP
049bc2: 20               NOP
049bc3: 20               NOP
049bc4: 20               NOP
049bc5: 20               NOP
049bc6: 20               NOP
049bc7: 20               NOP
049bc8: 20               NOP
049bc9: 20               NOP
049bca: 20               NOP
049bcb: 20               NOP
049bcc: 20               NOP
049bcd: 20               NOP
049bce: 20               NOP
049bcf: 20               NOP
049bd0: 20               NOP
049bd1: 20               NOP
049bd2: 20               NOP
049bd3: 20               NOP
049bd4: 20               NOP
049bd5: 20               NOP
049bd6: 20               NOP
049bd7: 20               NOP
049bd8: 20               NOP
049bd9: 20               NOP
049bda: 20               NOP
049bdb: 20               NOP
049bdc: 20               NOP
049bdd: 20               NOP
049bde: 20               NOP
049bdf: 20               NOP
049be0: 20               NOP
049be1: 20               NOP
049be2: 20               NOP
049be3: 20               NOP
049be4: 20               NOP
049be5: 20               NOP
049be6: 20               NOP
049be7: 20               NOP
049be8: 20               NOP
049be9: 20               NOP
049bea: 20               NOP
049beb: 20               NOP
049bec: 20               NOP
049bed: 20               NOP
049bee: 20               NOP
049bef: 20               NOP
049bf0: 20               NOP
049bf1: 20               NOP
049bf2: 20               NOP
049bf3: 20               NOP
049bf4: 20               NOP
049bf5: 20               NOP
049bf6: 20               NOP
049bf7: 20               NOP
049bf8: 20               NOP
049bf9: 20               NOP
049bfa: 20               NOP
049bfb: 20               NOP
049bfc: 20               NOP
049bfd: 20               NOP
049bfe: 20               NOP
049bff: 20               NOP
049c00: 20               NOP
049c01: 20               NOP
049c02: 20               NOP
049c03: 20               NOP
049c04: 20               NOP
049c05: 20               NOP
049c06: 20               NOP
049c07: 20               NOP
049c08: 20               NOP
049c09: 20               NOP
049c0a: 20               NOP
049c0b: 20               NOP
049c0c: 20               NOP
049c0d: 20               NOP
049c0e: 20               NOP
049c0f: 20               NOP
049c10: 20               NOP
049c11: 20               NOP
049c12: 20               NOP
049c13: 20               NOP
049c14: 20               NOP
049c15: 20               NOP
049c16: 20               NOP
049c17: 20               NOP
049c18: 20               NOP
049c19: 20               NOP
049c1a: 20               NOP
049c1b: 20               NOP
049c1c: 20               NOP
049c1d: 20               NOP
049c1e: 20               NOP
049c1f: 20               NOP
049c20: 20               NOP
049c21: 20               NOP
049c22: 20               NOP
049c23: 20               NOP
049c24: 20               NOP
049c25: 20               NOP
049c26: 20               NOP
049c27: 20               NOP
049c28: 20               NOP
049c29: 20               NOP
049c2a: 20               NOP
049c2b: 20               NOP
049c2c: 20               NOP
049c2d: 20               NOP
049c2e: 20               NOP
049c2f: 20               NOP
049c30: 20               NOP
049c31: 20               NOP
049c32: 20               NOP
049c33: 20               NOP
049c34: 20               NOP
049c35: 20               NOP
049c36: 20               NOP
049c37: 20               NOP
049c38: 20               NOP
049c39: 20               NOP
049c3a: 20               NOP
049c3b: 20               NOP
049c3c: 20               NOP
049c3d: 20               NOP
049c3e: 20               NOP
049c3f: 20               NOP
049c40: 20               NOP
049c41: 20               NOP
049c42: 20               NOP
049c43: 20               NOP
049c44: 20               NOP
049c45: 20               NOP
049c46: 20               NOP
049c47: 20               NOP
049c48: 20               NOP
049c49: 20               NOP
049c4a: 20               NOP
049c4b: 20               NOP
049c4c: 20               NOP
049c4d: 20               NOP
049c4e: 20               NOP
049c4f: 20               NOP
049c50: 20               NOP
049c51: 20               NOP
049c52: 20               NOP
049c53: 20               NOP
049c54: 20               NOP
049c55: 20               NOP
049c56: 20               NOP
049c57: 20               NOP
049c58: 20               NOP
049c59: 20               NOP
049c5a: 20               NOP
049c5b: 20               NOP
049c5c: 20               NOP
049c5d: 20               NOP
049c5e: 20               NOP
049c5f: 20               NOP
049c60: 20               NOP
049c61: 20               NOP
049c62: 20               NOP
049c63: 20               NOP
049c64: 20               NOP
049c65: 20               NOP
049c66: 20               NOP
049c67: 20               NOP
049c68: 20               NOP
049c69: 20               NOP
049c6a: 20               NOP
049c6b: 20               NOP
049c6c: 20               NOP
049c6d: 20               NOP
049c6e: 20               NOP
049c6f: 20               NOP
049c70: 20               NOP
049c71: 20               NOP
049c72: 20               NOP
049c73: 20               NOP
049c74: 20               NOP
049c75: 20               NOP
049c76: 20               NOP
049c77: 20               NOP
049c78: 20               NOP
049c79: 20               NOP
049c7a: 20               NOP
049c7b: 20               NOP
049c7c: 20               NOP
049c7d: 20               NOP
049c7e: 20               NOP
049c7f: 20               NOP
049c80: 20               NOP
049c81: 20               NOP
049c82: 20               NOP
049c83: 20               NOP
049c84: 20               NOP
049c85: 20               NOP
049c86: 20               NOP
049c87: 20               NOP
049c88: 20               NOP
049c89: 20               NOP
049c8a: 20               NOP
049c8b: 20               NOP
049c8c: 20               NOP
049c8d: 20               NOP
049c8e: 20               NOP
049c8f: 20               NOP
049c90: 20               NOP
049c91: 20               NOP
049c92: 20               NOP
049c93: 20               NOP
049c94: 20               NOP
049c95: 20               NOP
049c96: 20               NOP
049c97: 20               NOP
049c98: 20               NOP
049c99: 20               NOP
049c9a: 20               NOP
049c9b: 20               NOP
049c9c: 20               NOP
049c9d: 20               NOP
049c9e: 20               NOP
049c9f: 20               NOP
049ca0: 20               NOP
049ca1: 20               NOP
049ca2: 20               NOP
049ca3: 20               NOP
049ca4: 20               NOP
049ca5: 20               NOP
049ca6: 20               NOP
049ca7: 20               NOP
049ca8: 20               NOP
049ca9: 20               NOP
049caa: 20               NOP
049cab: 20               NOP
049cac: 20               NOP
049cad: 20               NOP
049cae: 20               NOP
049caf: 20               NOP
049cb0: 20               NOP
049cb1: 20               NOP
049cb2: 20               NOP
049cb3: 20               NOP
049cb4: 20               NOP
049cb5: 20               NOP
049cb6: 20               NOP
049cb7: 20               NOP
049cb8: 20               NOP
049cb9: 20               NOP
049cba: 20               NOP
049cbb: 20               NOP
049cbc: 20               NOP
049cbd: 20               NOP
049cbe: 20               NOP
049cbf: 20               NOP
049cc0: 20               NOP
049cc1: 20               NOP
049cc2: 20               NOP
049cc3: 20               NOP
049cc4: 20               NOP
049cc5: 20               NOP
049cc6: 20               NOP
049cc7: 20               NOP
049cc8: 20               NOP
049cc9: 20               NOP
049cca: 20               NOP
049ccb: 20               NOP
049ccc: 20               NOP
049ccd: 20               NOP
049cce: 20               NOP
049ccf: 20               NOP
049cd0: 20               NOP
049cd1: 20               NOP
049cd2: 20               NOP
049cd3: 20               NOP
049cd4: 20               NOP
049cd5: 20               NOP
049cd6: 20               NOP
049cd7: 20               NOP
049cd8: 20               NOP
049cd9: 20               NOP
049cda: 20               NOP
049cdb: 20               NOP
049cdc: 20               NOP
049cdd: 20               NOP
049cde: 20               NOP
049cdf: 20               NOP
049ce0: 20               NOP
049ce1: 20               NOP
049ce2: 20               NOP
049ce3: 20               NOP
049ce4: 20               NOP
049ce5: 20               NOP
049ce6: 20               NOP
049ce7: 20               NOP
049ce8: 20               NOP
049ce9: 20               NOP
049cea: 20               NOP
049ceb: 20               NOP
049cec: 20               NOP
049ced: 20               NOP
049cee: 20               NOP
049cef: 20               NOP
049cf0: 20               NOP
049cf1: 20               NOP
049cf2: 20               NOP
049cf3: 20               NOP
049cf4: 20               NOP
049cf5: 20               NOP
049cf6: 20               NOP
049cf7: 20               NOP
049cf8: 20               NOP
049cf9: 20               NOP
049cfa: 20               NOP
049cfb: 20               NOP
049cfc: 20               NOP
049cfd: 20               NOP
049cfe: 20               NOP
049cff: 20               NOP
049d00: 20               NOP
049d01: 20               NOP
049d02: 20               NOP
049d03: 20               NOP
049d04: 20               NOP
049d05: 20               NOP
049d06: 20               NOP
049d07: 20               NOP
049d08: 20               NOP
049d09: 20               NOP
049d0a: 20               NOP
049d0b: 20               NOP
049d0c: 20               NOP
049d0d: 20               NOP
049d0e: 20               NOP
049d0f: 20               NOP
049d10: 20               NOP
049d11: 20               NOP
049d12: 20               NOP
049d13: 20               NOP
049d14: 20               NOP
049d15: 20               NOP
049d16: 20               NOP
049d17: 20               NOP
049d18: 20               NOP
049d19: 20               NOP
049d1a: 20               NOP
049d1b: 20               NOP
049d1c: 20               NOP
049d1d: 20               NOP
049d1e: 20               NOP
049d1f: 20               NOP
049d20: 20               NOP
049d21: 20               NOP
049d22: 20               NOP
049d23: 20               NOP
049d24: 20               NOP
049d25: 20               NOP
049d26: 20               NOP
049d27: 20               NOP
049d28: 20               NOP
049d29: 20               NOP
049d2a: 20               NOP
049d2b: 20               NOP
049d2c: 20               NOP
049d2d: 20               NOP
049d2e: 20               NOP
049d2f: 20               NOP
049d30: 20               NOP
049d31: 20               NOP
049d32: 20               NOP
049d33: 20               NOP
049d34: 20               NOP
049d35: 20               NOP
049d36: 20               NOP
049d37: 20               NOP
049d38: 20               NOP
049d39: 20               NOP
049d3a: 20               NOP
049d3b: 20               NOP
049d3c: 20               NOP
049d3d: 20               NOP
049d3e: 20               NOP
049d3f: 20               NOP
049d40: 20               NOP
049d41: 20               NOP
049d42: 20               NOP
049d43: 20               NOP
049d44: 20               NOP
049d45: 20               NOP
049d46: 20               NOP
049d47: 20               NOP
049d48: 20               NOP
049d49: 20               NOP
049d4a: 20               NOP
049d4b: 20               NOP
049d4c: 20               NOP
049d4d: 20               NOP
049d4e: 20               NOP
049d4f: 20               NOP
049d50: 20               NOP
049d51: 20               NOP
049d52: 20               NOP
049d53: 20               NOP
049d54: 20               NOP
049d55: 20               NOP
049d56: 20               NOP
049d57: 20               NOP
049d58: 20               NOP
049d59: 20               NOP
049d5a: 20               NOP
049d5b: 20               NOP
049d5c: 20               NOP
049d5d: 20               NOP
049d5e: 20               NOP
049d5f: 20               NOP
049d60: 20               NOP
049d61: 20               NOP
049d62: 20               NOP
049d63: 20               NOP
049d64: 20               NOP
049d65: 20               NOP
049d66: 20               NOP
049d67: 20               NOP
049d68: 20               NOP
049d69: 20               NOP
049d6a: 20               NOP
049d6b: 20               NOP
049d6c: 20               NOP
049d6d: 20               NOP
049d6e: 20               NOP
049d6f: 20               NOP
049d70: 20               NOP
049d71: 20               NOP
049d72: 20               NOP
049d73: 20               NOP
049d74: 20               NOP
049d75: 20               NOP
049d76: 20               NOP
049d77: 20               NOP
049d78: 20               NOP
049d79: 20               NOP
049d7a: 20               NOP
049d7b: 20               NOP
049d7c: 20               NOP
049d7d: 20               NOP
049d7e: 20               NOP
049d7f: 20               NOP
049d80: 20               NOP
049d81: 20               NOP
049d82: 20               NOP
049d83: 20               NOP
049d84: 20               NOP
049d85: 20               NOP
049d86: 20               NOP
049d87: 20               NOP
049d88: 20               NOP
049d89: 20               NOP
049d8a: 20               NOP
049d8b: 20               NOP
049d8c: 20               NOP
049d8d: 20               NOP
049d8e: 20               NOP
049d8f: 20               NOP
049d90: 20               NOP
049d91: 20               NOP
049d92: 20               NOP
049d93: 20               NOP
049d94: 20               NOP
049d95: 20               NOP
049d96: 20               NOP
049d97: 20               NOP
049d98: 20               NOP
049d99: 20               NOP
049d9a: 20               NOP
049d9b: 20               NOP
049d9c: 20               NOP
049d9d: 20               NOP
049d9e: 20               NOP
049d9f: 20               NOP
049da0: 20               NOP
049da1: 20               NOP
049da2: 20               NOP
049da3: 20               NOP
049da4: 20               NOP
049da5: 20               NOP
049da6: 20               NOP
049da7: 20               NOP
049da8: 20               NOP
049da9: 20               NOP
049daa: 20               NOP
049dab: 20               NOP
049dac: 20               NOP
049dad: 20               NOP
049dae: 20               NOP
049daf: 20               NOP
049db0: 20               NOP
049db1: 20               NOP
049db2: 20               NOP
049db3: 20               NOP
049db4: 20               NOP
049db5: 20               NOP
049db6: 20               NOP
049db7: 20               NOP
049db8: 20               NOP
049db9: 20               NOP
049dba: 20               NOP
049dbb: 20               NOP
049dbc: 20               NOP
049dbd: 20               NOP
049dbe: 20               NOP
049dbf: 20               NOP
049dc0: 20               NOP
049dc1: 20               NOP
049dc2: 20               NOP
049dc3: 20               NOP
049dc4: 20               NOP
049dc5: 20               NOP
049dc6: 20               NOP
049dc7: 20               NOP
049dc8: 20               NOP
049dc9: 20               NOP
049dca: 20               NOP
049dcb: 20               NOP
049dcc: 20               NOP
049dcd: 20               NOP
049dce: 20               NOP
049dcf: 20               NOP
049dd0: 20               NOP
049dd1: 20               NOP
049dd2: 20               NOP
049dd3: 20               NOP
049dd4: 20               NOP
049dd5: 20               NOP
049dd6: 20               NOP
049dd7: 20               NOP
049dd8: 20               NOP
049dd9: 20               NOP
049dda: 20               NOP
049ddb: 20               NOP
049ddc: 20               NOP
049ddd: 20               NOP
049dde: 20               NOP
049ddf: 20               NOP
049de0: 20               NOP
049de1: 20               NOP
049de2: 20               NOP
049de3: 20               NOP
049de4: 20               NOP
049de5: 20               NOP
049de6: 20               NOP
049de7: 20               NOP
049de8: 20               NOP
049de9: 20               NOP
049dea: 20               NOP
049deb: 20               NOP
049dec: 20               NOP
049ded: 20               NOP
049dee: 20               NOP
049def: 20               NOP
049df0: 20               NOP
049df1: 20               NOP
049df2: 20               NOP
049df3: 20               NOP
049df4: 20               NOP
049df5: 20               NOP
049df6: 20               NOP
049df7: 20               NOP
049df8: 20               NOP
049df9: 20               NOP
049dfa: 20               NOP
049dfb: 20               NOP
049dfc: 20               NOP
049dfd: 20               NOP
049dfe: 20               NOP
049dff: 20               NOP
049e00: 20               NOP
049e01: 20               NOP
049e02: 20               NOP
049e03: 20               NOP
049e04: 20               NOP
049e05: 20               NOP
049e06: 20               NOP
049e07: 20               NOP
049e08: 20               NOP
049e09: 20               NOP
049e0a: 20               NOP
049e0b: 20               NOP
049e0c: 20               NOP
049e0d: 20               NOP
049e0e: 20               NOP
049e0f: 20               NOP
049e10: 20               NOP
049e11: 20               NOP
049e12: 20               NOP
049e13: 20               NOP
049e14: 20               NOP
049e15: 20               NOP
049e16: 20               NOP
049e17: 20               NOP
049e18: 20               NOP
049e19: 20               NOP
049e1a: 20               NOP
049e1b: 20               NOP
049e1c: 20               NOP
049e1d: 20               NOP
049e1e: 20               NOP
049e1f: 20               NOP
049e20: 20               NOP
049e21: 20               NOP
049e22: 20               NOP
049e23: 20               NOP
049e24: 20               NOP
049e25: 20               NOP
049e26: 20               NOP
049e27: 20               NOP
049e28: 20               NOP
049e29: 20               NOP
049e2a: 20               NOP
049e2b: 20               NOP
049e2c: 20               NOP
049e2d: 20               NOP
049e2e: 20               NOP
049e2f: 20               NOP
049e30: 20               NOP
049e31: 20               NOP
049e32: 20               NOP
049e33: 20               NOP
049e34: 20               NOP
049e35: 20               NOP
049e36: 20               NOP
049e37: 20               NOP
049e38: 20               NOP
049e39: 20               NOP
049e3a: 20               NOP
049e3b: 20               NOP
049e3c: 20               NOP
049e3d: 20               NOP
049e3e: 20               NOP
049e3f: 20               NOP
049e40: 20               NOP
049e41: 20               NOP
049e42: 20               NOP
049e43: 20               NOP
049e44: 20               NOP
049e45: 20               NOP
049e46: 20               NOP
049e47: 20               NOP
049e48: 20               NOP
049e49: 20               NOP
049e4a: 20               NOP
049e4b: 20               NOP
049e4c: 20               NOP
049e4d: 20               NOP
049e4e: 20               NOP
049e4f: 20               NOP
049e50: 20               NOP
049e51: 20               NOP
049e52: 20               NOP
049e53: 20               NOP
049e54: 20               NOP
049e55: 20               NOP
049e56: 20               NOP
049e57: 20               NOP
049e58: 20               NOP
049e59: 20               NOP
049e5a: 20               NOP
049e5b: 20               NOP
049e5c: 20               NOP
049e5d: 20               NOP
049e5e: 20               NOP
049e5f: 20               NOP
049e60: 20               NOP
049e61: 20               NOP
049e62: 20               NOP
049e63: 20               NOP
049e64: 20               NOP
049e65: 20               NOP
049e66: 20               NOP
049e67: 20               NOP
049e68: 20               NOP
049e69: 20               NOP
049e6a: 20               NOP
049e6b: 20               NOP
049e6c: 20               NOP
049e6d: 20               NOP
049e6e: 20               NOP
049e6f: 20               NOP
049e70: 20               NOP
049e71: 20               NOP
049e72: 20               NOP
049e73: 20               NOP
049e74: 20               NOP
049e75: 20               NOP
049e76: 20               NOP
049e77: 20               NOP
049e78: 20               NOP
049e79: 20               NOP
049e7a: 20               NOP
049e7b: 20               NOP
049e7c: 20               NOP
049e7d: 20               NOP
049e7e: 20               NOP
049e7f: 20               NOP
049e80: 20               NOP
049e81: 20               NOP
049e82: 20               NOP
049e83: 20               NOP
049e84: 20               NOP
049e85: 20               NOP
049e86: 20               NOP
049e87: 20               NOP
049e88: 20               NOP
049e89: 20               NOP
049e8a: 20               NOP
049e8b: 20               NOP
049e8c: 20               NOP
049e8d: 20               NOP
049e8e: 20               NOP
049e8f: 20               NOP
049e90: 20               NOP
049e91: 20               NOP
049e92: 20               NOP
049e93: 20               NOP
049e94: 20               NOP
049e95: 20               NOP
049e96: 20               NOP
049e97: 20               NOP
049e98: 20               NOP
049e99: 20               NOP
049e9a: 20               NOP
049e9b: 20               NOP
049e9c: 20               NOP
049e9d: 20               NOP
049e9e: 20               NOP
049e9f: 20               NOP
049ea0: 20               NOP
049ea1: 20               NOP
049ea2: 20               NOP
049ea3: 20               NOP
049ea4: 20               NOP
049ea5: 20               NOP
049ea6: 20               NOP
049ea7: 20               NOP
049ea8: 20               NOP
049ea9: 20               NOP
049eaa: 20               NOP
049eab: 20               NOP
049eac: 20               NOP
049ead: 20               NOP
049eae: 20               NOP
049eaf: 20               NOP
049eb0: 20               NOP
049eb1: 20               NOP
049eb2: 20               NOP
049eb3: 20               NOP
049eb4: 20               NOP
049eb5: 20               NOP
049eb6: 20               NOP
049eb7: 20               NOP
049eb8: 20               NOP
049eb9: 20               NOP
049eba: 20               NOP
049ebb: 20               NOP
049ebc: 20               NOP
049ebd: 20               NOP
049ebe: 20               NOP
049ebf: 20               NOP
049ec0: 20               NOP
049ec1: 20               NOP
049ec2: 20               NOP
049ec3: 20               NOP
049ec4: 20               NOP
049ec5: 20               NOP
049ec6: 20               NOP
049ec7: 20               NOP
049ec8: 20               NOP
049ec9: 20               NOP
049eca: 20               NOP
049ecb: 20               NOP
049ecc: 20               NOP
049ecd: 20               NOP
049ece: 20               NOP
049ecf: 20               NOP
049ed0: 20               NOP
049ed1: 20               NOP
049ed2: 20               NOP
049ed3: 20               NOP
049ed4: 20               NOP
049ed5: 20               NOP
049ed6: 20               NOP
049ed7: 20               NOP
049ed8: 20               NOP
049ed9: 20               NOP
049eda: 20               NOP
049edb: 20               NOP
049edc: 20               NOP
049edd: 20               NOP
049ede: 20               NOP
049edf: 20               NOP
049ee0: 20               NOP
049ee1: 20               NOP
049ee2: 20               NOP
049ee3: 20               NOP
049ee4: 20               NOP
049ee5: 20               NOP
049ee6: 20               NOP
049ee7: 20               NOP
049ee8: 20               NOP
049ee9: 20               NOP
049eea: 20               NOP
049eeb: 20               NOP
049eec: 20               NOP
049eed: 20               NOP
049eee: 20               NOP
049eef: 20               NOP
049ef0: 20               NOP
049ef1: 20               NOP
049ef2: 20               NOP
049ef3: 20               NOP
049ef4: 20               NOP
049ef5: 20               NOP
049ef6: 20               NOP
049ef7: 20               NOP
049ef8: 20               NOP
049ef9: 20               NOP
049efa: 20               NOP
049efb: 20               NOP
049efc: 20               NOP
049efd: 20               NOP
049efe: 20               NOP
049eff: 20               NOP
049f00: 20               NOP
049f01: 20               NOP
049f02: 20               NOP
049f03: 20               NOP
049f04: 20               NOP
049f05: 20               NOP
049f06: 20               NOP
049f07: 20               NOP
049f08: 20               NOP
049f09: 20               NOP
049f0a: 20               NOP
049f0b: 20               NOP
049f0c: 20               NOP
049f0d: 20               NOP
049f0e: 20               NOP
049f0f: 20               NOP
049f10: 20               NOP
049f11: 20               NOP
049f12: 20               NOP
049f13: 20               NOP
049f14: 20               NOP
049f15: 20               NOP
049f16: 20               NOP
049f17: 20               NOP
049f18: 20               NOP
049f19: 20               NOP
049f1a: 20               NOP
049f1b: 20               NOP
049f1c: 20               NOP
049f1d: 20               NOP
049f1e: 20               NOP
049f1f: 20               NOP
049f20: 20               NOP
049f21: 20               NOP
049f22: 20               NOP
049f23: 20               NOP
049f24: 20               NOP
049f25: 20               NOP
049f26: 20               NOP
049f27: 20               NOP
049f28: 20               NOP
049f29: 20               NOP
049f2a: 20               NOP
049f2b: 20               NOP
049f2c: 20               NOP
049f2d: 20               NOP
049f2e: 20               NOP
049f2f: 20               NOP
049f30: 20               NOP
049f31: 20               NOP
049f32: 20               NOP
049f33: 20               NOP
049f34: 20               NOP
049f35: 20               NOP
049f36: 20               NOP
049f37: 20               NOP
049f38: 20               NOP
049f39: 20               NOP
049f3a: 20               NOP
049f3b: 20               NOP
049f3c: 20               NOP
049f3d: 20               NOP
049f3e: 20               NOP
049f3f: 20               NOP
049f40: 20               NOP
049f41: 20               NOP
049f42: 20               NOP
049f43: 20               NOP
049f44: 20               NOP
049f45: 20               NOP
049f46: 20               NOP
049f47: 20               NOP
049f48: 20               NOP
049f49: 20               NOP
049f4a: 20               NOP
049f4b: 20               NOP
049f4c: 20               NOP
049f4d: 20               NOP
049f4e: 20               NOP
049f4f: 20               NOP
049f50: 20               NOP
049f51: 20               NOP
049f52: 20               NOP
049f53: 20               NOP
049f54: 20               NOP
049f55: 20               NOP
049f56: 20               NOP
049f57: 20               NOP
049f58: 20               NOP
049f59: 20               NOP
049f5a: 20               NOP
049f5b: 20               NOP
049f5c: 20               NOP
049f5d: 20               NOP
049f5e: 20               NOP
049f5f: 20               NOP
049f60: 20               NOP
049f61: 20               NOP
049f62: 20               NOP
049f63: 20               NOP
049f64: 20               NOP
049f65: 20               NOP
049f66: 20               NOP
049f67: 20               NOP
049f68: 20               NOP
049f69: 20               NOP
049f6a: 20               NOP
049f6b: 20               NOP
049f6c: 20               NOP
049f6d: 20               NOP
049f6e: 20               NOP
049f6f: 20               NOP
049f70: 20               NOP
049f71: 20               NOP
049f72: 20               NOP
049f73: 20               NOP
049f74: 20               NOP
049f75: 20               NOP
049f76: 20               NOP
049f77: 20               NOP
049f78: 20               NOP
049f79: 20               NOP
049f7a: 20               NOP
049f7b: 20               NOP
049f7c: 20               NOP
049f7d: 20               NOP
049f7e: 20               NOP
049f7f: 20               NOP
049f80: 20               NOP
049f81: 20               NOP
049f82: 20               NOP
049f83: 20               NOP
049f84: 20               NOP
049f85: 20               NOP
049f86: 20               NOP
049f87: 20               NOP
049f88: 20               NOP
049f89: 20               NOP
049f8a: 20               NOP
049f8b: 20               NOP
049f8c: 20               NOP
049f8d: 20               NOP
049f8e: 20               NOP
049f8f: 20               NOP
049f90: 20               NOP
049f91: 20               NOP
049f92: 20               NOP
049f93: 20               NOP
049f94: 20               NOP
049f95: 20               NOP
049f96: 20               NOP
049f97: 20               NOP
049f98: 20               NOP
049f99: 20               NOP
049f9a: 20               NOP
049f9b: 20               NOP
049f9c: 20               NOP
049f9d: 20               NOP
049f9e: 20               NOP
049f9f: 20               NOP
049fa0: 20               NOP
049fa1: 20               NOP
049fa2: 20               NOP
049fa3: 20               NOP
049fa4: 20               NOP
049fa5: 20               NOP
049fa6: 20               NOP
049fa7: 20               NOP
049fa8: 20               NOP
049fa9: 20               NOP
049faa: 20               NOP
049fab: 20               NOP
049fac: 20               NOP
049fad: 20               NOP
049fae: 20               NOP
049faf: 20               NOP
049fb0: 20               NOP
049fb1: 20               NOP
049fb2: 20               NOP
049fb3: 20               NOP
049fb4: 20               NOP
049fb5: 20               NOP
049fb6: 20               NOP
049fb7: 20               NOP
049fb8: 20               NOP
049fb9: 20               NOP
049fba: 20               NOP
049fbb: 20               NOP
049fbc: 20               NOP
049fbd: 20               NOP
049fbe: 20               NOP
049fbf: 20               NOP
049fc0: 20               NOP
049fc1: 20               NOP
049fc2: 20               NOP
049fc3: 20               NOP
049fc4: 20               NOP
049fc5: 20               NOP
049fc6: 20               NOP
049fc7: 20               NOP
049fc8: 20               NOP
049fc9: 20               NOP
049fca: 20               NOP
049fcb: 20               NOP
049fcc: 20               NOP
049fcd: 20               NOP
049fce: 20               NOP
049fcf: 20               NOP
049fd0: 20               NOP
049fd1: 20               NOP
049fd2: 20               NOP
049fd3: 20               NOP
049fd4: 20               NOP
049fd5: 20               NOP
049fd6: 20               NOP
049fd7: 20               NOP
049fd8: 20               NOP
049fd9: 20               NOP
049fda: 20               NOP
049fdb: 20               NOP
049fdc: 20               NOP
049fdd: 20               NOP
049fde: 20               NOP
049fdf: 20               NOP
049fe0: 20               NOP
049fe1: 20               NOP
049fe2: 20               NOP
049fe3: 20               NOP
049fe4: 20               NOP
049fe5: 20               NOP
049fe6: 20               NOP
049fe7: 20               NOP
049fe8: 20               NOP
049fe9: 20               NOP
049fea: 20               NOP
049feb: 20               NOP
049fec: 20               NOP
049fed: 20               NOP
049fee: 20               NOP
049fef: 20               NOP
049ff0: 20               NOP
049ff1: 20               NOP
049ff2: 20               NOP
049ff3: 20               NOP
049ff4: 20               NOP
049ff5: 20               NOP
049ff6: 20               NOP
049ff7: 20               NOP
049ff8: 20               NOP
049ff9: 20               NOP
049ffa: 20               NOP
049ffb: 20               NOP
049ffc: 20               NOP
049ffd: 20               NOP
049ffe: 20               NOP
049fff: 20               NOP
04a000: 20               NOP
04a001: 20               NOP
04a002: 20               NOP
04a003: 20               NOP
04a004: 20               NOP
04a005: 20               NOP
04a006: 20               NOP
04a007: 20               NOP
04a008: 20               NOP
04a009: 20               NOP
04a00a: 20               NOP
04a00b: 20               NOP
04a00c: 20               NOP
04a00d: 20               NOP
04a00e: 20               NOP
04a00f: 20               NOP
04a010: 20               NOP
04a011: 20               NOP
04a012: 20               NOP
04a013: 20               NOP
04a014: 20               NOP
04a015: 20               NOP
04a016: 20               NOP
04a017: 20               NOP
04a018: 20               NOP
04a019: 20               NOP
04a01a: 20               NOP
04a01b: 20               NOP
04a01c: 20               NOP
04a01d: 20               NOP
04a01e: 20               NOP
04a01f: 20               NOP
04a020: 20               NOP
04a021: 20               NOP
04a022: 20               NOP
04a023: 20               NOP
04a024: 20               NOP
04a025: 20               NOP
04a026: 20               NOP
04a027: 20               NOP
04a028: 20               NOP
04a029: 20               NOP
04a02a: 20               NOP
04a02b: 20               NOP
04a02c: 20               NOP
04a02d: 20               NOP
04a02e: 20               NOP
04a02f: 20               NOP
04a030: 20               NOP
04a031: 20               NOP
04a032: 20               NOP
04a033: 20               NOP
04a034: 20               NOP
04a035: 20               NOP
04a036: 20               NOP
04a037: 20               NOP
04a038: 20               NOP
04a039: 20               NOP
04a03a: 20               NOP
04a03b: 20               NOP
04a03c: 20               NOP
04a03d: 20               NOP
04a03e: 20               NOP
04a03f: 20               NOP
04a040: 20               NOP
04a041: 20               NOP
04a042: 20               NOP
04a043: 20               NOP
04a044: 20               NOP
04a045: 20               NOP
04a046: 20               NOP
04a047: 20               NOP
04a048: 20               NOP
04a049: 20               NOP
04a04a: 20               NOP
04a04b: 20               NOP
04a04c: 20               NOP
04a04d: 20               NOP
04a04e: 20               NOP
04a04f: 20               NOP
04a050: 20               NOP
04a051: 20               NOP
04a052: 20               NOP
04a053: 20               NOP
04a054: 20               NOP
04a055: 20               NOP
04a056: 20               NOP
04a057: 20               NOP
04a058: 20               NOP
04a059: 20               NOP
04a05a: 20               NOP
04a05b: 20               NOP
04a05c: 20               NOP
04a05d: 20               NOP
04a05e: 20               NOP
04a05f: 20               NOP
04a060: 20               NOP
04a061: 20               NOP
04a062: 20               NOP
04a063: 20               NOP
04a064: 20               NOP
04a065: 20               NOP
04a066: 20               NOP
04a067: 20               NOP
04a068: 20               NOP
04a069: 20               NOP
04a06a: 20               NOP
04a06b: 20               NOP
04a06c: 20               NOP
04a06d: 20               NOP
04a06e: 20               NOP
04a06f: 20               NOP
04a070: 20               NOP
04a071: 20               NOP
04a072: 20               NOP
04a073: 20               NOP
04a074: 20               NOP
04a075: 20               NOP
04a076: 20               NOP
04a077: 20               NOP
04a078: 20               NOP
04a079: 20               NOP
04a07a: 20               NOP
04a07b: 20               NOP
04a07c: 20               NOP
04a07d: 20               NOP
04a07e: 20               NOP
04a07f: 20               NOP
04a080: 20               NOP
04a081: 20               NOP
04a082: 20               NOP
04a083: 20               NOP
04a084: 20               NOP
04a085: 20               NOP
04a086: 20               NOP
04a087: 20               NOP
04a088: 20               NOP
04a089: 20               NOP
04a08a: 20               NOP
04a08b: 20               NOP
04a08c: 20               NOP
04a08d: 20               NOP
04a08e: 20               NOP
04a08f: 20               NOP
04a090: 20               NOP
04a091: 20               NOP
04a092: 20               NOP
04a093: 20               NOP
04a094: 20               NOP
04a095: 20               NOP
04a096: 20               NOP
04a097: 20               NOP
04a098: 20               NOP
04a099: 20               NOP
04a09a: 20               NOP
04a09b: 20               NOP
04a09c: 20               NOP
04a09d: 20               NOP
04a09e: 20               NOP
04a09f: 20               NOP
04a0a0: 20               NOP
04a0a1: 20               NOP
04a0a2: 20               NOP
04a0a3: 20               NOP
04a0a4: 20               NOP
04a0a5: 20               NOP
04a0a6: 20               NOP
04a0a7: 20               NOP
04a0a8: 20               NOP
04a0a9: 20               NOP
04a0aa: 20               NOP
04a0ab: 20               NOP
04a0ac: 20               NOP
04a0ad: 20               NOP
04a0ae: 20               NOP
04a0af: 20               NOP
04a0b0: 20               NOP
04a0b1: 20               NOP
04a0b2: 20               NOP
04a0b3: 20               NOP
04a0b4: 20               NOP
04a0b5: 20               NOP
04a0b6: 20               NOP
04a0b7: 20               NOP
04a0b8: 20               NOP
04a0b9: 20               NOP
04a0ba: 20               NOP
04a0bb: 20               NOP
04a0bc: 20               NOP
04a0bd: 20               NOP
04a0be: 20               NOP
04a0bf: 20               NOP
04a0c0: 20               NOP
04a0c1: 20               NOP
04a0c2: 20               NOP
04a0c3: 20               NOP
04a0c4: 20               NOP
04a0c5: 20               NOP
04a0c6: 20               NOP
04a0c7: 20               NOP
04a0c8: 20               NOP
04a0c9: 20               NOP
04a0ca: 20               NOP
04a0cb: 20               NOP
04a0cc: 20               NOP
04a0cd: 20               NOP
04a0ce: 20               NOP
04a0cf: 20               NOP
04a0d0: 20               NOP
04a0d1: 20               NOP
04a0d2: 20               NOP
04a0d3: 20               NOP
04a0d4: 20               NOP
04a0d5: 20               NOP
04a0d6: 20               NOP
04a0d7: 20               NOP
04a0d8: 20               NOP
04a0d9: 20               NOP
04a0da: 20               NOP
04a0db: 20               NOP
04a0dc: 20               NOP
04a0dd: 20               NOP
04a0de: 20               NOP
04a0df: 20               NOP
04a0e0: 20               NOP
04a0e1: 20               NOP
04a0e2: 20               NOP
04a0e3: 20               NOP
04a0e4: 20               NOP
04a0e5: 20               NOP
04a0e6: 20               NOP
04a0e7: 20               NOP
04a0e8: 20               NOP
04a0e9: 20               NOP
04a0ea: 20               NOP
04a0eb: 20               NOP
04a0ec: 20               NOP
04a0ed: 20               NOP
04a0ee: 20               NOP
04a0ef: 20               NOP
04a0f0: 20               NOP
04a0f1: 20               NOP
04a0f2: 20               NOP
04a0f3: 20               NOP
04a0f4: 20               NOP
04a0f5: 20               NOP
04a0f6: 20               NOP
04a0f7: 20               NOP
04a0f8: 20               NOP
04a0f9: 20               NOP
04a0fa: 20               NOP
04a0fb: 20               NOP
04a0fc: 20               NOP
04a0fd: 20               NOP
04a0fe: 20               NOP
04a0ff: 20               NOP
04a100: 20               NOP
04a101: 20               NOP
04a102: 20               NOP
04a103: 20               NOP
04a104: 20               NOP
04a105: 20               NOP
04a106: 20               NOP
04a107: 20               NOP
04a108: 20               NOP
04a109: 20               NOP
04a10a: 20               NOP
04a10b: 20               NOP
04a10c: 20               NOP
04a10d: 20               NOP
04a10e: 20               NOP
04a10f: 20               NOP
04a110: 20               NOP
04a111: 20               NOP
04a112: 20               NOP
04a113: 20               NOP
04a114: 20               NOP
04a115: 20               NOP
04a116: 20               NOP
04a117: 20               NOP
04a118: 20               NOP
04a119: 20               NOP
04a11a: 20               NOP
04a11b: 20               NOP
04a11c: 20               NOP
04a11d: 20               NOP
04a11e: 20               NOP
04a11f: 20               NOP
04a120: 20               NOP
04a121: 20               NOP
04a122: 20               NOP
04a123: 20               NOP
04a124: 20               NOP
04a125: 20               NOP
04a126: 20               NOP
04a127: 20               NOP
04a128: 20               NOP
04a129: 20               NOP
04a12a: 20               NOP
04a12b: 20               NOP
04a12c: 20               NOP
04a12d: 20               NOP
04a12e: 20               NOP
04a12f: 20               NOP
04a130: 20               NOP
04a131: 20               NOP
04a132: 20               NOP
04a133: 20               NOP
04a134: 20               NOP
04a135: 20               NOP
04a136: 20               NOP
04a137: 20               NOP
04a138: 20               NOP
04a139: 20               NOP
04a13a: 20               NOP
04a13b: 20               NOP
04a13c: 20               NOP
04a13d: 20               NOP
04a13e: 20               NOP
04a13f: 20               NOP
04a140: 20               NOP
04a141: 20               NOP
04a142: 20               NOP
04a143: 20               NOP
04a144: 20               NOP
04a145: 20               NOP
04a146: 20               NOP
04a147: 20               NOP
04a148: 20               NOP
04a149: 20               NOP
04a14a: 20               NOP
04a14b: 20               NOP
04a14c: 20               NOP
04a14d: 20               NOP
04a14e: 20               NOP
04a14f: 20               NOP
04a150: 20               NOP
04a151: 20               NOP
04a152: 20               NOP
04a153: 20               NOP
04a154: 20               NOP
04a155: 20               NOP
04a156: 20               NOP
04a157: 20               NOP
04a158: 20               NOP
04a159: 20               NOP
04a15a: 20               NOP
04a15b: 20               NOP
04a15c: 20               NOP
04a15d: 20               NOP
04a15e: 20               NOP
04a15f: 20               NOP
04a160: 20               NOP
04a161: 20               NOP
04a162: 20               NOP
04a163: 20               NOP
04a164: 20               NOP
04a165: 20               NOP
04a166: 20               NOP
04a167: 20               NOP
04a168: 20               NOP
04a169: 20               NOP
04a16a: 20               NOP
04a16b: 20               NOP
04a16c: 20               NOP
04a16d: 20               NOP
04a16e: 20               NOP
04a16f: 20               NOP
04a170: 20               NOP
04a171: 20               NOP
04a172: 20               NOP
04a173: 20               NOP
04a174: 20               NOP
04a175: 20               NOP
04a176: 20               NOP
04a177: 20               NOP
04a178: 20               NOP
04a179: 20               NOP
04a17a: 20               NOP
04a17b: 20               NOP
04a17c: 20               NOP
04a17d: 20               NOP
04a17e: 20               NOP
04a17f: 20               NOP
04a180: 20               NOP
04a181: 20               NOP
04a182: 20               NOP
04a183: 20               NOP
04a184: 20               NOP
04a185: 20               NOP
04a186: 20               NOP
04a187: 20               NOP
04a188: 20               NOP
04a189: 20               NOP
04a18a: 20               NOP
04a18b: 20               NOP
04a18c: 20               NOP
04a18d: 20               NOP
04a18e: 20               NOP
04a18f: 20               NOP
04a190: 20               NOP
04a191: 20               NOP
04a192: 20               NOP
04a193: 20               NOP
04a194: 20               NOP
04a195: 20               NOP
04a196: 20               NOP
04a197: 20               NOP
04a198: 20               NOP
04a199: 20               NOP
04a19a: 20               NOP
04a19b: 20               NOP
04a19c: 20               NOP
04a19d: 20               NOP
04a19e: 20               NOP
04a19f: 20               NOP
04a1a0: 20               NOP
04a1a1: 20               NOP
04a1a2: 20               NOP
04a1a3: 20               NOP
04a1a4: 20               NOP
04a1a5: 20               NOP
04a1a6: 20               NOP
04a1a7: 20               NOP
04a1a8: 20               NOP
04a1a9: 20               NOP
04a1aa: 20               NOP
04a1ab: 20               NOP
04a1ac: 20               NOP
04a1ad: 20               NOP
04a1ae: 20               NOP
04a1af: 20               NOP
04a1b0: 20               NOP
04a1b1: 20               NOP
04a1b2: 20               NOP
04a1b3: 20               NOP
04a1b4: 20               NOP
04a1b5: 20               NOP
04a1b6: 20               NOP
04a1b7: 20               NOP
04a1b8: 20               NOP
04a1b9: 20               NOP
04a1ba: 20               NOP
04a1bb: 20               NOP
04a1bc: 20               NOP
04a1bd: 20               NOP
04a1be: 20               NOP
04a1bf: 20               NOP
04a1c0: 20               NOP
04a1c1: 20               NOP
04a1c2: 20               NOP
04a1c3: 20               NOP
04a1c4: 20               NOP
04a1c5: 20               NOP
04a1c6: 20               NOP
04a1c7: 20               NOP
04a1c8: 20               NOP
04a1c9: 20               NOP
04a1ca: 20               NOP
04a1cb: 20               NOP
04a1cc: 20               NOP
04a1cd: 20               NOP
04a1ce: 20               NOP
04a1cf: 20               NOP
04a1d0: 20               NOP
04a1d1: 20               NOP
04a1d2: 20               NOP
04a1d3: 20               NOP
04a1d4: 20               NOP
04a1d5: 20               NOP
04a1d6: 20               NOP
04a1d7: 20               NOP
04a1d8: 20               NOP
04a1d9: 20               NOP
04a1da: 20               NOP
04a1db: 20               NOP
04a1dc: 20               NOP
04a1dd: 20               NOP
04a1de: 20               NOP
04a1df: 20               NOP
04a1e0: 20               NOP
04a1e1: 20               NOP
04a1e2: 20               NOP
04a1e3: 20               NOP
04a1e4: 20               NOP
04a1e5: 20               NOP
04a1e6: 20               NOP
04a1e7: 20               NOP
04a1e8: 20               NOP
04a1e9: 20               NOP
04a1ea: 20               NOP
04a1eb: 20               NOP
04a1ec: 20               NOP
04a1ed: 20               NOP
04a1ee: 20               NOP
04a1ef: 20               NOP
04a1f0: 20               NOP
04a1f1: 20               NOP
04a1f2: 20               NOP
04a1f3: 20               NOP
04a1f4: 20               NOP
04a1f5: 20               NOP
04a1f6: 20               NOP
04a1f7: 20               NOP
04a1f8: 20               NOP
04a1f9: 20               NOP
04a1fa: 20               NOP
04a1fb: 20               NOP
04a1fc: 20               NOP
04a1fd: 20               NOP
04a1fe: 20               NOP
04a1ff: 20               NOP
04a200: 20               NOP
04a201: 20               NOP
04a202: 20               NOP
04a203: 20               NOP
04a204: 20               NOP
04a205: 20               NOP
04a206: 20               NOP
04a207: 20               NOP
04a208: 20               NOP
04a209: 20               NOP
04a20a: 20               NOP
04a20b: 20               NOP
04a20c: 20               NOP
04a20d: 20               NOP
04a20e: 20               NOP
04a20f: 20               NOP
04a210: 20               NOP
04a211: 20               NOP
04a212: 20               NOP
04a213: 20               NOP
04a214: 20               NOP
04a215: 20               NOP
04a216: 20               NOP
04a217: 20               NOP
04a218: 20               NOP
04a219: 20               NOP
04a21a: 20               NOP
04a21b: 20               NOP
04a21c: 20               NOP
04a21d: 20               NOP
04a21e: 20               NOP
04a21f: 20               NOP
04a220: 20               NOP
04a221: 20               NOP
04a222: 20               NOP
04a223: 20               NOP
04a224: 20               NOP
04a225: 20               NOP
04a226: 20               NOP
04a227: 20               NOP
04a228: 20               NOP
04a229: 20               NOP
04a22a: 20               NOP
04a22b: 20               NOP
04a22c: 20               NOP
04a22d: 20               NOP
04a22e: 20               NOP
04a22f: 20               NOP
04a230: 20               NOP
04a231: 20               NOP
04a232: 20               NOP
04a233: 20               NOP
04a234: 20               NOP
04a235: 20               NOP
04a236: 20               NOP
04a237: 20               NOP
04a238: 20               NOP
04a239: 20               NOP
04a23a: 20               NOP
04a23b: 20               NOP
04a23c: 20               NOP
04a23d: 20               NOP
04a23e: 20               NOP
04a23f: 20               NOP
04a240: 20               NOP
04a241: 20               NOP
04a242: 20               NOP
04a243: 20               NOP
04a244: 20               NOP
04a245: 20               NOP
04a246: 20               NOP
04a247: 20               NOP
04a248: 20               NOP
04a249: 20               NOP
04a24a: 20               NOP
04a24b: 20               NOP
04a24c: 20               NOP
04a24d: 20               NOP
04a24e: 20               NOP
04a24f: 20               NOP
04a250: 20               NOP
04a251: 20               NOP
04a252: 20               NOP
04a253: 20               NOP
04a254: 20               NOP
04a255: 20               NOP
04a256: 20               NOP
04a257: 20               NOP
04a258: 20               NOP
04a259: 20               NOP
04a25a: 20               NOP
04a25b: 20               NOP
04a25c: 20               NOP
04a25d: 20               NOP
04a25e: 20               NOP
04a25f: 20               NOP
04a260: 20               NOP
04a261: 20               NOP
04a262: 20               NOP
04a263: 20               NOP
04a264: 20               NOP
04a265: 20               NOP
04a266: 20               NOP
04a267: 20               NOP
04a268: 20               NOP
04a269: 20               NOP
04a26a: 20               NOP
04a26b: 20               NOP
04a26c: 20               NOP
04a26d: 20               NOP
04a26e: 20               NOP
04a26f: 20               NOP
04a270: 20               NOP
04a271: 20               NOP
04a272: 20               NOP
04a273: 20               NOP
04a274: 20               NOP
04a275: 20               NOP
04a276: 20               NOP
04a277: 20               NOP
04a278: 20               NOP
04a279: 20               NOP
04a27a: 20               NOP
04a27b: 20               NOP
04a27c: 20               NOP
04a27d: 20               NOP
04a27e: 20               NOP
04a27f: 20               NOP
04a280: 20               NOP
04a281: 20               NOP
04a282: 20               NOP
04a283: 20               NOP
04a284: 20               NOP
04a285: 20               NOP
04a286: 20               NOP
04a287: 20               NOP
04a288: 20               NOP
04a289: 20               NOP
04a28a: 20               NOP
04a28b: 20               NOP
04a28c: 20               NOP
04a28d: 20               NOP
04a28e: 20               NOP
04a28f: 20               NOP
04a290: 20               NOP
04a291: 20               NOP
04a292: 20               NOP
04a293: 20               NOP
04a294: 20               NOP
04a295: 20               NOP
04a296: 20               NOP
04a297: 20               NOP
04a298: 20               NOP
04a299: 20               NOP
04a29a: 20               NOP
04a29b: 20               NOP
04a29c: 20               NOP
04a29d: 20               NOP
04a29e: 20               NOP
04a29f: 20               NOP
04a2a0: 20               NOP
04a2a1: 20               NOP
04a2a2: 20               NOP
04a2a3: 20               NOP
04a2a4: 20               NOP
04a2a5: 20               NOP
04a2a6: 20               NOP
04a2a7: 20               NOP
04a2a8: 20               NOP
04a2a9: 20               NOP
04a2aa: 20               NOP
04a2ab: 20               NOP
04a2ac: 20               NOP
04a2ad: 20               NOP
04a2ae: 20               NOP
04a2af: 20               NOP
04a2b0: 20               NOP
04a2b1: 20               NOP
04a2b2: 20               NOP
04a2b3: 20               NOP
04a2b4: 20               NOP
04a2b5: 20               NOP
04a2b6: 20               NOP
04a2b7: 20               NOP
04a2b8: 20               NOP
04a2b9: 20               NOP
04a2ba: 20               NOP
04a2bb: 20               NOP
04a2bc: 20               NOP
04a2bd: 20               NOP
04a2be: 20               NOP
04a2bf: 20               NOP
04a2c0: 20               NOP
04a2c1: 20               NOP
04a2c2: 20               NOP
04a2c3: 20               NOP
04a2c4: 20               NOP
04a2c5: 20               NOP
04a2c6: 20               NOP
04a2c7: 20               NOP
04a2c8: 20               NOP
04a2c9: 20               NOP
04a2ca: 20               NOP
04a2cb: 20               NOP
04a2cc: 20               NOP
04a2cd: 20               NOP
04a2ce: 20               NOP
04a2cf: 20               NOP
04a2d0: 20               NOP
04a2d1: 20               NOP
04a2d2: 20               NOP
04a2d3: 20               NOP
04a2d4: 20               NOP
04a2d5: 20               NOP
04a2d6: 20               NOP
04a2d7: 20               NOP
04a2d8: 20               NOP
04a2d9: 20               NOP
04a2da: 20               NOP
04a2db: 20               NOP
04a2dc: 20               NOP
04a2dd: 20               NOP
04a2de: 20               NOP
04a2df: 20               NOP
04a2e0: 20               NOP
04a2e1: 20               NOP
04a2e2: 20               NOP
04a2e3: 20               NOP
04a2e4: 20               NOP
04a2e5: 20               NOP
04a2e6: 20               NOP
04a2e7: 20               NOP
04a2e8: 20               NOP
04a2e9: 20               NOP
04a2ea: 20               NOP
04a2eb: 20               NOP
04a2ec: 20               NOP
04a2ed: 20               NOP
04a2ee: 20               NOP
04a2ef: 20               NOP
04a2f0: 20               NOP
04a2f1: 20               NOP
04a2f2: 20               NOP
04a2f3: 20               NOP
04a2f4: 20               NOP
04a2f5: 20               NOP
04a2f6: 20               NOP
04a2f7: 20               NOP
04a2f8: 20               NOP
04a2f9: 20               NOP
04a2fa: 20               NOP
04a2fb: 20               NOP
04a2fc: 20               NOP
04a2fd: 20               NOP
04a2fe: 20               NOP
04a2ff: 20               NOP
04a300: 20               NOP
04a301: 20               NOP
04a302: 20               NOP
04a303: 20               NOP
04a304: 20               NOP
04a305: 20               NOP
04a306: 20               NOP
04a307: 20               NOP
04a308: 20               NOP
04a309: 20               NOP
04a30a: 20               NOP
04a30b: 20               NOP
04a30c: 20               NOP
04a30d: 20               NOP
04a30e: 20               NOP
04a30f: 20               NOP
04a310: 20               NOP
04a311: 20               NOP
04a312: 20               NOP
04a313: 20               NOP
04a314: 20               NOP
04a315: 20               NOP
04a316: 20               NOP
04a317: 20               NOP
04a318: 20               NOP
04a319: 20               NOP
04a31a: 20               NOP
04a31b: 20               NOP
04a31c: 20               NOP
04a31d: 20               NOP
04a31e: 20               NOP
04a31f: 20               NOP
04a320: 20               NOP
04a321: 20               NOP
04a322: 20               NOP
04a323: 20               NOP
04a324: 20               NOP
04a325: 20               NOP
04a326: 20               NOP
04a327: 20               NOP
04a328: 20               NOP
04a329: 20               NOP
04a32a: 20               NOP
04a32b: 20               NOP
04a32c: 20               NOP
04a32d: 20               NOP
04a32e: 20               NOP
04a32f: 20               NOP
04a330: 20               NOP
04a331: 20               NOP
04a332: 20               NOP
04a333: 20               NOP
04a334: 20               NOP
04a335: 20               NOP
04a336: 20               NOP
04a337: 20               NOP
04a338: 20               NOP
04a339: 20               NOP
04a33a: 20               NOP
04a33b: 20               NOP
04a33c: 20               NOP
04a33d: 20               NOP
04a33e: 20               NOP
04a33f: 20               NOP
04a340: 20               NOP
04a341: 20               NOP
04a342: 20               NOP
04a343: 20               NOP
04a344: 20               NOP
04a345: 20               NOP
04a346: 20               NOP
04a347: 20               NOP
04a348: 20               NOP
04a349: 20               NOP
04a34a: 20               NOP
04a34b: 20               NOP
04a34c: 20               NOP
04a34d: 20               NOP
04a34e: 20               NOP
04a34f: 20               NOP
04a350: 20               NOP
04a351: 20               NOP
04a352: 20               NOP
04a353: 20               NOP
04a354: 20               NOP
04a355: 20               NOP
04a356: 20               NOP
04a357: 20               NOP
04a358: 20               NOP
04a359: 20               NOP
04a35a: 20               NOP
04a35b: 20               NOP
04a35c: 20               NOP
04a35d: 20               NOP
04a35e: 20               NOP
04a35f: 20               NOP
04a360: 20               NOP
04a361: 20               NOP
04a362: 20               NOP
04a363: 20               NOP
04a364: 20               NOP
04a365: 20               NOP
04a366: 20               NOP
04a367: 20               NOP
04a368: 20               NOP
04a369: 20               NOP
04a36a: 20               NOP
04a36b: 20               NOP
04a36c: 20               NOP
04a36d: 20               NOP
04a36e: 20               NOP
04a36f: 20               NOP
04a370: 20               NOP
04a371: 20               NOP
04a372: 20               NOP
04a373: 20               NOP
04a374: 20               NOP
04a375: 20               NOP
04a376: 20               NOP
04a377: 20               NOP
04a378: 20               NOP
04a379: 20               NOP
04a37a: 20               NOP
04a37b: 20               NOP
04a37c: 20               NOP
04a37d: 20               NOP
04a37e: 20               NOP
04a37f: 20               NOP
04a380: 20               NOP
04a381: 20               NOP
04a382: 20               NOP
04a383: 20               NOP
04a384: 20               NOP
04a385: 20               NOP
04a386: 20               NOP
04a387: 20               NOP
04a388: 20               NOP
04a389: 20               NOP
04a38a: 20               NOP
04a38b: 20               NOP
04a38c: 20               NOP
04a38d: 20               NOP
04a38e: 20               NOP
04a38f: 20               NOP
04a390: 20               NOP
04a391: 20               NOP
04a392: 20               NOP
04a393: 20               NOP
04a394: 20               NOP
04a395: 20               NOP
04a396: 20               NOP
04a397: 20               NOP
04a398: 20               NOP
04a399: 20               NOP
04a39a: 20               NOP
04a39b: 20               NOP
04a39c: 20               NOP
04a39d: 20               NOP
04a39e: 20               NOP
04a39f: 20               NOP
04a3a0: 20               NOP
04a3a1: 20               NOP
04a3a2: 20               NOP
04a3a3: 20               NOP
04a3a4: 20               NOP
04a3a5: 20               NOP
04a3a6: 20               NOP
04a3a7: 20               NOP
04a3a8: 20               NOP
04a3a9: 20               NOP
04a3aa: 20               NOP
04a3ab: 20               NOP
04a3ac: 20               NOP
04a3ad: 20               NOP
04a3ae: 20               NOP
04a3af: 20               NOP
04a3b0: 20               NOP
04a3b1: 20               NOP
04a3b2: 20               NOP
04a3b3: 20               NOP
04a3b4: 20               NOP
04a3b5: 20               NOP
04a3b6: 20               NOP
04a3b7: 20               NOP
04a3b8: 20               NOP
04a3b9: 20               NOP
04a3ba: 20               NOP
04a3bb: 20               NOP
04a3bc: 20               NOP
04a3bd: 20               NOP
04a3be: 20               NOP
04a3bf: 20               NOP
04a3c0: 20               NOP
04a3c1: 20               NOP
04a3c2: 20               NOP
04a3c3: 20               NOP
04a3c4: 20               NOP
04a3c5: 20               NOP
04a3c6: 20               NOP
04a3c7: 20               NOP
04a3c8: 20               NOP
04a3c9: 20               NOP
04a3ca: 20               NOP
04a3cb: 20               NOP
04a3cc: 20               NOP
04a3cd: 20               NOP
04a3ce: 20               NOP
04a3cf: 20               NOP
04a3d0: 20               NOP
04a3d1: 20               NOP
04a3d2: 20               NOP
04a3d3: 20               NOP
04a3d4: 20               NOP
04a3d5: 20               NOP
04a3d6: 20               NOP
04a3d7: 20               NOP
04a3d8: 20               NOP
04a3d9: 20               NOP
04a3da: 20               NOP
04a3db: 20               NOP
04a3dc: 20               NOP
04a3dd: 20               NOP
04a3de: 20               NOP
04a3df: 20               NOP
04a3e0: 20               NOP
04a3e1: 20               NOP
04a3e2: 20               NOP
04a3e3: 20               NOP
04a3e4: 20               NOP
04a3e5: 20               NOP
04a3e6: 20               NOP
04a3e7: 20               NOP
04a3e8: 20               NOP
04a3e9: 20               NOP
04a3ea: 20               NOP
04a3eb: 20               NOP
04a3ec: 20               NOP
04a3ed: 20               NOP
04a3ee: 20               NOP
04a3ef: 20               NOP
04a3f0: 20               NOP
04a3f1: 20               NOP
04a3f2: 20               NOP
04a3f3: 20               NOP
04a3f4: 20               NOP
04a3f5: 20               NOP
04a3f6: 20               NOP
04a3f7: 20               NOP
04a3f8: 20               NOP
04a3f9: 20               NOP
04a3fa: 20               NOP
04a3fb: 20               NOP
04a3fc: 20               NOP
04a3fd: 20               NOP
04a3fe: 20               NOP
04a3ff: 20               NOP
04a400: 20               NOP
04a401: 20               NOP
04a402: 20               NOP
04a403: 20               NOP
04a404: 20               NOP
04a405: 20               NOP
04a406: 20               NOP
04a407: 20               NOP
04a408: 20               NOP
04a409: 20               NOP
04a40a: 20               NOP
04a40b: 20               NOP
04a40c: 20               NOP
04a40d: 20               NOP
04a40e: 20               NOP
04a40f: 20               NOP
04a410: 20               NOP
04a411: 20               NOP
04a412: 20               NOP
04a413: 20               NOP
04a414: 20               NOP
04a415: 20               NOP
04a416: 20               NOP
04a417: 20               NOP
04a418: 20               NOP
04a419: 20               NOP
04a41a: 20               NOP
04a41b: 20               NOP
04a41c: 20               NOP
04a41d: 20               NOP
04a41e: 20               NOP
04a41f: 20               NOP
04a420: 20               NOP
04a421: 20               NOP
04a422: 20               NOP
04a423: 20               NOP
04a424: 20               NOP
04a425: 20               NOP
04a426: 20               NOP
04a427: 20               NOP
04a428: 20               NOP
04a429: 20               NOP
04a42a: 20               NOP
04a42b: 20               NOP
04a42c: 20               NOP
04a42d: 20               NOP
04a42e: 20               NOP
04a42f: 20               NOP
04a430: 20               NOP
04a431: 20               NOP
04a432: 20               NOP
04a433: 20               NOP
04a434: 20               NOP
04a435: 20               NOP
04a436: 20               NOP
04a437: 20               NOP
04a438: 20               NOP
04a439: 20               NOP
04a43a: 20               NOP
04a43b: 20               NOP
04a43c: 20               NOP
04a43d: 20               NOP
04a43e: 20               NOP
04a43f: 20               NOP
04a440: 20               NOP
04a441: 20               NOP
04a442: 20               NOP
04a443: 20               NOP
04a444: 20               NOP
04a445: 20               NOP
04a446: 20               NOP
04a447: 20               NOP
04a448: 20               NOP
04a449: 20               NOP
04a44a: 20               NOP
04a44b: 20               NOP
04a44c: 20               NOP
04a44d: 20               NOP
04a44e: 20               NOP
04a44f: 20               NOP
04a450: 20               NOP
04a451: 20               NOP
04a452: 20               NOP
04a453: 20               NOP
04a454: 20               NOP
04a455: 20               NOP
04a456: 20               NOP
04a457: 20               NOP
04a458: 20               NOP
04a459: 20               NOP
04a45a: 20               NOP
04a45b: 20               NOP
04a45c: 20               NOP
04a45d: 20               NOP
04a45e: 20               NOP
04a45f: 20               NOP
04a460: 20               NOP
04a461: 20               NOP
04a462: 20               NOP
04a463: 20               NOP
04a464: 20               NOP
04a465: 20               NOP
04a466: 20               NOP
04a467: 20               NOP
04a468: 20               NOP
04a469: 20               NOP
04a46a: 20               NOP
04a46b: 20               NOP
04a46c: 20               NOP
04a46d: 20               NOP
04a46e: 20               NOP
04a46f: 20               NOP
04a470: 20               NOP
04a471: 20               NOP
04a472: 20               NOP
04a473: 20               NOP
04a474: 20               NOP
04a475: 20               NOP
04a476: 20               NOP
04a477: 20               NOP
04a478: 20               NOP
04a479: 20               NOP
04a47a: 20               NOP
04a47b: 20               NOP
04a47c: 20               NOP
04a47d: 20               NOP
04a47e: 20               NOP
04a47f: 20               NOP
04a480: 20               NOP
04a481: 20               NOP
04a482: 20               NOP
04a483: 20               NOP
04a484: 20               NOP
04a485: 20               NOP
04a486: 20               NOP
04a487: 20               NOP
04a488: 20               NOP
04a489: 20               NOP
04a48a: 20               NOP
04a48b: 20               NOP
04a48c: 20               NOP
04a48d: 20               NOP
04a48e: 20               NOP
04a48f: 20               NOP
04a490: 20               NOP
04a491: 20               NOP
04a492: 20               NOP
04a493: 20               NOP
04a494: 20               NOP
04a495: 20               NOP
04a496: 20               NOP
04a497: 20               NOP
04a498: 20               NOP
04a499: 20               NOP
04a49a: 20               NOP
04a49b: 20               NOP
04a49c: 20               NOP
04a49d: 20               NOP
04a49e: 20               NOP
04a49f: 20               NOP
04a4a0: 20               NOP
04a4a1: 20               NOP
04a4a2: 20               NOP
04a4a3: 20               NOP
04a4a4: 20               NOP
04a4a5: 20               NOP
04a4a6: 20               NOP
04a4a7: 20               NOP
04a4a8: 20               NOP
04a4a9: 20               NOP
04a4aa: 20               NOP
04a4ab: 20               NOP
04a4ac: 20               NOP
04a4ad: 20               NOP
04a4ae: 20               NOP
04a4af: 20               NOP
04a4b0: 20               NOP
04a4b1: 20               NOP
04a4b2: 20               NOP
04a4b3: 20               NOP
04a4b4: 20               NOP
04a4b5: 20               NOP
04a4b6: 20               NOP
04a4b7: 20               NOP
04a4b8: 20               NOP
04a4b9: 20               NOP
04a4ba: 20               NOP
04a4bb: 20               NOP
04a4bc: 20               NOP
04a4bd: 20               NOP
04a4be: 20               NOP
04a4bf: 20               NOP
04a4c0: 20               NOP
04a4c1: 20               NOP
04a4c2: 20               NOP
04a4c3: 20               NOP
04a4c4: 20               NOP
04a4c5: 20               NOP
04a4c6: 20               NOP
04a4c7: 20               NOP
04a4c8: 20               NOP
04a4c9: 20               NOP
04a4ca: 20               NOP
04a4cb: 20               NOP
04a4cc: 20               NOP
04a4cd: 20               NOP
04a4ce: 20               NOP
04a4cf: 20               NOP
04a4d0: 20               NOP
04a4d1: 20               NOP
04a4d2: 20               NOP
04a4d3: 20               NOP
04a4d4: 20               NOP
04a4d5: 20               NOP
04a4d6: 20               NOP
04a4d7: 20               NOP
04a4d8: 20               NOP
04a4d9: 20               NOP
04a4da: 20               NOP
04a4db: 20               NOP
04a4dc: 20               NOP
04a4dd: 20               NOP
04a4de: 20               NOP
04a4df: 20               NOP
04a4e0: 20               NOP
04a4e1: 20               NOP
04a4e2: 20               NOP
04a4e3: 20               NOP
04a4e4: 20               NOP
04a4e5: 20               NOP
04a4e6: 20               NOP
04a4e7: 20               NOP
04a4e8: 20               NOP
04a4e9: 20               NOP
04a4ea: 20               NOP
04a4eb: 20               NOP
04a4ec: 20               NOP
04a4ed: 20               NOP
04a4ee: 20               NOP
04a4ef: 20               NOP
04a4f0: 20               NOP
04a4f1: 20               NOP
04a4f2: 20               NOP
04a4f3: 20               NOP
04a4f4: 20               NOP
04a4f5: 20               NOP
04a4f6: 20               NOP
04a4f7: 20               NOP
04a4f8: 20               NOP
04a4f9: 20               NOP
04a4fa: 20               NOP
04a4fb: 20               NOP
04a4fc: 20               NOP
04a4fd: 20               NOP
04a4fe: 20               NOP
04a4ff: 20               NOP
04a500: 20               NOP
04a501: 20               NOP
04a502: 20               NOP
04a503: 20               NOP
04a504: 20               NOP
04a505: 20               NOP
04a506: 20               NOP
04a507: 20               NOP
04a508: 20               NOP
04a509: 20               NOP
04a50a: 20               NOP
04a50b: 20               NOP
04a50c: 20               NOP
04a50d: 20               NOP
04a50e: 20               NOP
04a50f: 20               NOP
04a510: 20               NOP
04a511: 20               NOP
04a512: 20               NOP
04a513: 20               NOP
04a514: 20               NOP
04a515: 20               NOP
04a516: 20               NOP
04a517: 20               NOP
04a518: 20               NOP
04a519: 20               NOP
04a51a: 20               NOP
04a51b: 20               NOP
04a51c: 20               NOP
04a51d: 20               NOP
04a51e: 20               NOP
04a51f: 20               NOP
04a520: 20               NOP
04a521: 20               NOP
04a522: 20               NOP
04a523: 20               NOP
04a524: 20               NOP
04a525: 20               NOP
04a526: 20               NOP
04a527: 20               NOP
04a528: 20               NOP
04a529: 20               NOP
04a52a: 20               NOP
04a52b: 20               NOP
04a52c: 20               NOP
04a52d: 20               NOP
04a52e: 20               NOP
04a52f: 20               NOP
04a530: 20               NOP
04a531: 20               NOP
04a532: 20               NOP
04a533: 20               NOP
04a534: 20               NOP
04a535: 20               NOP
04a536: 20               NOP
04a537: 20               NOP
04a538: 20               NOP
04a539: 20               NOP
04a53a: 20               NOP
04a53b: 20               NOP
04a53c: 20               NOP
04a53d: 20               NOP
04a53e: 20               NOP
04a53f: 20               NOP
04a540: 20               NOP
04a541: 20               NOP
04a542: 20               NOP
04a543: 20               NOP
04a544: 20               NOP
04a545: 20               NOP
04a546: 20               NOP
04a547: 20               NOP
04a548: 20               NOP
04a549: 20               NOP
04a54a: 20               NOP
04a54b: 20               NOP
04a54c: 20               NOP
04a54d: 20               NOP
04a54e: 20               NOP
04a54f: 20               NOP
04a550: 20               NOP
04a551: 20               NOP
04a552: 20               NOP
04a553: 20               NOP
04a554: 20               NOP
04a555: 20               NOP
04a556: 20               NOP
04a557: 20               NOP
04a558: 20               NOP
04a559: 20               NOP
04a55a: 20               NOP
04a55b: 20               NOP
04a55c: 20               NOP
04a55d: 20               NOP
04a55e: 20               NOP
04a55f: 20               NOP
04a560: 20               NOP
04a561: 20               NOP
04a562: 20               NOP
04a563: 20               NOP
04a564: 20               NOP
04a565: 20               NOP
04a566: 20               NOP
04a567: 20               NOP
04a568: 20               NOP
04a569: 20               NOP
04a56a: 20               NOP
04a56b: 20               NOP
04a56c: 20               NOP
04a56d: 20               NOP
04a56e: 20               NOP
04a56f: 20               NOP
04a570: 20               NOP
04a571: 20               NOP
04a572: 20               NOP
04a573: 20               NOP
04a574: 20               NOP
04a575: 20               NOP
04a576: 20               NOP
04a577: 20               NOP
04a578: 20               NOP
04a579: 20               NOP
04a57a: 20               NOP
04a57b: 20               NOP
04a57c: 20               NOP
04a57d: 20               NOP
04a57e: 20               NOP
04a57f: 20               NOP
04a580: 20               NOP
04a581: 20               NOP
04a582: 20               NOP
04a583: 20               NOP
04a584: 20               NOP
04a585: 20               NOP
04a586: 20               NOP
04a587: 20               NOP
04a588: 20               NOP
04a589: 20               NOP
04a58a: 20               NOP
04a58b: 20               NOP
04a58c: 20               NOP
04a58d: 20               NOP
04a58e: 20               NOP
04a58f: 20               NOP
04a590: 20               NOP
04a591: 20               NOP
04a592: 20               NOP
04a593: 20               NOP
04a594: 20               NOP
04a595: 20               NOP
04a596: 20               NOP
04a597: 20               NOP
04a598: 20               NOP
04a599: 20               NOP
04a59a: 20               NOP
04a59b: 20               NOP
04a59c: 20               NOP
04a59d: 20               NOP
04a59e: 20               NOP
04a59f: 20               NOP
04a5a0: 20               NOP
04a5a1: 20               NOP
04a5a2: 20               NOP
04a5a3: 20               NOP
04a5a4: 20               NOP
04a5a5: 20               NOP
04a5a6: 20               NOP
04a5a7: 20               NOP
04a5a8: 20               NOP
04a5a9: 20               NOP
04a5aa: 20               NOP
04a5ab: 20               NOP
04a5ac: 20               NOP
04a5ad: 20               NOP
04a5ae: 20               NOP
04a5af: 20               NOP
04a5b0: 20               NOP
04a5b1: 20               NOP
04a5b2: 20               NOP
04a5b3: 20               NOP
04a5b4: 20               NOP
04a5b5: 20               NOP
04a5b6: 20               NOP
04a5b7: 20               NOP
04a5b8: 20               NOP
04a5b9: 20               NOP
04a5ba: 20               NOP
04a5bb: 20               NOP
04a5bc: 20               NOP
04a5bd: 20               NOP
04a5be: 20               NOP
04a5bf: 20               NOP
04a5c0: 20               NOP
04a5c1: 20               NOP
04a5c2: 20               NOP
04a5c3: 20               NOP
04a5c4: 20               NOP
04a5c5: 20               NOP
04a5c6: 20               NOP
04a5c7: 20               NOP
04a5c8: 20               NOP
04a5c9: 20               NOP
04a5ca: 20               NOP
04a5cb: 20               NOP
04a5cc: 20               NOP
04a5cd: 20               NOP
04a5ce: 20               NOP
04a5cf: 20               NOP
04a5d0: 20               NOP
04a5d1: 20               NOP
04a5d2: 20               NOP
04a5d3: 20               NOP
04a5d4: 20               NOP
04a5d5: 20               NOP
04a5d6: 20               NOP
04a5d7: 20               NOP
04a5d8: 20               NOP
04a5d9: 20               NOP
04a5da: 20               NOP
04a5db: 20               NOP
04a5dc: 20               NOP
04a5dd: 20               NOP
04a5de: 20               NOP
04a5df: 20               NOP
04a5e0: 20               NOP
04a5e1: 20               NOP
04a5e2: 20               NOP
04a5e3: 20               NOP
04a5e4: 20               NOP
04a5e5: 20               NOP
04a5e6: 20               NOP
04a5e7: 20               NOP
04a5e8: 20               NOP
04a5e9: 20               NOP
04a5ea: 20               NOP
04a5eb: 20               NOP
04a5ec: 20               NOP
04a5ed: 20               NOP
04a5ee: 20               NOP
04a5ef: 20               NOP
04a5f0: 20               NOP
04a5f1: 20               NOP
04a5f2: 20               NOP
04a5f3: 20               NOP
04a5f4: 20               NOP
04a5f5: 20               NOP
04a5f6: 20               NOP
04a5f7: 20               NOP
04a5f8: 20               NOP
04a5f9: 20               NOP
04a5fa: 20               NOP
04a5fb: 20               NOP
04a5fc: 20               NOP
04a5fd: 20               NOP
04a5fe: 20               NOP
04a5ff: 20               NOP
04a600: 20               NOP
04a601: 20               NOP
04a602: 20               NOP
04a603: 20               NOP
04a604: 20               NOP
04a605: 20               NOP
04a606: 20               NOP
04a607: 20               NOP
04a608: 20               NOP
04a609: 20               NOP
04a60a: 20               NOP
04a60b: 20               NOP
04a60c: 20               NOP
04a60d: 20               NOP
04a60e: 20               NOP
04a60f: 20               NOP
04a610: 20               NOP
04a611: 20               NOP
04a612: 20               NOP
04a613: 20               NOP
04a614: 20               NOP
04a615: 20               NOP
04a616: 20               NOP
04a617: 20               NOP
04a618: 20               NOP
04a619: 20               NOP
04a61a: 20               NOP
04a61b: 20               NOP
04a61c: 20               NOP
04a61d: 20               NOP
04a61e: 20               NOP
04a61f: 20               NOP
04a620: 20               NOP
04a621: 20               NOP
04a622: 20               NOP
04a623: 20               NOP
04a624: 20               NOP
04a625: 20               NOP
04a626: 20               NOP
04a627: 20               NOP
04a628: 20               NOP
04a629: 20               NOP
04a62a: 20               NOP
04a62b: 20               NOP
04a62c: 20               NOP
04a62d: 20               NOP
04a62e: 20               NOP
04a62f: 20               NOP
04a630: 20               NOP
04a631: 20               NOP
04a632: 20               NOP
04a633: 20               NOP
04a634: 20               NOP
04a635: 20               NOP
04a636: 20               NOP
04a637: 20               NOP
04a638: 20               NOP
04a639: 20               NOP
04a63a: 20               NOP
04a63b: 20               NOP
04a63c: 20               NOP
04a63d: 20               NOP
04a63e: 20               NOP
04a63f: 20               NOP
04a640: 20               NOP
04a641: 20               NOP
04a642: 20               NOP
04a643: 20               NOP
04a644: 20               NOP
04a645: 20               NOP
04a646: 20               NOP
04a647: 20               NOP
04a648: 20               NOP
04a649: 20               NOP
04a64a: 20               NOP
04a64b: 20               NOP
04a64c: 20               NOP
04a64d: 20               NOP
04a64e: 20               NOP
04a64f: 20               NOP
04a650: 20               NOP
04a651: 20               NOP
04a652: 20               NOP
04a653: 20               NOP
04a654: 20               NOP
04a655: 20               NOP
04a656: 20               NOP
04a657: 20               NOP
04a658: 20               NOP
04a659: 20               NOP
04a65a: 20               NOP
04a65b: 20               NOP
04a65c: 20               NOP
04a65d: 20               NOP
04a65e: 20               NOP
04a65f: 20               NOP
04a660: 20               NOP
04a661: 20               NOP
04a662: 20               NOP
04a663: 20               NOP
04a664: 20               NOP
04a665: 20               NOP
04a666: 20               NOP
04a667: 20               NOP
04a668: 20               NOP
04a669: 20               NOP
04a66a: 20               NOP
04a66b: 20               NOP
04a66c: 20               NOP
04a66d: 20               NOP
04a66e: 20               NOP
04a66f: 20               NOP
04a670: 20               NOP
04a671: 20               NOP
04a672: 20               NOP
04a673: 20               NOP
04a674: 20               NOP
04a675: 20               NOP
04a676: 20               NOP
04a677: 20               NOP
04a678: 20               NOP
04a679: 20               NOP
04a67a: 20               NOP
04a67b: 20               NOP
04a67c: 20               NOP
04a67d: 20               NOP
04a67e: 20               NOP
04a67f: 20               NOP
04a680: 20               NOP
04a681: 20               NOP
04a682: 20               NOP
04a683: 20               NOP
04a684: 20               NOP
04a685: 20               NOP
04a686: 20               NOP
04a687: 20               NOP
04a688: 20               NOP
04a689: 20               NOP
04a68a: 20               NOP
04a68b: 20               NOP
04a68c: 20               NOP
04a68d: 20               NOP
04a68e: 20               NOP
04a68f: 20               NOP
04a690: 20               NOP
04a691: 20               NOP
04a692: 20               NOP
04a693: 20               NOP
04a694: 20               NOP
04a695: 20               NOP
04a696: 20               NOP
04a697: 20               NOP
04a698: 20               NOP
04a699: 20               NOP
04a69a: 20               NOP
04a69b: 20               NOP
04a69c: 20               NOP
04a69d: 20               NOP
04a69e: 20               NOP
04a69f: 20               NOP
04a6a0: 20               NOP
04a6a1: 20               NOP
04a6a2: 20               NOP
04a6a3: 20               NOP
04a6a4: 20               NOP
04a6a5: 20               NOP
04a6a6: 20               NOP
04a6a7: 20               NOP
04a6a8: 20               NOP
04a6a9: 20               NOP
04a6aa: 20               NOP
04a6ab: 20               NOP
04a6ac: 20               NOP
04a6ad: 20               NOP
04a6ae: 20               NOP
04a6af: 20               NOP
04a6b0: 20               NOP
04a6b1: 20               NOP
04a6b2: 20               NOP
04a6b3: 20               NOP
04a6b4: 20               NOP
04a6b5: 20               NOP
04a6b6: 20               NOP
04a6b7: 20               NOP
04a6b8: 20               NOP
04a6b9: 20               NOP
04a6ba: 20               NOP
04a6bb: 20               NOP
04a6bc: 20               NOP
04a6bd: 20               NOP
04a6be: 20               NOP
04a6bf: 20               NOP
04a6c0: 20               NOP
04a6c1: 20               NOP
04a6c2: 20               NOP
04a6c3: 20               NOP
04a6c4: 20               NOP
04a6c5: 20               NOP
04a6c6: 20               NOP
04a6c7: 20               NOP
04a6c8: 20               NOP
04a6c9: 20               NOP
04a6ca: 20               NOP
04a6cb: 20               NOP
04a6cc: 20               NOP
04a6cd: 20               NOP
04a6ce: 20               NOP
04a6cf: 20               NOP
04a6d0: 20               NOP
04a6d1: 20               NOP
04a6d2: 20               NOP
04a6d3: 20               NOP
04a6d4: 20               NOP
04a6d5: 20               NOP
04a6d6: 20               NOP
04a6d7: 20               NOP
04a6d8: 20               NOP
04a6d9: 20               NOP
04a6da: 20               NOP
04a6db: 20               NOP
04a6dc: 20               NOP
04a6dd: 20               NOP
04a6de: 20               NOP
04a6df: 20               NOP
04a6e0: 20               NOP
04a6e1: 20               NOP
04a6e2: 20               NOP
04a6e3: 20               NOP
04a6e4: 20               NOP
04a6e5: 20               NOP
04a6e6: 20               NOP
04a6e7: 20               NOP
04a6e8: 20               NOP
04a6e9: 20               NOP
04a6ea: 20               NOP
04a6eb: 20               NOP
04a6ec: 20               NOP
04a6ed: 20               NOP
04a6ee: 20               NOP
04a6ef: 20               NOP
04a6f0: 20               NOP
04a6f1: 20               NOP
04a6f2: 20               NOP
04a6f3: 20               NOP
04a6f4: 20               NOP
04a6f5: 20               NOP
04a6f6: 20               NOP
04a6f7: 20               NOP
04a6f8: 20               NOP
04a6f9: 20               NOP
04a6fa: 20               NOP
04a6fb: 20               NOP
04a6fc: 20               NOP
04a6fd: 20               NOP
04a6fe: 20               NOP
04a6ff: 20               NOP
04a700: 20               NOP
04a701: 20               NOP
04a702: 20               NOP
04a703: 20               NOP
04a704: 20               NOP
04a705: 20               NOP
04a706: 20               NOP
04a707: 20               NOP
04a708: 20               NOP
04a709: 20               NOP
04a70a: 20               NOP
04a70b: 20               NOP
04a70c: 20               NOP
04a70d: 20               NOP
04a70e: 20               NOP
04a70f: 20               NOP
04a710: 20               NOP
04a711: 20               NOP
04a712: 20               NOP
04a713: 20               NOP
04a714: 20               NOP
04a715: 20               NOP
04a716: 20               NOP
04a717: 20               NOP
04a718: 20               NOP
04a719: 20               NOP
04a71a: 20               NOP
04a71b: 20               NOP
04a71c: 20               NOP
04a71d: 20               NOP
04a71e: 20               NOP
04a71f: 20               NOP
04a720: 20               NOP
04a721: 20               NOP
04a722: 20               NOP
04a723: 20               NOP
04a724: 20               NOP
04a725: 20               NOP
04a726: 20               NOP
04a727: 20               NOP
04a728: 20               NOP
04a729: 20               NOP
04a72a: 20               NOP
04a72b: 20               NOP
04a72c: 20               NOP
04a72d: 20               NOP
04a72e: 20               NOP
04a72f: 20               NOP
04a730: 20               NOP
04a731: 20               NOP
04a732: 20               NOP
04a733: 20               NOP
04a734: 20               NOP
04a735: 20               NOP
04a736: 20               NOP
04a737: 20               NOP
04a738: 20               NOP
04a739: 20               NOP
04a73a: 20               NOP
04a73b: 20               NOP
04a73c: 20               NOP
04a73d: 20               NOP
04a73e: 20               NOP
04a73f: 20               NOP
04a740: 20               NOP
04a741: 20               NOP
04a742: 20               NOP
04a743: 20               NOP
04a744: 20               NOP
04a745: 20               NOP
04a746: 20               NOP
04a747: 20               NOP
04a748: 20               NOP
04a749: 20               NOP
04a74a: 20               NOP
04a74b: 20               NOP
04a74c: 20               NOP
04a74d: 20               NOP
04a74e: 20               NOP
04a74f: 20               NOP
04a750: 20               NOP
04a751: 20               NOP
04a752: 20               NOP
04a753: 20               NOP
04a754: 20               NOP
04a755: 20               NOP
04a756: 20               NOP
04a757: 20               NOP
04a758: 20               NOP
04a759: 20               NOP
04a75a: 20               NOP
04a75b: 20               NOP
04a75c: 20               NOP
04a75d: 20               NOP
04a75e: 20               NOP
04a75f: 20               NOP
04a760: 20               NOP
04a761: 20               NOP
04a762: 20               NOP
04a763: 20               NOP
04a764: 20               NOP
04a765: 20               NOP
04a766: 20               NOP
04a767: 20               NOP
04a768: 20               NOP
04a769: 20               NOP
04a76a: 20               NOP
04a76b: 20               NOP
04a76c: 20               NOP
04a76d: 20               NOP
04a76e: 20               NOP
04a76f: 20               NOP
04a770: 20               NOP
04a771: 20               NOP
04a772: 20               NOP
04a773: 20               NOP
04a774: 20               NOP
04a775: 20               NOP
04a776: 20               NOP
04a777: 20               NOP
04a778: 20               NOP
04a779: 20               NOP
04a77a: 20               NOP
04a77b: 20               NOP
04a77c: 20               NOP
04a77d: 20               NOP
04a77e: 20               NOP
04a77f: 20               NOP
04a780: 20               NOP
04a781: 20               NOP
04a782: 20               NOP
04a783: 20               NOP
04a784: 20               NOP
04a785: 20               NOP
04a786: 20               NOP
04a787: 20               NOP
04a788: 20               NOP
04a789: 20               NOP
04a78a: 20               NOP
04a78b: 20               NOP
04a78c: 20               NOP
04a78d: 20               NOP
04a78e: 20               NOP
04a78f: 20               NOP
04a790: 20               NOP
04a791: 20               NOP
04a792: 20               NOP
04a793: 20               NOP
04a794: 20               NOP
04a795: 20               NOP
04a796: 20               NOP
04a797: 20               NOP
04a798: 20               NOP
04a799: 20               NOP
04a79a: 20               NOP
04a79b: 20               NOP
04a79c: 20               NOP
04a79d: 20               NOP
04a79e: 20               NOP
04a79f: 20               NOP
04a7a0: 20               NOP
04a7a1: 20               NOP
04a7a2: 20               NOP
04a7a3: 20               NOP
04a7a4: 20               NOP
04a7a5: 20               NOP
04a7a6: 20               NOP
04a7a7: 20               NOP
04a7a8: 20               NOP
04a7a9: 20               NOP
04a7aa: 20               NOP
04a7ab: 20               NOP
04a7ac: 20               NOP
04a7ad: 20               NOP
04a7ae: 20               NOP
04a7af: 20               NOP
04a7b0: 20               NOP
04a7b1: 20               NOP
04a7b2: 20               NOP
04a7b3: 20               NOP
04a7b4: 20               NOP
04a7b5: 20               NOP
04a7b6: 20               NOP
04a7b7: 20               NOP
04a7b8: 20               NOP
04a7b9: 20               NOP
04a7ba: 20               NOP
04a7bb: 20               NOP
04a7bc: 20               NOP
04a7bd: 20               NOP
04a7be: 20               NOP
04a7bf: 20               NOP
04a7c0: 20               NOP
04a7c1: 20               NOP
04a7c2: 20               NOP
04a7c3: 20               NOP
04a7c4: 20               NOP
04a7c5: 20               NOP
04a7c6: 20               NOP
04a7c7: 20               NOP
04a7c8: 20               NOP
04a7c9: 20               NOP
04a7ca: 20               NOP
04a7cb: 20               NOP
04a7cc: 20               NOP
04a7cd: 20               NOP
04a7ce: 20               NOP
04a7cf: 20               NOP
04a7d0: 20               NOP
04a7d1: 20               NOP
04a7d2: 20               NOP
04a7d3: 20               NOP
04a7d4: 20               NOP
04a7d5: 20               NOP
04a7d6: 20               NOP
04a7d7: 20               NOP
04a7d8: 20               NOP
04a7d9: 20               NOP
04a7da: 20               NOP
04a7db: 20               NOP
04a7dc: 20               NOP
04a7dd: 20               NOP
04a7de: 20               NOP
04a7df: 20               NOP
04a7e0: 20               NOP
04a7e1: 20               NOP
04a7e2: 20               NOP
04a7e3: 20               NOP
04a7e4: 20               NOP
04a7e5: 20               NOP
04a7e6: 20               NOP
04a7e7: 20               NOP
04a7e8: 20               NOP
04a7e9: 20               NOP
04a7ea: 20               NOP
04a7eb: 20               NOP
04a7ec: 20               NOP
04a7ed: 20               NOP
04a7ee: 20               NOP
04a7ef: 20               NOP
04a7f0: 20               NOP
04a7f1: 20               NOP
04a7f2: 20               NOP
04a7f3: 20               NOP
04a7f4: 20               NOP
04a7f5: 20               NOP
04a7f6: 20               NOP
04a7f7: 20               NOP
04a7f8: 20               NOP
04a7f9: 20               NOP
04a7fa: 20               NOP
04a7fb: 20               NOP
04a7fc: 20               NOP
04a7fd: 20               NOP
04a7fe: 20               NOP
04a7ff: 20               NOP
04a800: 20               NOP
04a801: 20               NOP
04a802: 20               NOP
04a803: 20               NOP
04a804: 20               NOP
04a805: 20               NOP
04a806: 20               NOP
04a807: 20               NOP
04a808: 20               NOP
04a809: 20               NOP
04a80a: 20               NOP
04a80b: 20               NOP
04a80c: 20               NOP
04a80d: 20               NOP
04a80e: 20               NOP
04a80f: 20               NOP
04a810: 20               NOP
04a811: 20               NOP
04a812: 20               NOP
04a813: 20               NOP
04a814: 20               NOP
04a815: 20               NOP
04a816: 20               NOP
04a817: 20               NOP
04a818: 20               NOP
04a819: 20               NOP
04a81a: 20               NOP
04a81b: 20               NOP
04a81c: 20               NOP
04a81d: 20               NOP
04a81e: 20               NOP
04a81f: 20               NOP
04a820: 20               NOP
04a821: 20               NOP
04a822: 20               NOP
04a823: 20               NOP
04a824: 20               NOP
04a825: 20               NOP
04a826: 20               NOP
04a827: 20               NOP
04a828: 20               NOP
04a829: 20               NOP
04a82a: 20               NOP
04a82b: 20               NOP
04a82c: 20               NOP
04a82d: 20               NOP
04a82e: 20               NOP
04a82f: 20               NOP
04a830: 20               NOP
04a831: 20               NOP
04a832: 20               NOP
04a833: 20               NOP
04a834: 20               NOP
04a835: 20               NOP
04a836: 20               NOP
04a837: 20               NOP
04a838: 20               NOP
04a839: 20               NOP
04a83a: 20               NOP
04a83b: 20               NOP
04a83c: 20               NOP
04a83d: 20               NOP
04a83e: 20               NOP
04a83f: 20               NOP
04a840: 20               NOP
04a841: 20               NOP
04a842: 20               NOP
04a843: 20               NOP
04a844: 20               NOP
04a845: 20               NOP
04a846: 20               NOP
04a847: 20               NOP
04a848: 20               NOP
04a849: 20               NOP
04a84a: 20               NOP
04a84b: 20               NOP
04a84c: 20               NOP
04a84d: 20               NOP
04a84e: 20               NOP
04a84f: 20               NOP
04a850: 20               NOP
04a851: 20               NOP
04a852: 20               NOP
04a853: 20               NOP
04a854: 20               NOP
04a855: 20               NOP
04a856: 20               NOP
04a857: 20               NOP
04a858: 20               NOP
04a859: 20               NOP
04a85a: 20               NOP
04a85b: 20               NOP
04a85c: 20               NOP
04a85d: 20               NOP
04a85e: 20               NOP
04a85f: 20               NOP
04a860: 20               NOP
04a861: 20               NOP
04a862: 20               NOP
04a863: 20               NOP
04a864: 20               NOP
04a865: 20               NOP
04a866: 20               NOP
04a867: 20               NOP
04a868: 20               NOP
04a869: 20               NOP
04a86a: 20               NOP
04a86b: 20               NOP
04a86c: 20               NOP
04a86d: 20               NOP
04a86e: 20               NOP
04a86f: 20               NOP
04a870: 20               NOP
04a871: 20               NOP
04a872: 20               NOP
04a873: 20               NOP
04a874: 20               NOP
04a875: 20               NOP
04a876: 20               NOP
04a877: 20               NOP
04a878: 20               NOP
04a879: 20               NOP
04a87a: 20               NOP
04a87b: 20               NOP
04a87c: 20               NOP
04a87d: 20               NOP
04a87e: 20               NOP
04a87f: 20               NOP
04a880: 20               NOP
04a881: 20               NOP
04a882: 20               NOP
04a883: 20               NOP
04a884: 20               NOP
04a885: 20               NOP
04a886: 20               NOP
04a887: 20               NOP
04a888: 20               NOP
04a889: 20               NOP
04a88a: 20               NOP
04a88b: 20               NOP
04a88c: 20               NOP
04a88d: 20               NOP
04a88e: 20               NOP
04a88f: 20               NOP
04a890: 20               NOP
04a891: 20               NOP
04a892: 20               NOP
04a893: 20               NOP
04a894: 20               NOP
04a895: 20               NOP
04a896: 20               NOP
04a897: 20               NOP
04a898: 20               NOP
04a899: 20               NOP
04a89a: 20               NOP
04a89b: 20               NOP
04a89c: 20               NOP
04a89d: 20               NOP
04a89e: 20               NOP
04a89f: 20               NOP
04a8a0: 20               NOP
04a8a1: 20               NOP
04a8a2: 20               NOP
04a8a3: 20               NOP
04a8a4: 20               NOP
04a8a5: 20               NOP
04a8a6: 20               NOP
04a8a7: 20               NOP
04a8a8: 20               NOP
04a8a9: 20               NOP
04a8aa: 20               NOP
04a8ab: 20               NOP
04a8ac: 20               NOP
04a8ad: 20               NOP
04a8ae: 20               NOP
04a8af: 20               NOP
04a8b0: 20               NOP
04a8b1: 20               NOP
04a8b2: 20               NOP
04a8b3: 20               NOP
04a8b4: 20               NOP
04a8b5: 20               NOP
04a8b6: 20               NOP
04a8b7: 20               NOP
04a8b8: 20               NOP
04a8b9: 20               NOP
04a8ba: 20               NOP
04a8bb: 20               NOP
04a8bc: 20               NOP
04a8bd: 20               NOP
04a8be: 20               NOP
04a8bf: 20               NOP
04a8c0: 20               NOP
04a8c1: 20               NOP
04a8c2: 20               NOP
04a8c3: 20               NOP
04a8c4: 20               NOP
04a8c5: 20               NOP
04a8c6: 20               NOP
04a8c7: 20               NOP
04a8c8: 20               NOP
04a8c9: 20               NOP
04a8ca: 20               NOP
04a8cb: 20               NOP
04a8cc: 20               NOP
04a8cd: 20               NOP
04a8ce: 20               NOP
04a8cf: 20               NOP
04a8d0: 20               NOP
04a8d1: 20               NOP
04a8d2: 20               NOP
04a8d3: 20               NOP
04a8d4: 20               NOP
04a8d5: 20               NOP
04a8d6: 20               NOP
04a8d7: 20               NOP
04a8d8: 20               NOP
04a8d9: 20               NOP
04a8da: 20               NOP
04a8db: 20               NOP
04a8dc: 20               NOP
04a8dd: 20               NOP
04a8de: 20               NOP
04a8df: 20               NOP
04a8e0: 20               NOP
04a8e1: 20               NOP
04a8e2: 20               NOP
04a8e3: 20               NOP
04a8e4: 20               NOP
04a8e5: 20               NOP
04a8e6: 20               NOP
04a8e7: 20               NOP
04a8e8: 20               NOP
04a8e9: 20               NOP
04a8ea: 20               NOP
04a8eb: 20               NOP
04a8ec: 20               NOP
04a8ed: 20               NOP
04a8ee: 20               NOP
04a8ef: 20               NOP
04a8f0: 20               NOP
04a8f1: 20               NOP
04a8f2: 20               NOP
04a8f3: 20               NOP
04a8f4: 20               NOP
04a8f5: 20               NOP
04a8f6: 20               NOP
04a8f7: 20               NOP
04a8f8: 20               NOP
04a8f9: 20               NOP
04a8fa: 20               NOP
04a8fb: 20               NOP
04a8fc: 20               NOP
04a8fd: 20               NOP
04a8fe: 20               NOP
04a8ff: 20               NOP
04a900: 20               NOP
04a901: 20               NOP
04a902: 20               NOP
04a903: 20               NOP
04a904: 20               NOP
04a905: 20               NOP
04a906: 20               NOP
04a907: 20               NOP
04a908: 20               NOP
04a909: 20               NOP
04a90a: 20               NOP
04a90b: 20               NOP
04a90c: 20               NOP
04a90d: 20               NOP
04a90e: 20               NOP
04a90f: 20               NOP
04a910: 20               NOP
04a911: 20               NOP
04a912: 20               NOP
04a913: 20               NOP
04a914: 20               NOP
04a915: 20               NOP
04a916: 20               NOP
04a917: 20               NOP
04a918: 20               NOP
04a919: 20               NOP
04a91a: 20               NOP
04a91b: 20               NOP
04a91c: 20               NOP
04a91d: 20               NOP
04a91e: 20               NOP
04a91f: 20               NOP
04a920: 20               NOP
04a921: 20               NOP
04a922: 20               NOP
04a923: 20               NOP
04a924: 20               NOP
04a925: 20               NOP
04a926: 20               NOP
04a927: 20               NOP
04a928: 20               NOP
04a929: 20               NOP
04a92a: 20               NOP
04a92b: 20               NOP
04a92c: 20               NOP
04a92d: 20               NOP
04a92e: 20               NOP
04a92f: 20               NOP
04a930: 20               NOP
04a931: 20               NOP
04a932: 20               NOP
04a933: 20               NOP
04a934: 20               NOP
04a935: 20               NOP
04a936: 20               NOP
04a937: 20               NOP
04a938: 20               NOP
04a939: 20               NOP
04a93a: 20               NOP
04a93b: 20               NOP
04a93c: 20               NOP
04a93d: 20               NOP
04a93e: 20               NOP
04a93f: 20               NOP
04a940: 20               NOP
04a941: 20               NOP
04a942: 20               NOP
04a943: 20               NOP
04a944: 20               NOP
04a945: 20               NOP
04a946: 20               NOP
04a947: 20               NOP
04a948: 20               NOP
04a949: 20               NOP
04a94a: 20               NOP
04a94b: 20               NOP
04a94c: 20               NOP
04a94d: 20               NOP
04a94e: 20               NOP
04a94f: 20               NOP
04a950: 20               NOP
04a951: 20               NOP
04a952: 20               NOP
04a953: 20               NOP
04a954: 20               NOP
04a955: 20               NOP
04a956: 20               NOP
04a957: 20               NOP
04a958: 20               NOP
04a959: 20               NOP
04a95a: 20               NOP
04a95b: 20               NOP
04a95c: 20               NOP
04a95d: 20               NOP
04a95e: 20               NOP
04a95f: 20               NOP
04a960: 20               NOP
04a961: 20               NOP
04a962: 20               NOP
04a963: 20               NOP
04a964: 20               NOP
04a965: 20               NOP
04a966: 20               NOP
04a967: 20               NOP
04a968: 20               NOP
04a969: 20               NOP
04a96a: 20               NOP
04a96b: 20               NOP
04a96c: 20               NOP
04a96d: 20               NOP
04a96e: 20               NOP
04a96f: 20               NOP
04a970: 20               NOP
04a971: 20               NOP
04a972: 20               NOP
04a973: 20               NOP
04a974: 20               NOP
04a975: 20               NOP
04a976: 20               NOP
04a977: 20               NOP
04a978: 20               NOP
04a979: 20               NOP
04a97a: 20               NOP
04a97b: 20               NOP
04a97c: 20               NOP
04a97d: 20               NOP
04a97e: 20               NOP
04a97f: 20               NOP
04a980: 20               NOP
04a981: 20               NOP
04a982: 20               NOP
04a983: 20               NOP
04a984: 20               NOP
04a985: 20               NOP
04a986: 20               NOP
04a987: 20               NOP
04a988: 20               NOP
04a989: 20               NOP
04a98a: 20               NOP
04a98b: 20               NOP
04a98c: 20               NOP
04a98d: 20               NOP
04a98e: 20               NOP
04a98f: 20               NOP
04a990: 20               NOP
04a991: 20               NOP
04a992: 20               NOP
04a993: 20               NOP
04a994: 20               NOP
04a995: 20               NOP
04a996: 20               NOP
04a997: 20               NOP
04a998: 20               NOP
04a999: 20               NOP
04a99a: 20               NOP
04a99b: 20               NOP
04a99c: 20               NOP
04a99d: 20               NOP
04a99e: 20               NOP
04a99f: 20               NOP
04a9a0: 20               NOP
04a9a1: 20               NOP
04a9a2: 20               NOP
04a9a3: 20               NOP
04a9a4: 20               NOP
04a9a5: 20               NOP
04a9a6: 20               NOP
04a9a7: 20               NOP
04a9a8: 20               NOP
04a9a9: 20               NOP
04a9aa: 20               NOP
04a9ab: 20               NOP
04a9ac: 20               NOP
04a9ad: 20               NOP
04a9ae: 20               NOP
04a9af: 20               NOP
04a9b0: 20               NOP
04a9b1: 20               NOP
04a9b2: 20               NOP
04a9b3: 20               NOP
04a9b4: 20               NOP
04a9b5: 20               NOP
04a9b6: 20               NOP
04a9b7: 20               NOP
04a9b8: 20               NOP
04a9b9: 20               NOP
04a9ba: 20               NOP
04a9bb: 20               NOP
04a9bc: 20               NOP
04a9bd: 20               NOP
04a9be: 20               NOP
04a9bf: 20               NOP
04a9c0: 20               NOP
04a9c1: 20               NOP
04a9c2: 20               NOP
04a9c3: 20               NOP
04a9c4: 20               NOP
04a9c5: 20               NOP
04a9c6: 20               NOP
04a9c7: 20               NOP
04a9c8: 20               NOP
04a9c9: 20               NOP
04a9ca: 20               NOP
04a9cb: 20               NOP
04a9cc: 20               NOP
04a9cd: 20               NOP
04a9ce: 20               NOP
04a9cf: 20               NOP
04a9d0: 20               NOP
04a9d1: 20               NOP
04a9d2: 20               NOP
04a9d3: 20               NOP
04a9d4: 20               NOP
04a9d5: 20               NOP
04a9d6: 20               NOP
04a9d7: 20               NOP
04a9d8: 20               NOP
04a9d9: 20               NOP
04a9da: 20               NOP
04a9db: 20               NOP
04a9dc: 20               NOP
04a9dd: 20               NOP
04a9de: 20               NOP
04a9df: 20               NOP
04a9e0: 20               NOP
04a9e1: 20               NOP
04a9e2: 20               NOP
04a9e3: 20               NOP
04a9e4: 20               NOP
04a9e5: 20               NOP
04a9e6: 20               NOP
04a9e7: 20               NOP
04a9e8: 20               NOP
04a9e9: 20               NOP
04a9ea: 20               NOP
04a9eb: 20               NOP
04a9ec: 20               NOP
04a9ed: 20               NOP
04a9ee: 20               NOP
04a9ef: 20               NOP
04a9f0: 20               NOP
04a9f1: 20               NOP
04a9f2: 20               NOP
04a9f3: 20               NOP
04a9f4: 20               NOP
04a9f5: 20               NOP
04a9f6: 20               NOP
04a9f7: 20               NOP
04a9f8: 20               NOP
04a9f9: 20               NOP
04a9fa: 20               NOP
04a9fb: 20               NOP
04a9fc: 20               NOP
04a9fd: 20               NOP
04a9fe: 20               NOP
04a9ff: 20               NOP
04aa00: 20               NOP
04aa01: 20               NOP
04aa02: 20               NOP
04aa03: 20               NOP
04aa04: 20               NOP
04aa05: 20               NOP
04aa06: 20               NOP
04aa07: 20               NOP
04aa08: 20               NOP
04aa09: 20               NOP
04aa0a: 20               NOP
04aa0b: 20               NOP
04aa0c: 20               NOP
04aa0d: 20               NOP
04aa0e: 20               NOP
04aa0f: 20               NOP
04aa10: 20               NOP
04aa11: 20               NOP
04aa12: 20               NOP
04aa13: 20               NOP
04aa14: 20               NOP
04aa15: 20               NOP
04aa16: 20               NOP
04aa17: 20               NOP
04aa18: 20               NOP
04aa19: 20               NOP
04aa1a: 20               NOP
04aa1b: 20               NOP
04aa1c: 20               NOP
04aa1d: 20               NOP
04aa1e: 20               NOP
04aa1f: 20               NOP
04aa20: 20               NOP
04aa21: 20               NOP
04aa22: 20               NOP
04aa23: 20               NOP
04aa24: 20               NOP
04aa25: 20               NOP
04aa26: 20               NOP
04aa27: 20               NOP
04aa28: 20               NOP
04aa29: 20               NOP
04aa2a: 20               NOP
04aa2b: 20               NOP
04aa2c: 20               NOP
04aa2d: 20               NOP
04aa2e: 20               NOP
04aa2f: 20               NOP
04aa30: 20               NOP
04aa31: 20               NOP
04aa32: 20               NOP
04aa33: 20               NOP
04aa34: 20               NOP
04aa35: 20               NOP
04aa36: 20               NOP
04aa37: 20               NOP
04aa38: 20               NOP
04aa39: 20               NOP
04aa3a: 20               NOP
04aa3b: 20               NOP
04aa3c: 20               NOP
04aa3d: 20               NOP
04aa3e: 20               NOP
04aa3f: 20               NOP
04aa40: 20               NOP
04aa41: 20               NOP
04aa42: 20               NOP
04aa43: 20               NOP
04aa44: 20               NOP
04aa45: 20               NOP
04aa46: 20               NOP
04aa47: 20               NOP
04aa48: 20               NOP
04aa49: 20               NOP
04aa4a: 20               NOP
04aa4b: 20               NOP
04aa4c: 20               NOP
04aa4d: 20               NOP
04aa4e: 20               NOP
04aa4f: 20               NOP
04aa50: 20               NOP
04aa51: 20               NOP
04aa52: 20               NOP
04aa53: 20               NOP
04aa54: 20               NOP
04aa55: 20               NOP
04aa56: 20               NOP
04aa57: 20               NOP
04aa58: 20               NOP
04aa59: 20               NOP
04aa5a: 20               NOP
04aa5b: 20               NOP
04aa5c: 20               NOP
04aa5d: 20               NOP
04aa5e: 20               NOP
04aa5f: 20               NOP
04aa60: 20               NOP
04aa61: 20               NOP
04aa62: 20               NOP
04aa63: 20               NOP
04aa64: 20               NOP
04aa65: 20               NOP
04aa66: 20               NOP
04aa67: 20               NOP
04aa68: 20               NOP
04aa69: 20               NOP
04aa6a: 20               NOP
04aa6b: 20               NOP
04aa6c: 20               NOP
04aa6d: 20               NOP
04aa6e: 20               NOP
04aa6f: 20               NOP
04aa70: 20               NOP
04aa71: 20               NOP
04aa72: 20               NOP
04aa73: 20               NOP
04aa74: 20               NOP
04aa75: 20               NOP
04aa76: 20               NOP
04aa77: 20               NOP
04aa78: 20               NOP
04aa79: 20               NOP
04aa7a: 20               NOP
04aa7b: 20               NOP
04aa7c: 20               NOP
04aa7d: 20               NOP
04aa7e: 20               NOP
04aa7f: 20               NOP
04aa80: 20               NOP
04aa81: 20               NOP
04aa82: 20               NOP
04aa83: 20               NOP
04aa84: 20               NOP
04aa85: 20               NOP
04aa86: 20               NOP
04aa87: 20               NOP
04aa88: 20               NOP
04aa89: 20               NOP
04aa8a: 20               NOP
04aa8b: 20               NOP
04aa8c: 20               NOP
04aa8d: 20               NOP
04aa8e: 20               NOP
04aa8f: 20               NOP
04aa90: 20               NOP
04aa91: 20               NOP
04aa92: 20               NOP
04aa93: 20               NOP
04aa94: 20               NOP
04aa95: 20               NOP
04aa96: 20               NOP
04aa97: 20               NOP
04aa98: 20               NOP
04aa99: 20               NOP
04aa9a: 20               NOP
04aa9b: 20               NOP
04aa9c: 20               NOP
04aa9d: 20               NOP
04aa9e: 20               NOP
04aa9f: 20               NOP
04aaa0: 20               NOP
04aaa1: 20               NOP
04aaa2: 20               NOP
04aaa3: 20               NOP
04aaa4: 20               NOP
04aaa5: 20               NOP
04aaa6: 20               NOP
04aaa7: 20               NOP
04aaa8: 20               NOP
04aaa9: 20               NOP
04aaaa: 20               NOP
04aaab: 20               NOP
04aaac: 20               NOP
04aaad: 20               NOP
04aaae: 20               NOP
04aaaf: 20               NOP
04aab0: 20               NOP
04aab1: 20               NOP
04aab2: 20               NOP
04aab3: 20               NOP
04aab4: 20               NOP
04aab5: 20               NOP
04aab6: 20               NOP
04aab7: 20               NOP
04aab8: 20               NOP
04aab9: 20               NOP
04aaba: 20               NOP
04aabb: 20               NOP
04aabc: 20               NOP
04aabd: 20               NOP
04aabe: 20               NOP
04aabf: 20               NOP
04aac0: 20               NOP
04aac1: 20               NOP
04aac2: 20               NOP
04aac3: 20               NOP
04aac4: 20               NOP
04aac5: 20               NOP
04aac6: 20               NOP
04aac7: 20               NOP
04aac8: 20               NOP
04aac9: 20               NOP
04aaca: 20               NOP
04aacb: 20               NOP
04aacc: 20               NOP
04aacd: 20               NOP
04aace: 20               NOP
04aacf: 20               NOP
04aad0: 20               NOP
04aad1: 20               NOP
04aad2: 20               NOP
04aad3: 20               NOP
04aad4: 20               NOP
04aad5: 20               NOP
04aad6: 20               NOP
04aad7: 20               NOP
04aad8: 20               NOP
04aad9: 20               NOP
04aada: 20               NOP
04aadb: 20               NOP
04aadc: 20               NOP
04aadd: 20               NOP
04aade: 20               NOP
04aadf: 20               NOP
04aae0: 20               NOP
04aae1: 20               NOP
04aae2: 20               NOP
04aae3: 20               NOP
04aae4: 20               NOP
04aae5: 20               NOP
04aae6: 20               NOP
04aae7: 20               NOP
04aae8: 20               NOP
04aae9: 20               NOP
04aaea: 20               NOP
04aaeb: 20               NOP
04aaec: 20               NOP
04aaed: 20               NOP
04aaee: 20               NOP
04aaef: 20               NOP
04aaf0: 20               NOP
04aaf1: 20               NOP
04aaf2: 20               NOP
04aaf3: 20               NOP
04aaf4: 20               NOP
04aaf5: 20               NOP
04aaf6: 20               NOP
04aaf7: 20               NOP
04aaf8: 20               NOP
04aaf9: 20               NOP
04aafa: 20               NOP
04aafb: 20               NOP
04aafc: 20               NOP
04aafd: 20               NOP
04aafe: 20               NOP
04aaff: 20               NOP
04ab00: 20               NOP
04ab01: 20               NOP
04ab02: 20               NOP
04ab03: 20               NOP
04ab04: 20               NOP
04ab05: 20               NOP
04ab06: 20               NOP
04ab07: 20               NOP
04ab08: 20               NOP
04ab09: 20               NOP
04ab0a: 20               NOP
04ab0b: 20               NOP
04ab0c: 20               NOP
04ab0d: 20               NOP
04ab0e: 20               NOP
04ab0f: 20               NOP
04ab10: 20               NOP
04ab11: 20               NOP
04ab12: 20               NOP
04ab13: 20               NOP
04ab14: 20               NOP
04ab15: 20               NOP
04ab16: 20               NOP
04ab17: 20               NOP
04ab18: 20               NOP
04ab19: 20               NOP
04ab1a: 20               NOP
04ab1b: 20               NOP
04ab1c: 20               NOP
04ab1d: 20               NOP
04ab1e: 20               NOP
04ab1f: 20               NOP
04ab20: 20               NOP
04ab21: 20               NOP
04ab22: 20               NOP
04ab23: 20               NOP
04ab24: 20               NOP
04ab25: 20               NOP
04ab26: 20               NOP
04ab27: 20               NOP
04ab28: 20               NOP
04ab29: 20               NOP
04ab2a: 20               NOP
04ab2b: 20               NOP
04ab2c: 20               NOP
04ab2d: 20               NOP
04ab2e: 20               NOP
04ab2f: 20               NOP
04ab30: 20               NOP
04ab31: 20               NOP
04ab32: 20               NOP
04ab33: 20               NOP
04ab34: 20               NOP
04ab35: 20               NOP
04ab36: 20               NOP
04ab37: 20               NOP
04ab38: 20               NOP
04ab39: 20               NOP
04ab3a: 20               NOP
04ab3b: 20               NOP
04ab3c: 20               NOP
04ab3d: 20               NOP
04ab3e: 20               NOP
04ab3f: 20               NOP
04ab40: 20               NOP
04ab41: 20               NOP
04ab42: 20               NOP
04ab43: 20               NOP
04ab44: 20               NOP
04ab45: 20               NOP
04ab46: 20               NOP
04ab47: 20               NOP
04ab48: 20               NOP
04ab49: 20               NOP
04ab4a: 20               NOP
04ab4b: 20               NOP
04ab4c: 20               NOP
04ab4d: 20               NOP
04ab4e: 20               NOP
04ab4f: 20               NOP
04ab50: 20               NOP
04ab51: 20               NOP
04ab52: 20               NOP
04ab53: 20               NOP
04ab54: 20               NOP
04ab55: 20               NOP
04ab56: 20               NOP
04ab57: 20               NOP
04ab58: 20               NOP
04ab59: 20               NOP
04ab5a: 20               NOP
04ab5b: 20               NOP
04ab5c: 20               NOP
04ab5d: 20               NOP
04ab5e: 20               NOP
04ab5f: 20               NOP
04ab60: 20               NOP
04ab61: 20               NOP
04ab62: 20               NOP
04ab63: 20               NOP
04ab64: 20               NOP
04ab65: 20               NOP
04ab66: 20               NOP
04ab67: 20               NOP
04ab68: 20               NOP
04ab69: 20               NOP
04ab6a: 20               NOP
04ab6b: 20               NOP
04ab6c: 20               NOP
04ab6d: 20               NOP
04ab6e: 20               NOP
04ab6f: 20               NOP
04ab70: 20               NOP
04ab71: 20               NOP
04ab72: 20               NOP
04ab73: 20               NOP
04ab74: 20               NOP
04ab75: 20               NOP
04ab76: 20               NOP
04ab77: 20               NOP
04ab78: 20               NOP
04ab79: 20               NOP
04ab7a: 20               NOP
04ab7b: 20               NOP
04ab7c: 20               NOP
04ab7d: 20               NOP
04ab7e: 20               NOP
04ab7f: 20               NOP
04ab80: 20               NOP
04ab81: 20               NOP
04ab82: 20               NOP
04ab83: 20               NOP
04ab84: 20               NOP
04ab85: 20               NOP
04ab86: 20               NOP
04ab87: 20               NOP
04ab88: 20               NOP
04ab89: 20               NOP
04ab8a: 20               NOP
04ab8b: 20               NOP
04ab8c: 20               NOP
04ab8d: 20               NOP
04ab8e: 20               NOP
04ab8f: 20               NOP
04ab90: 20               NOP
04ab91: 20               NOP
04ab92: 20               NOP
04ab93: 20               NOP
04ab94: 20               NOP
04ab95: 20               NOP
04ab96: 20               NOP
04ab97: 20               NOP
04ab98: 20               NOP
04ab99: 20               NOP
04ab9a: 20               NOP
04ab9b: 20               NOP
04ab9c: 20               NOP
04ab9d: 20               NOP
04ab9e: 20               NOP
04ab9f: 20               NOP
04aba0: 20               NOP
04aba1: 20               NOP
04aba2: 20               NOP
04aba3: 20               NOP
04aba4: 20               NOP
04aba5: 20               NOP
04aba6: 20               NOP
04aba7: 20               NOP
04aba8: 20               NOP
04aba9: 20               NOP
04abaa: 20               NOP
04abab: 20               NOP
04abac: 20               NOP
04abad: 20               NOP
04abae: 20               NOP
04abaf: 20               NOP
04abb0: 20               NOP
04abb1: 20               NOP
04abb2: 20               NOP
04abb3: 20               NOP
04abb4: 20               NOP
04abb5: 20               NOP
04abb6: 20               NOP
04abb7: 20               NOP
04abb8: 20               NOP
04abb9: 20               NOP
04abba: 20               NOP
04abbb: 20               NOP
04abbc: 20               NOP
04abbd: 20               NOP
04abbe: 20               NOP
04abbf: 20               NOP
04abc0: 20               NOP
04abc1: 20               NOP
04abc2: 20               NOP
04abc3: 20               NOP
04abc4: 20               NOP
04abc5: 20               NOP
04abc6: 20               NOP
04abc7: 20               NOP
04abc8: 20               NOP
04abc9: 20               NOP
04abca: 20               NOP
04abcb: 20               NOP
04abcc: 20               NOP
04abcd: 20               NOP
04abce: 20               NOP
04abcf: 20               NOP
04abd0: 20               NOP
04abd1: 20               NOP
04abd2: 20               NOP
04abd3: 20               NOP
04abd4: 20               NOP
04abd5: 20               NOP
04abd6: 20               NOP
04abd7: 20               NOP
04abd8: 20               NOP
04abd9: 20               NOP
04abda: 20               NOP
04abdb: 20               NOP
04abdc: 20               NOP
04abdd: 20               NOP
04abde: 20               NOP
04abdf: 20               NOP
04abe0: 20               NOP
04abe1: 20               NOP
04abe2: 20               NOP
04abe3: 20               NOP
04abe4: 20               NOP
04abe5: 20               NOP
04abe6: 20               NOP
04abe7: 20               NOP
04abe8: 20               NOP
04abe9: 20               NOP
04abea: 20               NOP
04abeb: 20               NOP
04abec: 20               NOP
04abed: 20               NOP
04abee: 20               NOP
04abef: 20               NOP
04abf0: 20               NOP
04abf1: 20               NOP
04abf2: 20               NOP
04abf3: 20               NOP
04abf4: 20               NOP
04abf5: 20               NOP
04abf6: 20               NOP
04abf7: 20               NOP
04abf8: 20               NOP
04abf9: 20               NOP
04abfa: 20               NOP
04abfb: 20               NOP
04abfc: 20               NOP
04abfd: 20               NOP
04abfe: 20               NOP
04abff: 20               NOP
04ac00: 20               NOP
04ac01: 20               NOP
04ac02: 20               NOP
04ac03: 20               NOP
04ac04: 20               NOP
04ac05: 20               NOP
04ac06: 20               NOP
04ac07: 20               NOP
04ac08: 20               NOP
04ac09: 20               NOP
04ac0a: 20               NOP
04ac0b: 20               NOP
04ac0c: 20               NOP
04ac0d: 20               NOP
04ac0e: 20               NOP
04ac0f: 20               NOP
04ac10: 20               NOP
04ac11: 20               NOP
04ac12: 20               NOP
04ac13: 20               NOP
04ac14: 20               NOP
04ac15: 20               NOP
04ac16: 20               NOP
04ac17: 20               NOP
04ac18: 20               NOP
04ac19: 20               NOP
04ac1a: 20               NOP
04ac1b: 20               NOP
04ac1c: 20               NOP
04ac1d: 20               NOP
04ac1e: 20               NOP
04ac1f: 20               NOP
04ac20: 20               NOP
04ac21: 20               NOP
04ac22: 20               NOP
04ac23: 20               NOP
04ac24: 20               NOP
04ac25: 20               NOP
04ac26: 20               NOP
04ac27: 20               NOP
04ac28: 20               NOP
04ac29: 20               NOP
04ac2a: 20               NOP
04ac2b: 20               NOP
04ac2c: 20               NOP
04ac2d: 20               NOP
04ac2e: 20               NOP
04ac2f: 20               NOP
04ac30: 20               NOP
04ac31: 20               NOP
04ac32: 20               NOP
04ac33: 20               NOP
04ac34: 20               NOP
04ac35: 20               NOP
04ac36: 20               NOP
04ac37: 20               NOP
04ac38: 20               NOP
04ac39: 20               NOP
04ac3a: 20               NOP
04ac3b: 20               NOP
04ac3c: 20               NOP
04ac3d: 20               NOP
04ac3e: 20               NOP
04ac3f: 20               NOP
04ac40: 20               NOP
04ac41: 20               NOP
04ac42: 20               NOP
04ac43: 20               NOP
04ac44: 20               NOP
04ac45: 20               NOP
04ac46: 20               NOP
04ac47: 20               NOP
04ac48: 20               NOP
04ac49: 20               NOP
04ac4a: 20               NOP
04ac4b: 20               NOP
04ac4c: 20               NOP
04ac4d: 20               NOP
04ac4e: 20               NOP
04ac4f: 20               NOP
04ac50: 20               NOP
04ac51: 20               NOP
04ac52: 20               NOP
04ac53: 20               NOP
04ac54: 20               NOP
04ac55: 20               NOP
04ac56: 20               NOP
04ac57: 20               NOP
04ac58: 20               NOP
04ac59: 20               NOP
04ac5a: 20               NOP
04ac5b: 20               NOP
04ac5c: 20               NOP
04ac5d: 20               NOP
04ac5e: 20               NOP
04ac5f: 20               NOP
04ac60: 20               NOP
04ac61: 20               NOP
04ac62: 20               NOP
04ac63: 20               NOP
04ac64: 20               NOP
04ac65: 20               NOP
04ac66: 20               NOP
04ac67: 20               NOP
04ac68: 20               NOP
04ac69: 20               NOP
04ac6a: 20               NOP
04ac6b: 20               NOP
04ac6c: 20               NOP
04ac6d: 20               NOP
04ac6e: 20               NOP
04ac6f: 20               NOP
04ac70: 20               NOP
04ac71: 20               NOP
04ac72: 20               NOP
04ac73: 20               NOP
04ac74: 20               NOP
04ac75: 20               NOP
04ac76: 20               NOP
04ac77: 20               NOP
04ac78: 20               NOP
04ac79: 20               NOP
04ac7a: 20               NOP
04ac7b: 20               NOP
04ac7c: 20               NOP
04ac7d: 20               NOP
04ac7e: 20               NOP
04ac7f: 20               NOP
04ac80: 20               NOP
04ac81: 20               NOP
04ac82: 20               NOP
04ac83: 20               NOP
04ac84: 20               NOP
04ac85: 20               NOP
04ac86: 20               NOP
04ac87: 20               NOP
04ac88: 20               NOP
04ac89: 20               NOP
04ac8a: 20               NOP
04ac8b: 20               NOP
04ac8c: 20               NOP
04ac8d: 20               NOP
04ac8e: 20               NOP
04ac8f: 20               NOP
04ac90: 20               NOP
04ac91: 20               NOP
04ac92: 20               NOP
04ac93: 20               NOP
04ac94: 20               NOP
04ac95: 20               NOP
04ac96: 20               NOP
04ac97: 20               NOP
04ac98: 20               NOP
04ac99: 20               NOP
04ac9a: 20               NOP
04ac9b: 20               NOP
04ac9c: 20               NOP
04ac9d: 20               NOP
04ac9e: 20               NOP
04ac9f: 20               NOP
04aca0: 20               NOP
04aca1: 20               NOP
04aca2: 20               NOP
04aca3: 20               NOP
04aca4: 20               NOP
04aca5: 20               NOP
04aca6: 20               NOP
04aca7: 20               NOP
04aca8: 20               NOP
04aca9: 20               NOP
04acaa: 20               NOP
04acab: 20               NOP
04acac: 20               NOP
04acad: 20               NOP
04acae: 20               NOP
04acaf: 20               NOP
04acb0: 20               NOP
04acb1: 20               NOP
04acb2: 20               NOP
04acb3: 20               NOP
04acb4: 20               NOP
04acb5: 20               NOP
04acb6: 20               NOP
04acb7: 20               NOP
04acb8: 20               NOP
04acb9: 20               NOP
04acba: 20               NOP
04acbb: 20               NOP
04acbc: 20               NOP
04acbd: 20               NOP
04acbe: 20               NOP
04acbf: 20               NOP
04acc0: 20               NOP
04acc1: 20               NOP
04acc2: 20               NOP
04acc3: 20               NOP
04acc4: 20               NOP
04acc5: 20               NOP
04acc6: 20               NOP
04acc7: 20               NOP
04acc8: 20               NOP
04acc9: 20               NOP
04acca: 20               NOP
04accb: 20               NOP
04accc: 20               NOP
04accd: 20               NOP
04acce: 20               NOP
04accf: 20               NOP
04acd0: 20               NOP
04acd1: 20               NOP
04acd2: 20               NOP
04acd3: 20               NOP
04acd4: 20               NOP
04acd5: 20               NOP
04acd6: 20               NOP
04acd7: 20               NOP
04acd8: 20               NOP
04acd9: 20               NOP
04acda: 20               NOP
04acdb: 20               NOP
04acdc: 20               NOP
04acdd: 20               NOP
04acde: 20               NOP
04acdf: 20               NOP
04ace0: 20               NOP
04ace1: 20               NOP
04ace2: 20               NOP
04ace3: 20               NOP
04ace4: 20               NOP
04ace5: 20               NOP
04ace6: 20               NOP
04ace7: 20               NOP
04ace8: 20               NOP
04ace9: 20               NOP
04acea: 20               NOP
04aceb: 20               NOP
04acec: 20               NOP
04aced: 20               NOP
04acee: 20               NOP
04acef: 20               NOP
04acf0: 20               NOP
04acf1: 20               NOP
04acf2: 20               NOP
04acf3: 20               NOP
04acf4: 20               NOP
04acf5: 20               NOP
04acf6: 20               NOP
04acf7: 20               NOP
04acf8: 20               NOP
04acf9: 20               NOP
04acfa: 20               NOP
04acfb: 20               NOP
04acfc: 20               NOP
04acfd: 20               NOP
04acfe: 20               NOP
04acff: 20               NOP
04ad00: 20               NOP
04ad01: 20               NOP
04ad02: 20               NOP
04ad03: 20               NOP
04ad04: 20               NOP
04ad05: 20               NOP
04ad06: 20               NOP
04ad07: 20               NOP
04ad08: 20               NOP
04ad09: 20               NOP
04ad0a: 20               NOP
04ad0b: 20               NOP
04ad0c: 20               NOP
04ad0d: 20               NOP
04ad0e: 20               NOP
04ad0f: 20               NOP
04ad10: 20               NOP
04ad11: 20               NOP
04ad12: 20               NOP
04ad13: 20               NOP
04ad14: 20               NOP
04ad15: 20               NOP
04ad16: 20               NOP
04ad17: 20               NOP
04ad18: 20               NOP
04ad19: 20               NOP
04ad1a: 20               NOP
04ad1b: 20               NOP
04ad1c: 20               NOP
04ad1d: 20               NOP
04ad1e: 20               NOP
04ad1f: 20               NOP
04ad20: 20               NOP
04ad21: 20               NOP
04ad22: 20               NOP
04ad23: 20               NOP
04ad24: 20               NOP
04ad25: 20               NOP
04ad26: 20               NOP
04ad27: 20               NOP
04ad28: 20               NOP
04ad29: 20               NOP
04ad2a: 20               NOP
04ad2b: 20               NOP
04ad2c: 20               NOP
04ad2d: 20               NOP
04ad2e: 20               NOP
04ad2f: 20               NOP
04ad30: 20               NOP
04ad31: 20               NOP
04ad32: 20               NOP
04ad33: 20               NOP
04ad34: 20               NOP
04ad35: 20               NOP
04ad36: 20               NOP
04ad37: 20               NOP
04ad38: 20               NOP
04ad39: 20               NOP
04ad3a: 20               NOP
04ad3b: 20               NOP
04ad3c: 20               NOP
04ad3d: 20               NOP
04ad3e: 20               NOP
04ad3f: 20               NOP
04ad40: 20               NOP
04ad41: 20               NOP
04ad42: 20               NOP
04ad43: 20               NOP
04ad44: 20               NOP
04ad45: 20               NOP
04ad46: 20               NOP
04ad47: 20               NOP
04ad48: 20               NOP
04ad49: 20               NOP
04ad4a: 20               NOP
04ad4b: 20               NOP
04ad4c: 20               NOP
04ad4d: 20               NOP
04ad4e: 20               NOP
04ad4f: 20               NOP
04ad50: 20               NOP
04ad51: 20               NOP
04ad52: 20               NOP
04ad53: 20               NOP
04ad54: 20               NOP
04ad55: 20               NOP
04ad56: 20               NOP
04ad57: 20               NOP
04ad58: 20               NOP
04ad59: 20               NOP
04ad5a: 20               NOP
04ad5b: 20               NOP
04ad5c: 20               NOP
04ad5d: 20               NOP
04ad5e: 20               NOP
04ad5f: 20               NOP
04ad60: 20               NOP
04ad61: 20               NOP
04ad62: 20               NOP
04ad63: 20               NOP
04ad64: 20               NOP
04ad65: 20               NOP
04ad66: 20               NOP
04ad67: 20               NOP
04ad68: 20               NOP
04ad69: 20               NOP
04ad6a: 20               NOP
04ad6b: 20               NOP
04ad6c: 20               NOP
04ad6d: 20               NOP
04ad6e: 20               NOP
04ad6f: 20               NOP
04ad70: 20               NOP
04ad71: 20               NOP
04ad72: 20               NOP
04ad73: 20               NOP
04ad74: 20               NOP
04ad75: 20               NOP
04ad76: 20               NOP
04ad77: 20               NOP
04ad78: 20               NOP
04ad79: 20               NOP
04ad7a: 20               NOP
04ad7b: 20               NOP
04ad7c: 20               NOP
04ad7d: 20               NOP
04ad7e: 20               NOP
04ad7f: 20               NOP
04ad80: 20               NOP
04ad81: 20               NOP
04ad82: 20               NOP
04ad83: 20               NOP
04ad84: 20               NOP
04ad85: 20               NOP
04ad86: 20               NOP
04ad87: 20               NOP
04ad88: 20               NOP
04ad89: 20               NOP
04ad8a: 20               NOP
04ad8b: 20               NOP
04ad8c: 20               NOP
04ad8d: 20               NOP
04ad8e: 20               NOP
04ad8f: 20               NOP
04ad90: 20               NOP
04ad91: 20               NOP
04ad92: 20               NOP
04ad93: 20               NOP
04ad94: 20               NOP
04ad95: 20               NOP
04ad96: 20               NOP
04ad97: 20               NOP
04ad98: 20               NOP
04ad99: 20               NOP
04ad9a: 20               NOP
04ad9b: 20               NOP
04ad9c: 20               NOP
04ad9d: 20               NOP
04ad9e: 20               NOP
04ad9f: 20               NOP
04ada0: 20               NOP
04ada1: 20               NOP
04ada2: 20               NOP
04ada3: 20               NOP
04ada4: 20               NOP
04ada5: 20               NOP
04ada6: 20               NOP
04ada7: 20               NOP
04ada8: 20               NOP
04ada9: 20               NOP
04adaa: 20               NOP
04adab: 20               NOP
04adac: 20               NOP
04adad: 20               NOP
04adae: 20               NOP
04adaf: 20               NOP
04adb0: 20               NOP
04adb1: 20               NOP
04adb2: 20               NOP
04adb3: 20               NOP
04adb4: 20               NOP
04adb5: 20               NOP
04adb6: 20               NOP
04adb7: 20               NOP
04adb8: 20               NOP
04adb9: 20               NOP
04adba: 20               NOP
04adbb: 20               NOP
04adbc: 20               NOP
04adbd: 20               NOP
04adbe: 20               NOP
04adbf: 20               NOP
04adc0: 20               NOP
04adc1: 20               NOP
04adc2: 20               NOP
04adc3: 20               NOP
04adc4: 20               NOP
04adc5: 20               NOP
04adc6: 20               NOP
04adc7: 20               NOP
04adc8: 20               NOP
04adc9: 20               NOP
04adca: 20               NOP
04adcb: 20               NOP
04adcc: 20               NOP
04adcd: 20               NOP
04adce: 20               NOP
04adcf: 20               NOP
04add0: 20               NOP
04add1: 20               NOP
04add2: 20               NOP
04add3: 20               NOP
04add4: 20               NOP
04add5: 20               NOP
04add6: 20               NOP
04add7: 20               NOP
04add8: 20               NOP
04add9: 20               NOP
04adda: 20               NOP
04addb: 20               NOP
04addc: 20               NOP
04addd: 20               NOP
04adde: 20               NOP
04addf: 20               NOP
04ade0: 20               NOP
04ade1: 20               NOP
04ade2: 20               NOP
04ade3: 20               NOP
04ade4: 20               NOP
04ade5: 20               NOP
04ade6: 20               NOP
04ade7: 20               NOP
04ade8: 20               NOP
04ade9: 20               NOP
04adea: 20               NOP
04adeb: 20               NOP
04adec: 20               NOP
04aded: 20               NOP
04adee: 20               NOP
04adef: 20               NOP
04adf0: 20               NOP
04adf1: 20               NOP
04adf2: 20               NOP
04adf3: 20               NOP
04adf4: 20               NOP
04adf5: 20               NOP
04adf6: 20               NOP
04adf7: 20               NOP
04adf8: 20               NOP
04adf9: 20               NOP
04adfa: 20               NOP
04adfb: 20               NOP
04adfc: 20               NOP
04adfd: 20               NOP
04adfe: 20               NOP
04adff: 20               NOP
04ae00: 20               NOP
04ae01: 20               NOP
04ae02: 20               NOP
04ae03: 20               NOP
04ae04: 20               NOP
04ae05: 20               NOP
04ae06: 20               NOP
04ae07: 20               NOP
04ae08: 20               NOP
04ae09: 20               NOP
04ae0a: 20               NOP
04ae0b: 20               NOP
04ae0c: 20               NOP
04ae0d: 20               NOP
04ae0e: 20               NOP
04ae0f: 20               NOP
04ae10: 20               NOP
04ae11: 20               NOP
04ae12: 20               NOP
04ae13: 20               NOP
04ae14: 20               NOP
04ae15: 20               NOP
04ae16: 20               NOP
04ae17: 20               NOP
04ae18: 20               NOP
04ae19: 20               NOP
04ae1a: 20               NOP
04ae1b: 20               NOP
04ae1c: 20               NOP
04ae1d: 20               NOP
04ae1e: 20               NOP
04ae1f: 20               NOP
04ae20: 20               NOP
04ae21: 20               NOP
04ae22: 20               NOP
04ae23: 20               NOP
04ae24: 20               NOP
04ae25: 20               NOP
04ae26: 20               NOP
04ae27: 20               NOP
04ae28: 20               NOP
04ae29: 20               NOP
04ae2a: 20               NOP
04ae2b: 20               NOP
04ae2c: 20               NOP
04ae2d: 20               NOP
04ae2e: 20               NOP
04ae2f: 20               NOP
04ae30: 20               NOP
04ae31: 20               NOP
04ae32: 20               NOP
04ae33: 20               NOP
04ae34: 20               NOP
04ae35: 20               NOP
04ae36: 20               NOP
04ae37: 20               NOP
04ae38: 20               NOP
04ae39: 20               NOP
04ae3a: 20               NOP
04ae3b: 20               NOP
04ae3c: 20               NOP
04ae3d: 20               NOP
04ae3e: 20               NOP
04ae3f: 20               NOP
04ae40: 20               NOP
04ae41: 20               NOP
04ae42: 20               NOP
04ae43: 20               NOP
04ae44: 20               NOP
04ae45: 20               NOP
04ae46: 20               NOP
04ae47: 20               NOP
04ae48: 20               NOP
04ae49: 20               NOP
04ae4a: 20               NOP
04ae4b: 20               NOP
04ae4c: 20               NOP
04ae4d: 20               NOP
04ae4e: 20               NOP
04ae4f: 20               NOP
04ae50: 20               NOP
04ae51: 20               NOP
04ae52: 20               NOP
04ae53: 20               NOP
04ae54: 20               NOP
04ae55: 20               NOP
04ae56: 20               NOP
04ae57: 20               NOP
04ae58: 20               NOP
04ae59: 20               NOP
04ae5a: 20               NOP
04ae5b: 20               NOP
04ae5c: 20               NOP
04ae5d: 20               NOP
04ae5e: 20               NOP
04ae5f: 20               NOP
04ae60: 20               NOP
04ae61: 20               NOP
04ae62: 20               NOP
04ae63: 20               NOP
04ae64: 20               NOP
04ae65: 20               NOP
04ae66: 20               NOP
04ae67: 20               NOP
04ae68: 20               NOP
04ae69: 20               NOP
04ae6a: 20               NOP
04ae6b: 20               NOP
04ae6c: 20               NOP
04ae6d: 20               NOP
04ae6e: 20               NOP
04ae6f: 20               NOP
04ae70: 20               NOP
04ae71: 20               NOP
04ae72: 20               NOP
04ae73: 20               NOP
04ae74: 20               NOP
04ae75: 20               NOP
04ae76: 20               NOP
04ae77: 20               NOP
04ae78: 20               NOP
04ae79: 20               NOP
04ae7a: 20               NOP
04ae7b: 20               NOP
04ae7c: 20               NOP
04ae7d: 20               NOP
04ae7e: 20               NOP
04ae7f: 20               NOP
04ae80: 20               NOP
04ae81: 20               NOP
04ae82: 20               NOP
04ae83: 20               NOP
04ae84: 20               NOP
04ae85: 20               NOP
04ae86: 20               NOP
04ae87: 20               NOP
04ae88: 20               NOP
04ae89: 20               NOP
04ae8a: 20               NOP
04ae8b: 20               NOP
04ae8c: 20               NOP
04ae8d: 20               NOP
04ae8e: 20               NOP
04ae8f: 20               NOP
04ae90: 20               NOP
04ae91: 20               NOP
04ae92: 20               NOP
04ae93: 20               NOP
04ae94: 20               NOP
04ae95: 20               NOP
04ae96: 20               NOP
04ae97: 20               NOP
04ae98: 20               NOP
04ae99: 20               NOP
04ae9a: 20               NOP
04ae9b: 20               NOP
04ae9c: 20               NOP
04ae9d: 20               NOP
04ae9e: 20               NOP
04ae9f: 20               NOP
04aea0: 20               NOP
04aea1: 20               NOP
04aea2: 20               NOP
04aea3: 20               NOP
04aea4: 20               NOP
04aea5: 20               NOP
04aea6: 20               NOP
04aea7: 20               NOP
04aea8: 20               NOP
04aea9: 20               NOP
04aeaa: 20               NOP
04aeab: 20               NOP
04aeac: 20               NOP
04aead: 20               NOP
04aeae: 20               NOP
04aeaf: 20               NOP
04aeb0: 20               NOP
04aeb1: 20               NOP
04aeb2: 20               NOP
04aeb3: 20               NOP
04aeb4: 20               NOP
04aeb5: 20               NOP
04aeb6: 20               NOP
04aeb7: 20               NOP
04aeb8: 20               NOP
04aeb9: 20               NOP
04aeba: 20               NOP
04aebb: 20               NOP
04aebc: 20               NOP
04aebd: 20               NOP
04aebe: 20               NOP
04aebf: 20               NOP
04aec0: 20               NOP
04aec1: 20               NOP
04aec2: 20               NOP
04aec3: 20               NOP
04aec4: 20               NOP
04aec5: 20               NOP
04aec6: 20               NOP
04aec7: 20               NOP
04aec8: 20               NOP
04aec9: 20               NOP
04aeca: 20               NOP
04aecb: 20               NOP
04aecc: 20               NOP
04aecd: 20               NOP
04aece: 20               NOP
04aecf: 20               NOP
04aed0: 20               NOP
04aed1: 20               NOP
04aed2: 20               NOP
04aed3: 20               NOP
04aed4: 20               NOP
04aed5: 20               NOP
04aed6: 20               NOP
04aed7: 20               NOP
04aed8: 20               NOP
04aed9: 20               NOP
04aeda: 20               NOP
04aedb: 20               NOP
04aedc: 20               NOP
04aedd: 20               NOP
04aede: 20               NOP
04aedf: 20               NOP
04aee0: 20               NOP
04aee1: 20               NOP
04aee2: 20               NOP
04aee3: 20               NOP
04aee4: 20               NOP
04aee5: 20               NOP
04aee6: 20               NOP
04aee7: 20               NOP
04aee8: 20               NOP
04aee9: 20               NOP
04aeea: 20               NOP
04aeeb: 20               NOP
04aeec: 20               NOP
04aeed: 20               NOP
04aeee: 20               NOP
04aeef: 20               NOP
04aef0: 20               NOP
04aef1: 20               NOP
04aef2: 20               NOP
04aef3: 20               NOP
04aef4: 20               NOP
04aef5: 20               NOP
04aef6: 20               NOP
04aef7: 20               NOP
04aef8: 20               NOP
04aef9: 20               NOP
04aefa: 20               NOP
04aefb: 20               NOP
04aefc: 20               NOP
04aefd: 20               NOP
04aefe: 20               NOP
04aeff: 20               NOP
04af00: 20               NOP
04af01: 20               NOP
04af02: 20               NOP
04af03: 20               NOP
04af04: 20               NOP
04af05: 20               NOP
04af06: 20               NOP
04af07: 20               NOP
04af08: 20               NOP
04af09: 20               NOP
04af0a: 20               NOP
04af0b: 20               NOP
04af0c: 20               NOP
04af0d: 20               NOP
04af0e: 20               NOP
04af0f: 20               NOP
04af10: 20               NOP
04af11: 20               NOP
04af12: 20               NOP
04af13: 20               NOP
04af14: 20               NOP
04af15: 20               NOP
04af16: 20               NOP
04af17: 20               NOP
04af18: 20               NOP
04af19: 20               NOP
04af1a: 20               NOP
04af1b: 20               NOP
04af1c: 20               NOP
04af1d: 20               NOP
04af1e: 20               NOP
04af1f: 20               NOP
04af20: 20               NOP
04af21: 20               NOP
04af22: 20               NOP
04af23: 20               NOP
04af24: 20               NOP
04af25: 20               NOP
04af26: 20               NOP
04af27: 20               NOP
04af28: 20               NOP
04af29: 20               NOP
04af2a: 20               NOP
04af2b: 20               NOP
04af2c: 20               NOP
04af2d: 20               NOP
04af2e: 20               NOP
04af2f: 20               NOP
04af30: 20               NOP
04af31: 20               NOP
04af32: 20               NOP
04af33: 20               NOP
04af34: 20               NOP
04af35: 20               NOP
04af36: 20               NOP
04af37: 20               NOP
04af38: 20               NOP
04af39: 20               NOP
04af3a: 20               NOP
04af3b: 20               NOP
04af3c: 20               NOP
04af3d: 20               NOP
04af3e: 20               NOP
04af3f: 20               NOP
04af40: 20               NOP
04af41: 20               NOP
04af42: 20               NOP
04af43: 20               NOP
04af44: 20               NOP
04af45: 20               NOP
04af46: 20               NOP
04af47: 20               NOP
04af48: 20               NOP
04af49: 20               NOP
04af4a: 20               NOP
04af4b: 20               NOP
04af4c: 20               NOP
04af4d: 20               NOP
04af4e: 20               NOP
04af4f: 20               NOP
04af50: 20               NOP
04af51: 20               NOP
04af52: 20               NOP
04af53: 20               NOP
04af54: 20               NOP
04af55: 20               NOP
04af56: 20               NOP
04af57: 20               NOP
04af58: 20               NOP
04af59: 20               NOP
04af5a: 20               NOP
04af5b: 20               NOP
04af5c: 20               NOP
04af5d: 20               NOP
04af5e: 20               NOP
04af5f: 20               NOP
04af60: 20               NOP
04af61: 20               NOP
04af62: 20               NOP
04af63: 20               NOP
04af64: 20               NOP
04af65: 20               NOP
04af66: 20               NOP
04af67: 20               NOP
04af68: 20               NOP
04af69: 20               NOP
04af6a: 20               NOP
04af6b: 20               NOP
04af6c: 20               NOP
04af6d: 20               NOP
04af6e: 20               NOP
04af6f: 20               NOP
04af70: 20               NOP
04af71: 20               NOP
04af72: 20               NOP
04af73: 20               NOP
04af74: 20               NOP
04af75: 20               NOP
04af76: 20               NOP
04af77: 20               NOP
04af78: 20               NOP
04af79: 20               NOP
04af7a: 20               NOP
04af7b: 20               NOP
04af7c: 20               NOP
04af7d: 20               NOP
04af7e: 20               NOP
04af7f: 20               NOP
04af80: 20               NOP
04af81: 20               NOP
04af82: 20               NOP
04af83: 20               NOP
04af84: 20               NOP
04af85: 20               NOP
04af86: 20               NOP
04af87: 20               NOP
04af88: 20               NOP
04af89: 20               NOP
04af8a: 20               NOP
04af8b: 20               NOP
04af8c: 20               NOP
04af8d: 20               NOP
04af8e: 20               NOP
04af8f: 20               NOP
04af90: 20               NOP
04af91: 20               NOP
04af92: 20               NOP
04af93: 20               NOP
04af94: 20               NOP
04af95: 20               NOP
04af96: 20               NOP
04af97: 20               NOP
04af98: 20               NOP
04af99: 20               NOP
04af9a: 20               NOP
04af9b: 20               NOP
04af9c: 20               NOP
04af9d: 20               NOP
04af9e: 20               NOP
04af9f: 20               NOP
04afa0: 20               NOP
04afa1: 20               NOP
04afa2: 20               NOP
04afa3: 20               NOP
04afa4: 20               NOP
04afa5: 20               NOP
04afa6: 20               NOP
04afa7: 20               NOP
04afa8: 20               NOP
04afa9: 20               NOP
04afaa: 20               NOP
04afab: 20               NOP
04afac: 20               NOP
04afad: 20               NOP
04afae: 20               NOP
04afaf: 20               NOP
04afb0: 20               NOP
04afb1: 20               NOP
04afb2: 20               NOP
04afb3: 20               NOP
04afb4: 20               NOP
04afb5: 20               NOP
04afb6: 20               NOP
04afb7: 20               NOP
04afb8: 20               NOP
04afb9: 20               NOP
04afba: 20               NOP
04afbb: 20               NOP
04afbc: 20               NOP
04afbd: 20               NOP
04afbe: 20               NOP
04afbf: 20               NOP
04afc0: 20               NOP
04afc1: 20               NOP
04afc2: 20               NOP
04afc3: 20               NOP
04afc4: 20               NOP
04afc5: 20               NOP
04afc6: 20               NOP
04afc7: 20               NOP
04afc8: 20               NOP
04afc9: 20               NOP
04afca: 20               NOP
04afcb: 20               NOP
04afcc: 20               NOP
04afcd: 20               NOP
04afce: 20               NOP
04afcf: 20               NOP
04afd0: 20               NOP
04afd1: 20               NOP
04afd2: 20               NOP
04afd3: 20               NOP
04afd4: 20               NOP
04afd5: 20               NOP
04afd6: 20               NOP
04afd7: 20               NOP
04afd8: 20               NOP
04afd9: 20               NOP
04afda: 20               NOP
04afdb: 20               NOP
04afdc: 20               NOP
04afdd: 20               NOP
04afde: 20               NOP
04afdf: 20               NOP
04afe0: 20               NOP
04afe1: 20               NOP
04afe2: 20               NOP
04afe3: 20               NOP
04afe4: 20               NOP
04afe5: 20               NOP
04afe6: 20               NOP
04afe7: 20               NOP
04afe8: 20               NOP
04afe9: 20               NOP
04afea: 20               NOP
04afeb: 20               NOP
04afec: 20               NOP
04afed: 20               NOP
04afee: 20               NOP
04afef: 20               NOP
04aff0: 20               NOP
04aff1: 20               NOP
04aff2: 20               NOP
04aff3: 20               NOP
04aff4: 20               NOP
04aff5: 20               NOP
04aff6: 20               NOP
04aff7: 20               NOP
04aff8: 20               NOP
04aff9: 20               NOP
04affa: 20               NOP
04affb: 20               NOP
04affc: 20               NOP
04affd: 20               NOP
04affe: 20               NOP
04afff: 20               NOP
04b000: 20               NOP
04b001: 20               NOP
04b002: 20               NOP
04b003: 20               NOP
04b004: 20               NOP
04b005: 20               NOP
04b006: 20               NOP
04b007: 20               NOP
04b008: 20               NOP
04b009: 20               NOP
04b00a: 20               NOP
04b00b: 20               NOP
04b00c: 20               NOP
04b00d: 20               NOP
04b00e: 20               NOP
04b00f: 20               NOP
04b010: 20               NOP
04b011: 20               NOP
04b012: 20               NOP
04b013: 20               NOP
04b014: 20               NOP
04b015: 20               NOP
04b016: 20               NOP
04b017: 20               NOP
04b018: 20               NOP
04b019: 20               NOP
04b01a: 20               NOP
04b01b: 20               NOP
04b01c: 20               NOP
04b01d: 20               NOP
04b01e: 20               NOP
04b01f: 20               NOP
04b020: 20               NOP
04b021: 20               NOP
04b022: 20               NOP
04b023: 20               NOP
04b024: 20               NOP
04b025: 20               NOP
04b026: 20               NOP
04b027: 20               NOP
04b028: 20               NOP
04b029: 20               NOP
04b02a: 20               NOP
04b02b: 20               NOP
04b02c: 20               NOP
04b02d: 20               NOP
04b02e: 20               NOP
04b02f: 20               NOP
04b030: 20               NOP
04b031: 20               NOP
04b032: 20               NOP
04b033: 20               NOP
04b034: 20               NOP
04b035: 20               NOP
04b036: 20               NOP
04b037: 20               NOP
04b038: 20               NOP
04b039: 20               NOP
04b03a: 20               NOP
04b03b: 20               NOP
04b03c: 20               NOP
04b03d: 20               NOP
04b03e: 20               NOP
04b03f: 20               NOP
04b040: 20               NOP
04b041: 20               NOP
04b042: 20               NOP
04b043: 20               NOP
04b044: 20               NOP
04b045: 20               NOP
04b046: 20               NOP
04b047: 20               NOP
04b048: 20               NOP
04b049: 20               NOP
04b04a: 20               NOP
04b04b: 20               NOP
04b04c: 20               NOP
04b04d: 20               NOP
04b04e: 20               NOP
04b04f: 20               NOP
04b050: 20               NOP
04b051: 20               NOP
04b052: 20               NOP
04b053: 20               NOP
04b054: 20               NOP
04b055: 20               NOP
04b056: 20               NOP
04b057: 20               NOP
04b058: 20               NOP
04b059: 20               NOP
04b05a: 20               NOP
04b05b: 20               NOP
04b05c: 20               NOP
04b05d: 20               NOP
04b05e: 20               NOP
04b05f: 20               NOP
04b060: 20               NOP
04b061: 20               NOP
04b062: 20               NOP
04b063: 20               NOP
04b064: 20               NOP
04b065: 20               NOP
04b066: 20               NOP
04b067: 20               NOP
04b068: 20               NOP
04b069: 20               NOP
04b06a: 20               NOP
04b06b: 20               NOP
04b06c: 20               NOP
04b06d: 20               NOP
04b06e: 20               NOP
04b06f: 20               NOP
04b070: 20               NOP
04b071: 20               NOP
04b072: 20               NOP
04b073: 20               NOP
04b074: 20               NOP
04b075: 20               NOP
04b076: 20               NOP
04b077: 20               NOP
04b078: 20               NOP
04b079: 20               NOP
04b07a: 20               NOP
04b07b: 20               NOP
04b07c: 20               NOP
04b07d: 20               NOP
04b07e: 20               NOP
04b07f: 20               NOP
04b080: 20               NOP
04b081: 20               NOP
04b082: 20               NOP
04b083: 20               NOP
04b084: 20               NOP
04b085: 20               NOP
04b086: 20               NOP
04b087: 20               NOP
04b088: 20               NOP
04b089: 20               NOP
04b08a: 20               NOP
04b08b: 20               NOP
04b08c: 20               NOP
04b08d: 20               NOP
04b08e: 20               NOP
04b08f: 20               NOP
04b090: 20               NOP
04b091: 20               NOP
04b092: 20               NOP
04b093: 20               NOP
04b094: 20               NOP
04b095: 20               NOP
04b096: 20               NOP
04b097: 20               NOP
04b098: 20               NOP
04b099: 20               NOP
04b09a: 20               NOP
04b09b: 20               NOP
04b09c: 20               NOP
04b09d: 20               NOP
04b09e: 20               NOP
04b09f: 20               NOP
04b0a0: 20               NOP
04b0a1: 20               NOP
04b0a2: 20               NOP
04b0a3: 20               NOP
04b0a4: 20               NOP
04b0a5: 20               NOP
04b0a6: 20               NOP
04b0a7: 20               NOP
04b0a8: 20               NOP
04b0a9: 20               NOP
04b0aa: 20               NOP
04b0ab: 20               NOP
04b0ac: 20               NOP
04b0ad: 20               NOP
04b0ae: 20               NOP
04b0af: 20               NOP
04b0b0: 20               NOP
04b0b1: 20               NOP
04b0b2: 20               NOP
04b0b3: 20               NOP
04b0b4: 20               NOP
04b0b5: 20               NOP
04b0b6: 20               NOP
04b0b7: 20               NOP
04b0b8: 20               NOP
04b0b9: 20               NOP
04b0ba: 20               NOP
04b0bb: 20               NOP
04b0bc: 20               NOP
04b0bd: 20               NOP
04b0be: 20               NOP
04b0bf: 20               NOP
04b0c0: 20               NOP
04b0c1: 20               NOP
04b0c2: 20               NOP
04b0c3: 20               NOP
04b0c4: 20               NOP
04b0c5: 20               NOP
04b0c6: 20               NOP
04b0c7: 20               NOP
04b0c8: 20               NOP
04b0c9: 20               NOP
04b0ca: 20               NOP
04b0cb: 20               NOP
04b0cc: 20               NOP
04b0cd: 20               NOP
04b0ce: 20               NOP
04b0cf: 20               NOP
04b0d0: 20               NOP
04b0d1: 20               NOP
04b0d2: 20               NOP
04b0d3: 20               NOP
04b0d4: 20               NOP
04b0d5: 20               NOP
04b0d6: 20               NOP
04b0d7: 20               NOP
04b0d8: 20               NOP
04b0d9: 20               NOP
04b0da: 20               NOP
04b0db: 20               NOP
04b0dc: 20               NOP
04b0dd: 20               NOP
04b0de: 20               NOP
04b0df: 20               NOP
04b0e0: 20               NOP
04b0e1: 20               NOP
04b0e2: 20               NOP
04b0e3: 20               NOP
04b0e4: 20               NOP
04b0e5: 20               NOP
04b0e6: 20               NOP
04b0e7: 20               NOP
04b0e8: 20               NOP
04b0e9: 20               NOP
04b0ea: 20               NOP
04b0eb: 20               NOP
04b0ec: 20               NOP
04b0ed: 20               NOP
04b0ee: 20               NOP
04b0ef: 20               NOP
04b0f0: 20               NOP
04b0f1: 20               NOP
04b0f2: 20               NOP
04b0f3: 20               NOP
04b0f4: 20               NOP
04b0f5: 20               NOP
04b0f6: 20               NOP
04b0f7: 20               NOP
04b0f8: 20               NOP
04b0f9: 20               NOP
04b0fa: 20               NOP
04b0fb: 20               NOP
04b0fc: 20               NOP
04b0fd: 20               NOP
04b0fe: 20               NOP
04b0ff: 20               NOP
04b100: 20               NOP
04b101: 20               NOP
04b102: 20               NOP
04b103: 20               NOP
04b104: 20               NOP
04b105: 20               NOP
04b106: 20               NOP
04b107: 20               NOP
04b108: 20               NOP
04b109: 20               NOP
04b10a: 20               NOP
04b10b: 20               NOP
04b10c: 20               NOP
04b10d: 20               NOP
04b10e: 20               NOP
04b10f: 20               NOP
04b110: 20               NOP
04b111: 20               NOP
04b112: 20               NOP
04b113: 20               NOP
04b114: 20               NOP
04b115: 20               NOP
04b116: 20               NOP
04b117: 20               NOP
04b118: 20               NOP
04b119: 20               NOP
04b11a: 20               NOP
04b11b: 20               NOP
04b11c: 20               NOP
04b11d: 20               NOP
04b11e: 20               NOP
04b11f: 20               NOP
04b120: 20               NOP
04b121: 20               NOP
04b122: 20               NOP
04b123: 20               NOP
04b124: 20               NOP
04b125: 20               NOP
04b126: 20               NOP
04b127: 20               NOP
04b128: 20               NOP
04b129: 20               NOP
04b12a: 20               NOP
04b12b: 20               NOP
04b12c: 20               NOP
04b12d: 20               NOP
04b12e: 20               NOP
04b12f: 20               NOP
04b130: 20               NOP
04b131: 20               NOP
04b132: 20               NOP
04b133: 20               NOP
04b134: 20               NOP
04b135: 20               NOP
04b136: 20               NOP
04b137: 20               NOP
04b138: 20               NOP
04b139: 20               NOP
04b13a: 20               NOP
04b13b: 20               NOP
04b13c: 20               NOP
04b13d: 20               NOP
04b13e: 20               NOP
04b13f: 20               NOP
04b140: 20               NOP
04b141: 20               NOP
04b142: 20               NOP
04b143: 20               NOP
04b144: 20               NOP
04b145: 20               NOP
04b146: 20               NOP
04b147: 20               NOP
04b148: 20               NOP
04b149: 20               NOP
04b14a: 20               NOP
04b14b: 20               NOP
04b14c: 20               NOP
04b14d: 20               NOP
04b14e: 20               NOP
04b14f: 20               NOP
04b150: 20               NOP
04b151: 20               NOP
04b152: 20               NOP
04b153: 20               NOP
04b154: 20               NOP
04b155: 20               NOP
04b156: 20               NOP
04b157: 20               NOP
04b158: 20               NOP
04b159: 20               NOP
04b15a: 20               NOP
04b15b: 20               NOP
04b15c: 20               NOP
04b15d: 20               NOP
04b15e: 20               NOP
04b15f: 20               NOP
04b160: 20               NOP
04b161: 20               NOP
04b162: 20               NOP
04b163: 20               NOP
04b164: 20               NOP
04b165: 20               NOP
04b166: 20               NOP
04b167: 20               NOP
04b168: 20               NOP
04b169: 20               NOP
04b16a: 20               NOP
04b16b: 20               NOP
04b16c: 20               NOP
04b16d: 20               NOP
04b16e: 20               NOP
04b16f: 20               NOP
04b170: 20               NOP
04b171: 20               NOP
04b172: 20               NOP
04b173: 20               NOP
04b174: 20               NOP
04b175: 20               NOP
04b176: 20               NOP
04b177: 20               NOP
04b178: 20               NOP
04b179: 20               NOP
04b17a: 20               NOP
04b17b: 20               NOP
04b17c: 20               NOP
04b17d: 20               NOP
04b17e: 20               NOP
04b17f: 20               NOP
04b180: 20               NOP
04b181: 20               NOP
04b182: 20               NOP
04b183: 20               NOP
04b184: 20               NOP
04b185: 20               NOP
04b186: 20               NOP
04b187: 20               NOP
04b188: 20               NOP
04b189: 20               NOP
04b18a: 20               NOP
04b18b: 20               NOP
04b18c: 20               NOP
04b18d: 20               NOP
04b18e: 20               NOP
04b18f: 20               NOP
04b190: 20               NOP
04b191: 20               NOP
04b192: 20               NOP
04b193: 20               NOP
04b194: 20               NOP
04b195: 20               NOP
04b196: 20               NOP
04b197: 20               NOP
04b198: 20               NOP
04b199: 20               NOP
04b19a: 20               NOP
04b19b: 20               NOP
04b19c: 20               NOP
04b19d: 20               NOP
04b19e: 20               NOP
04b19f: 20               NOP
04b1a0: 20               NOP
04b1a1: 20               NOP
04b1a2: 20               NOP
04b1a3: 20               NOP
04b1a4: 20               NOP
04b1a5: 20               NOP
04b1a6: 20               NOP
04b1a7: 20               NOP
04b1a8: 20               NOP
04b1a9: 20               NOP
04b1aa: 20               NOP
04b1ab: 20               NOP
04b1ac: 20               NOP
04b1ad: 20               NOP
04b1ae: 20               NOP
04b1af: 20               NOP
04b1b0: 20               NOP
04b1b1: 20               NOP
04b1b2: 20               NOP
04b1b3: 20               NOP
04b1b4: 20               NOP
04b1b5: 20               NOP
04b1b6: 20               NOP
04b1b7: 20               NOP
04b1b8: 20               NOP
04b1b9: 20               NOP
04b1ba: 20               NOP
04b1bb: 20               NOP
04b1bc: 20               NOP
04b1bd: 20               NOP
04b1be: 20               NOP
04b1bf: 20               NOP
04b1c0: 20               NOP
04b1c1: 20               NOP
04b1c2: 20               NOP
04b1c3: 20               NOP
04b1c4: 20               NOP
04b1c5: 20               NOP
04b1c6: 20               NOP
04b1c7: 20               NOP
04b1c8: 20               NOP
04b1c9: 20               NOP
04b1ca: 20               NOP
04b1cb: 20               NOP
04b1cc: 20               NOP
04b1cd: 20               NOP
04b1ce: 20               NOP
04b1cf: 20               NOP
04b1d0: 20               NOP
04b1d1: 20               NOP
04b1d2: 20               NOP
04b1d3: 20               NOP
04b1d4: 20               NOP
04b1d5: 20               NOP
04b1d6: 20               NOP
04b1d7: 20               NOP
04b1d8: 20               NOP
04b1d9: 20               NOP
04b1da: 20               NOP
04b1db: 20               NOP
04b1dc: 20               NOP
04b1dd: 20               NOP
04b1de: 20               NOP
04b1df: 20               NOP
04b1e0: 20               NOP
04b1e1: 20               NOP
04b1e2: 20               NOP
04b1e3: 20               NOP
04b1e4: 20               NOP
04b1e5: 20               NOP
04b1e6: 20               NOP
04b1e7: 20               NOP
04b1e8: 20               NOP
04b1e9: 20               NOP
04b1ea: 20               NOP
04b1eb: 20               NOP
04b1ec: 20               NOP
04b1ed: 20               NOP
04b1ee: 20               NOP
04b1ef: 20               NOP
04b1f0: 20               NOP
04b1f1: 20               NOP
04b1f2: 20               NOP
04b1f3: 20               NOP
04b1f4: 20               NOP
04b1f5: 20               NOP
04b1f6: 20               NOP
04b1f7: 20               NOP
04b1f8: 20               NOP
04b1f9: 20               NOP
04b1fa: 20               NOP
04b1fb: 20               NOP
04b1fc: 20               NOP
04b1fd: 20               NOP
04b1fe: 20               NOP
04b1ff: 20               NOP
04b200: 20               NOP
04b201: 20               NOP
04b202: 20               NOP
04b203: 20               NOP
04b204: 20               NOP
04b205: 20               NOP
04b206: 20               NOP
04b207: 20               NOP
04b208: 20               NOP
04b209: 20               NOP
04b20a: 20               NOP
04b20b: 20               NOP
04b20c: 20               NOP
04b20d: 20               NOP
04b20e: 20               NOP
04b20f: 20               NOP
04b210: 20               NOP
04b211: 20               NOP
04b212: 20               NOP
04b213: 20               NOP
04b214: 20               NOP
04b215: 20               NOP
04b216: 20               NOP
04b217: 20               NOP
04b218: 20               NOP
04b219: 20               NOP
04b21a: 20               NOP
04b21b: 20               NOP
04b21c: 20               NOP
04b21d: 20               NOP
04b21e: 20               NOP
04b21f: 20               NOP
04b220: 20               NOP
04b221: 20               NOP
04b222: 20               NOP
04b223: 20               NOP
04b224: 20               NOP
04b225: 20               NOP
04b226: 20               NOP
04b227: 20               NOP
04b228: 20               NOP
04b229: 20               NOP
04b22a: 20               NOP
04b22b: 20               NOP
04b22c: 20               NOP
04b22d: 20               NOP
04b22e: 20               NOP
04b22f: 20               NOP
04b230: 20               NOP
04b231: 20               NOP
04b232: 20               NOP
04b233: 20               NOP
04b234: 20               NOP
04b235: 20               NOP
04b236: 20               NOP
04b237: 20               NOP
04b238: 20               NOP
04b239: 20               NOP
04b23a: 20               NOP
04b23b: 20               NOP
04b23c: 20               NOP
04b23d: 20               NOP
04b23e: 20               NOP
04b23f: 20               NOP
04b240: 20               NOP
04b241: 20               NOP
04b242: 20               NOP
04b243: 20               NOP
04b244: 20               NOP
04b245: 20               NOP
04b246: 20               NOP
04b247: 20               NOP
04b248: 20               NOP
04b249: 20               NOP
04b24a: 20               NOP
04b24b: 20               NOP
04b24c: 20               NOP
04b24d: 20               NOP
04b24e: 20               NOP
04b24f: 20               NOP
04b250: 20               NOP
04b251: 20               NOP
04b252: 20               NOP
04b253: 20               NOP
04b254: 20               NOP
04b255: 20               NOP
04b256: 20               NOP
04b257: 20               NOP
04b258: 20               NOP
04b259: 20               NOP
04b25a: 20               NOP
04b25b: 20               NOP
04b25c: 20               NOP
04b25d: 20               NOP
04b25e: 20               NOP
04b25f: 20               NOP
04b260: 20               NOP
04b261: 20               NOP
04b262: 20               NOP
04b263: 20               NOP
04b264: 20               NOP
04b265: 20               NOP
04b266: 20               NOP
04b267: 20               NOP
04b268: 20               NOP
04b269: 20               NOP
04b26a: 20               NOP
04b26b: 20               NOP
04b26c: 20               NOP
04b26d: 20               NOP
04b26e: 20               NOP
04b26f: 20               NOP
04b270: 20               NOP
04b271: 20               NOP
04b272: 20               NOP
04b273: 20               NOP
04b274: 20               NOP
04b275: 20               NOP
04b276: 20               NOP
04b277: 20               NOP
04b278: 20               NOP
04b279: 20               NOP
04b27a: 20               NOP
04b27b: 20               NOP
04b27c: 20               NOP
04b27d: 20               NOP
04b27e: 20               NOP
04b27f: 20               NOP
04b280: 20               NOP
04b281: 20               NOP
04b282: 20               NOP
04b283: 20               NOP
04b284: 20               NOP
04b285: 20               NOP
04b286: 20               NOP
04b287: 20               NOP
04b288: 20               NOP
04b289: 20               NOP
04b28a: 20               NOP
04b28b: 20               NOP
04b28c: 20               NOP
04b28d: 20               NOP
04b28e: 20               NOP
04b28f: 20               NOP
04b290: 20               NOP
04b291: 20               NOP
04b292: 20               NOP
04b293: 20               NOP
04b294: 20               NOP
04b295: 20               NOP
04b296: 20               NOP
04b297: 20               NOP
04b298: 20               NOP
04b299: 20               NOP
04b29a: 20               NOP
04b29b: 20               NOP
04b29c: 20               NOP
04b29d: 20               NOP
04b29e: 20               NOP
04b29f: 20               NOP
04b2a0: 20               NOP
04b2a1: 20               NOP
04b2a2: 20               NOP
04b2a3: 20               NOP
04b2a4: 20               NOP
04b2a5: 20               NOP
04b2a6: 20               NOP
04b2a7: 20               NOP
04b2a8: 20               NOP
04b2a9: 20               NOP
04b2aa: 20               NOP
04b2ab: 20               NOP
04b2ac: 20               NOP
04b2ad: 20               NOP
04b2ae: 20               NOP
04b2af: 20               NOP
04b2b0: 20               NOP
04b2b1: 20               NOP
04b2b2: 20               NOP
04b2b3: 20               NOP
04b2b4: 20               NOP
04b2b5: 20               NOP
04b2b6: 20               NOP
04b2b7: 20               NOP
04b2b8: 20               NOP
04b2b9: 20               NOP
04b2ba: 20               NOP
04b2bb: 20               NOP
04b2bc: 20               NOP
04b2bd: 20               NOP
04b2be: 20               NOP
04b2bf: 20               NOP
04b2c0: 20               NOP
04b2c1: 20               NOP
04b2c2: 20               NOP
04b2c3: 20               NOP
04b2c4: 20               NOP
04b2c5: 20               NOP
04b2c6: 20               NOP
04b2c7: 20               NOP
04b2c8: 20               NOP
04b2c9: 20               NOP
04b2ca: 20               NOP
04b2cb: 20               NOP
04b2cc: 20               NOP
04b2cd: 20               NOP
04b2ce: 20               NOP
04b2cf: 20               NOP
04b2d0: 20               NOP
04b2d1: 20               NOP
04b2d2: 20               NOP
04b2d3: 20               NOP
04b2d4: 20               NOP
04b2d5: 20               NOP
04b2d6: 20               NOP
04b2d7: 20               NOP
04b2d8: 20               NOP
04b2d9: 20               NOP
04b2da: 20               NOP
04b2db: 20               NOP
04b2dc: 20               NOP
04b2dd: 20               NOP
04b2de: 20               NOP
04b2df: 20               NOP
04b2e0: 20               NOP
04b2e1: 20               NOP
04b2e2: 20               NOP
04b2e3: 20               NOP
04b2e4: 20               NOP
04b2e5: 20               NOP
04b2e6: 20               NOP
04b2e7: 20               NOP
04b2e8: 20               NOP
04b2e9: 20               NOP
04b2ea: 20               NOP
04b2eb: 20               NOP
04b2ec: 20               NOP
04b2ed: 20               NOP
04b2ee: 20               NOP
04b2ef: 20               NOP
04b2f0: 20               NOP
04b2f1: 20               NOP
04b2f2: 20               NOP
04b2f3: 20               NOP
04b2f4: 20               NOP
04b2f5: 20               NOP
04b2f6: 20               NOP
04b2f7: 20               NOP
04b2f8: 20               NOP
04b2f9: 20               NOP
04b2fa: 20               NOP
04b2fb: 20               NOP
04b2fc: 20               NOP
04b2fd: 20               NOP
04b2fe: 20               NOP
04b2ff: 20               NOP
04b300: 20               NOP
04b301: 20               NOP
04b302: 20               NOP
04b303: 20               NOP
04b304: 20               NOP
04b305: 20               NOP
04b306: 20               NOP
04b307: 20               NOP
04b308: 20               NOP
04b309: 20               NOP
04b30a: 20               NOP
04b30b: 20               NOP
04b30c: 20               NOP
04b30d: 20               NOP
04b30e: 20               NOP
04b30f: 20               NOP
04b310: 20               NOP
04b311: 20               NOP
04b312: 20               NOP
04b313: 20               NOP
04b314: 20               NOP
04b315: 20               NOP
04b316: 20               NOP
04b317: 20               NOP
04b318: 20               NOP
04b319: 20               NOP
04b31a: 20               NOP
04b31b: 20               NOP
04b31c: 20               NOP
04b31d: 20               NOP
04b31e: 20               NOP
04b31f: 20               NOP
04b320: 20               NOP
04b321: 20               NOP
04b322: 20               NOP
04b323: 20               NOP
04b324: 20               NOP
04b325: 20               NOP
04b326: 20               NOP
04b327: 20               NOP
04b328: 20               NOP
04b329: 20               NOP
04b32a: 20               NOP
04b32b: 20               NOP
04b32c: 20               NOP
04b32d: 20               NOP
04b32e: 20               NOP
04b32f: 20               NOP
04b330: 20               NOP
04b331: 20               NOP
04b332: 20               NOP
04b333: 20               NOP
04b334: 20               NOP
04b335: 20               NOP
04b336: 20               NOP
04b337: 20               NOP
04b338: 20               NOP
04b339: 20               NOP
04b33a: 20               NOP
04b33b: 20               NOP
04b33c: 20               NOP
04b33d: 20               NOP
04b33e: 20               NOP
04b33f: 20               NOP
04b340: 20               NOP
04b341: 20               NOP
04b342: 20               NOP
04b343: 20               NOP
04b344: 20               NOP
04b345: 20               NOP
04b346: 20               NOP
04b347: 20               NOP
04b348: 20               NOP
04b349: 20               NOP
04b34a: 20               NOP
04b34b: 20               NOP
04b34c: 20               NOP
04b34d: 20               NOP
04b34e: 20               NOP
04b34f: 20               NOP
04b350: 20               NOP
04b351: 20               NOP
04b352: 20               NOP
04b353: 20               NOP
04b354: 20               NOP
04b355: 20               NOP
04b356: 20               NOP
04b357: 20               NOP
04b358: 20               NOP
04b359: 20               NOP
04b35a: 20               NOP
04b35b: 20               NOP
04b35c: 20               NOP
04b35d: 20               NOP
04b35e: 20               NOP
04b35f: 20               NOP
04b360: 20               NOP
04b361: 20               NOP
04b362: 20               NOP
04b363: 20               NOP
04b364: 20               NOP
04b365: 20               NOP
04b366: 20               NOP
04b367: 20               NOP
04b368: 20               NOP
04b369: 20               NOP
04b36a: 20               NOP
04b36b: 20               NOP
04b36c: 20               NOP
04b36d: 20               NOP
04b36e: 20               NOP
04b36f: 20               NOP
04b370: 20               NOP
04b371: 20               NOP
04b372: 20               NOP
04b373: 20               NOP
04b374: 20               NOP
04b375: 20               NOP
04b376: 20               NOP
04b377: 20               NOP
04b378: 20               NOP
04b379: 20               NOP
04b37a: 20               NOP
04b37b: 20               NOP
04b37c: 20               NOP
04b37d: 20               NOP
04b37e: 20               NOP
04b37f: 20               NOP
04b380: 20               NOP
04b381: 20               NOP
04b382: 20               NOP
04b383: 20               NOP
04b384: 20               NOP
04b385: 20               NOP
04b386: 20               NOP
04b387: 20               NOP
04b388: 20               NOP
04b389: 20               NOP
04b38a: 20               NOP
04b38b: 20               NOP
04b38c: 20               NOP
04b38d: 20               NOP
04b38e: 20               NOP
04b38f: 20               NOP
04b390: 20               NOP
04b391: 20               NOP
04b392: 20               NOP
04b393: 20               NOP
04b394: 20               NOP
04b395: 20               NOP
04b396: 20               NOP
04b397: 20               NOP
04b398: 20               NOP
04b399: 20               NOP
04b39a: 20               NOP
04b39b: 20               NOP
04b39c: 20               NOP
04b39d: 20               NOP
04b39e: 20               NOP
04b39f: 20               NOP
04b3a0: 20               NOP
04b3a1: 20               NOP
04b3a2: 20               NOP
04b3a3: 20               NOP
04b3a4: 20               NOP
04b3a5: 20               NOP
04b3a6: 20               NOP
04b3a7: 20               NOP
04b3a8: 20               NOP
04b3a9: 20               NOP
04b3aa: 20               NOP
04b3ab: 20               NOP
04b3ac: 20               NOP
04b3ad: 20               NOP
04b3ae: 20               NOP
04b3af: 20               NOP
04b3b0: 20               NOP
04b3b1: 20               NOP
04b3b2: 20               NOP
04b3b3: 20               NOP
04b3b4: 20               NOP
04b3b5: 20               NOP
04b3b6: 20               NOP
04b3b7: 20               NOP
04b3b8: 20               NOP
04b3b9: 20               NOP
04b3ba: 20               NOP
04b3bb: 20               NOP
04b3bc: 20               NOP
04b3bd: 20               NOP
04b3be: 20               NOP
04b3bf: 20               NOP
04b3c0: 20               NOP
04b3c1: 20               NOP
04b3c2: 20               NOP
04b3c3: 20               NOP
04b3c4: 20               NOP
04b3c5: 20               NOP
04b3c6: 20               NOP
04b3c7: 20               NOP
04b3c8: 20               NOP
04b3c9: 20               NOP
04b3ca: 20               NOP
04b3cb: 20               NOP
04b3cc: 20               NOP
04b3cd: 20               NOP
04b3ce: 20               NOP
04b3cf: 20               NOP
04b3d0: 20               NOP
04b3d1: 20               NOP
04b3d2: 20               NOP
04b3d3: 20               NOP
04b3d4: 20               NOP
04b3d5: 20               NOP
04b3d6: 20               NOP
04b3d7: 20               NOP
04b3d8: 20               NOP
04b3d9: 20               NOP
04b3da: 20               NOP
04b3db: 20               NOP
04b3dc: 20               NOP
04b3dd: 20               NOP
04b3de: 20               NOP
04b3df: 20               NOP
04b3e0: 20               NOP
04b3e1: 20               NOP
04b3e2: 20               NOP
04b3e3: 20               NOP
04b3e4: 20               NOP
04b3e5: 20               NOP
04b3e6: 20               NOP
04b3e7: 20               NOP
04b3e8: 20               NOP
04b3e9: 20               NOP
04b3ea: 20               NOP
04b3eb: 20               NOP
04b3ec: 20               NOP
04b3ed: 20               NOP
04b3ee: 20               NOP
04b3ef: 20               NOP
04b3f0: 20               NOP
04b3f1: 20               NOP
04b3f2: 20               NOP
04b3f3: 20               NOP
04b3f4: 20               NOP
04b3f5: 20               NOP
04b3f6: 20               NOP
04b3f7: 20               NOP
04b3f8: 20               NOP
04b3f9: 20               NOP
04b3fa: 20               NOP
04b3fb: 20               NOP
04b3fc: 20               NOP
04b3fd: 20               NOP
04b3fe: 20               NOP
04b3ff: 20               NOP
04b400: 20               NOP
04b401: 20               NOP
04b402: 20               NOP
04b403: 20               NOP
04b404: 20               NOP
04b405: 20               NOP
04b406: 20               NOP
04b407: 20               NOP
04b408: 20               NOP
04b409: 20               NOP
04b40a: 20               NOP
04b40b: 20               NOP
04b40c: 20               NOP
04b40d: 20               NOP
04b40e: 20               NOP
04b40f: 20               NOP
04b410: 20               NOP
04b411: 20               NOP
04b412: 20               NOP
04b413: 20               NOP
04b414: 20               NOP
04b415: 20               NOP
04b416: 20               NOP
04b417: 20               NOP
04b418: 20               NOP
04b419: 20               NOP
04b41a: 20               NOP
04b41b: 20               NOP
04b41c: 20               NOP
04b41d: 20               NOP
04b41e: 20               NOP
04b41f: 20               NOP
04b420: 20               NOP
04b421: 20               NOP
04b422: 20               NOP
04b423: 20               NOP
04b424: 20               NOP
04b425: 20               NOP
04b426: 20               NOP
04b427: 20               NOP
04b428: 20               NOP
04b429: 20               NOP
04b42a: 20               NOP
04b42b: 20               NOP
04b42c: 20               NOP
04b42d: 20               NOP
04b42e: 20               NOP
04b42f: 20               NOP
04b430: 20               NOP
04b431: 20               NOP
04b432: 20               NOP
04b433: 20               NOP
04b434: 20               NOP
04b435: 20               NOP
04b436: 20               NOP
04b437: 20               NOP
04b438: 20               NOP
04b439: 20               NOP
04b43a: 20               NOP
04b43b: 20               NOP
04b43c: 20               NOP
04b43d: 20               NOP
04b43e: 20               NOP
04b43f: 20               NOP
04b440: 20               NOP
04b441: 20               NOP
04b442: 20               NOP
04b443: 20               NOP
04b444: 20               NOP
04b445: 20               NOP
04b446: 20               NOP
04b447: 20               NOP
04b448: 20               NOP
04b449: 20               NOP
04b44a: 20               NOP
04b44b: 20               NOP
04b44c: 20               NOP
04b44d: 20               NOP
04b44e: 20               NOP
04b44f: 20               NOP
04b450: 20               NOP
04b451: 20               NOP
04b452: 20               NOP
04b453: 20               NOP
04b454: 20               NOP
04b455: 20               NOP
04b456: 20               NOP
04b457: 20               NOP
04b458: 20               NOP
04b459: 20               NOP
04b45a: 20               NOP
04b45b: 20               NOP
04b45c: 20               NOP
04b45d: 20               NOP
04b45e: 20               NOP
04b45f: 20               NOP
04b460: 20               NOP
04b461: 20               NOP
04b462: 20               NOP
04b463: 20               NOP
04b464: 20               NOP
04b465: 20               NOP
04b466: 20               NOP
04b467: 20               NOP
04b468: 20               NOP
04b469: 20               NOP
04b46a: 20               NOP
04b46b: 20               NOP
04b46c: 20               NOP
04b46d: 20               NOP
04b46e: 20               NOP
04b46f: 20               NOP
04b470: 20               NOP
04b471: 20               NOP
04b472: 20               NOP
04b473: 20               NOP
04b474: 20               NOP
04b475: 20               NOP
04b476: 20               NOP
04b477: 20               NOP
04b478: 20               NOP
04b479: 20               NOP
04b47a: 20               NOP
04b47b: 20               NOP
04b47c: 20               NOP
04b47d: 20               NOP
04b47e: 20               NOP
04b47f: 20               NOP
04b480: 20               NOP
04b481: 20               NOP
04b482: 20               NOP
04b483: 20               NOP
04b484: 20               NOP
04b485: 20               NOP
04b486: 20               NOP
04b487: 20               NOP
04b488: 20               NOP
04b489: 20               NOP
04b48a: 20               NOP
04b48b: 20               NOP
04b48c: 20               NOP
04b48d: 20               NOP
04b48e: 20               NOP
04b48f: 20               NOP
04b490: 20               NOP
04b491: 20               NOP
04b492: 20               NOP
04b493: 20               NOP
04b494: 20               NOP
04b495: 20               NOP
04b496: 20               NOP
04b497: 20               NOP
04b498: 20               NOP
04b499: 20               NOP
04b49a: 20               NOP
04b49b: 20               NOP
04b49c: 20               NOP
04b49d: 20               NOP
04b49e: 20               NOP
04b49f: 20               NOP
04b4a0: 20               NOP
04b4a1: 20               NOP
04b4a2: 20               NOP
04b4a3: 20               NOP
04b4a4: 20               NOP
04b4a5: 20               NOP
04b4a6: 20               NOP
04b4a7: 20               NOP
04b4a8: 20               NOP
04b4a9: 20               NOP
04b4aa: 20               NOP
04b4ab: 20               NOP
04b4ac: 20               NOP
04b4ad: 20               NOP
04b4ae: 20               NOP
04b4af: 20               NOP
04b4b0: 20               NOP
04b4b1: 20               NOP
04b4b2: 20               NOP
04b4b3: 20               NOP
04b4b4: 20               NOP
04b4b5: 20               NOP
04b4b6: 20               NOP
04b4b7: 20               NOP
04b4b8: 20               NOP
04b4b9: 20               NOP
04b4ba: 20               NOP
04b4bb: 20               NOP
04b4bc: 20               NOP
04b4bd: 20               NOP
04b4be: 20               NOP
04b4bf: 20               NOP
04b4c0: 20               NOP
04b4c1: 20               NOP
04b4c2: 20               NOP
04b4c3: 20               NOP
04b4c4: 20               NOP
04b4c5: 20               NOP
04b4c6: 20               NOP
04b4c7: 20               NOP
04b4c8: 20               NOP
04b4c9: 20               NOP
04b4ca: 20               NOP
04b4cb: 20               NOP
04b4cc: 20               NOP
04b4cd: 20               NOP
04b4ce: 20               NOP
04b4cf: 20               NOP
04b4d0: 20               NOP
04b4d1: 20               NOP
04b4d2: 20               NOP
04b4d3: 20               NOP
04b4d4: 20               NOP
04b4d5: 20               NOP
04b4d6: 20               NOP
04b4d7: 20               NOP
04b4d8: 20               NOP
04b4d9: 20               NOP
04b4da: 20               NOP
04b4db: 20               NOP
04b4dc: 20               NOP
04b4dd: 20               NOP
04b4de: 20               NOP
04b4df: 20               NOP
04b4e0: 20               NOP
04b4e1: 20               NOP
04b4e2: 20               NOP
04b4e3: 20               NOP
04b4e4: 20               NOP
04b4e5: 20               NOP
04b4e6: 20               NOP
04b4e7: 20               NOP
04b4e8: 20               NOP
04b4e9: 20               NOP
04b4ea: 20               NOP
04b4eb: 20               NOP
04b4ec: 20               NOP
04b4ed: 20               NOP
04b4ee: 20               NOP
04b4ef: 20               NOP
04b4f0: 20               NOP
04b4f1: 20               NOP
04b4f2: 20               NOP
04b4f3: 20               NOP
04b4f4: 20               NOP
04b4f5: 20               NOP
04b4f6: 20               NOP
04b4f7: 20               NOP
04b4f8: 20               NOP
04b4f9: 20               NOP
04b4fa: 20               NOP
04b4fb: 20               NOP
04b4fc: 20               NOP
04b4fd: 20               NOP
04b4fe: 20               NOP
04b4ff: 20               NOP
04b500: 20               NOP
04b501: 20               NOP
04b502: 20               NOP
04b503: 20               NOP
04b504: 20               NOP
04b505: 20               NOP
04b506: 20               NOP
04b507: 20               NOP
04b508: 20               NOP
04b509: 20               NOP
04b50a: 20               NOP
04b50b: 20               NOP
04b50c: 20               NOP
04b50d: 20               NOP
04b50e: 20               NOP
04b50f: 20               NOP
04b510: 20               NOP
04b511: 20               NOP
04b512: 20               NOP
04b513: 20               NOP
04b514: 20               NOP
04b515: 20               NOP
04b516: 20               NOP
04b517: 20               NOP
04b518: 20               NOP
04b519: 20               NOP
04b51a: 20               NOP
04b51b: 20               NOP
04b51c: 20               NOP
04b51d: 20               NOP
04b51e: 20               NOP
04b51f: 20               NOP
04b520: 20               NOP
04b521: 20               NOP
04b522: 20               NOP
04b523: 20               NOP
04b524: 20               NOP
04b525: 20               NOP
04b526: 20               NOP
04b527: 20               NOP
04b528: 20               NOP
04b529: 20               NOP
04b52a: 20               NOP
04b52b: 20               NOP
04b52c: 20               NOP
04b52d: 20               NOP
04b52e: 20               NOP
04b52f: 20               NOP
04b530: 20               NOP
04b531: 20               NOP
04b532: 20               NOP
04b533: 20               NOP
04b534: 20               NOP
04b535: 20               NOP
04b536: 20               NOP
04b537: 20               NOP
04b538: 20               NOP
04b539: 20               NOP
04b53a: 20               NOP
04b53b: 20               NOP
04b53c: 20               NOP
04b53d: 20               NOP
04b53e: 20               NOP
04b53f: 20               NOP
04b540: 20               NOP
04b541: 20               NOP
04b542: 20               NOP
04b543: 20               NOP
04b544: 20               NOP
04b545: 20               NOP
04b546: 20               NOP
04b547: 20               NOP
04b548: 20               NOP
04b549: 20               NOP
04b54a: 20               NOP
04b54b: 20               NOP
04b54c: 20               NOP
04b54d: 20               NOP
04b54e: 20               NOP
04b54f: 20               NOP
04b550: 20               NOP
04b551: 20               NOP
04b552: 20               NOP
04b553: 20               NOP
04b554: 20               NOP
04b555: 20               NOP
04b556: 20               NOP
04b557: 20               NOP
04b558: 20               NOP
04b559: 20               NOP
04b55a: 20               NOP
04b55b: 20               NOP
04b55c: 20               NOP
04b55d: 20               NOP
04b55e: 20               NOP
04b55f: 20               NOP
04b560: 20               NOP
04b561: 20               NOP
04b562: 20               NOP
04b563: 20               NOP
04b564: 20               NOP
04b565: 20               NOP
04b566: 20               NOP
04b567: 20               NOP
04b568: 20               NOP
04b569: 20               NOP
04b56a: 20               NOP
04b56b: 20               NOP
04b56c: 20               NOP
04b56d: 20               NOP
04b56e: 20               NOP
04b56f: 20               NOP
04b570: 20               NOP
04b571: 20               NOP
04b572: 20               NOP
04b573: 20               NOP
04b574: 20               NOP
04b575: 20               NOP
04b576: 20               NOP
04b577: 20               NOP
04b578: 20               NOP
04b579: 20               NOP
04b57a: 20               NOP
04b57b: 20               NOP
04b57c: 20               NOP
04b57d: 20               NOP
04b57e: 20               NOP
04b57f: 20               NOP
04b580: 20               NOP
04b581: 20               NOP
04b582: 20               NOP
04b583: 20               NOP
04b584: 20               NOP
04b585: 20               NOP
04b586: 20               NOP
04b587: 20               NOP
04b588: 20               NOP
04b589: 20               NOP
04b58a: 20               NOP
04b58b: 20               NOP
04b58c: 20               NOP
04b58d: 20               NOP
04b58e: 20               NOP
04b58f: 20               NOP
04b590: 20               NOP
04b591: 20               NOP
04b592: 20               NOP
04b593: 20               NOP
04b594: 20               NOP
04b595: 20               NOP
04b596: 20               NOP
04b597: 20               NOP
04b598: 20               NOP
04b599: 20               NOP
04b59a: 20               NOP
04b59b: 20               NOP
04b59c: 20               NOP
04b59d: 20               NOP
04b59e: 20               NOP
04b59f: 20               NOP
04b5a0: 20               NOP
04b5a1: 20               NOP
04b5a2: 20               NOP
04b5a3: 20               NOP
04b5a4: 20               NOP
04b5a5: 20               NOP
04b5a6: 20               NOP
04b5a7: 20               NOP
04b5a8: 20               NOP
04b5a9: 20               NOP
04b5aa: 20               NOP
04b5ab: 20               NOP
04b5ac: 20               NOP
04b5ad: 20               NOP
04b5ae: 20               NOP
04b5af: 20               NOP
04b5b0: 20               NOP
04b5b1: 20               NOP
04b5b2: 20               NOP
04b5b3: 20               NOP
04b5b4: 20               NOP
04b5b5: 20               NOP
04b5b6: 20               NOP
04b5b7: 20               NOP
04b5b8: 20               NOP
04b5b9: 20               NOP
04b5ba: 20               NOP
04b5bb: 20               NOP
04b5bc: 20               NOP
04b5bd: 20               NOP
04b5be: 20               NOP
04b5bf: 20               NOP
04b5c0: 20               NOP
04b5c1: 20               NOP
04b5c2: 20               NOP
04b5c3: 20               NOP
04b5c4: 20               NOP
04b5c5: 20               NOP
04b5c6: 20               NOP
04b5c7: 20               NOP
04b5c8: 20               NOP
04b5c9: 20               NOP
04b5ca: 20               NOP
04b5cb: 20               NOP
04b5cc: 20               NOP
04b5cd: 20               NOP
04b5ce: 20               NOP
04b5cf: 20               NOP
04b5d0: 20               NOP
04b5d1: 20               NOP
04b5d2: 20               NOP
04b5d3: 20               NOP
04b5d4: 20               NOP
04b5d5: 20               NOP
04b5d6: 20               NOP
04b5d7: 20               NOP
04b5d8: 20               NOP
04b5d9: 20               NOP
04b5da: 20               NOP
04b5db: 20               NOP
04b5dc: 20               NOP
04b5dd: 20               NOP
04b5de: 20               NOP
04b5df: 20               NOP
04b5e0: 20               NOP
04b5e1: 20               NOP
04b5e2: 20               NOP
04b5e3: 20               NOP
04b5e4: 20               NOP
04b5e5: 20               NOP
04b5e6: 20               NOP
04b5e7: 20               NOP
04b5e8: 20               NOP
04b5e9: 20               NOP
04b5ea: 20               NOP
04b5eb: 20               NOP
04b5ec: 20               NOP
04b5ed: 20               NOP
04b5ee: 20               NOP
04b5ef: 20               NOP
04b5f0: 20               NOP
04b5f1: 20               NOP
04b5f2: 20               NOP
04b5f3: 20               NOP
04b5f4: 20               NOP
04b5f5: 20               NOP
04b5f6: 20               NOP
04b5f7: 20               NOP
04b5f8: 20               NOP
04b5f9: 20               NOP
04b5fa: 20               NOP
04b5fb: 20               NOP
04b5fc: 20               NOP
04b5fd: 20               NOP
04b5fe: 20               NOP
04b5ff: 20               NOP
04b600: 20               NOP
04b601: 20               NOP
04b602: 20               NOP
04b603: 20               NOP
04b604: 20               NOP
04b605: 20               NOP
04b606: 20               NOP
04b607: 20               NOP
04b608: 20               NOP
04b609: 20               NOP
04b60a: 20               NOP
04b60b: 20               NOP
04b60c: 20               NOP
04b60d: 20               NOP
04b60e: 20               NOP
04b60f: 20               NOP
04b610: 20               NOP
04b611: 20               NOP
04b612: 20               NOP
04b613: 20               NOP
04b614: 20               NOP
04b615: 20               NOP
04b616: 20               NOP
04b617: 20               NOP
04b618: 20               NOP
04b619: 20               NOP
04b61a: 20               NOP
04b61b: 20               NOP
04b61c: 20               NOP
04b61d: 20               NOP
04b61e: 20               NOP
04b61f: 20               NOP
04b620: 20               NOP
04b621: 20               NOP
04b622: 20               NOP
04b623: 20               NOP
04b624: 20               NOP
04b625: 20               NOP
04b626: 20               NOP
04b627: 20               NOP
04b628: 20               NOP
04b629: 20               NOP
04b62a: 20               NOP
04b62b: 20               NOP
04b62c: 20               NOP
04b62d: 20               NOP
04b62e: 20               NOP
04b62f: 20               NOP
04b630: 20               NOP
04b631: 20               NOP
04b632: 20               NOP
04b633: 20               NOP
04b634: 20               NOP
04b635: 20               NOP
04b636: 20               NOP
04b637: 20               NOP
04b638: 20               NOP
04b639: 20               NOP
04b63a: 20               NOP
04b63b: 20               NOP
04b63c: 20               NOP
04b63d: 20               NOP
04b63e: 20               NOP
04b63f: 20               NOP
04b640: 20               NOP
04b641: 20               NOP
04b642: 20               NOP
04b643: 20               NOP
04b644: 20               NOP
04b645: 20               NOP
04b646: 20               NOP
04b647: 20               NOP
04b648: 20               NOP
04b649: 20               NOP
04b64a: 20               NOP
04b64b: 20               NOP
04b64c: 20               NOP
04b64d: 20               NOP
04b64e: 20               NOP
04b64f: 20               NOP
04b650: 20               NOP
04b651: 20               NOP
04b652: 20               NOP
04b653: 20               NOP
04b654: 20               NOP
04b655: 20               NOP
04b656: 20               NOP
04b657: 20               NOP
04b658: 20               NOP
04b659: 20               NOP
04b65a: 20               NOP
04b65b: 20               NOP
04b65c: 20               NOP
04b65d: 20               NOP
04b65e: 20               NOP
04b65f: 20               NOP
04b660: 20               NOP
04b661: 20               NOP
04b662: 20               NOP
04b663: 20               NOP
04b664: 20               NOP
04b665: 20               NOP
04b666: 20               NOP
04b667: 20               NOP
04b668: 20               NOP
04b669: 20               NOP
04b66a: 20               NOP
04b66b: 20               NOP
04b66c: 20               NOP
04b66d: 20               NOP
04b66e: 20               NOP
04b66f: 20               NOP
04b670: 20               NOP
04b671: 20               NOP
04b672: 20               NOP
04b673: 20               NOP
04b674: 20               NOP
04b675: 20               NOP
04b676: 20               NOP
04b677: 20               NOP
04b678: 20               NOP
04b679: 20               NOP
04b67a: 20               NOP
04b67b: 20               NOP
04b67c: 20               NOP
04b67d: 20               NOP
04b67e: 20               NOP
04b67f: 20               NOP
04b680: 20               NOP
04b681: 20               NOP
04b682: 20               NOP
04b683: 20               NOP
04b684: 20               NOP
04b685: 20               NOP
04b686: 20               NOP
04b687: 20               NOP
04b688: 20               NOP
04b689: 20               NOP
04b68a: 20               NOP
04b68b: 20               NOP
04b68c: 20               NOP
04b68d: 20               NOP
04b68e: 20               NOP
04b68f: 20               NOP
04b690: 20               NOP
04b691: 20               NOP
04b692: 20               NOP
04b693: 20               NOP
04b694: 20               NOP
04b695: 20               NOP
04b696: 20               NOP
04b697: 20               NOP
04b698: 20               NOP
04b699: 20               NOP
04b69a: 20               NOP
04b69b: 20               NOP
04b69c: 20               NOP
04b69d: 20               NOP
04b69e: 20               NOP
04b69f: 20               NOP
04b6a0: 20               NOP
04b6a1: 20               NOP
04b6a2: 20               NOP
04b6a3: 20               NOP
04b6a4: 20               NOP
04b6a5: 20               NOP
04b6a6: 20               NOP
04b6a7: 20               NOP
04b6a8: 20               NOP
04b6a9: 20               NOP
04b6aa: 20               NOP
04b6ab: 20               NOP
04b6ac: 20               NOP
04b6ad: 20               NOP
04b6ae: 20               NOP
04b6af: 20               NOP
04b6b0: 20               NOP
04b6b1: 20               NOP
04b6b2: 20               NOP
04b6b3: 20               NOP
04b6b4: 20               NOP
04b6b5: 20               NOP
04b6b6: 20               NOP
04b6b7: 20               NOP
04b6b8: 20               NOP
04b6b9: 20               NOP
04b6ba: 20               NOP
04b6bb: 20               NOP
04b6bc: 20               NOP
04b6bd: 20               NOP
04b6be: 20               NOP
04b6bf: 20               NOP
04b6c0: 20               NOP
04b6c1: 20               NOP
04b6c2: 20               NOP
04b6c3: 20               NOP
04b6c4: 20               NOP
04b6c5: 20               NOP
04b6c6: 20               NOP
04b6c7: 20               NOP
04b6c8: 20               NOP
04b6c9: 20               NOP
04b6ca: 20               NOP
04b6cb: 20               NOP
04b6cc: 20               NOP
04b6cd: 20               NOP
04b6ce: 20               NOP
04b6cf: 20               NOP
04b6d0: 20               NOP
04b6d1: 20               NOP
04b6d2: 20               NOP
04b6d3: 20               NOP
04b6d4: 20               NOP
04b6d5: 20               NOP
04b6d6: 20               NOP
04b6d7: 20               NOP
04b6d8: 20               NOP
04b6d9: 20               NOP
04b6da: 20               NOP
04b6db: 20               NOP
04b6dc: 20               NOP
04b6dd: 20               NOP
04b6de: 20               NOP
04b6df: 20               NOP
04b6e0: 20               NOP
04b6e1: 20               NOP
04b6e2: 20               NOP
04b6e3: 20               NOP
04b6e4: 20               NOP
04b6e5: 20               NOP
04b6e6: 20               NOP
04b6e7: 20               NOP
04b6e8: 20               NOP
04b6e9: 20               NOP
04b6ea: 20               NOP
04b6eb: 20               NOP
04b6ec: 20               NOP
04b6ed: 20               NOP
04b6ee: 20               NOP
04b6ef: 20               NOP
04b6f0: 20               NOP
04b6f1: 20               NOP
04b6f2: 20               NOP
04b6f3: 20               NOP
04b6f4: 20               NOP
04b6f5: 20               NOP
04b6f6: 20               NOP
04b6f7: 20               NOP
04b6f8: 20               NOP
04b6f9: 20               NOP
04b6fa: 20               NOP
04b6fb: 20               NOP
04b6fc: 20               NOP
04b6fd: 20               NOP
04b6fe: 20               NOP
04b6ff: 20               NOP
04b700: 20               NOP
04b701: 20               NOP
04b702: 20               NOP
04b703: 20               NOP
04b704: 20               NOP
04b705: 20               NOP
04b706: 20               NOP
04b707: 20               NOP
04b708: 20               NOP
04b709: 20               NOP
04b70a: 20               NOP
04b70b: 20               NOP
04b70c: 20               NOP
04b70d: 20               NOP
04b70e: 20               NOP
04b70f: 20               NOP
04b710: 20               NOP
04b711: 20               NOP
04b712: 20               NOP
04b713: 20               NOP
04b714: 20               NOP
04b715: 20               NOP
04b716: 20               NOP
04b717: 20               NOP
04b718: 20               NOP
04b719: 20               NOP
04b71a: 20               NOP
04b71b: 20               NOP
04b71c: 20               NOP
04b71d: 20               NOP
04b71e: 20               NOP
04b71f: 20               NOP
04b720: 20               NOP
04b721: 20               NOP
04b722: 20               NOP
04b723: 20               NOP
04b724: 20               NOP
04b725: 20               NOP
04b726: 20               NOP
04b727: 20               NOP
04b728: 20               NOP
04b729: 20               NOP
04b72a: 20               NOP
04b72b: 20               NOP
04b72c: 20               NOP
04b72d: 20               NOP
04b72e: 20               NOP
04b72f: 20               NOP
04b730: 20               NOP
04b731: 20               NOP
04b732: 20               NOP
04b733: 20               NOP
04b734: 20               NOP
04b735: 20               NOP
04b736: 20               NOP
04b737: 20               NOP
04b738: 20               NOP
04b739: 20               NOP
04b73a: 20               NOP
04b73b: 20               NOP
04b73c: 20               NOP
04b73d: 20               NOP
04b73e: 20               NOP
04b73f: 20               NOP
04b740: 20               NOP
04b741: 20               NOP
04b742: 20               NOP
04b743: 20               NOP
04b744: 20               NOP
04b745: 20               NOP
04b746: 20               NOP
04b747: 20               NOP
04b748: 20               NOP
04b749: 20               NOP
04b74a: 20               NOP
04b74b: 20               NOP
04b74c: 20               NOP
04b74d: 20               NOP
04b74e: 20               NOP
04b74f: 20               NOP
04b750: 20               NOP
04b751: 20               NOP
04b752: 20               NOP
04b753: 20               NOP
04b754: 20               NOP
04b755: 20               NOP
04b756: 20               NOP
04b757: 20               NOP
04b758: 20               NOP
04b759: 20               NOP
04b75a: 20               NOP
04b75b: 20               NOP
04b75c: 20               NOP
04b75d: 20               NOP
04b75e: 20               NOP
04b75f: 20               NOP
04b760: 20               NOP
04b761: 20               NOP
04b762: 20               NOP
04b763: 20               NOP
04b764: 20               NOP
04b765: 20               NOP
04b766: 20               NOP
04b767: 20               NOP
04b768: 20               NOP
04b769: 20               NOP
04b76a: 20               NOP
04b76b: 20               NOP
04b76c: 20               NOP
04b76d: 20               NOP
04b76e: 20               NOP
04b76f: 20               NOP
04b770: 20               NOP
04b771: 20               NOP
04b772: 20               NOP
04b773: 20               NOP
04b774: 20               NOP
04b775: 20               NOP
04b776: 20               NOP
04b777: 20               NOP
04b778: 20               NOP
04b779: 20               NOP
04b77a: 20               NOP
04b77b: 20               NOP
04b77c: 20               NOP
04b77d: 20               NOP
04b77e: 20               NOP
04b77f: 20               NOP
04b780: 20               NOP
04b781: 20               NOP
04b782: 20               NOP
04b783: 20               NOP
04b784: 20               NOP
04b785: 20               NOP
04b786: 20               NOP
04b787: 20               NOP
04b788: 20               NOP
04b789: 20               NOP
04b78a: 20               NOP
04b78b: 20               NOP
04b78c: 20               NOP
04b78d: 20               NOP
04b78e: 20               NOP
04b78f: 20               NOP
04b790: 20               NOP
04b791: 20               NOP
04b792: 20               NOP
04b793: 20               NOP
04b794: 20               NOP
04b795: 20               NOP
04b796: 20               NOP
04b797: 20               NOP
04b798: 20               NOP
04b799: 20               NOP
04b79a: 20               NOP
04b79b: 20               NOP
04b79c: 20               NOP
04b79d: 20               NOP
04b79e: 20               NOP
04b79f: 20               NOP
04b7a0: 20               NOP
04b7a1: 20               NOP
04b7a2: 20               NOP
04b7a3: 20               NOP
04b7a4: 20               NOP
04b7a5: 20               NOP
04b7a6: 20               NOP
04b7a7: 20               NOP
04b7a8: 20               NOP
04b7a9: 20               NOP
04b7aa: 20               NOP
04b7ab: 20               NOP
04b7ac: 20               NOP
04b7ad: 20               NOP
04b7ae: 20               NOP
04b7af: 20               NOP
04b7b0: 20               NOP
04b7b1: 20               NOP
04b7b2: 20               NOP
04b7b3: 20               NOP
04b7b4: 20               NOP
04b7b5: 20               NOP
04b7b6: 20               NOP
04b7b7: 20               NOP
04b7b8: 20               NOP
04b7b9: 20               NOP
04b7ba: 20               NOP
04b7bb: 20               NOP
04b7bc: 20               NOP
04b7bd: 20               NOP
04b7be: 20               NOP
04b7bf: 20               NOP
04b7c0: 20               NOP
04b7c1: 20               NOP
04b7c2: 20               NOP
04b7c3: 20               NOP
04b7c4: 20               NOP
04b7c5: 20               NOP
04b7c6: 20               NOP
04b7c7: 20               NOP
04b7c8: 20               NOP
04b7c9: 20               NOP
04b7ca: 20               NOP
04b7cb: 20               NOP
04b7cc: 20               NOP
04b7cd: 20               NOP
04b7ce: 20               NOP
04b7cf: 20               NOP
04b7d0: 20               NOP
04b7d1: 20               NOP
04b7d2: 20               NOP
04b7d3: 20               NOP
04b7d4: 20               NOP
04b7d5: 20               NOP
04b7d6: 20               NOP
04b7d7: 20               NOP
04b7d8: 20               NOP
04b7d9: 20               NOP
04b7da: 20               NOP
04b7db: 20               NOP
04b7dc: 20               NOP
04b7dd: 20               NOP
04b7de: 20               NOP
04b7df: 20               NOP
04b7e0: 20               NOP
04b7e1: 20               NOP
04b7e2: 20               NOP
04b7e3: 20               NOP
04b7e4: 20               NOP
04b7e5: 20               NOP
04b7e6: 20               NOP
04b7e7: 20               NOP
04b7e8: 20               NOP
04b7e9: 20               NOP
04b7ea: 20               NOP
04b7eb: 20               NOP
04b7ec: 20               NOP
04b7ed: 20               NOP
04b7ee: 20               NOP
04b7ef: 20               NOP
04b7f0: 20               NOP
04b7f1: 20               NOP
04b7f2: 20               NOP
04b7f3: 20               NOP
04b7f4: 20               NOP
04b7f5: 20               NOP
04b7f6: 20               NOP
04b7f7: 20               NOP
04b7f8: 20               NOP
04b7f9: 20               NOP
04b7fa: 20               NOP
04b7fb: 20               NOP
04b7fc: 20               NOP
04b7fd: 20               NOP
04b7fe: 20               NOP
04b7ff: 20               NOP
04b800: 20               NOP
04b801: 20               NOP
04b802: 20               NOP
04b803: 20               NOP
04b804: 20               NOP
04b805: 20               NOP
04b806: 20               NOP
04b807: 20               NOP
04b808: 20               NOP
04b809: 20               NOP
04b80a: 20               NOP
04b80b: 20               NOP
04b80c: 20               NOP
04b80d: 20               NOP
04b80e: 20               NOP
04b80f: 20               NOP
04b810: 20               NOP
04b811: 20               NOP
04b812: 20               NOP
04b813: 20               NOP
04b814: 20               NOP
04b815: 20               NOP
04b816: 20               NOP
04b817: 20               NOP
04b818: 20               NOP
04b819: 20               NOP
04b81a: 20               NOP
04b81b: 20               NOP
04b81c: 20               NOP
04b81d: 20               NOP
04b81e: 20               NOP
04b81f: 20               NOP
04b820: 20               NOP
04b821: 20               NOP
04b822: 20               NOP
04b823: 20               NOP
04b824: 20               NOP
04b825: 20               NOP
04b826: 20               NOP
04b827: 20               NOP
04b828: 20               NOP
04b829: 20               NOP
04b82a: 20               NOP
04b82b: 20               NOP
04b82c: 20               NOP
04b82d: 20               NOP
04b82e: 20               NOP
04b82f: 20               NOP
04b830: 20               NOP
04b831: 20               NOP
04b832: 20               NOP
04b833: 20               NOP
04b834: 20               NOP
04b835: 20               NOP
04b836: 20               NOP
04b837: 20               NOP
04b838: 20               NOP
04b839: 20               NOP
04b83a: 20               NOP
04b83b: 20               NOP
04b83c: 20               NOP
04b83d: 20               NOP
04b83e: 20               NOP
04b83f: 20               NOP
04b840: 20               NOP
04b841: 20               NOP
04b842: 20               NOP
04b843: 20               NOP
04b844: 20               NOP
04b845: 20               NOP
04b846: 20               NOP
04b847: 20               NOP
04b848: 20               NOP
04b849: 20               NOP
04b84a: 20               NOP
04b84b: 20               NOP
04b84c: 20               NOP
04b84d: 20               NOP
04b84e: 20               NOP
04b84f: 20               NOP
04b850: 20               NOP
04b851: 20               NOP
04b852: 20               NOP
04b853: 20               NOP
04b854: 20               NOP
04b855: 20               NOP
04b856: 20               NOP
04b857: 20               NOP
04b858: 20               NOP
04b859: 20               NOP
04b85a: 20               NOP
04b85b: 20               NOP
04b85c: 20               NOP
04b85d: 20               NOP
04b85e: 20               NOP
04b85f: 20               NOP
04b860: 20               NOP
04b861: 20               NOP
04b862: 20               NOP
04b863: 20               NOP
04b864: 20               NOP
04b865: 20               NOP
04b866: 20               NOP
04b867: 20               NOP
04b868: 20               NOP
04b869: 20               NOP
04b86a: 20               NOP
04b86b: 20               NOP
04b86c: 20               NOP
04b86d: 20               NOP
04b86e: 20               NOP
04b86f: 20               NOP
04b870: 20               NOP
04b871: 20               NOP
04b872: 20               NOP
04b873: 20               NOP
04b874: 20               NOP
04b875: 20               NOP
04b876: 20               NOP
04b877: 20               NOP
04b878: 20               NOP
04b879: 20               NOP
04b87a: 20               NOP
04b87b: 20               NOP
04b87c: 20               NOP
04b87d: 20               NOP
04b87e: 20               NOP
04b87f: 20               NOP
04b880: 20               NOP
04b881: 20               NOP
04b882: 20               NOP
04b883: 20               NOP
04b884: 20               NOP
04b885: 20               NOP
04b886: 20               NOP
04b887: 20               NOP
04b888: 20               NOP
04b889: 20               NOP
04b88a: 20               NOP
04b88b: 20               NOP
04b88c: 20               NOP
04b88d: 20               NOP
04b88e: 20               NOP
04b88f: 20               NOP
04b890: 20               NOP
04b891: 20               NOP
04b892: 20               NOP
04b893: 20               NOP
04b894: 20               NOP
04b895: 20               NOP
04b896: 20               NOP
04b897: 20               NOP
04b898: 20               NOP
04b899: 20               NOP
04b89a: 20               NOP
04b89b: 20               NOP
04b89c: 20               NOP
04b89d: 20               NOP
04b89e: 20               NOP
04b89f: 20               NOP
04b8a0: 20               NOP
04b8a1: 20               NOP
04b8a2: 20               NOP
04b8a3: 20               NOP
04b8a4: 20               NOP
04b8a5: 20               NOP
04b8a6: 20               NOP
04b8a7: 20               NOP
04b8a8: 20               NOP
04b8a9: 20               NOP
04b8aa: 20               NOP
04b8ab: 20               NOP
04b8ac: 20               NOP
04b8ad: 20               NOP
04b8ae: 20               NOP
04b8af: 20               NOP
04b8b0: 20               NOP
04b8b1: 20               NOP
04b8b2: 20               NOP
04b8b3: 20               NOP
04b8b4: 20               NOP
04b8b5: 20               NOP
04b8b6: 20               NOP
04b8b7: 20               NOP
04b8b8: 20               NOP
04b8b9: 20               NOP
04b8ba: 20               NOP
04b8bb: 20               NOP
04b8bc: 20               NOP
04b8bd: 20               NOP
04b8be: 20               NOP
04b8bf: 20               NOP
04b8c0: 20               NOP
04b8c1: 20               NOP
04b8c2: 20               NOP
04b8c3: 20               NOP
04b8c4: 20               NOP
04b8c5: 20               NOP
04b8c6: 20               NOP
04b8c7: 20               NOP
04b8c8: 20               NOP
04b8c9: 20               NOP
04b8ca: 20               NOP
04b8cb: 20               NOP
04b8cc: 20               NOP
04b8cd: 20               NOP
04b8ce: 20               NOP
04b8cf: 20               NOP
04b8d0: 20               NOP
04b8d1: 20               NOP
04b8d2: 20               NOP
04b8d3: 20               NOP
04b8d4: 20               NOP
04b8d5: 20               NOP
04b8d6: 20               NOP
04b8d7: 20               NOP
04b8d8: 20               NOP
04b8d9: 20               NOP
04b8da: 20               NOP
04b8db: 20               NOP
04b8dc: 20               NOP
04b8dd: 20               NOP
04b8de: 20               NOP
04b8df: 20               NOP
04b8e0: 20               NOP
04b8e1: 20               NOP
04b8e2: 20               NOP
04b8e3: 20               NOP
04b8e4: 20               NOP
04b8e5: 20               NOP
04b8e6: 20               NOP
04b8e7: 20               NOP
04b8e8: 20               NOP
04b8e9: 20               NOP
04b8ea: 20               NOP
04b8eb: 20               NOP
04b8ec: 20               NOP
04b8ed: 20               NOP
04b8ee: 20               NOP
04b8ef: 20               NOP
04b8f0: 20               NOP
04b8f1: 20               NOP
04b8f2: 20               NOP
04b8f3: 20               NOP
04b8f4: 20               NOP
04b8f5: 20               NOP
04b8f6: 20               NOP
04b8f7: 20               NOP
04b8f8: 20               NOP
04b8f9: 20               NOP
04b8fa: 20               NOP
04b8fb: 20               NOP
04b8fc: 20               NOP
04b8fd: 20               NOP
04b8fe: 20               NOP
04b8ff: 20               NOP
04b900: 20               NOP
04b901: 20               NOP
04b902: 20               NOP
04b903: 20               NOP
04b904: 20               NOP
04b905: 20               NOP
04b906: 20               NOP
04b907: 20               NOP
04b908: 20               NOP
04b909: 20               NOP
04b90a: 20               NOP
04b90b: 20               NOP
04b90c: 20               NOP
04b90d: 20               NOP
04b90e: 20               NOP
04b90f: 20               NOP
04b910: 20               NOP
04b911: 20               NOP
04b912: 20               NOP
04b913: 20               NOP
04b914: 20               NOP
04b915: 20               NOP
04b916: 20               NOP
04b917: 20               NOP
04b918: 20               NOP
04b919: 20               NOP
04b91a: 20               NOP
04b91b: 20               NOP
04b91c: 20               NOP
04b91d: 20               NOP
04b91e: 20               NOP
04b91f: 20               NOP
04b920: 20               NOP
04b921: 20               NOP
04b922: 20               NOP
04b923: 20               NOP
04b924: 20               NOP
04b925: 20               NOP
04b926: 20               NOP
04b927: 20               NOP
04b928: 20               NOP
04b929: 20               NOP
04b92a: 20               NOP
04b92b: 20               NOP
04b92c: 20               NOP
04b92d: 20               NOP
04b92e: 20               NOP
04b92f: 20               NOP
04b930: 20               NOP
04b931: 20               NOP
04b932: 20               NOP
04b933: 20               NOP
04b934: 20               NOP
04b935: 20               NOP
04b936: 20               NOP
04b937: 20               NOP
04b938: 20               NOP
04b939: 20               NOP
04b93a: 20               NOP
04b93b: 20               NOP
04b93c: 20               NOP
04b93d: 20               NOP
04b93e: 20               NOP
04b93f: 20               NOP
04b940: 20               NOP
04b941: 20               NOP
04b942: 20               NOP
04b943: 20               NOP
04b944: 20               NOP
04b945: 20               NOP
04b946: 20               NOP
04b947: 20               NOP
04b948: 20               NOP
04b949: 20               NOP
04b94a: 20               NOP
04b94b: 20               NOP
04b94c: 20               NOP
04b94d: 20               NOP
04b94e: 20               NOP
04b94f: 20               NOP
04b950: 20               NOP
04b951: 20               NOP
04b952: 20               NOP
04b953: 20               NOP
04b954: 20               NOP
04b955: 20               NOP
04b956: 20               NOP
04b957: 20               NOP
04b958: 20               NOP
04b959: 20               NOP
04b95a: 20               NOP
04b95b: 20               NOP
04b95c: 20               NOP
04b95d: 20               NOP
04b95e: 20               NOP
04b95f: 20               NOP
04b960: 20               NOP
04b961: 20               NOP
04b962: 20               NOP
04b963: 20               NOP
04b964: 20               NOP
04b965: 20               NOP
04b966: 20               NOP
04b967: 20               NOP
04b968: 20               NOP
04b969: 20               NOP
04b96a: 20               NOP
04b96b: 20               NOP
04b96c: 20               NOP
04b96d: 20               NOP
04b96e: 20               NOP
04b96f: 20               NOP
04b970: 20               NOP
04b971: 20               NOP
04b972: 20               NOP
04b973: 20               NOP
04b974: 20               NOP
04b975: 20               NOP
04b976: 20               NOP
04b977: 20               NOP
04b978: 20               NOP
04b979: 20               NOP
04b97a: 20               NOP
04b97b: 20               NOP
04b97c: 20               NOP
04b97d: 20               NOP
04b97e: 20               NOP
04b97f: 20               NOP
04b980: 20               NOP
04b981: 20               NOP
04b982: 20               NOP
04b983: 20               NOP
04b984: 20               NOP
04b985: 20               NOP
04b986: 20               NOP
04b987: 20               NOP
04b988: 20               NOP
04b989: 20               NOP
04b98a: 20               NOP
04b98b: 20               NOP
04b98c: 20               NOP
04b98d: 20               NOP
04b98e: 20               NOP
04b98f: 20               NOP
04b990: 20               NOP
04b991: 20               NOP
04b992: 20               NOP
04b993: 20               NOP
04b994: 20               NOP
04b995: 20               NOP
04b996: 20               NOP
04b997: 20               NOP
04b998: 20               NOP
04b999: 20               NOP
04b99a: 20               NOP
04b99b: 20               NOP
04b99c: 20               NOP
04b99d: 20               NOP
04b99e: 20               NOP
04b99f: 20               NOP
04b9a0: 20               NOP
04b9a1: 20               NOP
04b9a2: 20               NOP
04b9a3: 20               NOP
04b9a4: 20               NOP
04b9a5: 20               NOP
04b9a6: 20               NOP
04b9a7: 20               NOP
04b9a8: 20               NOP
04b9a9: 20               NOP
04b9aa: 20               NOP
04b9ab: 20               NOP
04b9ac: 20               NOP
04b9ad: 20               NOP
04b9ae: 20               NOP
04b9af: 20               NOP
04b9b0: 20               NOP
04b9b1: 20               NOP
04b9b2: 20               NOP
04b9b3: 20               NOP
04b9b4: 20               NOP
04b9b5: 20               NOP
04b9b6: 20               NOP
04b9b7: 20               NOP
04b9b8: 20               NOP
04b9b9: 20               NOP
04b9ba: 20               NOP
04b9bb: 20               NOP
04b9bc: 20               NOP
04b9bd: 20               NOP
04b9be: 20               NOP
04b9bf: 20               NOP
04b9c0: 20               NOP
04b9c1: 20               NOP
04b9c2: 20               NOP
04b9c3: 20               NOP
04b9c4: 20               NOP
04b9c5: 20               NOP
04b9c6: 20               NOP
04b9c7: 20               NOP
04b9c8: 20               NOP
04b9c9: 20               NOP
04b9ca: 20               NOP
04b9cb: 20               NOP
04b9cc: 20               NOP
04b9cd: 20               NOP
04b9ce: 20               NOP
04b9cf: 20               NOP
04b9d0: 20               NOP
04b9d1: 20               NOP
04b9d2: 20               NOP
04b9d3: 20               NOP
04b9d4: 20               NOP
04b9d5: 20               NOP
04b9d6: 20               NOP
04b9d7: 20               NOP
04b9d8: 20               NOP
04b9d9: 20               NOP
04b9da: 20               NOP
04b9db: 20               NOP
04b9dc: 20               NOP
04b9dd: 20               NOP
04b9de: 20               NOP
04b9df: 20               NOP
04b9e0: 20               NOP
04b9e1: 20               NOP
04b9e2: 20               NOP
04b9e3: 20               NOP
04b9e4: 20               NOP
04b9e5: 20               NOP
04b9e6: 20               NOP
04b9e7: 20               NOP
04b9e8: 20               NOP
04b9e9: 20               NOP
04b9ea: 20               NOP
04b9eb: 20               NOP
04b9ec: 20               NOP
04b9ed: 20               NOP
04b9ee: 20               NOP
04b9ef: 20               NOP
04b9f0: 20               NOP
04b9f1: 20               NOP
04b9f2: 20               NOP
04b9f3: 20               NOP
04b9f4: 20               NOP
04b9f5: 20               NOP
04b9f6: 20               NOP
04b9f7: 20               NOP
04b9f8: 20               NOP
04b9f9: 20               NOP
04b9fa: 20               NOP
04b9fb: 20               NOP
04b9fc: 20               NOP
04b9fd: 20               NOP
04b9fe: 20               NOP
04b9ff: 20               NOP
04ba00: 20               NOP
04ba01: 20               NOP
04ba02: 20               NOP
04ba03: 20               NOP
04ba04: 20               NOP
04ba05: 20               NOP
04ba06: 20               NOP
04ba07: 20               NOP
04ba08: 20               NOP
04ba09: 20               NOP
04ba0a: 20               NOP
04ba0b: 20               NOP
04ba0c: 20               NOP
04ba0d: 20               NOP
04ba0e: 20               NOP
04ba0f: 20               NOP
04ba10: 20               NOP
04ba11: 20               NOP
04ba12: 20               NOP
04ba13: 20               NOP
04ba14: 20               NOP
04ba15: 20               NOP
04ba16: 20               NOP
04ba17: 20               NOP
04ba18: 20               NOP
04ba19: 20               NOP
04ba1a: 20               NOP
04ba1b: 20               NOP
04ba1c: 20               NOP
04ba1d: 20               NOP
04ba1e: 20               NOP
04ba1f: 20               NOP
04ba20: 20               NOP
04ba21: 20               NOP
04ba22: 20               NOP
04ba23: 20               NOP
04ba24: 20               NOP
04ba25: 20               NOP
04ba26: 20               NOP
04ba27: 20               NOP
04ba28: 20               NOP
04ba29: 20               NOP
04ba2a: 20               NOP
04ba2b: 20               NOP
04ba2c: 20               NOP
04ba2d: 20               NOP
04ba2e: 20               NOP
04ba2f: 20               NOP
04ba30: 20               NOP
04ba31: 20               NOP
04ba32: 20               NOP
04ba33: 20               NOP
04ba34: 20               NOP
04ba35: 20               NOP
04ba36: 20               NOP
04ba37: 20               NOP
04ba38: 20               NOP
04ba39: 20               NOP
04ba3a: 20               NOP
04ba3b: 20               NOP
04ba3c: 20               NOP
04ba3d: 20               NOP
04ba3e: 20               NOP
04ba3f: 20               NOP
04ba40: 20               NOP
04ba41: 20               NOP
04ba42: 20               NOP
04ba43: 20               NOP
04ba44: 20               NOP
04ba45: 20               NOP
04ba46: 20               NOP
04ba47: 20               NOP
04ba48: 20               NOP
04ba49: 20               NOP
04ba4a: 20               NOP
04ba4b: 20               NOP
04ba4c: 20               NOP
04ba4d: 20               NOP
04ba4e: 20               NOP
04ba4f: 20               NOP
04ba50: 20               NOP
04ba51: 20               NOP
04ba52: 20               NOP
04ba53: 20               NOP
04ba54: 20               NOP
04ba55: 20               NOP
04ba56: 20               NOP
04ba57: 20               NOP
04ba58: 20               NOP
04ba59: 20               NOP
04ba5a: 20               NOP
04ba5b: 20               NOP
04ba5c: 20               NOP
04ba5d: 20               NOP
04ba5e: 20               NOP
04ba5f: 20               NOP
04ba60: 20               NOP
04ba61: 20               NOP
04ba62: 20               NOP
04ba63: 20               NOP
04ba64: 20               NOP
04ba65: 20               NOP
04ba66: 20               NOP
04ba67: 20               NOP
04ba68: 20               NOP
04ba69: 20               NOP
04ba6a: 20               NOP
04ba6b: 20               NOP
04ba6c: 20               NOP
04ba6d: 20               NOP
04ba6e: 20               NOP
04ba6f: 20               NOP
04ba70: 20               NOP
04ba71: 20               NOP
04ba72: 20               NOP
04ba73: 20               NOP
04ba74: 20               NOP
04ba75: 20               NOP
04ba76: 20               NOP
04ba77: 20               NOP
04ba78: 20               NOP
04ba79: 20               NOP
04ba7a: 20               NOP
04ba7b: 20               NOP
04ba7c: 20               NOP
04ba7d: 20               NOP
04ba7e: 20               NOP
04ba7f: 20               NOP
04ba80: 20               NOP
04ba81: 20               NOP
04ba82: 20               NOP
04ba83: 20               NOP
04ba84: 20               NOP
04ba85: 20               NOP
04ba86: 20               NOP
04ba87: 20               NOP
04ba88: 20               NOP
04ba89: 20               NOP
04ba8a: 20               NOP
04ba8b: 20               NOP
04ba8c: 20               NOP
04ba8d: 20               NOP
04ba8e: 20               NOP
04ba8f: 20               NOP
04ba90: 20               NOP
04ba91: 20               NOP
04ba92: 20               NOP
04ba93: 20               NOP
04ba94: 20               NOP
04ba95: 20               NOP
04ba96: 20               NOP
04ba97: 20               NOP
04ba98: 20               NOP
04ba99: 20               NOP
04ba9a: 20               NOP
04ba9b: 20               NOP
04ba9c: 20               NOP
04ba9d: 20               NOP
04ba9e: 20               NOP
04ba9f: 20               NOP
04baa0: 20               NOP
04baa1: 20               NOP
04baa2: 20               NOP
04baa3: 20               NOP
04baa4: 20               NOP
04baa5: 20               NOP
04baa6: 20               NOP
04baa7: 20               NOP
04baa8: 20               NOP
04baa9: 20               NOP
04baaa: 20               NOP
04baab: 20               NOP
04baac: 20               NOP
04baad: 20               NOP
04baae: 20               NOP
04baaf: 20               NOP
04bab0: 20               NOP
04bab1: 20               NOP
04bab2: 20               NOP
04bab3: 20               NOP
04bab4: 20               NOP
04bab5: 20               NOP
04bab6: 20               NOP
04bab7: 20               NOP
04bab8: 20               NOP
04bab9: 20               NOP
04baba: 20               NOP
04babb: 20               NOP
04babc: 20               NOP
04babd: 20               NOP
04babe: 20               NOP
04babf: 20               NOP
04bac0: 20               NOP
04bac1: 20               NOP
04bac2: 20               NOP
04bac3: 20               NOP
04bac4: 20               NOP
04bac5: 20               NOP
04bac6: 20               NOP
04bac7: 20               NOP
04bac8: 20               NOP
04bac9: 20               NOP
04baca: 20               NOP
04bacb: 20               NOP
04bacc: 20               NOP
04bacd: 20               NOP
04bace: 20               NOP
04bacf: 20               NOP
04bad0: 20               NOP
04bad1: 20               NOP
04bad2: 20               NOP
04bad3: 20               NOP
04bad4: 20               NOP
04bad5: 20               NOP
04bad6: 20               NOP
04bad7: 20               NOP
04bad8: 20               NOP
04bad9: 20               NOP
04bada: 20               NOP
04badb: 20               NOP
04badc: 20               NOP
04badd: 20               NOP
04bade: 20               NOP
04badf: 20               NOP
04bae0: 20               NOP
04bae1: 20               NOP
04bae2: 20               NOP
04bae3: 20               NOP
04bae4: 20               NOP
04bae5: 20               NOP
04bae6: 20               NOP
04bae7: 20               NOP
04bae8: 20               NOP
04bae9: 20               NOP
04baea: 20               NOP
04baeb: 20               NOP
04baec: 20               NOP
04baed: 20               NOP
04baee: 20               NOP
04baef: 20               NOP
04baf0: 20               NOP
04baf1: 20               NOP
04baf2: 20               NOP
04baf3: 20               NOP
04baf4: 20               NOP
04baf5: 20               NOP
04baf6: 20               NOP
04baf7: 20               NOP
04baf8: 20               NOP
04baf9: 20               NOP
04bafa: 20               NOP
04bafb: 20               NOP
04bafc: 20               NOP
04bafd: 20               NOP
04bafe: 20               NOP
04baff: 20               NOP
04bb00: 20               NOP
04bb01: 20               NOP
04bb02: 20               NOP
04bb03: 20               NOP
04bb04: 20               NOP
04bb05: 20               NOP
04bb06: 20               NOP
04bb07: 20               NOP
04bb08: 20               NOP
04bb09: 20               NOP
04bb0a: 20               NOP
04bb0b: 20               NOP
04bb0c: 20               NOP
04bb0d: 20               NOP
04bb0e: 20               NOP
04bb0f: 20               NOP
04bb10: 20               NOP
04bb11: 20               NOP
04bb12: 20               NOP
04bb13: 20               NOP
04bb14: 20               NOP
04bb15: 20               NOP
04bb16: 20               NOP
04bb17: 20               NOP
04bb18: 20               NOP
04bb19: 20               NOP
04bb1a: 20               NOP
04bb1b: 20               NOP
04bb1c: 20               NOP
04bb1d: 20               NOP
04bb1e: 20               NOP
04bb1f: 20               NOP
04bb20: 20               NOP
04bb21: 20               NOP
04bb22: 20               NOP
04bb23: 20               NOP
04bb24: 20               NOP
04bb25: 20               NOP
04bb26: 20               NOP
04bb27: 20               NOP
04bb28: 20               NOP
04bb29: 20               NOP
04bb2a: 20               NOP
04bb2b: 20               NOP
04bb2c: 20               NOP
04bb2d: 20               NOP
04bb2e: 20               NOP
04bb2f: 20               NOP
04bb30: 20               NOP
04bb31: 20               NOP
04bb32: 20               NOP
04bb33: 20               NOP
04bb34: 20               NOP
04bb35: 20               NOP
04bb36: 20               NOP
04bb37: 20               NOP
04bb38: 20               NOP
04bb39: 20               NOP
04bb3a: 20               NOP
04bb3b: 20               NOP
04bb3c: 20               NOP
04bb3d: 20               NOP
04bb3e: 20               NOP
04bb3f: 20               NOP
04bb40: 20               NOP
04bb41: 20               NOP
04bb42: 20               NOP
04bb43: 20               NOP
04bb44: 20               NOP
04bb45: 20               NOP
04bb46: 20               NOP
04bb47: 20               NOP
04bb48: 20               NOP
04bb49: 20               NOP
04bb4a: 20               NOP
04bb4b: 20               NOP
04bb4c: 20               NOP
04bb4d: 20               NOP
04bb4e: 20               NOP
04bb4f: 20               NOP
04bb50: 20               NOP
04bb51: 20               NOP
04bb52: 20               NOP
04bb53: 20               NOP
04bb54: 20               NOP
04bb55: 20               NOP
04bb56: 20               NOP
04bb57: 20               NOP
04bb58: 20               NOP
04bb59: 20               NOP
04bb5a: 20               NOP
04bb5b: 20               NOP
04bb5c: 20               NOP
04bb5d: 20               NOP
04bb5e: 20               NOP
04bb5f: 20               NOP
04bb60: 20               NOP
04bb61: 20               NOP
04bb62: 20               NOP
04bb63: 20               NOP
04bb64: 20               NOP
04bb65: 20               NOP
04bb66: 20               NOP
04bb67: 20               NOP
04bb68: 20               NOP
04bb69: 20               NOP
04bb6a: 20               NOP
04bb6b: 20               NOP
04bb6c: 20               NOP
04bb6d: 20               NOP
04bb6e: 20               NOP
04bb6f: 20               NOP
04bb70: 20               NOP
04bb71: 20               NOP
04bb72: 20               NOP
04bb73: 20               NOP
04bb74: 20               NOP
04bb75: 20               NOP
04bb76: 20               NOP
04bb77: 20               NOP
04bb78: 20               NOP
04bb79: 20               NOP
04bb7a: 20               NOP
04bb7b: 20               NOP
04bb7c: 20               NOP
04bb7d: 20               NOP
04bb7e: 20               NOP
04bb7f: 20               NOP
04bb80: 20               NOP
04bb81: 20               NOP
04bb82: 20               NOP
04bb83: 20               NOP
04bb84: 20               NOP
04bb85: 20               NOP
04bb86: 20               NOP
04bb87: 20               NOP
04bb88: 20               NOP
04bb89: 20               NOP
04bb8a: 20               NOP
04bb8b: 20               NOP
04bb8c: 20               NOP
04bb8d: 20               NOP
04bb8e: 20               NOP
04bb8f: 20               NOP
04bb90: 20               NOP
04bb91: 20               NOP
04bb92: 20               NOP
04bb93: 20               NOP
04bb94: 20               NOP
04bb95: 20               NOP
04bb96: 20               NOP
04bb97: 20               NOP
04bb98: 20               NOP
04bb99: 20               NOP
04bb9a: 20               NOP
04bb9b: 20               NOP
04bb9c: 20               NOP
04bb9d: 20               NOP
04bb9e: 20               NOP
04bb9f: 20               NOP
04bba0: 20               NOP
04bba1: 20               NOP
04bba2: 20               NOP
04bba3: 20               NOP
04bba4: 20               NOP
04bba5: 20               NOP
04bba6: 20               NOP
04bba7: 20               NOP
04bba8: 20               NOP
04bba9: 20               NOP
04bbaa: 20               NOP
04bbab: 20               NOP
04bbac: 20               NOP
04bbad: 20               NOP
04bbae: 20               NOP
04bbaf: 20               NOP
04bbb0: 20               NOP
04bbb1: 20               NOP
04bbb2: 20               NOP
04bbb3: 20               NOP
04bbb4: 20               NOP
04bbb5: 20               NOP
04bbb6: 20               NOP
04bbb7: 20               NOP
04bbb8: 20               NOP
04bbb9: 20               NOP
04bbba: 20               NOP
04bbbb: 20               NOP
04bbbc: 20               NOP
04bbbd: 20               NOP
04bbbe: 20               NOP
04bbbf: 20               NOP
04bbc0: 20               NOP
04bbc1: 20               NOP
04bbc2: 20               NOP
04bbc3: 20               NOP
04bbc4: 20               NOP
04bbc5: 20               NOP
04bbc6: 20               NOP
04bbc7: 20               NOP
04bbc8: 20               NOP
04bbc9: 20               NOP
04bbca: 20               NOP
04bbcb: 20               NOP
04bbcc: 20               NOP
04bbcd: 20               NOP
04bbce: 20               NOP
04bbcf: 20               NOP
04bbd0: 20               NOP
04bbd1: 20               NOP
04bbd2: 20               NOP
04bbd3: 20               NOP
04bbd4: 20               NOP
04bbd5: 20               NOP
04bbd6: 20               NOP
04bbd7: 20               NOP
04bbd8: 20               NOP
04bbd9: 20               NOP
04bbda: 20               NOP
04bbdb: 20               NOP
04bbdc: 20               NOP
04bbdd: 20               NOP
04bbde: 20               NOP
04bbdf: 20               NOP
04bbe0: 20               NOP
04bbe1: 20               NOP
04bbe2: 20               NOP
04bbe3: 20               NOP
04bbe4: 20               NOP
04bbe5: 20               NOP
04bbe6: 20               NOP
04bbe7: 20               NOP
04bbe8: 20               NOP
04bbe9: 20               NOP
04bbea: 20               NOP
04bbeb: 20               NOP
04bbec: 20               NOP
04bbed: 20               NOP
04bbee: 20               NOP
04bbef: 20               NOP
04bbf0: 20               NOP
04bbf1: 20               NOP
04bbf2: 20               NOP
04bbf3: 20               NOP
04bbf4: 20               NOP
04bbf5: 20               NOP
04bbf6: 20               NOP
04bbf7: 20               NOP
04bbf8: 20               NOP
04bbf9: 20               NOP
04bbfa: 20               NOP
04bbfb: 20               NOP
04bbfc: 20               NOP
04bbfd: 20               NOP
04bbfe: 20               NOP
04bbff: 20               NOP
04bc00: 20               NOP
04bc01: 20               NOP
04bc02: 20               NOP
04bc03: 20               NOP
04bc04: 20               NOP
04bc05: 20               NOP
04bc06: 20               NOP
04bc07: 20               NOP
04bc08: 20               NOP
04bc09: 20               NOP
04bc0a: 20               NOP
04bc0b: 20               NOP
04bc0c: 20               NOP
04bc0d: 20               NOP
04bc0e: 20               NOP
04bc0f: 20               NOP
04bc10: 20               NOP
04bc11: 20               NOP
04bc12: 20               NOP
04bc13: 20               NOP
04bc14: 20               NOP
04bc15: 20               NOP
04bc16: 20               NOP
04bc17: 20               NOP
04bc18: 20               NOP
04bc19: 20               NOP
04bc1a: 20               NOP
04bc1b: 20               NOP
04bc1c: 20               NOP
04bc1d: 20               NOP
04bc1e: 20               NOP
04bc1f: 20               NOP
04bc20: 20               NOP
04bc21: 20               NOP
04bc22: 20               NOP
04bc23: 20               NOP
04bc24: 20               NOP
04bc25: 20               NOP
04bc26: 20               NOP
04bc27: 20               NOP
04bc28: 20               NOP
04bc29: 20               NOP
04bc2a: 20               NOP
04bc2b: 20               NOP
04bc2c: 20               NOP
04bc2d: 20               NOP
04bc2e: 20               NOP
04bc2f: 20               NOP
04bc30: 20               NOP
04bc31: 20               NOP
04bc32: 20               NOP
04bc33: 20               NOP
04bc34: 20               NOP
04bc35: 20               NOP
04bc36: 20               NOP
04bc37: 20               NOP
04bc38: 20               NOP
04bc39: 20               NOP
04bc3a: 20               NOP
04bc3b: 20               NOP
04bc3c: 20               NOP
04bc3d: 20               NOP
04bc3e: 20               NOP
04bc3f: 20               NOP
04bc40: 20               NOP
04bc41: 20               NOP
04bc42: 20               NOP
04bc43: 20               NOP
04bc44: 20               NOP
04bc45: 20               NOP
04bc46: 20               NOP
04bc47: 20               NOP
04bc48: 20               NOP
04bc49: 20               NOP
04bc4a: 20               NOP
04bc4b: 20               NOP
04bc4c: 20               NOP
04bc4d: 20               NOP
04bc4e: 20               NOP
04bc4f: 20               NOP
04bc50: 20               NOP
04bc51: 20               NOP
04bc52: 20               NOP
04bc53: 20               NOP
04bc54: 20               NOP
04bc55: 20               NOP
04bc56: 20               NOP
04bc57: 20               NOP
04bc58: 20               NOP
04bc59: 20               NOP
04bc5a: 20               NOP
04bc5b: 20               NOP
04bc5c: 20               NOP
04bc5d: 20               NOP
04bc5e: 20               NOP
04bc5f: 20               NOP
04bc60: 20               NOP
04bc61: 20               NOP
04bc62: 20               NOP
04bc63: 20               NOP
04bc64: 20               NOP
04bc65: 20               NOP
04bc66: 20               NOP
04bc67: 20               NOP
04bc68: 20               NOP
04bc69: 20               NOP
04bc6a: 20               NOP
04bc6b: 20               NOP
04bc6c: 20               NOP
04bc6d: 20               NOP
04bc6e: 20               NOP
04bc6f: 20               NOP
04bc70: 20               NOP
04bc71: 20               NOP
04bc72: 20               NOP
04bc73: 20               NOP
04bc74: 20               NOP
04bc75: 20               NOP
04bc76: 20               NOP
04bc77: 20               NOP
04bc78: 20               NOP
04bc79: 20               NOP
04bc7a: 20               NOP
04bc7b: 20               NOP
04bc7c: 20               NOP
04bc7d: 20               NOP
04bc7e: 20               NOP
04bc7f: 20               NOP
04bc80: 20               NOP
04bc81: 20               NOP
04bc82: 20               NOP
04bc83: 20               NOP
04bc84: 20               NOP
04bc85: 20               NOP
04bc86: 20               NOP
04bc87: 20               NOP
04bc88: 20               NOP
04bc89: 20               NOP
04bc8a: 20               NOP
04bc8b: 20               NOP
04bc8c: 20               NOP
04bc8d: 20               NOP
04bc8e: 20               NOP
04bc8f: 20               NOP
04bc90: 20               NOP
04bc91: 20               NOP
04bc92: 20               NOP
04bc93: 20               NOP
04bc94: 20               NOP
04bc95: 20               NOP
04bc96: 20               NOP
04bc97: 20               NOP
04bc98: 20               NOP
04bc99: 20               NOP
04bc9a: 20               NOP
04bc9b: 20               NOP
04bc9c: 20               NOP
04bc9d: 20               NOP
04bc9e: 20               NOP
04bc9f: 20               NOP
04bca0: 20               NOP
04bca1: 20               NOP
04bca2: 20               NOP
04bca3: 20               NOP
04bca4: 20               NOP
04bca5: 20               NOP
04bca6: 20               NOP
04bca7: 20               NOP
04bca8: 20               NOP
04bca9: 20               NOP
04bcaa: 20               NOP
04bcab: 20               NOP
04bcac: 20               NOP
04bcad: 20               NOP
04bcae: 20               NOP
04bcaf: 20               NOP
04bcb0: 20               NOP
04bcb1: 20               NOP
04bcb2: 20               NOP
04bcb3: 20               NOP
04bcb4: 20               NOP
04bcb5: 20               NOP
04bcb6: 20               NOP
04bcb7: 20               NOP
04bcb8: 20               NOP
04bcb9: 20               NOP
04bcba: 20               NOP
04bcbb: 20               NOP
04bcbc: 20               NOP
04bcbd: 20               NOP
04bcbe: 20               NOP
04bcbf: 20               NOP
04bcc0: 20               NOP
04bcc1: 20               NOP
04bcc2: 20               NOP
04bcc3: 20               NOP
04bcc4: 20               NOP
04bcc5: 20               NOP
04bcc6: 20               NOP
04bcc7: 20               NOP
04bcc8: 20               NOP
04bcc9: 20               NOP
04bcca: 20               NOP
04bccb: 20               NOP
04bccc: 20               NOP
04bccd: 20               NOP
04bcce: 20               NOP
04bccf: 20               NOP
04bcd0: 20               NOP
04bcd1: 20               NOP
04bcd2: 20               NOP
04bcd3: 20               NOP
04bcd4: 20               NOP
04bcd5: 20               NOP
04bcd6: 20               NOP
04bcd7: 20               NOP
04bcd8: 20               NOP
04bcd9: 20               NOP
04bcda: 20               NOP
04bcdb: 20               NOP
04bcdc: 20               NOP
04bcdd: 20               NOP
04bcde: 20               NOP
04bcdf: 20               NOP
04bce0: 20               NOP
04bce1: 20               NOP
04bce2: 20               NOP
04bce3: 20               NOP
04bce4: 20               NOP
04bce5: 20               NOP
04bce6: 20               NOP
04bce7: 20               NOP
04bce8: 20               NOP
04bce9: 20               NOP
04bcea: 20               NOP
04bceb: 20               NOP
04bcec: 20               NOP
04bced: 20               NOP
04bcee: 20               NOP
04bcef: 20               NOP
04bcf0: 20               NOP
04bcf1: 20               NOP
04bcf2: 20               NOP
04bcf3: 20               NOP
04bcf4: 20               NOP
04bcf5: 20               NOP
04bcf6: 20               NOP
04bcf7: 20               NOP
04bcf8: 20               NOP
04bcf9: 20               NOP
04bcfa: 20               NOP
04bcfb: 20               NOP
04bcfc: 20               NOP
04bcfd: 20               NOP
04bcfe: 20               NOP
04bcff: 20               NOP
04bd00: 20               NOP
04bd01: 20               NOP
04bd02: 20               NOP
04bd03: 20               NOP
04bd04: 20               NOP
04bd05: 20               NOP
04bd06: 20               NOP
04bd07: 20               NOP
04bd08: 20               NOP
04bd09: 20               NOP
04bd0a: 20               NOP
04bd0b: 20               NOP
04bd0c: 20               NOP
04bd0d: 20               NOP
04bd0e: 20               NOP
04bd0f: 20               NOP
04bd10: 20               NOP
04bd11: 20               NOP
04bd12: 20               NOP
04bd13: 20               NOP
04bd14: 20               NOP
04bd15: 20               NOP
04bd16: 20               NOP
04bd17: 20               NOP
04bd18: 20               NOP
04bd19: 20               NOP
04bd1a: 20               NOP
04bd1b: 20               NOP
04bd1c: 20               NOP
04bd1d: 20               NOP
04bd1e: 20               NOP
04bd1f: 20               NOP
04bd20: 20               NOP
04bd21: 20               NOP
04bd22: 20               NOP
04bd23: 20               NOP
04bd24: 20               NOP
04bd25: 20               NOP
04bd26: 20               NOP
04bd27: 20               NOP
04bd28: 20               NOP
04bd29: 20               NOP
04bd2a: 20               NOP
04bd2b: 20               NOP
04bd2c: 20               NOP
04bd2d: 20               NOP
04bd2e: 20               NOP
04bd2f: 20               NOP
04bd30: 20               NOP
04bd31: 20               NOP
04bd32: 20               NOP
04bd33: 20               NOP
04bd34: 20               NOP
04bd35: 20               NOP
04bd36: 20               NOP
04bd37: 20               NOP
04bd38: 20               NOP
04bd39: 20               NOP
04bd3a: 20               NOP
04bd3b: 20               NOP
04bd3c: 20               NOP
04bd3d: 20               NOP
04bd3e: 20               NOP
04bd3f: 20               NOP
04bd40: 20               NOP
04bd41: 20               NOP
04bd42: 20               NOP
04bd43: 20               NOP
04bd44: 20               NOP
04bd45: 20               NOP
04bd46: 20               NOP
04bd47: 20               NOP
04bd48: 20               NOP
04bd49: 20               NOP
04bd4a: 20               NOP
04bd4b: 20               NOP
04bd4c: 20               NOP
04bd4d: 20               NOP
04bd4e: 20               NOP
04bd4f: 20               NOP
04bd50: 20               NOP
04bd51: 20               NOP
04bd52: 20               NOP
04bd53: 20               NOP
04bd54: 20               NOP
04bd55: 20               NOP
04bd56: 20               NOP
04bd57: 20               NOP
04bd58: 20               NOP
04bd59: 20               NOP
04bd5a: 20               NOP
04bd5b: 20               NOP
04bd5c: 20               NOP
04bd5d: 20               NOP
04bd5e: 20               NOP
04bd5f: 20               NOP
04bd60: 20               NOP
04bd61: 20               NOP
04bd62: 20               NOP
04bd63: 20               NOP
04bd64: 20               NOP
04bd65: 20               NOP
04bd66: 20               NOP
04bd67: 20               NOP
04bd68: 20               NOP
04bd69: 20               NOP
04bd6a: 20               NOP
04bd6b: 20               NOP
04bd6c: 20               NOP
04bd6d: 20               NOP
04bd6e: 20               NOP
04bd6f: 20               NOP
04bd70: 20               NOP
04bd71: 20               NOP
04bd72: 20               NOP
04bd73: 20               NOP
04bd74: 20               NOP
04bd75: 20               NOP
04bd76: 20               NOP
04bd77: 20               NOP
04bd78: 20               NOP
04bd79: 20               NOP
04bd7a: 20               NOP
04bd7b: 20               NOP
04bd7c: 20               NOP
04bd7d: 20               NOP
04bd7e: 20               NOP
04bd7f: 20               NOP
04bd80: 20               NOP
04bd81: 20               NOP
04bd82: 20               NOP
04bd83: 20               NOP
04bd84: 20               NOP
04bd85: 20               NOP
04bd86: 20               NOP
04bd87: 20               NOP
04bd88: 20               NOP
04bd89: 20               NOP
04bd8a: 20               NOP
04bd8b: 20               NOP
04bd8c: 20               NOP
04bd8d: 20               NOP
04bd8e: 20               NOP
04bd8f: 20               NOP
04bd90: 20               NOP
04bd91: 20               NOP
04bd92: 20               NOP
04bd93: 20               NOP
04bd94: 20               NOP
04bd95: 20               NOP
04bd96: 20               NOP
04bd97: 20               NOP
04bd98: 20               NOP
04bd99: 20               NOP
04bd9a: 20               NOP
04bd9b: 20               NOP
04bd9c: 20               NOP
04bd9d: 20               NOP
04bd9e: 20               NOP
04bd9f: 20               NOP
04bda0: 20               NOP
04bda1: 20               NOP
04bda2: 20               NOP
04bda3: 20               NOP
04bda4: 20               NOP
04bda5: 20               NOP
04bda6: 20               NOP
04bda7: 20               NOP
04bda8: 20               NOP
04bda9: 20               NOP
04bdaa: 20               NOP
04bdab: 20               NOP
04bdac: 20               NOP
04bdad: 20               NOP
04bdae: 20               NOP
04bdaf: 20               NOP
04bdb0: 20               NOP
04bdb1: 20               NOP
04bdb2: 20               NOP
04bdb3: 20               NOP
04bdb4: 20               NOP
04bdb5: 20               NOP
04bdb6: 20               NOP
04bdb7: 20               NOP
04bdb8: 20               NOP
04bdb9: 20               NOP
04bdba: 20               NOP
04bdbb: 20               NOP
04bdbc: 20               NOP
04bdbd: 20               NOP
04bdbe: 20               NOP
04bdbf: 20               NOP
04bdc0: 20               NOP
04bdc1: 20               NOP
04bdc2: 20               NOP
04bdc3: 20               NOP
04bdc4: 20               NOP
04bdc5: 20               NOP
04bdc6: 20               NOP
04bdc7: 20               NOP
04bdc8: 20               NOP
04bdc9: 20               NOP
04bdca: 20               NOP
04bdcb: 20               NOP
04bdcc: 20               NOP
04bdcd: 20               NOP
04bdce: 20               NOP
04bdcf: 20               NOP
04bdd0: 20               NOP
04bdd1: 20               NOP
04bdd2: 20               NOP
04bdd3: 20               NOP
04bdd4: 20               NOP
04bdd5: 20               NOP
04bdd6: 20               NOP
04bdd7: 20               NOP
04bdd8: 20               NOP
04bdd9: 20               NOP
04bdda: 20               NOP
04bddb: 20               NOP
04bddc: 20               NOP
04bddd: 20               NOP
04bdde: 20               NOP
04bddf: 20               NOP
04bde0: 20               NOP
04bde1: 20               NOP
04bde2: 20               NOP
04bde3: 20               NOP
04bde4: 20               NOP
04bde5: 20               NOP
04bde6: 20               NOP
04bde7: 20               NOP
04bde8: 20               NOP
04bde9: 20               NOP
04bdea: 20               NOP
04bdeb: 20               NOP
04bdec: 20               NOP
04bded: 20               NOP
04bdee: 20               NOP
04bdef: 20               NOP
04bdf0: 20               NOP
04bdf1: 20               NOP
04bdf2: 20               NOP
04bdf3: 20               NOP
04bdf4: 20               NOP
04bdf5: 20               NOP
04bdf6: 20               NOP
04bdf7: 20               NOP
04bdf8: 20               NOP
04bdf9: 20               NOP
04bdfa: 20               NOP
04bdfb: 20               NOP
04bdfc: 20               NOP
04bdfd: 20               NOP
04bdfe: 20               NOP
04bdff: 20               NOP
04be00: 20               NOP
04be01: 20               NOP
04be02: 20               NOP
04be03: 20               NOP
04be04: 20               NOP
04be05: 20               NOP
04be06: 20               NOP
04be07: 20               NOP
04be08: 20               NOP
04be09: 20               NOP
04be0a: 20               NOP
04be0b: 20               NOP
04be0c: 20               NOP
04be0d: 20               NOP
04be0e: 20               NOP
04be0f: 20               NOP
04be10: 20               NOP
04be11: 20               NOP
04be12: 20               NOP
04be13: 20               NOP
04be14: 20               NOP
04be15: 20               NOP
04be16: 20               NOP
04be17: 20               NOP
04be18: 20               NOP
04be19: 20               NOP
04be1a: 20               NOP
04be1b: 20               NOP
04be1c: 20               NOP
04be1d: 20               NOP
04be1e: 20               NOP
04be1f: 20               NOP
04be20: 20               NOP
04be21: 20               NOP
04be22: 20               NOP
04be23: 20               NOP
04be24: 20               NOP
04be25: 20               NOP
04be26: 20               NOP
04be27: 20               NOP
04be28: 20               NOP
04be29: 20               NOP
04be2a: 20               NOP
04be2b: 20               NOP
04be2c: 20               NOP
04be2d: 20               NOP
04be2e: 20               NOP
04be2f: 20               NOP
04be30: 20               NOP
04be31: 20               NOP
04be32: 20               NOP
04be33: 20               NOP
04be34: 20               NOP
04be35: 20               NOP
04be36: 20               NOP
04be37: 20               NOP
04be38: 20               NOP
04be39: 20               NOP
04be3a: 20               NOP
04be3b: 20               NOP
04be3c: 20               NOP
04be3d: 20               NOP
04be3e: 20               NOP
04be3f: 20               NOP
04be40: 20               NOP
04be41: 20               NOP
04be42: 20               NOP
04be43: 20               NOP
04be44: 20               NOP
04be45: 20               NOP
04be46: 20               NOP
04be47: 20               NOP
04be48: 20               NOP
04be49: 20               NOP
04be4a: 20               NOP
04be4b: 20               NOP
04be4c: 20               NOP
04be4d: 20               NOP
04be4e: 20               NOP
04be4f: 20               NOP
04be50: 20               NOP
04be51: 20               NOP
04be52: 20               NOP
04be53: 20               NOP
04be54: 20               NOP
04be55: 20               NOP
04be56: 20               NOP
04be57: 20               NOP
04be58: 20               NOP
04be59: 20               NOP
04be5a: 20               NOP
04be5b: 20               NOP
04be5c: 20               NOP
04be5d: 20               NOP
04be5e: 20               NOP
04be5f: 20               NOP
04be60: 20               NOP
04be61: 20               NOP
04be62: 20               NOP
04be63: 20               NOP
04be64: 20               NOP
04be65: 20               NOP
04be66: 20               NOP
04be67: 20               NOP
04be68: 20               NOP
04be69: 20               NOP
04be6a: 20               NOP
04be6b: 20               NOP
04be6c: 20               NOP
04be6d: 20               NOP
04be6e: 20               NOP
04be6f: 20               NOP
04be70: 20               NOP
04be71: 20               NOP
04be72: 20               NOP
04be73: 20               NOP
04be74: 20               NOP
04be75: 20               NOP
04be76: 20               NOP
04be77: 20               NOP
04be78: 20               NOP
04be79: 20               NOP
04be7a: 20               NOP
04be7b: 20               NOP
04be7c: 20               NOP
04be7d: 20               NOP
04be7e: 20               NOP
04be7f: 20               NOP
04be80: 20               NOP
04be81: 20               NOP
04be82: 20               NOP
04be83: 20               NOP
04be84: 20               NOP
04be85: 20               NOP
04be86: 20               NOP
04be87: 20               NOP
04be88: 20               NOP
04be89: 20               NOP
04be8a: 20               NOP
04be8b: 20               NOP
04be8c: 20               NOP
04be8d: 20               NOP
04be8e: 20               NOP
04be8f: 20               NOP
04be90: 20               NOP
04be91: 20               NOP
04be92: 20               NOP
04be93: 20               NOP
04be94: 20               NOP
04be95: 20               NOP
04be96: 20               NOP
04be97: 20               NOP
04be98: 20               NOP
04be99: 20               NOP
04be9a: 20               NOP
04be9b: 20               NOP
04be9c: 20               NOP
04be9d: 20               NOP
04be9e: 20               NOP
04be9f: 20               NOP
04bea0: 20               NOP
04bea1: 20               NOP
04bea2: 20               NOP
04bea3: 20               NOP
04bea4: 20               NOP
04bea5: 20               NOP
04bea6: 20               NOP
04bea7: 20               NOP
04bea8: 20               NOP
04bea9: 20               NOP
04beaa: 20               NOP
04beab: 20               NOP
04beac: 20               NOP
04bead: 20               NOP
04beae: 20               NOP
04beaf: 20               NOP
04beb0: 20               NOP
04beb1: 20               NOP
04beb2: 20               NOP
04beb3: 20               NOP
04beb4: 20               NOP
04beb5: 20               NOP
04beb6: 20               NOP
04beb7: 20               NOP
04beb8: 20               NOP
04beb9: 20               NOP
04beba: 20               NOP
04bebb: 20               NOP
04bebc: 20               NOP
04bebd: 20               NOP
04bebe: 20               NOP
04bebf: 20               NOP
04bec0: 20               NOP
04bec1: 20               NOP
04bec2: 20               NOP
04bec3: 20               NOP
04bec4: 20               NOP
04bec5: 20               NOP
04bec6: 20               NOP
04bec7: 20               NOP
04bec8: 20               NOP
04bec9: 20               NOP
04beca: 20               NOP
04becb: 20               NOP
04becc: 20               NOP
04becd: 20               NOP
04bece: 20               NOP
04becf: 20               NOP
04bed0: 20               NOP
04bed1: 20               NOP
04bed2: 20               NOP
04bed3: 20               NOP
04bed4: 20               NOP
04bed5: 20               NOP
04bed6: 20               NOP
04bed7: 20               NOP
04bed8: 20               NOP
04bed9: 20               NOP
04beda: 20               NOP
04bedb: 20               NOP
04bedc: 20               NOP
04bedd: 20               NOP
04bede: 20               NOP
04bedf: 20               NOP
04bee0: 20               NOP
04bee1: 20               NOP
04bee2: 20               NOP
04bee3: 20               NOP
04bee4: 20               NOP
04bee5: 20               NOP
04bee6: 20               NOP
04bee7: 20               NOP
04bee8: 20               NOP
04bee9: 20               NOP
04beea: 20               NOP
04beeb: 20               NOP
04beec: 20               NOP
04beed: 20               NOP
04beee: 20               NOP
04beef: 20               NOP
04bef0: 20               NOP
04bef1: 20               NOP
04bef2: 20               NOP
04bef3: 20               NOP
04bef4: 20               NOP
04bef5: 20               NOP
04bef6: 20               NOP
04bef7: 20               NOP
04bef8: 20               NOP
04bef9: 20               NOP
04befa: 20               NOP
04befb: 20               NOP
04befc: 20               NOP
04befd: 20               NOP
04befe: 20               NOP
04beff: 20               NOP
04bf00: 20               NOP
04bf01: 20               NOP
04bf02: 20               NOP
04bf03: 20               NOP
04bf04: 20               NOP
04bf05: 20               NOP
04bf06: 20               NOP
04bf07: 20               NOP
04bf08: 20               NOP
04bf09: 20               NOP
04bf0a: 20               NOP
04bf0b: 20               NOP
04bf0c: 20               NOP
04bf0d: 20               NOP
04bf0e: 20               NOP
04bf0f: 20               NOP
04bf10: 20               NOP
04bf11: 20               NOP
04bf12: 20               NOP
04bf13: 20               NOP
04bf14: 20               NOP
04bf15: 20               NOP
04bf16: 20               NOP
04bf17: 20               NOP
04bf18: 20               NOP
04bf19: 20               NOP
04bf1a: 20               NOP
04bf1b: 20               NOP
04bf1c: 20               NOP
04bf1d: 20               NOP
04bf1e: 20               NOP
04bf1f: 20               NOP
04bf20: 20               NOP
04bf21: 20               NOP
04bf22: 20               NOP
04bf23: 20               NOP
04bf24: 20               NOP
04bf25: 20               NOP
04bf26: 20               NOP
04bf27: 20               NOP
04bf28: 20               NOP
04bf29: 20               NOP
04bf2a: 20               NOP
04bf2b: 20               NOP
04bf2c: 20               NOP
04bf2d: 20               NOP
04bf2e: 20               NOP
04bf2f: 20               NOP
04bf30: 20               NOP
04bf31: 20               NOP
04bf32: 20               NOP
04bf33: 20               NOP
04bf34: 20               NOP
04bf35: 20               NOP
04bf36: 20               NOP
04bf37: 20               NOP
04bf38: 20               NOP
04bf39: 20               NOP
04bf3a: 20               NOP
04bf3b: 20               NOP
04bf3c: 20               NOP
04bf3d: 20               NOP
04bf3e: 20               NOP
04bf3f: 20               NOP
04bf40: 20               NOP
04bf41: 20               NOP
04bf42: 20               NOP
04bf43: 20               NOP
04bf44: 20               NOP
04bf45: 20               NOP
04bf46: 20               NOP
04bf47: 20               NOP
04bf48: 20               NOP
04bf49: 20               NOP
04bf4a: 20               NOP
04bf4b: 20               NOP
04bf4c: 20               NOP
04bf4d: 20               NOP
04bf4e: 20               NOP
04bf4f: 20               NOP
04bf50: 20               NOP
04bf51: 20               NOP
04bf52: 20               NOP
04bf53: 20               NOP
04bf54: 20               NOP
04bf55: 20               NOP
04bf56: 20               NOP
04bf57: 20               NOP
04bf58: 20               NOP
04bf59: 20               NOP
04bf5a: 20               NOP
04bf5b: 20               NOP
04bf5c: 20               NOP
04bf5d: 20               NOP
04bf5e: 20               NOP
04bf5f: 20               NOP
04bf60: 20               NOP
04bf61: 20               NOP
04bf62: 20               NOP
04bf63: 20               NOP
04bf64: 20               NOP
04bf65: 20               NOP
04bf66: 20               NOP
04bf67: 20               NOP
04bf68: 20               NOP
04bf69: 20               NOP
04bf6a: 20               NOP
04bf6b: 20               NOP
04bf6c: 20               NOP
04bf6d: 20               NOP
04bf6e: 20               NOP
04bf6f: 20               NOP
04bf70: 20               NOP
04bf71: 20               NOP
04bf72: 20               NOP
04bf73: 20               NOP
04bf74: 20               NOP
04bf75: 20               NOP
04bf76: 20               NOP
04bf77: 20               NOP
04bf78: 20               NOP
04bf79: 20               NOP
04bf7a: 20               NOP
04bf7b: 20               NOP
04bf7c: 20               NOP
04bf7d: 20               NOP
04bf7e: 20               NOP
04bf7f: 20               NOP
04bf80: 20               NOP
04bf81: 20               NOP
04bf82: 20               NOP
04bf83: 20               NOP
04bf84: 20               NOP
04bf85: 20               NOP
04bf86: 20               NOP
04bf87: 20               NOP
04bf88: 20               NOP
04bf89: 20               NOP
04bf8a: 20               NOP
04bf8b: 20               NOP
04bf8c: 20               NOP
04bf8d: 20               NOP
04bf8e: 20               NOP
04bf8f: 20               NOP
04bf90: 20               NOP
04bf91: 20               NOP
04bf92: 20               NOP
04bf93: 20               NOP
04bf94: 20               NOP
04bf95: 20               NOP
04bf96: 20               NOP
04bf97: 20               NOP
04bf98: 20               NOP
04bf99: 20               NOP
04bf9a: 20               NOP
04bf9b: 20               NOP
04bf9c: 20               NOP
04bf9d: 20               NOP
04bf9e: 20               NOP
04bf9f: 20               NOP
04bfa0: 20               NOP
04bfa1: 20               NOP
04bfa2: 20               NOP
04bfa3: 20               NOP
04bfa4: 20               NOP
04bfa5: 20               NOP
04bfa6: 20               NOP
04bfa7: 20               NOP
04bfa8: 20               NOP
04bfa9: 20               NOP
04bfaa: 20               NOP
04bfab: 20               NOP
04bfac: 20               NOP
04bfad: 20               NOP
04bfae: 20               NOP
04bfaf: 20               NOP
04bfb0: 20               NOP
04bfb1: 20               NOP
04bfb2: 20               NOP
04bfb3: 20               NOP
04bfb4: 20               NOP
04bfb5: 20               NOP
04bfb6: 20               NOP
04bfb7: 20               NOP
04bfb8: 20               NOP
04bfb9: 20               NOP
04bfba: 20               NOP
04bfbb: 20               NOP
04bfbc: 20               NOP
04bfbd: 20               NOP
04bfbe: 20               NOP
04bfbf: 20               NOP
04bfc0: 20               NOP
04bfc1: 20               NOP
04bfc2: 20               NOP
04bfc3: 20               NOP
04bfc4: 20               NOP
04bfc5: 20               NOP
04bfc6: 20               NOP
04bfc7: 20               NOP
04bfc8: 20               NOP
04bfc9: 20               NOP
04bfca: 20               NOP
04bfcb: 20               NOP
04bfcc: 20               NOP
04bfcd: 20               NOP
04bfce: 20               NOP
04bfcf: 20               NOP
04bfd0: 20               NOP
04bfd1: 20               NOP
04bfd2: 20               NOP
04bfd3: 20               NOP
04bfd4: 20               NOP
04bfd5: 20               NOP
04bfd6: 20               NOP
04bfd7: 20               NOP
04bfd8: 20               NOP
04bfd9: 20               NOP
04bfda: 20               NOP
04bfdb: 20               NOP
04bfdc: 20               NOP
04bfdd: 20               NOP
04bfde: 20               NOP
04bfdf: 20               NOP
04bfe0: 20               NOP
04bfe1: 20               NOP
04bfe2: 20               NOP
04bfe3: 20               NOP
04bfe4: 20               NOP
04bfe5: 20               NOP
04bfe6: 20               NOP
04bfe7: 20               NOP
04bfe8: 20               NOP
04bfe9: 20               NOP
04bfea: 20               NOP
04bfeb: 20               NOP
04bfec: 20               NOP
04bfed: 20               NOP
04bfee: 20               NOP
04bfef: 20               NOP
04bff0: 20               NOP
04bff1: 20               NOP
04bff2: 20               NOP
04bff3: 20               NOP
04bff4: 20               NOP
04bff5: 20               NOP
04bff6: 20               NOP
04bff7: 20               NOP
04bff8: 20               NOP
04bff9: 20               NOP
04bffa: 20               NOP
04bffb: 20               NOP
04bffc: 20               NOP
04bffd: 20               NOP
04bffe: 20               NOP
04bfff: 20               NOP
04c000: 20               NOP
04c001: 20               NOP
04c002: 20               NOP
04c003: 20               NOP
04c004: 20               NOP
04c005: 20               NOP
04c006: 20               NOP
04c007: 20               NOP
04c008: 20               NOP
04c009: 20               NOP
04c00a: 20               NOP
04c00b: 20               NOP
04c00c: 20               NOP
04c00d: 20               NOP
04c00e: 20               NOP
04c00f: 20               NOP
04c010: 20               NOP
04c011: 20               NOP
04c012: 20               NOP
04c013: 20               NOP
04c014: 20               NOP
04c015: 20               NOP
04c016: 20               NOP
04c017: 20               NOP
04c018: 20               NOP
04c019: 20               NOP
04c01a: 20               NOP
04c01b: 20               NOP
04c01c: 20               NOP
04c01d: 20               NOP
04c01e: 20               NOP
04c01f: 20               NOP
04c020: 20               NOP
04c021: 20               NOP
04c022: 20               NOP
04c023: 20               NOP
04c024: 20               NOP
04c025: 20               NOP
04c026: 20               NOP
04c027: 20               NOP
04c028: 20               NOP
04c029: 20               NOP
04c02a: 20               NOP
04c02b: 20               NOP
04c02c: 20               NOP
04c02d: 20               NOP
04c02e: 20               NOP
04c02f: 20               NOP
04c030: 20               NOP
04c031: 20               NOP
04c032: 20               NOP
04c033: 20               NOP
04c034: 20               NOP
04c035: 20               NOP
04c036: 20               NOP
04c037: 20               NOP
04c038: 20               NOP
04c039: 20               NOP
04c03a: 20               NOP
04c03b: 20               NOP
04c03c: 20               NOP
04c03d: 20               NOP
04c03e: 20               NOP
04c03f: 20               NOP
04c040: 20               NOP
04c041: 20               NOP
04c042: 20               NOP
04c043: 20               NOP
04c044: 20               NOP
04c045: 20               NOP
04c046: 20               NOP
04c047: 20               NOP
04c048: 20               NOP
04c049: 20               NOP
04c04a: 20               NOP
04c04b: 20               NOP
04c04c: 20               NOP
04c04d: 20               NOP
04c04e: 20               NOP
04c04f: 20               NOP
04c050: 20               NOP
04c051: 20               NOP
04c052: 20               NOP
04c053: 20               NOP
04c054: 20               NOP
04c055: 20               NOP
04c056: 20               NOP
04c057: 20               NOP
04c058: 20               NOP
04c059: 20               NOP
04c05a: 20               NOP
04c05b: 20               NOP
04c05c: 20               NOP
04c05d: 20               NOP
04c05e: 20               NOP
04c05f: 20               NOP
04c060: 20               NOP
04c061: 20               NOP
04c062: 20               NOP
04c063: 20               NOP
04c064: 20               NOP
04c065: 20               NOP
04c066: 20               NOP
04c067: 20               NOP
04c068: 20               NOP
04c069: 20               NOP
04c06a: 20               NOP
04c06b: 20               NOP
04c06c: 20               NOP
04c06d: 20               NOP
04c06e: 20               NOP
04c06f: 20               NOP
04c070: 20               NOP
04c071: 20               NOP
04c072: 20               NOP
04c073: 20               NOP
04c074: 20               NOP
04c075: 20               NOP
04c076: 20               NOP
04c077: 20               NOP
04c078: 20               NOP
04c079: 20               NOP
04c07a: 20               NOP
04c07b: 20               NOP
04c07c: 20               NOP
04c07d: 20               NOP
04c07e: 20               NOP
04c07f: 20               NOP
04c080: 20               NOP
04c081: 20               NOP
04c082: 20               NOP
04c083: 20               NOP
04c084: 20               NOP
04c085: 20               NOP
04c086: 20               NOP
04c087: 20               NOP
04c088: 20               NOP
04c089: 20               NOP
04c08a: 20               NOP
04c08b: 20               NOP
04c08c: 20               NOP
04c08d: 20               NOP
04c08e: 20               NOP
04c08f: 20               NOP
04c090: 20               NOP
04c091: 20               NOP
04c092: 20               NOP
04c093: 20               NOP
04c094: 20               NOP
04c095: 20               NOP
04c096: 20               NOP
04c097: 20               NOP
04c098: 20               NOP
04c099: 20               NOP
04c09a: 20               NOP
04c09b: 20               NOP
04c09c: 20               NOP
04c09d: 20               NOP
04c09e: 20               NOP
04c09f: 20               NOP
04c0a0: 20               NOP
04c0a1: 20               NOP
04c0a2: 20               NOP
04c0a3: 20               NOP
04c0a4: 20               NOP
04c0a5: 20               NOP
04c0a6: 20               NOP
04c0a7: 20               NOP
04c0a8: 20               NOP
04c0a9: 20               NOP
04c0aa: 20               NOP
04c0ab: 20               NOP
04c0ac: 20               NOP
04c0ad: 20               NOP
04c0ae: 20               NOP
04c0af: 20               NOP
04c0b0: 20               NOP
04c0b1: 20               NOP
04c0b2: 20               NOP
04c0b3: 20               NOP
04c0b4: 20               NOP
04c0b5: 20               NOP
04c0b6: 20               NOP
04c0b7: 20               NOP
04c0b8: 20               NOP
04c0b9: 20               NOP
04c0ba: 20               NOP
04c0bb: 20               NOP
04c0bc: 20               NOP
04c0bd: 20               NOP
04c0be: 20               NOP
04c0bf: 20               NOP
04c0c0: 20               NOP
04c0c1: 20               NOP
04c0c2: 20               NOP
04c0c3: 20               NOP
04c0c4: 20               NOP
04c0c5: 20               NOP
04c0c6: 20               NOP
04c0c7: 20               NOP
04c0c8: 20               NOP
04c0c9: 20               NOP
04c0ca: 20               NOP
04c0cb: 20               NOP
04c0cc: 20               NOP
04c0cd: 20               NOP
04c0ce: 20               NOP
04c0cf: 20               NOP
04c0d0: 20               NOP
04c0d1: 20               NOP
04c0d2: 20               NOP
04c0d3: 20               NOP
04c0d4: 20               NOP
04c0d5: 20               NOP
04c0d6: 20               NOP
04c0d7: 20               NOP
04c0d8: 20               NOP
04c0d9: 20               NOP
04c0da: 20               NOP
04c0db: 20               NOP
04c0dc: 20               NOP
04c0dd: 20               NOP
04c0de: 20               NOP
04c0df: 20               NOP
04c0e0: 20               NOP
04c0e1: 20               NOP
04c0e2: 20               NOP
04c0e3: 20               NOP
04c0e4: 20               NOP
04c0e5: 20               NOP
04c0e6: 20               NOP
04c0e7: 20               NOP
04c0e8: 20               NOP
04c0e9: 20               NOP
04c0ea: 20               NOP
04c0eb: 20               NOP
04c0ec: 20               NOP
04c0ed: 20               NOP
04c0ee: 20               NOP
04c0ef: 20               NOP
04c0f0: 20               NOP
04c0f1: 20               NOP
04c0f2: 20               NOP
04c0f3: 20               NOP
04c0f4: 20               NOP
04c0f5: 20               NOP
04c0f6: 20               NOP
04c0f7: 20               NOP
04c0f8: 20               NOP
04c0f9: 20               NOP
04c0fa: 20               NOP
04c0fb: 20               NOP
04c0fc: 20               NOP
04c0fd: 20               NOP
04c0fe: 20               NOP
04c0ff: 20               NOP
04c100: 20               NOP
04c101: 20               NOP
04c102: 20               NOP
04c103: 20               NOP
04c104: 20               NOP
04c105: 20               NOP
04c106: 20               NOP
04c107: 20               NOP
04c108: 20               NOP
04c109: 20               NOP
04c10a: 20               NOP
04c10b: 20               NOP
04c10c: 20               NOP
04c10d: 20               NOP
04c10e: 20               NOP
04c10f: 20               NOP
04c110: 20               NOP
04c111: 20               NOP
04c112: 20               NOP
04c113: 20               NOP
04c114: 20               NOP
04c115: 20               NOP
04c116: 20               NOP
04c117: 20               NOP
04c118: 20               NOP
04c119: 20               NOP
04c11a: 20               NOP
04c11b: 20               NOP
04c11c: 20               NOP
04c11d: 20               NOP
04c11e: 20               NOP
04c11f: 20               NOP
04c120: 20               NOP
04c121: 20               NOP
04c122: 20               NOP
04c123: 20               NOP
04c124: 20               NOP
04c125: 20               NOP
04c126: 20               NOP
04c127: 20               NOP
04c128: 20               NOP
04c129: 20               NOP
04c12a: 20               NOP
04c12b: 20               NOP
04c12c: 20               NOP
04c12d: 20               NOP
04c12e: 20               NOP
04c12f: 20               NOP
04c130: 20               NOP
04c131: 20               NOP
04c132: 20               NOP
04c133: 20               NOP
04c134: 20               NOP
04c135: 20               NOP
04c136: 20               NOP
04c137: 20               NOP
04c138: 20               NOP
04c139: 20               NOP
04c13a: 20               NOP
04c13b: 20               NOP
04c13c: 20               NOP
04c13d: 20               NOP
04c13e: 20               NOP
04c13f: 20               NOP
04c140: 20               NOP
04c141: 20               NOP
04c142: 20               NOP
04c143: 20               NOP
04c144: 20               NOP
04c145: 20               NOP
04c146: 20               NOP
04c147: 20               NOP
04c148: 20               NOP
04c149: 20               NOP
04c14a: 20               NOP
04c14b: 20               NOP
04c14c: 20               NOP
04c14d: 20               NOP
04c14e: 20               NOP
04c14f: 20               NOP
04c150: 20               NOP
04c151: 20               NOP
04c152: 20               NOP
04c153: 20               NOP
04c154: 20               NOP
04c155: 20               NOP
04c156: 20               NOP
04c157: 20               NOP
04c158: 20               NOP
04c159: 20               NOP
04c15a: 20               NOP
04c15b: 20               NOP
04c15c: 20               NOP
04c15d: 20               NOP
04c15e: 20               NOP
04c15f: 20               NOP
04c160: 20               NOP
04c161: 20               NOP
04c162: 20               NOP
04c163: 20               NOP
04c164: 20               NOP
04c165: 20               NOP
04c166: 20               NOP
04c167: 20               NOP
04c168: 20               NOP
04c169: 20               NOP
04c16a: 20               NOP
04c16b: 20               NOP
04c16c: 20               NOP
04c16d: 20               NOP
04c16e: 20               NOP
04c16f: 20               NOP
04c170: 20               NOP
04c171: 20               NOP
04c172: 20               NOP
04c173: 20               NOP
04c174: 20               NOP
04c175: 20               NOP
04c176: 20               NOP
04c177: 20               NOP
04c178: 20               NOP
04c179: 20               NOP
04c17a: 20               NOP
04c17b: 20               NOP
04c17c: 20               NOP
04c17d: 20               NOP
04c17e: 20               NOP
04c17f: 20               NOP
04c180: 20               NOP
04c181: 20               NOP
04c182: 20               NOP
04c183: 20               NOP
04c184: 20               NOP
04c185: 20               NOP
04c186: 20               NOP
04c187: 20               NOP
04c188: 20               NOP
04c189: 20               NOP
04c18a: 20               NOP
04c18b: 20               NOP
04c18c: 20               NOP
04c18d: 20               NOP
04c18e: 20               NOP
04c18f: 20               NOP
04c190: 20               NOP
04c191: 20               NOP
04c192: 20               NOP
04c193: 20               NOP
04c194: 20               NOP
04c195: 20               NOP
04c196: 20               NOP
04c197: 20               NOP
04c198: 20               NOP
04c199: 20               NOP
04c19a: 20               NOP
04c19b: 20               NOP
04c19c: 20               NOP
04c19d: 20               NOP
04c19e: 20               NOP
04c19f: 20               NOP
04c1a0: 20               NOP
04c1a1: 20               NOP
04c1a2: 20               NOP
04c1a3: 20               NOP
04c1a4: 20               NOP
04c1a5: 20               NOP
04c1a6: 20               NOP
04c1a7: 20               NOP
04c1a8: 20               NOP
04c1a9: 20               NOP
04c1aa: 20               NOP
04c1ab: 20               NOP
04c1ac: 20               NOP
04c1ad: 20               NOP
04c1ae: 20               NOP
04c1af: 20               NOP
04c1b0: 20               NOP
04c1b1: 20               NOP
04c1b2: 20               NOP
04c1b3: 20               NOP
04c1b4: 20               NOP
04c1b5: 20               NOP
04c1b6: 20               NOP
04c1b7: 20               NOP
04c1b8: 20               NOP
04c1b9: 20               NOP
04c1ba: 20               NOP
04c1bb: 20               NOP
04c1bc: 20               NOP
04c1bd: 20               NOP
04c1be: 20               NOP
04c1bf: 20               NOP
04c1c0: 20               NOP
04c1c1: 20               NOP
04c1c2: 20               NOP
04c1c3: 20               NOP
04c1c4: 20               NOP
04c1c5: 20               NOP
04c1c6: 20               NOP
04c1c7: 20               NOP
04c1c8: 20               NOP
04c1c9: 20               NOP
04c1ca: 20               NOP
04c1cb: 20               NOP
04c1cc: 20               NOP
04c1cd: 20               NOP
04c1ce: 20               NOP
04c1cf: 20               NOP
04c1d0: 20               NOP
04c1d1: 20               NOP
04c1d2: 20               NOP
04c1d3: 20               NOP
04c1d4: 20               NOP
04c1d5: 20               NOP
04c1d6: 20               NOP
04c1d7: 20               NOP
04c1d8: 20               NOP
04c1d9: 20               NOP
04c1da: 20               NOP
04c1db: 20               NOP
04c1dc: 20               NOP
04c1dd: 20               NOP
04c1de: 20               NOP
04c1df: 20               NOP
04c1e0: 20               NOP
04c1e1: 20               NOP
04c1e2: 20               NOP
04c1e3: 20               NOP
04c1e4: 20               NOP
04c1e5: 20               NOP
04c1e6: 20               NOP
04c1e7: 20               NOP
04c1e8: 20               NOP
04c1e9: 20               NOP
04c1ea: 20               NOP
04c1eb: 20               NOP
04c1ec: 20               NOP
04c1ed: 20               NOP
04c1ee: 20               NOP
04c1ef: 20               NOP
04c1f0: 20               NOP
04c1f1: 20               NOP
04c1f2: 20               NOP
04c1f3: 20               NOP
04c1f4: 20               NOP
04c1f5: 20               NOP
04c1f6: 20               NOP
04c1f7: 20               NOP
04c1f8: 20               NOP
04c1f9: 20               NOP
04c1fa: 20               NOP
04c1fb: 20               NOP
04c1fc: 20               NOP
04c1fd: 20               NOP
04c1fe: 20               NOP
04c1ff: 20               NOP
04c200: 20               NOP
04c201: 20               NOP
04c202: 20               NOP
04c203: 20               NOP
04c204: 20               NOP
04c205: 20               NOP
04c206: 20               NOP
04c207: 20               NOP
04c208: 20               NOP
04c209: 20               NOP
04c20a: 20               NOP
04c20b: 20               NOP
04c20c: 20               NOP
04c20d: 20               NOP
04c20e: 20               NOP
04c20f: 20               NOP
04c210: 20               NOP
04c211: 20               NOP
04c212: 20               NOP
04c213: 20               NOP
04c214: 20               NOP
04c215: 20               NOP
04c216: 20               NOP
04c217: 20               NOP
04c218: 20               NOP
04c219: 20               NOP
04c21a: 20               NOP
04c21b: 20               NOP
04c21c: 20               NOP
04c21d: 20               NOP
04c21e: 20               NOP
04c21f: 20               NOP
04c220: 20               NOP
04c221: 20               NOP
04c222: 20               NOP
04c223: 20               NOP
04c224: 20               NOP
04c225: 20               NOP
04c226: 20               NOP
04c227: 20               NOP
04c228: 20               NOP
04c229: 20               NOP
04c22a: 20               NOP
04c22b: 20               NOP
04c22c: 20               NOP
04c22d: 20               NOP
04c22e: 20               NOP
04c22f: 20               NOP
04c230: 20               NOP
04c231: 20               NOP
04c232: 20               NOP
04c233: 20               NOP
04c234: 20               NOP
04c235: 20               NOP
04c236: 20               NOP
04c237: 20               NOP
04c238: 20               NOP
04c239: 20               NOP
04c23a: 20               NOP
04c23b: 20               NOP
04c23c: 20               NOP
04c23d: 20               NOP
04c23e: 20               NOP
04c23f: 20               NOP
04c240: 20               NOP
04c241: 20               NOP
04c242: 20               NOP
04c243: 20               NOP
04c244: 20               NOP
04c245: 20               NOP
04c246: 20               NOP
04c247: 20               NOP
04c248: 20               NOP
04c249: 20               NOP
04c24a: 20               NOP
04c24b: 20               NOP
04c24c: 20               NOP
04c24d: 20               NOP
04c24e: 20               NOP
04c24f: 20               NOP
04c250: 20               NOP
04c251: 20               NOP
04c252: 20               NOP
04c253: 20               NOP
04c254: 20               NOP
04c255: 20               NOP
04c256: 20               NOP
04c257: 20               NOP
04c258: 20               NOP
04c259: 20               NOP
04c25a: 20               NOP
04c25b: 20               NOP
04c25c: 20               NOP
04c25d: 20               NOP
04c25e: 20               NOP
04c25f: 20               NOP
04c260: 20               NOP
04c261: 20               NOP
04c262: 20               NOP
04c263: 20               NOP
04c264: 20               NOP
04c265: 20               NOP
04c266: 20               NOP
04c267: 20               NOP
04c268: 20               NOP
04c269: 20               NOP
04c26a: 20               NOP
04c26b: 20               NOP
04c26c: 20               NOP
04c26d: 20               NOP
04c26e: 20               NOP
04c26f: 20               NOP
04c270: 20               NOP
04c271: 20               NOP
04c272: 20               NOP
04c273: 20               NOP
04c274: 20               NOP
04c275: 20               NOP
04c276: 20               NOP
04c277: 20               NOP
04c278: 20               NOP
04c279: 20               NOP
04c27a: 20               NOP
04c27b: 20               NOP
04c27c: 20               NOP
04c27d: 20               NOP
04c27e: 20               NOP
04c27f: 20               NOP
04c280: 20               NOP
04c281: 20               NOP
04c282: 20               NOP
04c283: 20               NOP
04c284: 20               NOP
04c285: 20               NOP
04c286: 20               NOP
04c287: 20               NOP
04c288: 20               NOP
04c289: 20               NOP
04c28a: 20               NOP
04c28b: 20               NOP
04c28c: 20               NOP
04c28d: 20               NOP
04c28e: 20               NOP
04c28f: 20               NOP
04c290: 20               NOP
04c291: 20               NOP
04c292: 20               NOP
04c293: 20               NOP
04c294: 20               NOP
04c295: 20               NOP
04c296: 20               NOP
04c297: 20               NOP
04c298: 20               NOP
04c299: 20               NOP
04c29a: 20               NOP
04c29b: 20               NOP
04c29c: 20               NOP
04c29d: 20               NOP
04c29e: 20               NOP
04c29f: 20               NOP
04c2a0: 20               NOP
04c2a1: 20               NOP
04c2a2: 20               NOP
04c2a3: 20               NOP
04c2a4: 20               NOP
04c2a5: 20               NOP
04c2a6: 20               NOP
04c2a7: 20               NOP
04c2a8: 20               NOP
04c2a9: 20               NOP
04c2aa: 20               NOP
04c2ab: 20               NOP
04c2ac: 20               NOP
04c2ad: 20               NOP
04c2ae: 20               NOP
04c2af: 20               NOP
04c2b0: 20               NOP
04c2b1: 20               NOP
04c2b2: 20               NOP
04c2b3: 20               NOP
04c2b4: 20               NOP
04c2b5: 20               NOP
04c2b6: 20               NOP
04c2b7: 20               NOP
04c2b8: 20               NOP
04c2b9: 20               NOP
04c2ba: 20               NOP
04c2bb: 20               NOP
04c2bc: 20               NOP
04c2bd: 20               NOP
04c2be: 20               NOP
04c2bf: 20               NOP
04c2c0: 20               NOP
04c2c1: 20               NOP
04c2c2: 20               NOP
04c2c3: 20               NOP
04c2c4: 20               NOP
04c2c5: 20               NOP
04c2c6: 20               NOP
04c2c7: 20               NOP
04c2c8: 20               NOP
04c2c9: 20               NOP
04c2ca: 20               NOP
04c2cb: 20               NOP
04c2cc: 20               NOP
04c2cd: 20               NOP
04c2ce: 20               NOP
04c2cf: 20               NOP
04c2d0: 20               NOP
04c2d1: 20               NOP
04c2d2: 20               NOP
04c2d3: 20               NOP
04c2d4: 20               NOP
04c2d5: 20               NOP
04c2d6: 20               NOP
04c2d7: 20               NOP
04c2d8: 20               NOP
04c2d9: 20               NOP
04c2da: 20               NOP
04c2db: 20               NOP
04c2dc: 20               NOP
04c2dd: 20               NOP
04c2de: 20               NOP
04c2df: 20               NOP
04c2e0: 20               NOP
04c2e1: 20               NOP
04c2e2: 20               NOP
04c2e3: 20               NOP
04c2e4: 20               NOP
04c2e5: 20               NOP
04c2e6: 20               NOP
04c2e7: 20               NOP
04c2e8: 20               NOP
04c2e9: 20               NOP
04c2ea: 20               NOP
04c2eb: 20               NOP
04c2ec: 20               NOP
04c2ed: 20               NOP
04c2ee: 20               NOP
04c2ef: 20               NOP
04c2f0: 20               NOP
04c2f1: 20               NOP
04c2f2: 20               NOP
04c2f3: 20               NOP
04c2f4: 20               NOP
04c2f5: 20               NOP
04c2f6: 20               NOP
04c2f7: 20               NOP
04c2f8: 20               NOP
04c2f9: 20               NOP
04c2fa: 20               NOP
04c2fb: 20               NOP
04c2fc: 20               NOP
04c2fd: 20               NOP
04c2fe: 20               NOP
04c2ff: 20               NOP
04c300: 20               NOP
04c301: 20               NOP
04c302: 20               NOP
04c303: 20               NOP
04c304: 20               NOP
04c305: 20               NOP
04c306: 20               NOP
04c307: 20               NOP
04c308: 20               NOP
04c309: 20               NOP
04c30a: 20               NOP
04c30b: 20               NOP
04c30c: 20               NOP
04c30d: 20               NOP
04c30e: 20               NOP
04c30f: 20               NOP
04c310: 20               NOP
04c311: 20               NOP
04c312: 20               NOP
04c313: 20               NOP
04c314: 20               NOP
04c315: 20               NOP
04c316: 20               NOP
04c317: 20               NOP
04c318: 20               NOP
04c319: 20               NOP
04c31a: 20               NOP
04c31b: 20               NOP
04c31c: 20               NOP
04c31d: 20               NOP
04c31e: 20               NOP
04c31f: 20               NOP
04c320: 20               NOP
04c321: 20               NOP
04c322: 20               NOP
04c323: 20               NOP
04c324: 20               NOP
04c325: 20               NOP
04c326: 20               NOP
04c327: 20               NOP
04c328: 20               NOP
04c329: 20               NOP
04c32a: 20               NOP
04c32b: 20               NOP
04c32c: 20               NOP
04c32d: 20               NOP
04c32e: 20               NOP
04c32f: 20               NOP
04c330: 20               NOP
04c331: 20               NOP
04c332: 20               NOP
04c333: 20               NOP
04c334: 20               NOP
04c335: 20               NOP
04c336: 20               NOP
04c337: 20               NOP
04c338: 20               NOP
04c339: 20               NOP
04c33a: 20               NOP
04c33b: 20               NOP
04c33c: 20               NOP
04c33d: 20               NOP
04c33e: 20               NOP
04c33f: 20               NOP
04c340: 20               NOP
04c341: 20               NOP
04c342: 20               NOP
04c343: 20               NOP
04c344: 20               NOP
04c345: 20               NOP
04c346: 20               NOP
04c347: 20               NOP
04c348: 20               NOP
04c349: 20               NOP
04c34a: 20               NOP
04c34b: 20               NOP
04c34c: 20               NOP
04c34d: 20               NOP
04c34e: 20               NOP
04c34f: 20               NOP
04c350: 20               NOP
04c351: 20               NOP
04c352: 20               NOP
04c353: 20               NOP
04c354: 20               NOP
04c355: 20               NOP
04c356: 20               NOP
04c357: 20               NOP
04c358: 20               NOP
04c359: 20               NOP
04c35a: 20               NOP
04c35b: 20               NOP
04c35c: 20               NOP
04c35d: 20               NOP
04c35e: 20               NOP
04c35f: 20               NOP
04c360: 20               NOP
04c361: 20               NOP
04c362: 20               NOP
04c363: 20               NOP
04c364: 20               NOP
04c365: 20               NOP
04c366: 20               NOP
04c367: 20               NOP
04c368: 20               NOP
04c369: 20               NOP
04c36a: 20               NOP
04c36b: 20               NOP
04c36c: 20               NOP
04c36d: 20               NOP
04c36e: 20               NOP
04c36f: 20               NOP
04c370: 20               NOP
04c371: 20               NOP
04c372: 20               NOP
04c373: 20               NOP
04c374: 20               NOP
04c375: 20               NOP
04c376: 20               NOP
04c377: 20               NOP
04c378: 20               NOP
04c379: 20               NOP
04c37a: 20               NOP
04c37b: 20               NOP
04c37c: 20               NOP
04c37d: 20               NOP
04c37e: 20               NOP
04c37f: 20               NOP
04c380: 20               NOP
04c381: 20               NOP
04c382: 20               NOP
04c383: 20               NOP
04c384: 20               NOP
04c385: 20               NOP
04c386: 20               NOP
04c387: 20               NOP
04c388: 20               NOP
04c389: 20               NOP
04c38a: 20               NOP
04c38b: 20               NOP
04c38c: 20               NOP
04c38d: 20               NOP
04c38e: 20               NOP
04c38f: 20               NOP
04c390: 20               NOP
04c391: 20               NOP
04c392: 20               NOP
04c393: 20               NOP
04c394: 20               NOP
04c395: 20               NOP
04c396: 20               NOP
04c397: 20               NOP
04c398: 20               NOP
04c399: 20               NOP
04c39a: 20               NOP
04c39b: 20               NOP
04c39c: 20               NOP
04c39d: 20               NOP
04c39e: 20               NOP
04c39f: 20               NOP
04c3a0: 20               NOP
04c3a1: 20               NOP
04c3a2: 20               NOP
04c3a3: 20               NOP
04c3a4: 20               NOP
04c3a5: 20               NOP
04c3a6: 20               NOP
04c3a7: 20               NOP
04c3a8: 20               NOP
04c3a9: 20               NOP
04c3aa: 20               NOP
04c3ab: 20               NOP
04c3ac: 20               NOP
04c3ad: 20               NOP
04c3ae: 20               NOP
04c3af: 20               NOP
04c3b0: 20               NOP
04c3b1: 20               NOP
04c3b2: 20               NOP
04c3b3: 20               NOP
04c3b4: 20               NOP
04c3b5: 20               NOP
04c3b6: 20               NOP
04c3b7: 20               NOP
04c3b8: 20               NOP
04c3b9: 20               NOP
04c3ba: 20               NOP
04c3bb: 20               NOP
04c3bc: 20               NOP
04c3bd: 20               NOP
04c3be: 20               NOP
04c3bf: 20               NOP
04c3c0: 20               NOP
04c3c1: 20               NOP
04c3c2: 20               NOP
04c3c3: 20               NOP
04c3c4: 20               NOP
04c3c5: 20               NOP
04c3c6: 20               NOP
04c3c7: 20               NOP
04c3c8: 20               NOP
04c3c9: 20               NOP
04c3ca: 20               NOP
04c3cb: 20               NOP
04c3cc: 20               NOP
04c3cd: 20               NOP
04c3ce: 20               NOP
04c3cf: 20               NOP
04c3d0: 20               NOP
04c3d1: 20               NOP
04c3d2: 20               NOP
04c3d3: 20               NOP
04c3d4: 20               NOP
04c3d5: 20               NOP
04c3d6: 20               NOP
04c3d7: 20               NOP
04c3d8: 20               NOP
04c3d9: 20               NOP
04c3da: 20               NOP
04c3db: 20               NOP
04c3dc: 20               NOP
04c3dd: 20               NOP
04c3de: 20               NOP
04c3df: 20               NOP
04c3e0: 20               NOP
04c3e1: 20               NOP
04c3e2: 20               NOP
04c3e3: 20               NOP
04c3e4: 20               NOP
04c3e5: 20               NOP
04c3e6: 20               NOP
04c3e7: 20               NOP
04c3e8: 20               NOP
04c3e9: 20               NOP
04c3ea: 20               NOP
04c3eb: 20               NOP
04c3ec: 20               NOP
04c3ed: 20               NOP
04c3ee: 20               NOP
04c3ef: 20               NOP
04c3f0: 20               NOP
04c3f1: 20               NOP
04c3f2: 20               NOP
04c3f3: 20               NOP
04c3f4: 20               NOP
04c3f5: 20               NOP
04c3f6: 20               NOP
04c3f7: 20               NOP
04c3f8: 20               NOP
04c3f9: 20               NOP
04c3fa: 20               NOP
04c3fb: 20               NOP
04c3fc: 20               NOP
04c3fd: 20               NOP
04c3fe: 20               NOP
04c3ff: 20               NOP
04c400: 20               NOP
04c401: 20               NOP
04c402: 20               NOP
04c403: 20               NOP
04c404: 20               NOP
04c405: 20               NOP
04c406: 20               NOP
04c407: 20               NOP
04c408: 20               NOP
04c409: 20               NOP
04c40a: 20               NOP
04c40b: 20               NOP
04c40c: 20               NOP
04c40d: 20               NOP
04c40e: 20               NOP
04c40f: 20               NOP
04c410: 20               NOP
04c411: 20               NOP
04c412: 20               NOP
04c413: 20               NOP
04c414: 20               NOP
04c415: 20               NOP
04c416: 20               NOP
04c417: 20               NOP
04c418: 20               NOP
04c419: 20               NOP
04c41a: 20               NOP
04c41b: 20               NOP
04c41c: 20               NOP
04c41d: 20               NOP
04c41e: 20               NOP
04c41f: 20               NOP
04c420: 20               NOP
04c421: 20               NOP
04c422: 20               NOP
04c423: 20               NOP
04c424: 20               NOP
04c425: 20               NOP
04c426: 20               NOP
04c427: 20               NOP
04c428: 20               NOP
04c429: 20               NOP
04c42a: 20               NOP
04c42b: 20               NOP
04c42c: 20               NOP
04c42d: 20               NOP
04c42e: 20               NOP
04c42f: 20               NOP
04c430: 20               NOP
04c431: 20               NOP
04c432: 20               NOP
04c433: 20               NOP
04c434: 20               NOP
04c435: 20               NOP
04c436: 20               NOP
04c437: 20               NOP
04c438: 20               NOP
04c439: 20               NOP
04c43a: 20               NOP
04c43b: 20               NOP
04c43c: 20               NOP
04c43d: 20               NOP
04c43e: 20               NOP
04c43f: 20               NOP
04c440: 20               NOP
04c441: 20               NOP
04c442: 20               NOP
04c443: 20               NOP
04c444: 20               NOP
04c445: 20               NOP
04c446: 20               NOP
04c447: 20               NOP
04c448: 20               NOP
04c449: 20               NOP
04c44a: 20               NOP
04c44b: 20               NOP
04c44c: 20               NOP
04c44d: 20               NOP
04c44e: 20               NOP
04c44f: 20               NOP
04c450: 20               NOP
04c451: 20               NOP
04c452: 20               NOP
04c453: 20               NOP
04c454: 20               NOP
04c455: 20               NOP
04c456: 20               NOP
04c457: 20               NOP
04c458: 20               NOP
04c459: 20               NOP
04c45a: 20               NOP
04c45b: 20               NOP
04c45c: 20               NOP
04c45d: 20               NOP
04c45e: 20               NOP
04c45f: 20               NOP
04c460: 20               NOP
04c461: 20               NOP
04c462: 20               NOP
04c463: 20               NOP
04c464: 20               NOP
04c465: 20               NOP
04c466: 20               NOP
04c467: 20               NOP
04c468: 20               NOP
04c469: 20               NOP
04c46a: 20               NOP
04c46b: 20               NOP
04c46c: 20               NOP
04c46d: 20               NOP
04c46e: 20               NOP
04c46f: 20               NOP
04c470: 20               NOP
04c471: 20               NOP
04c472: 20               NOP
04c473: 20               NOP
04c474: 20               NOP
04c475: 20               NOP
04c476: 20               NOP
04c477: 20               NOP
04c478: 20               NOP
04c479: 20               NOP
04c47a: 20               NOP
04c47b: 20               NOP
04c47c: 20               NOP
04c47d: 20               NOP
04c47e: 20               NOP
04c47f: 20               NOP
04c480: 20               NOP
04c481: 20               NOP
04c482: 20               NOP
04c483: 20               NOP
04c484: 20               NOP
04c485: 20               NOP
04c486: 20               NOP
04c487: 20               NOP
04c488: 20               NOP
04c489: 20               NOP
04c48a: 20               NOP
04c48b: 20               NOP
04c48c: 20               NOP
04c48d: 20               NOP
04c48e: 20               NOP
04c48f: 20               NOP
04c490: 20               NOP
04c491: 20               NOP
04c492: 20               NOP
04c493: 20               NOP
04c494: 20               NOP
04c495: 20               NOP
04c496: 20               NOP
04c497: 20               NOP
04c498: 20               NOP
04c499: 20               NOP
04c49a: 20               NOP
04c49b: 20               NOP
04c49c: 20               NOP
04c49d: 20               NOP
04c49e: 20               NOP
04c49f: 20               NOP
04c4a0: 20               NOP
04c4a1: 20               NOP
04c4a2: 20               NOP
04c4a3: 20               NOP
04c4a4: 20               NOP
04c4a5: 20               NOP
04c4a6: 20               NOP
04c4a7: 20               NOP
04c4a8: 20               NOP
04c4a9: 20               NOP
04c4aa: 20               NOP
04c4ab: 20               NOP
04c4ac: 20               NOP
04c4ad: 20               NOP
04c4ae: 20               NOP
04c4af: 20               NOP
04c4b0: 20               NOP
04c4b1: 20               NOP
04c4b2: 20               NOP
04c4b3: 20               NOP
04c4b4: 20               NOP
04c4b5: 20               NOP
04c4b6: 20               NOP
04c4b7: 20               NOP
04c4b8: 20               NOP
04c4b9: 20               NOP
04c4ba: 20               NOP
04c4bb: 20               NOP
04c4bc: 20               NOP
04c4bd: 20               NOP
04c4be: 20               NOP
04c4bf: 20               NOP
04c4c0: 20               NOP
04c4c1: 20               NOP
04c4c2: 20               NOP
04c4c3: 20               NOP
04c4c4: 20               NOP
04c4c5: 20               NOP
04c4c6: 20               NOP
04c4c7: 20               NOP
04c4c8: 20               NOP
04c4c9: 20               NOP
04c4ca: 20               NOP
04c4cb: 20               NOP
04c4cc: 20               NOP
04c4cd: 20               NOP
04c4ce: 20               NOP
04c4cf: 20               NOP
04c4d0: 20               NOP
04c4d1: 20               NOP
04c4d2: 20               NOP
04c4d3: 20               NOP
04c4d4: 20               NOP
04c4d5: 20               NOP
04c4d6: 20               NOP
04c4d7: 20               NOP
04c4d8: 20               NOP
04c4d9: 20               NOP
04c4da: 20               NOP
04c4db: 20               NOP
04c4dc: 20               NOP
04c4dd: 20               NOP
04c4de: 20               NOP
04c4df: 20               NOP
04c4e0: 20               NOP
04c4e1: 20               NOP
04c4e2: 20               NOP
04c4e3: 20               NOP
04c4e4: 20               NOP
04c4e5: 20               NOP
04c4e6: 20               NOP
04c4e7: 20               NOP
04c4e8: 20               NOP
04c4e9: 20               NOP
04c4ea: 20               NOP
04c4eb: 20               NOP
04c4ec: 20               NOP
04c4ed: 20               NOP
04c4ee: 20               NOP
04c4ef: 20               NOP
04c4f0: 20               NOP
04c4f1: 20               NOP
04c4f2: 20               NOP
04c4f3: 20               NOP
04c4f4: 20               NOP
04c4f5: 20               NOP
04c4f6: 20               NOP
04c4f7: 20               NOP
04c4f8: 20               NOP
04c4f9: 20               NOP
04c4fa: 20               NOP
04c4fb: 20               NOP
04c4fc: 20               NOP
04c4fd: 20               NOP
04c4fe: 20               NOP
04c4ff: 20               NOP
04c500: 20               NOP
04c501: 20               NOP
04c502: 20               NOP
04c503: 20               NOP
04c504: 20               NOP
04c505: 20               NOP
04c506: 20               NOP
04c507: 20               NOP
04c508: 20               NOP
04c509: 20               NOP
04c50a: 20               NOP
04c50b: 20               NOP
04c50c: 20               NOP
04c50d: 20               NOP
04c50e: 20               NOP
04c50f: 20               NOP
04c510: 20               NOP
04c511: 20               NOP
04c512: 20               NOP
04c513: 20               NOP
04c514: 20               NOP
04c515: 20               NOP
04c516: 20               NOP
04c517: 20               NOP
04c518: 20               NOP
04c519: 20               NOP
04c51a: 20               NOP
04c51b: 20               NOP
04c51c: 20               NOP
04c51d: 20               NOP
04c51e: 20               NOP
04c51f: 20               NOP
04c520: 20               NOP
04c521: 20               NOP
04c522: 20               NOP
04c523: 20               NOP
04c524: 20               NOP
04c525: 20               NOP
04c526: 20               NOP
04c527: 20               NOP
04c528: 20               NOP
04c529: 20               NOP
04c52a: 20               NOP
04c52b: 20               NOP
04c52c: 20               NOP
04c52d: 20               NOP
04c52e: 20               NOP
04c52f: 20               NOP
04c530: 20               NOP
04c531: 20               NOP
04c532: 20               NOP
04c533: 20               NOP
04c534: 20               NOP
04c535: 20               NOP
04c536: 20               NOP
04c537: 20               NOP
04c538: 20               NOP
04c539: 20               NOP
04c53a: 20               NOP
04c53b: 20               NOP
04c53c: 20               NOP
04c53d: 20               NOP
04c53e: 20               NOP
04c53f: 20               NOP
04c540: 20               NOP
04c541: 20               NOP
04c542: 20               NOP
04c543: 20               NOP
04c544: 20               NOP
04c545: 20               NOP
04c546: 20               NOP
04c547: 20               NOP
04c548: 20               NOP
04c549: 20               NOP
04c54a: 20               NOP
04c54b: 20               NOP
04c54c: 20               NOP
04c54d: 20               NOP
04c54e: 20               NOP
04c54f: 20               NOP
04c550: 20               NOP
04c551: 20               NOP
04c552: 20               NOP
04c553: 20               NOP
04c554: 20               NOP
04c555: 20               NOP
04c556: 20               NOP
04c557: 20               NOP
04c558: 20               NOP
04c559: 20               NOP
04c55a: 20               NOP
04c55b: 20               NOP
04c55c: 20               NOP
04c55d: 20               NOP
04c55e: 20               NOP
04c55f: 20               NOP
04c560: 20               NOP
04c561: 20               NOP
04c562: 20               NOP
04c563: 20               NOP
04c564: 20               NOP
04c565: 20               NOP
04c566: 20               NOP
04c567: 20               NOP
04c568: 20               NOP
04c569: 20               NOP
04c56a: 20               NOP
04c56b: 20               NOP
04c56c: 20               NOP
04c56d: 20               NOP
04c56e: 20               NOP
04c56f: 20               NOP
04c570: 20               NOP
04c571: 20               NOP
04c572: 20               NOP
04c573: 20               NOP
04c574: 20               NOP
04c575: 20               NOP
04c576: 20               NOP
04c577: 20               NOP
04c578: 20               NOP
04c579: 20               NOP
04c57a: 20               NOP
04c57b: 20               NOP
04c57c: 20               NOP
04c57d: 20               NOP
04c57e: 20               NOP
04c57f: 20               NOP
04c580: 20               NOP
04c581: 20               NOP
04c582: 20               NOP
04c583: 20               NOP
04c584: 20               NOP
04c585: 20               NOP
04c586: 20               NOP
04c587: 20               NOP
04c588: 20               NOP
04c589: 20               NOP
04c58a: 20               NOP
04c58b: 20               NOP
04c58c: 20               NOP
04c58d: 20               NOP
04c58e: 20               NOP
04c58f: 20               NOP
04c590: 20               NOP
04c591: 20               NOP
04c592: 20               NOP
04c593: 20               NOP
04c594: 20               NOP
04c595: 20               NOP
04c596: 20               NOP
04c597: 20               NOP
04c598: 20               NOP
04c599: 20               NOP
04c59a: 20               NOP
04c59b: 20               NOP
04c59c: 20               NOP
04c59d: 20               NOP
04c59e: 20               NOP
04c59f: 20               NOP
04c5a0: 20               NOP
04c5a1: 20               NOP
04c5a2: 20               NOP
04c5a3: 20               NOP
04c5a4: 20               NOP
04c5a5: 20               NOP
04c5a6: 20               NOP
04c5a7: 20               NOP
04c5a8: 20               NOP
04c5a9: 20               NOP
04c5aa: 20               NOP
04c5ab: 20               NOP
04c5ac: 20               NOP
04c5ad: 20               NOP
04c5ae: 20               NOP
04c5af: 20               NOP
04c5b0: 20               NOP
04c5b1: 20               NOP
04c5b2: 20               NOP
04c5b3: 20               NOP
04c5b4: 20               NOP
04c5b5: 20               NOP
04c5b6: 20               NOP
04c5b7: 20               NOP
04c5b8: 20               NOP
04c5b9: 20               NOP
04c5ba: 20               NOP
04c5bb: 20               NOP
04c5bc: 20               NOP
04c5bd: 20               NOP
04c5be: 20               NOP
04c5bf: 20               NOP
04c5c0: 20               NOP
04c5c1: 20               NOP
04c5c2: 20               NOP
04c5c3: 20               NOP
04c5c4: 20               NOP
04c5c5: 20               NOP
04c5c6: 20               NOP
04c5c7: 20               NOP
04c5c8: 20               NOP
04c5c9: 20               NOP
04c5ca: 20               NOP
04c5cb: 20               NOP
04c5cc: 20               NOP
04c5cd: 20               NOP
04c5ce: 20               NOP
04c5cf: 20               NOP
04c5d0: 20               NOP
04c5d1: 20               NOP
04c5d2: 20               NOP
04c5d3: 20               NOP
04c5d4: 20               NOP
04c5d5: 20               NOP
04c5d6: 20               NOP
04c5d7: 20               NOP
04c5d8: 20               NOP
04c5d9: 20               NOP
04c5da: 20               NOP
04c5db: 20               NOP
04c5dc: 20               NOP
04c5dd: 20               NOP
04c5de: 20               NOP
04c5df: 20               NOP
04c5e0: 20               NOP
04c5e1: 20               NOP
04c5e2: 20               NOP
04c5e3: 20               NOP
04c5e4: 20               NOP
04c5e5: 20               NOP
04c5e6: 20               NOP
04c5e7: 20               NOP
04c5e8: 20               NOP
04c5e9: 20               NOP
04c5ea: 20               NOP
04c5eb: 20               NOP
04c5ec: 20               NOP
04c5ed: 20               NOP
04c5ee: 20               NOP
04c5ef: 20               NOP
04c5f0: 20               NOP
04c5f1: 20               NOP
04c5f2: 20               NOP
04c5f3: 20               NOP
04c5f4: 20               NOP
04c5f5: 20               NOP
04c5f6: 20               NOP
04c5f7: 20               NOP
04c5f8: 20               NOP
04c5f9: 20               NOP
04c5fa: 20               NOP
04c5fb: 20               NOP
04c5fc: 20               NOP
04c5fd: 20               NOP
04c5fe: 20               NOP
04c5ff: 20               NOP
04c600: 20               NOP
04c601: 20               NOP
04c602: 20               NOP
04c603: 20               NOP
04c604: 20               NOP
04c605: 20               NOP
04c606: 20               NOP
04c607: 20               NOP
04c608: 20               NOP
04c609: 20               NOP
04c60a: 20               NOP
04c60b: 20               NOP
04c60c: 20               NOP
04c60d: 20               NOP
04c60e: 20               NOP
04c60f: 20               NOP
04c610: 20               NOP
04c611: 20               NOP
04c612: 20               NOP
04c613: 20               NOP
04c614: 20               NOP
04c615: 20               NOP
04c616: 20               NOP
04c617: 20               NOP
04c618: 20               NOP
04c619: 20               NOP
04c61a: 20               NOP
04c61b: 20               NOP
04c61c: 20               NOP
04c61d: 20               NOP
04c61e: 20               NOP
04c61f: 20               NOP
04c620: 20               NOP
04c621: 20               NOP
04c622: 20               NOP
04c623: 20               NOP
04c624: 20               NOP
04c625: 20               NOP
04c626: 20               NOP
04c627: 20               NOP
04c628: 20               NOP
04c629: 20               NOP
04c62a: 20               NOP
04c62b: 20               NOP
04c62c: 20               NOP
04c62d: 20               NOP
04c62e: 20               NOP
04c62f: 20               NOP
04c630: 20               NOP
04c631: 20               NOP
04c632: 20               NOP
04c633: 20               NOP
04c634: 20               NOP
04c635: 20               NOP
04c636: 20               NOP
04c637: 20               NOP
04c638: 20               NOP
04c639: 20               NOP
04c63a: 20               NOP
04c63b: 20               NOP
04c63c: 20               NOP
04c63d: 20               NOP
04c63e: 20               NOP
04c63f: 20               NOP
04c640: 20               NOP
04c641: 20               NOP
04c642: 20               NOP
04c643: 20               NOP
04c644: 20               NOP
04c645: 20               NOP
04c646: 20               NOP
04c647: 20               NOP
04c648: 20               NOP
04c649: 20               NOP
04c64a: 20               NOP
04c64b: 20               NOP
04c64c: 20               NOP
04c64d: 20               NOP
04c64e: 20               NOP
04c64f: 20               NOP
04c650: 20               NOP
04c651: 20               NOP
04c652: 20               NOP
04c653: 20               NOP
04c654: 20               NOP
04c655: 20               NOP
04c656: 20               NOP
04c657: 20               NOP
04c658: 20               NOP
04c659: 20               NOP
04c65a: 20               NOP
04c65b: 20               NOP
04c65c: 20               NOP
04c65d: 20               NOP
04c65e: 20               NOP
04c65f: 20               NOP
04c660: 20               NOP
04c661: 20               NOP
04c662: 20               NOP
04c663: 20               NOP
04c664: 20               NOP
04c665: 20               NOP
04c666: 20               NOP
04c667: 20               NOP
04c668: 20               NOP
04c669: 20               NOP
04c66a: 20               NOP
04c66b: 20               NOP
04c66c: 20               NOP
04c66d: 20               NOP
04c66e: 20               NOP
04c66f: 20               NOP
04c670: 20               NOP
04c671: 20               NOP
04c672: 20               NOP
04c673: 20               NOP
04c674: 20               NOP
04c675: 20               NOP
04c676: 20               NOP
04c677: 20               NOP
04c678: 20               NOP
04c679: 20               NOP
04c67a: 20               NOP
04c67b: 20               NOP
04c67c: 20               NOP
04c67d: 20               NOP
04c67e: 20               NOP
04c67f: 20               NOP
04c680: 20               NOP
04c681: 20               NOP
04c682: 20               NOP
04c683: 20               NOP
04c684: 20               NOP
04c685: 20               NOP
04c686: 20               NOP
04c687: 20               NOP
04c688: 20               NOP
04c689: 20               NOP
04c68a: 20               NOP
04c68b: 20               NOP
04c68c: 20               NOP
04c68d: 20               NOP
04c68e: 20               NOP
04c68f: 20               NOP
04c690: 20               NOP
04c691: 20               NOP
04c692: 20               NOP
04c693: 20               NOP
04c694: 20               NOP
04c695: 20               NOP
04c696: 20               NOP
04c697: 20               NOP
04c698: 20               NOP
04c699: 20               NOP
04c69a: 20               NOP
04c69b: 20               NOP
04c69c: 20               NOP
04c69d: 20               NOP
04c69e: 20               NOP
04c69f: 20               NOP
04c6a0: 20               NOP
04c6a1: 20               NOP
04c6a2: 20               NOP
04c6a3: 20               NOP
04c6a4: 20               NOP
04c6a5: 20               NOP
04c6a6: 20               NOP
04c6a7: 20               NOP
04c6a8: 20               NOP
04c6a9: 20               NOP
04c6aa: 20               NOP
04c6ab: 20               NOP
04c6ac: 20               NOP
04c6ad: 20               NOP
04c6ae: 20               NOP
04c6af: 20               NOP
04c6b0: 20               NOP
04c6b1: 20               NOP
04c6b2: 20               NOP
04c6b3: 20               NOP
04c6b4: 20               NOP
04c6b5: 20               NOP
04c6b6: 20               NOP
04c6b7: 20               NOP
04c6b8: 20               NOP
04c6b9: 20               NOP
04c6ba: 20               NOP
04c6bb: 20               NOP
04c6bc: 20               NOP
04c6bd: 20               NOP
04c6be: 20               NOP
04c6bf: 20               NOP
04c6c0: 20               NOP
04c6c1: 20               NOP
04c6c2: 20               NOP
04c6c3: 20               NOP
04c6c4: 20               NOP
04c6c5: 20               NOP
04c6c6: 20               NOP
04c6c7: 20               NOP
04c6c8: 20               NOP
04c6c9: 20               NOP
04c6ca: 20               NOP
04c6cb: 20               NOP
04c6cc: 20               NOP
04c6cd: 20               NOP
04c6ce: 20               NOP
04c6cf: 20               NOP
04c6d0: 20               NOP
04c6d1: 20               NOP
04c6d2: 20               NOP
04c6d3: 20               NOP
04c6d4: 20               NOP
04c6d5: 20               NOP
04c6d6: 20               NOP
04c6d7: 20               NOP
04c6d8: 20               NOP
04c6d9: 20               NOP
04c6da: 20               NOP
04c6db: 20               NOP
04c6dc: 20               NOP
04c6dd: 20               NOP
04c6de: 20               NOP
04c6df: 20               NOP
04c6e0: 20               NOP
04c6e1: 20               NOP
04c6e2: 20               NOP
04c6e3: 20               NOP
04c6e4: 20               NOP
04c6e5: 20               NOP
04c6e6: 20               NOP
04c6e7: 20               NOP
04c6e8: 20               NOP
04c6e9: 20               NOP
04c6ea: 20               NOP
04c6eb: 20               NOP
04c6ec: 20               NOP
04c6ed: 20               NOP
04c6ee: 20               NOP
04c6ef: 20               NOP
04c6f0: 20               NOP
04c6f1: 20               NOP
04c6f2: 20               NOP
04c6f3: 20               NOP
04c6f4: 20               NOP
04c6f5: 20               NOP
04c6f6: 20               NOP
04c6f7: 20               NOP
04c6f8: 20               NOP
04c6f9: 20               NOP
04c6fa: 20               NOP
04c6fb: 20               NOP
04c6fc: 20               NOP
04c6fd: 20               NOP
04c6fe: 20               NOP
04c6ff: 20               NOP
04c700: 20               NOP
04c701: 20               NOP
04c702: 20               NOP
04c703: 20               NOP
04c704: 20               NOP
04c705: 20               NOP
04c706: 20               NOP
04c707: 20               NOP
04c708: 20               NOP
04c709: 20               NOP
04c70a: 20               NOP
04c70b: 20               NOP
04c70c: 20               NOP
04c70d: 20               NOP
04c70e: 20               NOP
04c70f: 20               NOP
04c710: 20               NOP
04c711: 20               NOP
04c712: 20               NOP
04c713: 20               NOP
04c714: 20               NOP
04c715: 20               NOP
04c716: 20               NOP
04c717: 20               NOP
04c718: 20               NOP
04c719: 20               NOP
04c71a: 20               NOP
04c71b: 20               NOP
04c71c: 20               NOP
04c71d: 20               NOP
04c71e: 20               NOP
04c71f: 20               NOP
04c720: 20               NOP
04c721: 20               NOP
04c722: 20               NOP
04c723: 20               NOP
04c724: 20               NOP
04c725: 20               NOP
04c726: 20               NOP
04c727: 20               NOP
04c728: 20               NOP
04c729: 20               NOP
04c72a: 20               NOP
04c72b: 20               NOP
04c72c: 20               NOP
04c72d: 20               NOP
04c72e: 20               NOP
04c72f: 20               NOP
04c730: 20               NOP
04c731: 20               NOP
04c732: 20               NOP
04c733: 20               NOP
04c734: 20               NOP
04c735: 20               NOP
04c736: 20               NOP
04c737: 20               NOP
04c738: 20               NOP
04c739: 20               NOP
04c73a: 20               NOP
04c73b: 20               NOP
04c73c: 20               NOP
04c73d: 20               NOP
04c73e: 20               NOP
04c73f: 20               NOP
04c740: 20               NOP
04c741: 20               NOP
04c742: 20               NOP
04c743: 20               NOP
04c744: 20               NOP
04c745: 20               NOP
04c746: 20               NOP
04c747: 20               NOP
04c748: 20               NOP
04c749: 20               NOP
04c74a: 20               NOP
04c74b: 20               NOP
04c74c: 20               NOP
04c74d: 20               NOP
04c74e: 20               NOP
04c74f: 20               NOP
04c750: 20               NOP
04c751: 20               NOP
04c752: 20               NOP
04c753: 20               NOP
04c754: 20               NOP
04c755: 20               NOP
04c756: 20               NOP
04c757: 20               NOP
04c758: 20               NOP
04c759: 20               NOP
04c75a: 20               NOP
04c75b: 20               NOP
04c75c: 20               NOP
04c75d: 20               NOP
04c75e: 20               NOP
04c75f: 20               NOP
04c760: 20               NOP
04c761: 20               NOP
04c762: 20               NOP
04c763: 20               NOP
04c764: 20               NOP
04c765: 20               NOP
04c766: 20               NOP
04c767: 20               NOP
04c768: 20               NOP
04c769: 20               NOP
04c76a: 20               NOP
04c76b: 20               NOP
04c76c: 20               NOP
04c76d: 20               NOP
04c76e: 20               NOP
04c76f: 20               NOP
04c770: 20               NOP
04c771: 20               NOP
04c772: 20               NOP
04c773: 20               NOP
04c774: 20               NOP
04c775: 20               NOP
04c776: 20               NOP
04c777: 20               NOP
04c778: 20               NOP
04c779: 20               NOP
04c77a: 20               NOP
04c77b: 20               NOP
04c77c: 20               NOP
04c77d: 20               NOP
04c77e: 20               NOP
04c77f: 20               NOP
04c780: 20               NOP
04c781: 20               NOP
04c782: 20               NOP
04c783: 20               NOP
04c784: 20               NOP
04c785: 20               NOP
04c786: 20               NOP
04c787: 20               NOP
04c788: 20               NOP
04c789: 20               NOP
04c78a: 20               NOP
04c78b: 20               NOP
04c78c: 20               NOP
04c78d: 20               NOP
04c78e: 20               NOP
04c78f: 20               NOP
04c790: 20               NOP
04c791: 20               NOP
04c792: 20               NOP
04c793: 20               NOP
04c794: 20               NOP
04c795: 20               NOP
04c796: 20               NOP
04c797: 20               NOP
04c798: 20               NOP
04c799: 20               NOP
04c79a: 20               NOP
04c79b: 20               NOP
04c79c: 20               NOP
04c79d: 20               NOP
04c79e: 20               NOP
04c79f: 20               NOP
04c7a0: 20               NOP
04c7a1: 20               NOP
04c7a2: 20               NOP
04c7a3: 20               NOP
04c7a4: 20               NOP
04c7a5: 20               NOP
04c7a6: 20               NOP
04c7a7: 20               NOP
04c7a8: 20               NOP
04c7a9: 20               NOP
04c7aa: 20               NOP
04c7ab: 20               NOP
04c7ac: 20               NOP
04c7ad: 20               NOP
04c7ae: 20               NOP
04c7af: 20               NOP
04c7b0: 20               NOP
04c7b1: 20               NOP
04c7b2: 20               NOP
04c7b3: 20               NOP
04c7b4: 20               NOP
04c7b5: 20               NOP
04c7b6: 20               NOP
04c7b7: 20               NOP
04c7b8: 20               NOP
04c7b9: 20               NOP
04c7ba: 20               NOP
04c7bb: 20               NOP
04c7bc: 20               NOP
04c7bd: 20               NOP
04c7be: 20               NOP
04c7bf: 20               NOP
04c7c0: 20               NOP
04c7c1: 20               NOP
04c7c2: 20               NOP
04c7c3: 20               NOP
04c7c4: 20               NOP
04c7c5: 20               NOP
04c7c6: 20               NOP
04c7c7: 20               NOP
04c7c8: 20               NOP
04c7c9: 20               NOP
04c7ca: 20               NOP
04c7cb: 20               NOP
04c7cc: 20               NOP
04c7cd: 20               NOP
04c7ce: 20               NOP
04c7cf: 20               NOP
04c7d0: 20               NOP
04c7d1: 20               NOP
04c7d2: 20               NOP
04c7d3: 20               NOP
04c7d4: 20               NOP
04c7d5: 20               NOP
04c7d6: 20               NOP
04c7d7: 20               NOP
04c7d8: 20               NOP
04c7d9: 20               NOP
04c7da: 20               NOP
04c7db: 20               NOP
04c7dc: 20               NOP
04c7dd: 20               NOP
04c7de: 20               NOP
04c7df: 20               NOP
04c7e0: 20               NOP
04c7e1: 20               NOP
04c7e2: 20               NOP
04c7e3: 20               NOP
04c7e4: 20               NOP
04c7e5: 20               NOP
04c7e6: 20               NOP
04c7e7: 20               NOP
04c7e8: 20               NOP
04c7e9: 20               NOP
04c7ea: 20               NOP
04c7eb: 20               NOP
04c7ec: 20               NOP
04c7ed: 20               NOP
04c7ee: 20               NOP
04c7ef: 20               NOP
04c7f0: 20               NOP
04c7f1: 20               NOP
04c7f2: 20               NOP
04c7f3: 20               NOP
04c7f4: 20               NOP
04c7f5: 20               NOP
04c7f6: 20               NOP
04c7f7: 20               NOP
04c7f8: 20               NOP
04c7f9: 20               NOP
04c7fa: 20               NOP
04c7fb: 20               NOP
04c7fc: 20               NOP
04c7fd: 20               NOP
04c7fe: 20               NOP
04c7ff: 20               NOP
04c800: 20               NOP
04c801: 20               NOP
04c802: 20               NOP
04c803: 20               NOP
04c804: 20               NOP
04c805: 20               NOP
04c806: 20               NOP
04c807: 20               NOP
04c808: 20               NOP
04c809: 20               NOP
04c80a: 20               NOP
04c80b: 20               NOP
04c80c: 20               NOP
04c80d: 20               NOP
04c80e: 20               NOP
04c80f: 20               NOP
04c810: 20               NOP
04c811: 20               NOP
04c812: 20               NOP
04c813: 20               NOP
04c814: 20               NOP
04c815: 20               NOP
04c816: 20               NOP
04c817: 20               NOP
04c818: 20               NOP
04c819: 20               NOP
04c81a: 20               NOP
04c81b: 20               NOP
04c81c: 20               NOP
04c81d: 20               NOP
04c81e: 20               NOP
04c81f: 20               NOP
04c820: 20               NOP
04c821: 20               NOP
04c822: 20               NOP
04c823: 20               NOP
04c824: 20               NOP
04c825: 20               NOP
04c826: 20               NOP
04c827: 20               NOP
04c828: 20               NOP
04c829: 20               NOP
04c82a: 20               NOP
04c82b: 20               NOP
04c82c: 20               NOP
04c82d: 20               NOP
04c82e: 20               NOP
04c82f: 20               NOP
04c830: 20               NOP
04c831: 20               NOP
04c832: 20               NOP
04c833: 20               NOP
04c834: 20               NOP
04c835: 20               NOP
04c836: 20               NOP
04c837: 20               NOP
04c838: 20               NOP
04c839: 20               NOP
04c83a: 20               NOP
04c83b: 20               NOP
04c83c: 20               NOP
04c83d: 20               NOP
04c83e: 20               NOP
04c83f: 20               NOP
04c840: 20               NOP
04c841: 20               NOP
04c842: 20               NOP
04c843: 20               NOP
04c844: 20               NOP
04c845: 20               NOP
04c846: 20               NOP
04c847: 20               NOP
04c848: 20               NOP
04c849: 20               NOP
04c84a: 20               NOP
04c84b: 20               NOP
04c84c: 20               NOP
04c84d: 20               NOP
04c84e: 20               NOP
04c84f: 20               NOP
04c850: 20               NOP
04c851: 20               NOP
04c852: 20               NOP
04c853: 20               NOP
04c854: 20               NOP
04c855: 20               NOP
04c856: 20               NOP
04c857: 20               NOP
04c858: 20               NOP
04c859: 20               NOP
04c85a: 20               NOP
04c85b: 20               NOP
04c85c: 20               NOP
04c85d: 20               NOP
04c85e: 20               NOP
04c85f: 20               NOP
04c860: 20               NOP
04c861: 20               NOP
04c862: 20               NOP
04c863: 20               NOP
04c864: 20               NOP
04c865: 20               NOP
04c866: 20               NOP
04c867: 20               NOP
04c868: 20               NOP
04c869: 20               NOP
04c86a: 20               NOP
04c86b: 20               NOP
04c86c: 20               NOP
04c86d: 20               NOP
04c86e: 20               NOP
04c86f: 20               NOP
04c870: 20               NOP
04c871: 20               NOP
04c872: 20               NOP
04c873: 20               NOP
04c874: 20               NOP
04c875: 20               NOP
04c876: 20               NOP
04c877: 20               NOP
04c878: 20               NOP
04c879: 20               NOP
04c87a: 20               NOP
04c87b: 20               NOP
04c87c: 20               NOP
04c87d: 20               NOP
04c87e: 20               NOP
04c87f: 20               NOP
04c880: 20               NOP
04c881: 20               NOP
04c882: 20               NOP
04c883: 20               NOP
04c884: 20               NOP
04c885: 20               NOP
04c886: 20               NOP
04c887: 20               NOP
04c888: 20               NOP
04c889: 20               NOP
04c88a: 20               NOP
04c88b: 20               NOP
04c88c: 20               NOP
04c88d: 20               NOP
04c88e: 20               NOP
04c88f: 20               NOP
04c890: 20               NOP
04c891: 20               NOP
04c892: 20               NOP
04c893: 20               NOP
04c894: 20               NOP
04c895: 20               NOP
04c896: 20               NOP
04c897: 20               NOP
04c898: 20               NOP
04c899: 20               NOP
04c89a: 20               NOP
04c89b: 20               NOP
04c89c: 20               NOP
04c89d: 20               NOP
04c89e: 20               NOP
04c89f: 20               NOP
04c8a0: 20               NOP
04c8a1: 20               NOP
04c8a2: 20               NOP
04c8a3: 20               NOP
04c8a4: 20               NOP
04c8a5: 20               NOP
04c8a6: 20               NOP
04c8a7: 20               NOP
04c8a8: 20               NOP
04c8a9: 20               NOP
04c8aa: 20               NOP
04c8ab: 20               NOP
04c8ac: 20               NOP
04c8ad: 20               NOP
04c8ae: 20               NOP
04c8af: 20               NOP
04c8b0: 20               NOP
04c8b1: 20               NOP
04c8b2: 20               NOP
04c8b3: 20               NOP
04c8b4: 20               NOP
04c8b5: 20               NOP
04c8b6: 20               NOP
04c8b7: 20               NOP
04c8b8: 20               NOP
04c8b9: 20               NOP
04c8ba: 20               NOP
04c8bb: 20               NOP
04c8bc: 20               NOP
04c8bd: 20               NOP
04c8be: 20               NOP
04c8bf: 20               NOP
04c8c0: 20               NOP
04c8c1: 20               NOP
04c8c2: 20               NOP
04c8c3: 20               NOP
04c8c4: 20               NOP
04c8c5: 20               NOP
04c8c6: 20               NOP
04c8c7: 20               NOP
04c8c8: 20               NOP
04c8c9: 20               NOP
04c8ca: 20               NOP
04c8cb: 20               NOP
04c8cc: 20               NOP
04c8cd: 20               NOP
04c8ce: 20               NOP
04c8cf: 20               NOP
04c8d0: 20               NOP
04c8d1: 20               NOP
04c8d2: 20               NOP
04c8d3: 20               NOP
04c8d4: 20               NOP
04c8d5: 20               NOP
04c8d6: 20               NOP
04c8d7: 20               NOP
04c8d8: 20               NOP
04c8d9: 20               NOP
04c8da: 20               NOP
04c8db: 20               NOP
04c8dc: 20               NOP
04c8dd: 20               NOP
04c8de: 20               NOP
04c8df: 20               NOP
04c8e0: 20               NOP
04c8e1: 20               NOP
04c8e2: 20               NOP
04c8e3: 20               NOP
04c8e4: 20               NOP
04c8e5: 20               NOP
04c8e6: 20               NOP
04c8e7: 20               NOP
04c8e8: 20               NOP
04c8e9: 20               NOP
04c8ea: 20               NOP
04c8eb: 20               NOP
04c8ec: 20               NOP
04c8ed: 20               NOP
04c8ee: 20               NOP
04c8ef: 20               NOP
04c8f0: 20               NOP
04c8f1: 20               NOP
04c8f2: 20               NOP
04c8f3: 20               NOP
04c8f4: 20               NOP
04c8f5: 20               NOP
04c8f6: 20               NOP
04c8f7: 20               NOP
04c8f8: 20               NOP
04c8f9: 20               NOP
04c8fa: 20               NOP
04c8fb: 20               NOP
04c8fc: 20               NOP
04c8fd: 20               NOP
04c8fe: 20               NOP
04c8ff: 20               NOP
04c900: 20               NOP
04c901: 20               NOP
04c902: 20               NOP
04c903: 20               NOP
04c904: 20               NOP
04c905: 20               NOP
04c906: 20               NOP
04c907: 20               NOP
04c908: 20               NOP
04c909: 20               NOP
04c90a: 20               NOP
04c90b: 20               NOP
04c90c: 20               NOP
04c90d: 20               NOP
04c90e: 20               NOP
04c90f: 20               NOP
04c910: 20               NOP
04c911: 20               NOP
04c912: 20               NOP
04c913: 20               NOP
04c914: 20               NOP
04c915: 20               NOP
04c916: 20               NOP
04c917: 20               NOP
04c918: 20               NOP
04c919: 20               NOP
04c91a: 20               NOP
04c91b: 20               NOP
04c91c: 20               NOP
04c91d: 20               NOP
04c91e: 20               NOP
04c91f: 20               NOP
04c920: 20               NOP
04c921: 20               NOP
04c922: 20               NOP
04c923: 20               NOP
04c924: 20               NOP
04c925: 20               NOP
04c926: 20               NOP
04c927: 20               NOP
04c928: 20               NOP
04c929: 20               NOP
04c92a: 20               NOP
04c92b: 20               NOP
04c92c: 20               NOP
04c92d: 20               NOP
04c92e: 20               NOP
04c92f: 20               NOP
04c930: 20               NOP
04c931: 20               NOP
04c932: 20               NOP
04c933: 20               NOP
04c934: 20               NOP
04c935: 20               NOP
04c936: 20               NOP
04c937: 20               NOP
04c938: 20               NOP
04c939: 20               NOP
04c93a: 20               NOP
04c93b: 20               NOP
04c93c: 20               NOP
04c93d: 20               NOP
04c93e: 20               NOP
04c93f: 20               NOP
04c940: 20               NOP
04c941: 20               NOP
04c942: 20               NOP
04c943: 20               NOP
04c944: 20               NOP
04c945: 20               NOP
04c946: 20               NOP
04c947: 20               NOP
04c948: 20               NOP
04c949: 20               NOP
04c94a: 20               NOP
04c94b: 20               NOP
04c94c: 20               NOP
04c94d: 20               NOP
04c94e: 20               NOP
04c94f: 20               NOP
04c950: 20               NOP
04c951: 20               NOP
04c952: 20               NOP
04c953: 20               NOP
04c954: 20               NOP
04c955: 20               NOP
04c956: 20               NOP
04c957: 20               NOP
04c958: 20               NOP
04c959: 20               NOP
04c95a: 20               NOP
04c95b: 20               NOP
04c95c: 20               NOP
04c95d: 20               NOP
04c95e: 20               NOP
04c95f: 20               NOP
04c960: 20               NOP
04c961: 20               NOP
04c962: 20               NOP
04c963: 20               NOP
04c964: 20               NOP
04c965: 20               NOP
04c966: 20               NOP
04c967: 20               NOP
04c968: 20               NOP
04c969: 20               NOP
04c96a: 20               NOP
04c96b: 20               NOP
04c96c: 20               NOP
04c96d: 20               NOP
04c96e: 20               NOP
04c96f: 20               NOP
04c970: 20               NOP
04c971: 20               NOP
04c972: 20               NOP
04c973: 20               NOP
04c974: 20               NOP
04c975: 20               NOP
04c976: 20               NOP
04c977: 20               NOP
04c978: 20               NOP
04c979: 20               NOP
04c97a: 20               NOP
04c97b: 20               NOP
04c97c: 20               NOP
04c97d: 20               NOP
04c97e: 20               NOP
04c97f: 20               NOP
04c980: 20               NOP
04c981: 20               NOP
04c982: 20               NOP
04c983: 20               NOP
04c984: 20               NOP
04c985: 20               NOP
04c986: 20               NOP
04c987: 20               NOP
04c988: 20               NOP
04c989: 20               NOP
04c98a: 20               NOP
04c98b: 20               NOP
04c98c: 20               NOP
04c98d: 20               NOP
04c98e: 20               NOP
04c98f: 20               NOP
04c990: 20               NOP
04c991: 20               NOP
04c992: 20               NOP
04c993: 20               NOP
04c994: 20               NOP
04c995: 20               NOP
04c996: 20               NOP
04c997: 20               NOP
04c998: 20               NOP
04c999: 20               NOP
04c99a: 20               NOP
04c99b: 20               NOP
04c99c: 20               NOP
04c99d: 20               NOP
04c99e: 20               NOP
04c99f: 20               NOP
04c9a0: 20               NOP
04c9a1: 20               NOP
04c9a2: 20               NOP
04c9a3: 20               NOP
04c9a4: 20               NOP
04c9a5: 20               NOP
04c9a6: 20               NOP
04c9a7: 20               NOP
04c9a8: 20               NOP
04c9a9: 20               NOP
04c9aa: 20               NOP
04c9ab: 20               NOP
04c9ac: 20               NOP
04c9ad: 20               NOP
04c9ae: 20               NOP
04c9af: 20               NOP
04c9b0: 20               NOP
04c9b1: 20               NOP
04c9b2: 20               NOP
04c9b3: 20               NOP
04c9b4: 20               NOP
04c9b5: 20               NOP
04c9b6: 20               NOP
04c9b7: 20               NOP
04c9b8: 20               NOP
04c9b9: 20               NOP
04c9ba: 20               NOP
04c9bb: 20               NOP
04c9bc: 20               NOP
04c9bd: 20               NOP
04c9be: 20               NOP
04c9bf: 20               NOP
04c9c0: 20               NOP
04c9c1: 20               NOP
04c9c2: 20               NOP
04c9c3: 20               NOP
04c9c4: 20               NOP
04c9c5: 20               NOP
04c9c6: 20               NOP
04c9c7: 20               NOP
04c9c8: 20               NOP
04c9c9: 20               NOP
04c9ca: 20               NOP
04c9cb: 20               NOP
04c9cc: 20               NOP
04c9cd: 20               NOP
04c9ce: 20               NOP
04c9cf: 20               NOP
04c9d0: 20               NOP
04c9d1: 20               NOP
04c9d2: 20               NOP
04c9d3: 20               NOP
04c9d4: 20               NOP
04c9d5: 20               NOP
04c9d6: 20               NOP
04c9d7: 20               NOP
04c9d8: 20               NOP
04c9d9: 20               NOP
04c9da: 20               NOP
04c9db: 20               NOP
04c9dc: 20               NOP
04c9dd: 20               NOP
04c9de: 20               NOP
04c9df: 20               NOP
04c9e0: 20               NOP
04c9e1: 20               NOP
04c9e2: 20               NOP
04c9e3: 20               NOP
04c9e4: 20               NOP
04c9e5: 20               NOP
04c9e6: 20               NOP
04c9e7: 20               NOP
04c9e8: 20               NOP
04c9e9: 20               NOP
04c9ea: 20               NOP
04c9eb: 20               NOP
04c9ec: 20               NOP
04c9ed: 20               NOP
04c9ee: 20               NOP
04c9ef: 20               NOP
04c9f0: 20               NOP
04c9f1: 20               NOP
04c9f2: 20               NOP
04c9f3: 20               NOP
04c9f4: 20               NOP
04c9f5: 20               NOP
04c9f6: 20               NOP
04c9f7: 20               NOP
04c9f8: 20               NOP
04c9f9: 20               NOP
04c9fa: 20               NOP
04c9fb: 20               NOP
04c9fc: 20               NOP
04c9fd: 20               NOP
04c9fe: 20               NOP
04c9ff: 20               NOP
04ca00: 20               NOP
04ca01: 20               NOP
04ca02: 20               NOP
04ca03: 20               NOP
04ca04: 20               NOP
04ca05: 20               NOP
04ca06: 20               NOP
04ca07: 20               NOP
04ca08: 20               NOP
04ca09: 20               NOP
04ca0a: 20               NOP
04ca0b: 20               NOP
04ca0c: 20               NOP
04ca0d: 20               NOP
04ca0e: 20               NOP
04ca0f: 20               NOP
04ca10: 20               NOP
04ca11: 20               NOP
04ca12: 20               NOP
04ca13: 20               NOP
04ca14: 20               NOP
04ca15: 20               NOP
04ca16: 20               NOP
04ca17: 20               NOP
04ca18: 20               NOP
04ca19: 20               NOP
04ca1a: 20               NOP
04ca1b: 20               NOP
04ca1c: 20               NOP
04ca1d: 20               NOP
04ca1e: 20               NOP
04ca1f: 20               NOP
04ca20: 20               NOP
04ca21: 20               NOP
04ca22: 20               NOP
04ca23: 20               NOP
04ca24: 20               NOP
04ca25: 20               NOP
04ca26: 20               NOP
04ca27: 20               NOP
04ca28: 20               NOP
04ca29: 20               NOP
04ca2a: 20               NOP
04ca2b: 20               NOP
04ca2c: 20               NOP
04ca2d: 20               NOP
04ca2e: 20               NOP
04ca2f: 20               NOP
04ca30: 20               NOP
04ca31: 20               NOP
04ca32: 20               NOP
04ca33: 20               NOP
04ca34: 20               NOP
04ca35: 20               NOP
04ca36: 20               NOP
04ca37: 20               NOP
04ca38: 20               NOP
04ca39: 20               NOP
04ca3a: 20               NOP
04ca3b: 20               NOP
04ca3c: 20               NOP
04ca3d: 20               NOP
04ca3e: 20               NOP
04ca3f: 20               NOP
04ca40: 20               NOP
04ca41: 20               NOP
04ca42: 20               NOP
04ca43: 20               NOP
04ca44: 20               NOP
04ca45: 20               NOP
04ca46: 20               NOP
04ca47: 20               NOP
04ca48: 20               NOP
04ca49: 20               NOP
04ca4a: 20               NOP
04ca4b: 20               NOP
04ca4c: 20               NOP
04ca4d: 20               NOP
04ca4e: 20               NOP
04ca4f: 20               NOP
04ca50: 20               NOP
04ca51: 20               NOP
04ca52: 20               NOP
04ca53: 20               NOP
04ca54: 20               NOP
04ca55: 20               NOP
04ca56: 20               NOP
04ca57: 20               NOP
04ca58: 20               NOP
04ca59: 20               NOP
04ca5a: 20               NOP
04ca5b: 20               NOP
04ca5c: 20               NOP
04ca5d: 20               NOP
04ca5e: 20               NOP
04ca5f: 20               NOP
04ca60: 20               NOP
04ca61: 20               NOP
04ca62: 20               NOP
04ca63: 20               NOP
04ca64: 20               NOP
04ca65: 20               NOP
04ca66: 20               NOP
04ca67: 20               NOP
04ca68: 20               NOP
04ca69: 20               NOP
04ca6a: 20               NOP
04ca6b: 20               NOP
04ca6c: 20               NOP
04ca6d: 20               NOP
04ca6e: 20               NOP
04ca6f: 20               NOP
04ca70: 20               NOP
04ca71: 20               NOP
04ca72: 20               NOP
04ca73: 20               NOP
04ca74: 20               NOP
04ca75: 20               NOP
04ca76: 20               NOP
04ca77: 20               NOP
04ca78: 20               NOP
04ca79: 20               NOP
04ca7a: 20               NOP
04ca7b: 20               NOP
04ca7c: 20               NOP
04ca7d: 20               NOP
04ca7e: 20               NOP
04ca7f: 20               NOP
04ca80: 20               NOP
04ca81: 20               NOP
04ca82: 20               NOP
04ca83: 20               NOP
04ca84: 20               NOP
04ca85: 20               NOP
04ca86: 20               NOP
04ca87: 20               NOP
04ca88: 20               NOP
04ca89: 20               NOP
04ca8a: 20               NOP
04ca8b: 20               NOP
04ca8c: 20               NOP
04ca8d: 20               NOP
04ca8e: 20               NOP
04ca8f: 20               NOP
04ca90: 20               NOP
04ca91: 20               NOP
04ca92: 20               NOP
04ca93: 20               NOP
04ca94: 20               NOP
04ca95: 20               NOP
04ca96: 20               NOP
04ca97: 20               NOP
04ca98: 20               NOP
04ca99: 20               NOP
04ca9a: 20               NOP
04ca9b: 20               NOP
04ca9c: 20               NOP
04ca9d: 20               NOP
04ca9e: 20               NOP
04ca9f: 20               NOP
04caa0: 20               NOP
04caa1: 20               NOP
04caa2: 20               NOP
04caa3: 20               NOP
04caa4: 20               NOP
04caa5: 20               NOP
04caa6: 20               NOP
04caa7: 20               NOP
04caa8: 20               NOP
04caa9: 20               NOP
04caaa: 20               NOP
04caab: 20               NOP
04caac: 20               NOP
04caad: 20               NOP
04caae: 20               NOP
04caaf: 20               NOP
04cab0: 20               NOP
04cab1: 20               NOP
04cab2: 20               NOP
04cab3: 20               NOP
04cab4: 20               NOP
04cab5: 20               NOP
04cab6: 20               NOP
04cab7: 20               NOP
04cab8: 20               NOP
04cab9: 20               NOP
04caba: 20               NOP
04cabb: 20               NOP
04cabc: 20               NOP
04cabd: 20               NOP
04cabe: 20               NOP
04cabf: 20               NOP
04cac0: 20               NOP
04cac1: 20               NOP
04cac2: 20               NOP
04cac3: 20               NOP
04cac4: 20               NOP
04cac5: 20               NOP
04cac6: 20               NOP
04cac7: 20               NOP
04cac8: 20               NOP
04cac9: 20               NOP
04caca: 20               NOP
04cacb: 20               NOP
04cacc: 20               NOP
04cacd: 20               NOP
04cace: 20               NOP
04cacf: 20               NOP
04cad0: 20               NOP
04cad1: 20               NOP
04cad2: 20               NOP
04cad3: 20               NOP
04cad4: 20               NOP
04cad5: 20               NOP
04cad6: 20               NOP
04cad7: 20               NOP
04cad8: 20               NOP
04cad9: 20               NOP
04cada: 20               NOP
04cadb: 20               NOP
04cadc: 20               NOP
04cadd: 20               NOP
04cade: 20               NOP
04cadf: 20               NOP
04cae0: 20               NOP
04cae1: 20               NOP
04cae2: 20               NOP
04cae3: 20               NOP
04cae4: 20               NOP
04cae5: 20               NOP
04cae6: 20               NOP
04cae7: 20               NOP
04cae8: 20               NOP
04cae9: 20               NOP
04caea: 20               NOP
04caeb: 20               NOP
04caec: 20               NOP
04caed: 20               NOP
04caee: 20               NOP
04caef: 20               NOP
04caf0: 20               NOP
04caf1: 20               NOP
04caf2: 20               NOP
04caf3: 20               NOP
04caf4: 20               NOP
04caf5: 20               NOP
04caf6: 20               NOP
04caf7: 20               NOP
04caf8: 20               NOP
04caf9: 20               NOP
04cafa: 20               NOP
04cafb: 20               NOP
04cafc: 20               NOP
04cafd: 20               NOP
04cafe: 20               NOP
04caff: 20               NOP
04cb00: 20               NOP
04cb01: 20               NOP
04cb02: 20               NOP
04cb03: 20               NOP
04cb04: 20               NOP
04cb05: 20               NOP
04cb06: 20               NOP
04cb07: 20               NOP
04cb08: 20               NOP
04cb09: 20               NOP
04cb0a: 20               NOP
04cb0b: 20               NOP
04cb0c: 20               NOP
04cb0d: 20               NOP
04cb0e: 20               NOP
04cb0f: 20               NOP
04cb10: 20               NOP
04cb11: 20               NOP
04cb12: 20               NOP
04cb13: 20               NOP
04cb14: 20               NOP
04cb15: 20               NOP
04cb16: 20               NOP
04cb17: 20               NOP
04cb18: 20               NOP
04cb19: 20               NOP
04cb1a: 20               NOP
04cb1b: 20               NOP
04cb1c: 20               NOP
04cb1d: 20               NOP
04cb1e: 20               NOP
04cb1f: 20               NOP
04cb20: 20               NOP
04cb21: 20               NOP
04cb22: 20               NOP
04cb23: 20               NOP
04cb24: 20               NOP
04cb25: 20               NOP
04cb26: 20               NOP
04cb27: 20               NOP
04cb28: 20               NOP
04cb29: 20               NOP
04cb2a: 20               NOP
04cb2b: 20               NOP
04cb2c: 20               NOP
04cb2d: 20               NOP
04cb2e: 20               NOP
04cb2f: 20               NOP
04cb30: 20               NOP
04cb31: 20               NOP
04cb32: 20               NOP
04cb33: 20               NOP
04cb34: 20               NOP
04cb35: 20               NOP
04cb36: 20               NOP
04cb37: 20               NOP
04cb38: 20               NOP
04cb39: 20               NOP
04cb3a: 20               NOP
04cb3b: 20               NOP
04cb3c: 20               NOP
04cb3d: 20               NOP
04cb3e: 20               NOP
04cb3f: 20               NOP
04cb40: 20               NOP
04cb41: 20               NOP
04cb42: 20               NOP
04cb43: 20               NOP
04cb44: 20               NOP
04cb45: 20               NOP
04cb46: 20               NOP
04cb47: 20               NOP
04cb48: 20               NOP
04cb49: 20               NOP
04cb4a: 20               NOP
04cb4b: 20               NOP
04cb4c: 20               NOP
04cb4d: 20               NOP
04cb4e: 20               NOP
04cb4f: 20               NOP
04cb50: 20               NOP
04cb51: 20               NOP
04cb52: 20               NOP
04cb53: 20               NOP
04cb54: 20               NOP
04cb55: 20               NOP
04cb56: 20               NOP
04cb57: 20               NOP
04cb58: 20               NOP
04cb59: 20               NOP
04cb5a: 20               NOP
04cb5b: 20               NOP
04cb5c: 20               NOP
04cb5d: 20               NOP
04cb5e: 20               NOP
04cb5f: 20               NOP
04cb60: 20               NOP
04cb61: 20               NOP
04cb62: 20               NOP
04cb63: 20               NOP
04cb64: 20               NOP
04cb65: 20               NOP
04cb66: 20               NOP
04cb67: 20               NOP
04cb68: 20               NOP
04cb69: 20               NOP
04cb6a: 20               NOP
04cb6b: 20               NOP
04cb6c: 20               NOP
04cb6d: 20               NOP
04cb6e: 20               NOP
04cb6f: 20               NOP
04cb70: 20               NOP
04cb71: 20               NOP
04cb72: 20               NOP
04cb73: 20               NOP
04cb74: 20               NOP
04cb75: 20               NOP
04cb76: 20               NOP
04cb77: 20               NOP
04cb78: 20               NOP
04cb79: 20               NOP
04cb7a: 20               NOP
04cb7b: 20               NOP
04cb7c: 20               NOP
04cb7d: 20               NOP
04cb7e: 20               NOP
04cb7f: 20               NOP
04cb80: 20               NOP
04cb81: 20               NOP
04cb82: 20               NOP
04cb83: 20               NOP
04cb84: 20               NOP
04cb85: 20               NOP
04cb86: 20               NOP
04cb87: 20               NOP
04cb88: 20               NOP
04cb89: 20               NOP
04cb8a: 20               NOP
04cb8b: 20               NOP
04cb8c: 20               NOP
04cb8d: 20               NOP
04cb8e: 20               NOP
04cb8f: 20               NOP
04cb90: 20               NOP
04cb91: 20               NOP
04cb92: 20               NOP
04cb93: 20               NOP
04cb94: 20               NOP
04cb95: 20               NOP
04cb96: 20               NOP
04cb97: 20               NOP
04cb98: 20               NOP
04cb99: 20               NOP
04cb9a: 20               NOP
04cb9b: 20               NOP
04cb9c: 20               NOP
04cb9d: 20               NOP
04cb9e: 20               NOP
04cb9f: 20               NOP
04cba0: 20               NOP
04cba1: 20               NOP
04cba2: 20               NOP
04cba3: 20               NOP
04cba4: 20               NOP
04cba5: 20               NOP
04cba6: 20               NOP
04cba7: 20               NOP
04cba8: 20               NOP
04cba9: 20               NOP
04cbaa: 20               NOP
04cbab: 20               NOP
04cbac: 20               NOP
04cbad: 20               NOP
04cbae: 20               NOP
04cbaf: 20               NOP
04cbb0: 20               NOP
04cbb1: 20               NOP
04cbb2: 20               NOP
04cbb3: 20               NOP
04cbb4: 20               NOP
04cbb5: 20               NOP
04cbb6: 20               NOP
04cbb7: 20               NOP
04cbb8: 20               NOP
04cbb9: 20               NOP
04cbba: 20               NOP
04cbbb: 20               NOP
04cbbc: 20               NOP
04cbbd: 20               NOP
04cbbe: 20               NOP
04cbbf: 20               NOP
04cbc0: 20               NOP
04cbc1: 20               NOP
04cbc2: 20               NOP
04cbc3: 20               NOP
04cbc4: 20               NOP
04cbc5: 20               NOP
04cbc6: 20               NOP
04cbc7: 20               NOP
04cbc8: 20               NOP
04cbc9: 20               NOP
04cbca: 20               NOP
04cbcb: 20               NOP
04cbcc: 20               NOP
04cbcd: 20               NOP
04cbce: 20               NOP
04cbcf: 20               NOP
04cbd0: 20               NOP
04cbd1: 20               NOP
04cbd2: 20               NOP
04cbd3: 20               NOP
04cbd4: 20               NOP
04cbd5: 20               NOP
04cbd6: 20               NOP
04cbd7: 20               NOP
04cbd8: 20               NOP
04cbd9: 20               NOP
04cbda: 20               NOP
04cbdb: 20               NOP
04cbdc: 20               NOP
04cbdd: 20               NOP
04cbde: 20               NOP
04cbdf: 20               NOP
04cbe0: 20               NOP
04cbe1: 20               NOP
04cbe2: 20               NOP
04cbe3: 20               NOP
04cbe4: 20               NOP
04cbe5: 20               NOP
04cbe6: 20               NOP
04cbe7: 20               NOP
04cbe8: 20               NOP
04cbe9: 20               NOP
04cbea: 20               NOP
04cbeb: 20               NOP
04cbec: 20               NOP
04cbed: 20               NOP
04cbee: 20               NOP
04cbef: 20               NOP
04cbf0: 20               NOP
04cbf1: 20               NOP
04cbf2: 20               NOP
04cbf3: 20               NOP
04cbf4: 20               NOP
04cbf5: 20               NOP
04cbf6: 20               NOP
04cbf7: 20               NOP
04cbf8: 20               NOP
04cbf9: 20               NOP
04cbfa: 20               NOP
04cbfb: 20               NOP
04cbfc: 20               NOP
04cbfd: 20               NOP
04cbfe: 20               NOP
04cbff: 20               NOP
04cc00: 20               NOP
04cc01: 20               NOP
04cc02: 20               NOP
04cc03: 20               NOP
04cc04: 20               NOP
04cc05: 20               NOP
04cc06: 20               NOP
04cc07: 20               NOP
04cc08: 20               NOP
04cc09: 20               NOP
04cc0a: 20               NOP
04cc0b: 20               NOP
04cc0c: 20               NOP
04cc0d: 20               NOP
04cc0e: 20               NOP
04cc0f: 20               NOP
04cc10: 20               NOP
04cc11: 20               NOP
04cc12: 20               NOP
04cc13: 20               NOP
04cc14: 20               NOP
04cc15: 20               NOP
04cc16: 20               NOP
04cc17: 20               NOP
04cc18: 20               NOP
04cc19: 20               NOP
04cc1a: 20               NOP
04cc1b: 20               NOP
04cc1c: 20               NOP
04cc1d: 20               NOP
04cc1e: 20               NOP
04cc1f: 20               NOP
04cc20: 20               NOP
04cc21: 20               NOP
04cc22: 20               NOP
04cc23: 20               NOP
04cc24: 20               NOP
04cc25: 20               NOP
04cc26: 20               NOP
04cc27: 20               NOP
04cc28: 20               NOP
04cc29: 20               NOP
04cc2a: 20               NOP
04cc2b: 20               NOP
04cc2c: 20               NOP
04cc2d: 20               NOP
04cc2e: 20               NOP
04cc2f: 20               NOP
04cc30: 20               NOP
04cc31: 20               NOP
04cc32: 20               NOP
04cc33: 20               NOP
04cc34: 20               NOP
04cc35: 20               NOP
04cc36: 20               NOP
04cc37: 20               NOP
04cc38: 20               NOP
04cc39: 20               NOP
04cc3a: 20               NOP
04cc3b: 20               NOP
04cc3c: 20               NOP
04cc3d: 20               NOP
04cc3e: 20               NOP
04cc3f: 20               NOP
04cc40: 20               NOP
04cc41: 20               NOP
04cc42: 20               NOP
04cc43: 20               NOP
04cc44: 20               NOP
04cc45: 20               NOP
04cc46: 20               NOP
04cc47: 20               NOP
04cc48: 20               NOP
04cc49: 20               NOP
04cc4a: 20               NOP
04cc4b: 20               NOP
04cc4c: 20               NOP
04cc4d: 20               NOP
04cc4e: 20               NOP
04cc4f: 20               NOP
04cc50: 20               NOP
04cc51: 20               NOP
04cc52: 20               NOP
04cc53: 20               NOP
04cc54: 20               NOP
04cc55: 20               NOP
04cc56: 20               NOP
04cc57: 20               NOP
04cc58: 20               NOP
04cc59: 20               NOP
04cc5a: 20               NOP
04cc5b: 20               NOP
04cc5c: 20               NOP
04cc5d: 20               NOP
04cc5e: 20               NOP
04cc5f: 20               NOP
04cc60: 20               NOP
04cc61: 20               NOP
04cc62: 20               NOP
04cc63: 20               NOP
04cc64: 20               NOP
04cc65: 20               NOP
04cc66: 20               NOP
04cc67: 20               NOP
04cc68: 20               NOP
04cc69: 20               NOP
04cc6a: 20               NOP
04cc6b: 20               NOP
04cc6c: 20               NOP
04cc6d: 20               NOP
04cc6e: 20               NOP
04cc6f: 20               NOP
04cc70: 20               NOP
04cc71: 20               NOP
04cc72: 20               NOP
04cc73: 20               NOP
04cc74: 20               NOP
04cc75: 20               NOP
04cc76: 20               NOP
04cc77: 20               NOP
04cc78: 20               NOP
04cc79: 20               NOP
04cc7a: 20               NOP
04cc7b: 20               NOP
04cc7c: 20               NOP
04cc7d: 20               NOP
04cc7e: 20               NOP
04cc7f: 20               NOP
04cc80: 20               NOP
04cc81: 20               NOP
04cc82: 20               NOP
04cc83: 20               NOP
04cc84: 20               NOP
04cc85: 20               NOP
04cc86: 20               NOP
04cc87: 20               NOP
04cc88: 20               NOP
04cc89: 20               NOP
04cc8a: 20               NOP
04cc8b: 20               NOP
04cc8c: 20               NOP
04cc8d: 20               NOP
04cc8e: 20               NOP
04cc8f: 20               NOP
04cc90: 20               NOP
04cc91: 20               NOP
04cc92: 20               NOP
04cc93: 20               NOP
04cc94: 20               NOP
04cc95: 20               NOP
04cc96: 20               NOP
04cc97: 20               NOP
04cc98: 20               NOP
04cc99: 20               NOP
04cc9a: 20               NOP
04cc9b: 20               NOP
04cc9c: 20               NOP
04cc9d: 20               NOP
04cc9e: 20               NOP
04cc9f: 20               NOP
04cca0: 20               NOP
04cca1: 20               NOP
04cca2: 20               NOP
04cca3: 20               NOP
04cca4: 20               NOP
04cca5: 20               NOP
04cca6: 20               NOP
04cca7: 20               NOP
04cca8: 20               NOP
04cca9: 20               NOP
04ccaa: 20               NOP
04ccab: 20               NOP
04ccac: 20               NOP
04ccad: 20               NOP
04ccae: 20               NOP
04ccaf: 20               NOP
04ccb0: 20               NOP
04ccb1: 20               NOP
04ccb2: 20               NOP
04ccb3: 20               NOP
04ccb4: 20               NOP
04ccb5: 20               NOP
04ccb6: 20               NOP
04ccb7: 20               NOP
04ccb8: 20               NOP
04ccb9: 20               NOP
04ccba: 20               NOP
04ccbb: 20               NOP
04ccbc: 20               NOP
04ccbd: 20               NOP
04ccbe: 20               NOP
04ccbf: 20               NOP
04ccc0: 20               NOP
04ccc1: 20               NOP
04ccc2: 20               NOP
04ccc3: 20               NOP
04ccc4: 20               NOP
04ccc5: 20               NOP
04ccc6: 20               NOP
04ccc7: 20               NOP
04ccc8: 20               NOP
04ccc9: 20               NOP
04ccca: 20               NOP
04cccb: 20               NOP
04cccc: 20               NOP
04cccd: 20               NOP
04ccce: 20               NOP
04cccf: 20               NOP
04ccd0: 20               NOP
04ccd1: 20               NOP
04ccd2: 20               NOP
04ccd3: 20               NOP
04ccd4: 20               NOP
04ccd5: 20               NOP
04ccd6: 20               NOP
04ccd7: 20               NOP
04ccd8: 20               NOP
04ccd9: 20               NOP
04ccda: 20               NOP
04ccdb: 20               NOP
04ccdc: 20               NOP
04ccdd: 20               NOP
04ccde: 20               NOP
04ccdf: 20               NOP
04cce0: 20               NOP
04cce1: 20               NOP
04cce2: 20               NOP
04cce3: 20               NOP
04cce4: 20               NOP
04cce5: 20               NOP
04cce6: 20               NOP
04cce7: 20               NOP
04cce8: 20               NOP
04cce9: 20               NOP
04ccea: 20               NOP
04cceb: 20               NOP
04ccec: 20               NOP
04cced: 20               NOP
04ccee: 20               NOP
04ccef: 20               NOP
04ccf0: 20               NOP
04ccf1: 20               NOP
04ccf2: 20               NOP
04ccf3: 20               NOP
04ccf4: 20               NOP
04ccf5: 20               NOP
04ccf6: 20               NOP
04ccf7: 20               NOP
04ccf8: 20               NOP
04ccf9: 20               NOP
04ccfa: 20               NOP
04ccfb: 20               NOP
04ccfc: 20               NOP
04ccfd: 20               NOP
04ccfe: 20               NOP
04ccff: 20               NOP
04cd00: 20               NOP
04cd01: 20               NOP
04cd02: 20               NOP
04cd03: 20               NOP
04cd04: 20               NOP
04cd05: 20               NOP
04cd06: 20               NOP
04cd07: 20               NOP
04cd08: 20               NOP
04cd09: 20               NOP
04cd0a: 20               NOP
04cd0b: 20               NOP
04cd0c: 20               NOP
04cd0d: 20               NOP
04cd0e: 20               NOP
04cd0f: 20               NOP
04cd10: 20               NOP
04cd11: 20               NOP
04cd12: 20               NOP
04cd13: 20               NOP
04cd14: 20               NOP
04cd15: 20               NOP
04cd16: 20               NOP
04cd17: 20               NOP
04cd18: 20               NOP
04cd19: 20               NOP
04cd1a: 20               NOP
04cd1b: 20               NOP
04cd1c: 20               NOP
04cd1d: 20               NOP
04cd1e: 20               NOP
04cd1f: 20               NOP
04cd20: 20               NOP
04cd21: 20               NOP
04cd22: 20               NOP
04cd23: 20               NOP
04cd24: 20               NOP
04cd25: 20               NOP
04cd26: 20               NOP
04cd27: 20               NOP
04cd28: 20               NOP
04cd29: 20               NOP
04cd2a: 20               NOP
04cd2b: 20               NOP
04cd2c: 20               NOP
04cd2d: 20               NOP
04cd2e: 20               NOP
04cd2f: 20               NOP
04cd30: 20               NOP
04cd31: 20               NOP
04cd32: 20               NOP
04cd33: 20               NOP
04cd34: 20               NOP
04cd35: 20               NOP
04cd36: 20               NOP
04cd37: 20               NOP
04cd38: 20               NOP
04cd39: 20               NOP
04cd3a: 20               NOP
04cd3b: 20               NOP
04cd3c: 20               NOP
04cd3d: 20               NOP
04cd3e: 20               NOP
04cd3f: 20               NOP
04cd40: 20               NOP
04cd41: 20               NOP
04cd42: 20               NOP
04cd43: 20               NOP
04cd44: 20               NOP
04cd45: 20               NOP
04cd46: 20               NOP
04cd47: 20               NOP
04cd48: 20               NOP
04cd49: 20               NOP
04cd4a: 20               NOP
04cd4b: 20               NOP
04cd4c: 20               NOP
04cd4d: 20               NOP
04cd4e: 20               NOP
04cd4f: 20               NOP
04cd50: 20               NOP
04cd51: 20               NOP
04cd52: 20               NOP
04cd53: 20               NOP
04cd54: 20               NOP
04cd55: 20               NOP
04cd56: 20               NOP
04cd57: 20               NOP
04cd58: 20               NOP
04cd59: 20               NOP
04cd5a: 20               NOP
04cd5b: 20               NOP
04cd5c: 20               NOP
04cd5d: 20               NOP
04cd5e: 20               NOP
04cd5f: 20               NOP
04cd60: 20               NOP
04cd61: 20               NOP
04cd62: 20               NOP
04cd63: 20               NOP
04cd64: 20               NOP
04cd65: 20               NOP
04cd66: 20               NOP
04cd67: 20               NOP
04cd68: 20               NOP
04cd69: 20               NOP
04cd6a: 20               NOP
04cd6b: 20               NOP
04cd6c: 20               NOP
04cd6d: 20               NOP
04cd6e: 20               NOP
04cd6f: 20               NOP
04cd70: 20               NOP
04cd71: 20               NOP
04cd72: 20               NOP
04cd73: 20               NOP
04cd74: 20               NOP
04cd75: 20               NOP
04cd76: 20               NOP
04cd77: 20               NOP
04cd78: 20               NOP
04cd79: 20               NOP
04cd7a: 20               NOP
04cd7b: 20               NOP
04cd7c: 20               NOP
04cd7d: 20               NOP
04cd7e: 20               NOP
04cd7f: 20               NOP
04cd80: 20               NOP
04cd81: 20               NOP
04cd82: 20               NOP
04cd83: 20               NOP
04cd84: 20               NOP
04cd85: 20               NOP
04cd86: 20               NOP
04cd87: 20               NOP
04cd88: 20               NOP
04cd89: 20               NOP
04cd8a: 20               NOP
04cd8b: 20               NOP
04cd8c: 20               NOP
04cd8d: 20               NOP
04cd8e: 20               NOP
04cd8f: 20               NOP
04cd90: 20               NOP
04cd91: 20               NOP
04cd92: 20               NOP
04cd93: 20               NOP
04cd94: 20               NOP
04cd95: 20               NOP
04cd96: 20               NOP
04cd97: 20               NOP
04cd98: 20               NOP
04cd99: 20               NOP
04cd9a: 20               NOP
04cd9b: 20               NOP
04cd9c: 20               NOP
04cd9d: 20               NOP
04cd9e: 20               NOP
04cd9f: 20               NOP
04cda0: 20               NOP
04cda1: 20               NOP
04cda2: 20               NOP
04cda3: 20               NOP
04cda4: 20               NOP
04cda5: 20               NOP
04cda6: 20               NOP
04cda7: 20               NOP
04cda8: 20               NOP
04cda9: 20               NOP
04cdaa: 20               NOP
04cdab: 20               NOP
04cdac: 20               NOP
04cdad: 20               NOP
04cdae: 20               NOP
04cdaf: 20               NOP
04cdb0: 20               NOP
04cdb1: 20               NOP
04cdb2: 20               NOP
04cdb3: 20               NOP
04cdb4: 20               NOP
04cdb5: 20               NOP
04cdb6: 20               NOP
04cdb7: 20               NOP
04cdb8: 20               NOP
04cdb9: 20               NOP
04cdba: 20               NOP
04cdbb: 20               NOP
04cdbc: 20               NOP
04cdbd: 20               NOP
04cdbe: 20               NOP
04cdbf: 20               NOP
04cdc0: 20               NOP
04cdc1: 20               NOP
04cdc2: 20               NOP
04cdc3: 20               NOP
04cdc4: 20               NOP
04cdc5: 20               NOP
04cdc6: 20               NOP
04cdc7: 20               NOP
04cdc8: 20               NOP
04cdc9: 20               NOP
04cdca: 20               NOP
04cdcb: 20               NOP
04cdcc: 20               NOP
04cdcd: 20               NOP
04cdce: 20               NOP
04cdcf: 20               NOP
04cdd0: 20               NOP
04cdd1: 20               NOP
04cdd2: 20               NOP
04cdd3: 20               NOP
04cdd4: 20               NOP
04cdd5: 20               NOP
04cdd6: 20               NOP
04cdd7: 20               NOP
04cdd8: 20               NOP
04cdd9: 20               NOP
04cdda: 20               NOP
04cddb: 20               NOP
04cddc: 20               NOP
04cddd: 20               NOP
04cdde: 20               NOP
04cddf: 20               NOP
04cde0: 20               NOP
04cde1: 20               NOP
04cde2: 20               NOP
04cde3: 20               NOP
04cde4: 20               NOP
04cde5: 20               NOP
04cde6: 20               NOP
04cde7: 20               NOP
04cde8: 20               NOP
04cde9: 20               NOP
04cdea: 20               NOP
04cdeb: 20               NOP
04cdec: 20               NOP
04cded: 20               NOP
04cdee: 20               NOP
04cdef: 20               NOP
04cdf0: 20               NOP
04cdf1: 20               NOP
04cdf2: 20               NOP
04cdf3: 20               NOP
04cdf4: 20               NOP
04cdf5: 20               NOP
04cdf6: 20               NOP
04cdf7: 20               NOP
04cdf8: 20               NOP
04cdf9: 20               NOP
04cdfa: 20               NOP
04cdfb: 20               NOP
04cdfc: 20               NOP
04cdfd: 20               NOP
04cdfe: 20               NOP
04cdff: 20               NOP
04ce00: 20               NOP
04ce01: 20               NOP
04ce02: 20               NOP
04ce03: 20               NOP
04ce04: 20               NOP
04ce05: 20               NOP
04ce06: 20               NOP
04ce07: 20               NOP
04ce08: 20               NOP
04ce09: 20               NOP
04ce0a: 20               NOP
04ce0b: 20               NOP
04ce0c: 20               NOP
04ce0d: 20               NOP
04ce0e: 20               NOP
04ce0f: 20               NOP
04ce10: 20               NOP
04ce11: 20               NOP
04ce12: 20               NOP
04ce13: 20               NOP
04ce14: 20               NOP
04ce15: 20               NOP
04ce16: 20               NOP
04ce17: 20               NOP
04ce18: 20               NOP
04ce19: 20               NOP
04ce1a: 20               NOP
04ce1b: 20               NOP
04ce1c: 20               NOP
04ce1d: 20               NOP
04ce1e: 20               NOP
04ce1f: 20               NOP
04ce20: 20               NOP
04ce21: 20               NOP
04ce22: 20               NOP
04ce23: 20               NOP
04ce24: 20               NOP
04ce25: 20               NOP
04ce26: 20               NOP
04ce27: 20               NOP
04ce28: 20               NOP
04ce29: 20               NOP
04ce2a: 20               NOP
04ce2b: 20               NOP
04ce2c: 20               NOP
04ce2d: 20               NOP
04ce2e: 20               NOP
04ce2f: 20               NOP
04ce30: 20               NOP
04ce31: 20               NOP
04ce32: 20               NOP
04ce33: 20               NOP
04ce34: 20               NOP
04ce35: 20               NOP
04ce36: 20               NOP
04ce37: 20               NOP
04ce38: 20               NOP
04ce39: 20               NOP
04ce3a: 20               NOP
04ce3b: 20               NOP
04ce3c: 20               NOP
04ce3d: 20               NOP
04ce3e: 20               NOP
04ce3f: 20               NOP
04ce40: 20               NOP
04ce41: 20               NOP
04ce42: 20               NOP
04ce43: 20               NOP
04ce44: 20               NOP
04ce45: 20               NOP
04ce46: 20               NOP
04ce47: 20               NOP
04ce48: 20               NOP
04ce49: 20               NOP
04ce4a: 20               NOP
04ce4b: 20               NOP
04ce4c: 20               NOP
04ce4d: 20               NOP
04ce4e: 20               NOP
04ce4f: 20               NOP
04ce50: 20               NOP
04ce51: 20               NOP
04ce52: 20               NOP
04ce53: 20               NOP
04ce54: 20               NOP
04ce55: 20               NOP
04ce56: 20               NOP
04ce57: 20               NOP
04ce58: 20               NOP
04ce59: 20               NOP
04ce5a: 20               NOP
04ce5b: 20               NOP
04ce5c: 20               NOP
04ce5d: 20               NOP
04ce5e: 20               NOP
04ce5f: 20               NOP
04ce60: 20               NOP
04ce61: 20               NOP
04ce62: 20               NOP
04ce63: 20               NOP
04ce64: 20               NOP
04ce65: 20               NOP
04ce66: 20               NOP
04ce67: 20               NOP
04ce68: 20               NOP
04ce69: 20               NOP
04ce6a: 20               NOP
04ce6b: 20               NOP
04ce6c: 20               NOP
04ce6d: 20               NOP
04ce6e: 20               NOP
04ce6f: 20               NOP
04ce70: 20               NOP
04ce71: 20               NOP
04ce72: 20               NOP
04ce73: 20               NOP
04ce74: 20               NOP
04ce75: 20               NOP
04ce76: 20               NOP
04ce77: 20               NOP
04ce78: 20               NOP
04ce79: 20               NOP
04ce7a: 20               NOP
04ce7b: 20               NOP
04ce7c: 20               NOP
04ce7d: 20               NOP
04ce7e: 20               NOP
04ce7f: 20               NOP
04ce80: 20               NOP
04ce81: 20               NOP
04ce82: 20               NOP
04ce83: 20               NOP
04ce84: 20               NOP
04ce85: 20               NOP
04ce86: 20               NOP
04ce87: 20               NOP
04ce88: 20               NOP
04ce89: 20               NOP
04ce8a: 20               NOP
04ce8b: 20               NOP
04ce8c: 20               NOP
04ce8d: 20               NOP
04ce8e: 20               NOP
04ce8f: 20               NOP
04ce90: 20               NOP
04ce91: 20               NOP
04ce92: 20               NOP
04ce93: 20               NOP
04ce94: 20               NOP
04ce95: 20               NOP
04ce96: 20               NOP
04ce97: 20               NOP
04ce98: 20               NOP
04ce99: 20               NOP
04ce9a: 20               NOP
04ce9b: 20               NOP
04ce9c: 20               NOP
04ce9d: 20               NOP
04ce9e: 20               NOP
04ce9f: 20               NOP
04cea0: 20               NOP
04cea1: 20               NOP
04cea2: 20               NOP
04cea3: 20               NOP
04cea4: 20               NOP
04cea5: 20               NOP
04cea6: 20               NOP
04cea7: 20               NOP
04cea8: 20               NOP
04cea9: 20               NOP
04ceaa: 20               NOP
04ceab: 20               NOP
04ceac: 20               NOP
04cead: 20               NOP
04ceae: 20               NOP
04ceaf: 20               NOP
04ceb0: 20               NOP
04ceb1: 20               NOP
04ceb2: 20               NOP
04ceb3: 20               NOP
04ceb4: 20               NOP
04ceb5: 20               NOP
04ceb6: 20               NOP
04ceb7: 20               NOP
04ceb8: 20               NOP
04ceb9: 20               NOP
04ceba: 20               NOP
04cebb: 20               NOP
04cebc: 20               NOP
04cebd: 20               NOP
04cebe: 20               NOP
04cebf: 20               NOP
04cec0: 20               NOP
04cec1: 20               NOP
04cec2: 20               NOP
04cec3: 20               NOP
04cec4: 20               NOP
04cec5: 20               NOP
04cec6: 20               NOP
04cec7: 20               NOP
04cec8: 20               NOP
04cec9: 20               NOP
04ceca: 20               NOP
04cecb: 20               NOP
04cecc: 20               NOP
04cecd: 20               NOP
04cece: 20               NOP
04cecf: 20               NOP
04ced0: 20               NOP
04ced1: 20               NOP
04ced2: 20               NOP
04ced3: 20               NOP
04ced4: 20               NOP
04ced5: 20               NOP
04ced6: 20               NOP
04ced7: 20               NOP
04ced8: 20               NOP
04ced9: 20               NOP
04ceda: 20               NOP
04cedb: 20               NOP
04cedc: 20               NOP
04cedd: 20               NOP
04cede: 20               NOP
04cedf: 20               NOP
04cee0: 20               NOP
04cee1: 20               NOP
04cee2: 20               NOP
04cee3: 20               NOP
04cee4: 20               NOP
04cee5: 20               NOP
04cee6: 20               NOP
04cee7: 20               NOP
04cee8: 20               NOP
04cee9: 20               NOP
04ceea: 20               NOP
04ceeb: 20               NOP
04ceec: 20               NOP
04ceed: 20               NOP
04ceee: 20               NOP
04ceef: 20               NOP
04cef0: 20               NOP
04cef1: 20               NOP
04cef2: 20               NOP
04cef3: 20               NOP
04cef4: 20               NOP
04cef5: 20               NOP
04cef6: 20               NOP
04cef7: 20               NOP
04cef8: 20               NOP
04cef9: 20               NOP
04cefa: 20               NOP
04cefb: 20               NOP
04cefc: 20               NOP
04cefd: 20               NOP
04cefe: 20               NOP
04ceff: 20               NOP
04cf00: 20               NOP
04cf01: 20               NOP
04cf02: 20               NOP
04cf03: 20               NOP
04cf04: 20               NOP
04cf05: 20               NOP
04cf06: 20               NOP
04cf07: 20               NOP
04cf08: 20               NOP
04cf09: 20               NOP
04cf0a: 20               NOP
04cf0b: 20               NOP
04cf0c: 20               NOP
04cf0d: 20               NOP
04cf0e: 20               NOP
04cf0f: 20               NOP
04cf10: 20               NOP
04cf11: 20               NOP
04cf12: 20               NOP
04cf13: 20               NOP
04cf14: 20               NOP
04cf15: 20               NOP
04cf16: 20               NOP
04cf17: 20               NOP
04cf18: 20               NOP
04cf19: 20               NOP
04cf1a: 20               NOP
04cf1b: 20               NOP
04cf1c: 20               NOP
04cf1d: 20               NOP
04cf1e: 20               NOP
04cf1f: 20               NOP
04cf20: 20               NOP
04cf21: 20               NOP
04cf22: 20               NOP
04cf23: 20               NOP
04cf24: 20               NOP
04cf25: 20               NOP
04cf26: 20               NOP
04cf27: 20               NOP
04cf28: 20               NOP
04cf29: 20               NOP
04cf2a: 20               NOP
04cf2b: 20               NOP
04cf2c: 20               NOP
04cf2d: 20               NOP
04cf2e: 20               NOP
04cf2f: 20               NOP
04cf30: 20               NOP
04cf31: 20               NOP
04cf32: 20               NOP
04cf33: 20               NOP
04cf34: 20               NOP
04cf35: 20               NOP
04cf36: 20               NOP
04cf37: 20               NOP
04cf38: 20               NOP
04cf39: 20               NOP
04cf3a: 20               NOP
04cf3b: 20               NOP
04cf3c: 20               NOP
04cf3d: 20               NOP
04cf3e: 20               NOP
04cf3f: 20               NOP
04cf40: 20               NOP
04cf41: 20               NOP
04cf42: 20               NOP
04cf43: 20               NOP
04cf44: 20               NOP
04cf45: 20               NOP
04cf46: 20               NOP
04cf47: 20               NOP
04cf48: 20               NOP
04cf49: 20               NOP
04cf4a: 20               NOP
04cf4b: 20               NOP
04cf4c: 20               NOP
04cf4d: 20               NOP
04cf4e: 20               NOP
04cf4f: 20               NOP
04cf50: 20               NOP
04cf51: 20               NOP
04cf52: 20               NOP
04cf53: 20               NOP
04cf54: 20               NOP
04cf55: 20               NOP
04cf56: 20               NOP
04cf57: 20               NOP
04cf58: 20               NOP
04cf59: 20               NOP
04cf5a: 20               NOP
04cf5b: 20               NOP
04cf5c: 20               NOP
04cf5d: 20               NOP
04cf5e: 20               NOP
04cf5f: 20               NOP
04cf60: 20               NOP
04cf61: 20               NOP
04cf62: 20               NOP
04cf63: 20               NOP
04cf64: 20               NOP
04cf65: 20               NOP
04cf66: 20               NOP
04cf67: 20               NOP
04cf68: 20               NOP
04cf69: 20               NOP
04cf6a: 20               NOP
04cf6b: 20               NOP
04cf6c: 20               NOP
04cf6d: 20               NOP
04cf6e: 20               NOP
04cf6f: 20               NOP
04cf70: 20               NOP
04cf71: 20               NOP
04cf72: 20               NOP
04cf73: 20               NOP
04cf74: 20               NOP
04cf75: 20               NOP
04cf76: 20               NOP
04cf77: 20               NOP
04cf78: 20               NOP
04cf79: 20               NOP
04cf7a: 20               NOP
04cf7b: 20               NOP
04cf7c: 20               NOP
04cf7d: 20               NOP
04cf7e: 20               NOP
04cf7f: 20               NOP
04cf80: 20               NOP
04cf81: 20               NOP
04cf82: 20               NOP
04cf83: 20               NOP
04cf84: 20               NOP
04cf85: 20               NOP
04cf86: 20               NOP
04cf87: 20               NOP
04cf88: 20               NOP
04cf89: 20               NOP
04cf8a: 20               NOP
04cf8b: 20               NOP
04cf8c: 20               NOP
04cf8d: 20               NOP
04cf8e: 20               NOP
04cf8f: 20               NOP
04cf90: 20               NOP
04cf91: 20               NOP
04cf92: 20               NOP
04cf93: 20               NOP
04cf94: 20               NOP
04cf95: 20               NOP
04cf96: 20               NOP
04cf97: 20               NOP
04cf98: 20               NOP
04cf99: 20               NOP
04cf9a: 20               NOP
04cf9b: 20               NOP
04cf9c: 20               NOP
04cf9d: 20               NOP
04cf9e: 20               NOP
04cf9f: 20               NOP
04cfa0: 20               NOP
04cfa1: 20               NOP
04cfa2: 20               NOP
04cfa3: 20               NOP
04cfa4: 20               NOP
04cfa5: 20               NOP
04cfa6: 20               NOP
04cfa7: 20               NOP
04cfa8: 20               NOP
04cfa9: 20               NOP
04cfaa: 20               NOP
04cfab: 20               NOP
04cfac: 20               NOP
04cfad: 20               NOP
04cfae: 20               NOP
04cfaf: 20               NOP
04cfb0: 20               NOP
04cfb1: 20               NOP
04cfb2: 20               NOP
04cfb3: 20               NOP
04cfb4: 20               NOP
04cfb5: 20               NOP
04cfb6: 20               NOP
04cfb7: 20               NOP
04cfb8: 20               NOP
04cfb9: 20               NOP
04cfba: 20               NOP
04cfbb: 20               NOP
04cfbc: 20               NOP
04cfbd: 20               NOP
04cfbe: 20               NOP
04cfbf: 20               NOP
04cfc0: 20               NOP
04cfc1: 20               NOP
04cfc2: 20               NOP
04cfc3: 20               NOP
04cfc4: 20               NOP
04cfc5: 20               NOP
04cfc6: 20               NOP
04cfc7: 20               NOP
04cfc8: 20               NOP
04cfc9: 20               NOP
04cfca: 20               NOP
04cfcb: 20               NOP
04cfcc: 20               NOP
04cfcd: 20               NOP
04cfce: 20               NOP
04cfcf: 20               NOP
04cfd0: 20               NOP
04cfd1: 20               NOP
04cfd2: 20               NOP
04cfd3: 20               NOP
04cfd4: 20               NOP
04cfd5: 20               NOP
04cfd6: 20               NOP
04cfd7: 20               NOP
04cfd8: 20               NOP
04cfd9: 20               NOP
04cfda: 20               NOP
04cfdb: 20               NOP
04cfdc: 20               NOP
04cfdd: 20               NOP
04cfde: 20               NOP
04cfdf: 20               NOP
04cfe0: 20               NOP
04cfe1: 20               NOP
04cfe2: 20               NOP
04cfe3: 20               NOP
04cfe4: 20               NOP
04cfe5: 20               NOP
04cfe6: 20               NOP
04cfe7: 20               NOP
04cfe8: 20               NOP
04cfe9: 20               NOP
04cfea: 20               NOP
04cfeb: 20               NOP
04cfec: 20               NOP
04cfed: 20               NOP
04cfee: 20               NOP
04cfef: 20               NOP
04cff0: 20               NOP
04cff1: 20               NOP
04cff2: 20               NOP
04cff3: 20               NOP
04cff4: 20               NOP
04cff5: 20               NOP
04cff6: 20               NOP
04cff7: 20               NOP
04cff8: 20               NOP
04cff9: 20               NOP
04cffa: 20               NOP
04cffb: 20               NOP
04cffc: 20               NOP
04cffd: 20               NOP
04cffe: 20               NOP
04cfff: 20               NOP
04d000: 20               NOP
04d001: 20               NOP
04d002: 20               NOP
04d003: 20               NOP
04d004: 20               NOP
04d005: 20               NOP
04d006: 20               NOP
04d007: 20               NOP
04d008: 20               NOP
04d009: 20               NOP
04d00a: 20               NOP
04d00b: 20               NOP
04d00c: 20               NOP
04d00d: 20               NOP
04d00e: 20               NOP
04d00f: 20               NOP
04d010: 20               NOP
04d011: 20               NOP
04d012: 20               NOP
04d013: 20               NOP
04d014: 20               NOP
04d015: 20               NOP
04d016: 20               NOP
04d017: 20               NOP
04d018: 20               NOP
04d019: 20               NOP
04d01a: 20               NOP
04d01b: 20               NOP
04d01c: 20               NOP
04d01d: 20               NOP
04d01e: 20               NOP
04d01f: 20               NOP
04d020: 20               NOP
04d021: 20               NOP
04d022: 20               NOP
04d023: 20               NOP
04d024: 20               NOP
04d025: 20               NOP
04d026: 20               NOP
04d027: 20               NOP
04d028: 20               NOP
04d029: 20               NOP
04d02a: 20               NOP
04d02b: 20               NOP
04d02c: 20               NOP
04d02d: 20               NOP
04d02e: 20               NOP
04d02f: 20               NOP
04d030: 20               NOP
04d031: 20               NOP
04d032: 20               NOP
04d033: 20               NOP
04d034: 20               NOP
04d035: 20               NOP
04d036: 20               NOP
04d037: 20               NOP
04d038: 20               NOP
04d039: 20               NOP
04d03a: 20               NOP
04d03b: 20               NOP
04d03c: 20               NOP
04d03d: 20               NOP
04d03e: 20               NOP
04d03f: 20               NOP
04d040: 20               NOP
04d041: 20               NOP
04d042: 20               NOP
04d043: 20               NOP
04d044: 20               NOP
04d045: 20               NOP
04d046: 20               NOP
04d047: 20               NOP
04d048: 20               NOP
04d049: 20               NOP
04d04a: 20               NOP
04d04b: 20               NOP
04d04c: 20               NOP
04d04d: 20               NOP
04d04e: 20               NOP
04d04f: 20               NOP
04d050: 20               NOP
04d051: 20               NOP
04d052: 20               NOP
04d053: 20               NOP
04d054: 20               NOP
04d055: 20               NOP
04d056: 20               NOP
04d057: 20               NOP
04d058: 20               NOP
04d059: 20               NOP
04d05a: 20               NOP
04d05b: 20               NOP
04d05c: 20               NOP
04d05d: 20               NOP
04d05e: 20               NOP
04d05f: 20               NOP
04d060: 20               NOP
04d061: 20               NOP
04d062: 20               NOP
04d063: 20               NOP
04d064: 20               NOP
04d065: 20               NOP
04d066: 20               NOP
04d067: 20               NOP
04d068: 20               NOP
04d069: 20               NOP
04d06a: 20               NOP
04d06b: 20               NOP
04d06c: 20               NOP
04d06d: 20               NOP
04d06e: 20               NOP
04d06f: 20               NOP
04d070: 20               NOP
04d071: 20               NOP
04d072: 20               NOP
04d073: 20               NOP
04d074: 20               NOP
04d075: 20               NOP
04d076: 20               NOP
04d077: 20               NOP
04d078: 20               NOP
04d079: 20               NOP
04d07a: 20               NOP
04d07b: 20               NOP
04d07c: 20               NOP
04d07d: 20               NOP
04d07e: 20               NOP
04d07f: 20               NOP
04d080: 20               NOP
04d081: 20               NOP
04d082: 20               NOP
04d083: 20               NOP
04d084: 20               NOP
04d085: 20               NOP
04d086: 20               NOP
04d087: 20               NOP
04d088: 20               NOP
04d089: 20               NOP
04d08a: 20               NOP
04d08b: 20               NOP
04d08c: 20               NOP
04d08d: 20               NOP
04d08e: 20               NOP
04d08f: 20               NOP
04d090: 20               NOP
04d091: 20               NOP
04d092: 20               NOP
04d093: 20               NOP
04d094: 20               NOP
04d095: 20               NOP
04d096: 20               NOP
04d097: 20               NOP
04d098: 20               NOP
04d099: 20               NOP
04d09a: 20               NOP
04d09b: 20               NOP
04d09c: 20               NOP
04d09d: 20               NOP
04d09e: 20               NOP
04d09f: 20               NOP
04d0a0: 20               NOP
04d0a1: 20               NOP
04d0a2: 20               NOP
04d0a3: 20               NOP
04d0a4: 20               NOP
04d0a5: 20               NOP
04d0a6: 20               NOP
04d0a7: 20               NOP
04d0a8: 20               NOP
04d0a9: 20               NOP
04d0aa: 20               NOP
04d0ab: 20               NOP
04d0ac: 20               NOP
04d0ad: 20               NOP
04d0ae: 20               NOP
04d0af: 20               NOP
04d0b0: 20               NOP
04d0b1: 20               NOP
04d0b2: 20               NOP
04d0b3: 20               NOP
04d0b4: 20               NOP
04d0b5: 20               NOP
04d0b6: 20               NOP
04d0b7: 20               NOP
04d0b8: 20               NOP
04d0b9: 20               NOP
04d0ba: 20               NOP
04d0bb: 20               NOP
04d0bc: 20               NOP
04d0bd: 20               NOP
04d0be: 20               NOP
04d0bf: 20               NOP
04d0c0: 20               NOP
04d0c1: 20               NOP
04d0c2: 20               NOP
04d0c3: 20               NOP
04d0c4: 20               NOP
04d0c5: 20               NOP
04d0c6: 20               NOP
04d0c7: 20               NOP
04d0c8: 20               NOP
04d0c9: 20               NOP
04d0ca: 20               NOP
04d0cb: 20               NOP
04d0cc: 20               NOP
04d0cd: 20               NOP
04d0ce: 20               NOP
04d0cf: 20               NOP
04d0d0: 20               NOP
04d0d1: 20               NOP
04d0d2: 20               NOP
04d0d3: 20               NOP
04d0d4: 20               NOP
04d0d5: 20               NOP
04d0d6: 20               NOP
04d0d7: 20               NOP
04d0d8: 20               NOP
04d0d9: 20               NOP
04d0da: 20               NOP
04d0db: 20               NOP
04d0dc: 20               NOP
04d0dd: 20               NOP
04d0de: 20               NOP
04d0df: 20               NOP
04d0e0: 20               NOP
04d0e1: 20               NOP
04d0e2: 20               NOP
04d0e3: 20               NOP
04d0e4: 20               NOP
04d0e5: 20               NOP
04d0e6: 20               NOP
04d0e7: 20               NOP
04d0e8: 20               NOP
04d0e9: 20               NOP
04d0ea: 20               NOP
04d0eb: 20               NOP
04d0ec: 20               NOP
04d0ed: 20               NOP
04d0ee: 20               NOP
04d0ef: 20               NOP
04d0f0: 20               NOP
04d0f1: 20               NOP
04d0f2: 20               NOP
04d0f3: 20               NOP
04d0f4: 20               NOP
04d0f5: 20               NOP
04d0f6: 20               NOP
04d0f7: 20               NOP
04d0f8: 20               NOP
04d0f9: 20               NOP
04d0fa: 20               NOP
04d0fb: 20               NOP
04d0fc: 20               NOP
04d0fd: 20               NOP
04d0fe: 20               NOP
04d0ff: 20               NOP
04d100: 20               NOP
04d101: 20               NOP
04d102: 20               NOP
04d103: 20               NOP
04d104: 20               NOP
04d105: 20               NOP
04d106: 20               NOP
04d107: 20               NOP
04d108: 20               NOP
04d109: 20               NOP
04d10a: 20               NOP
04d10b: 20               NOP
04d10c: 20               NOP
04d10d: 20               NOP
04d10e: 20               NOP
04d10f: 20               NOP
04d110: 20               NOP
04d111: 20               NOP
04d112: 20               NOP
04d113: 20               NOP
04d114: 20               NOP
04d115: 20               NOP
04d116: 20               NOP
04d117: 20               NOP
04d118: 20               NOP
04d119: 20               NOP
04d11a: 20               NOP
04d11b: 20               NOP
04d11c: 20               NOP
04d11d: 20               NOP
04d11e: 20               NOP
04d11f: 20               NOP
04d120: 20               NOP
04d121: 20               NOP
04d122: 20               NOP
04d123: 20               NOP
04d124: 20               NOP
04d125: 20               NOP
04d126: 20               NOP
04d127: 20               NOP
04d128: 20               NOP
04d129: 20               NOP
04d12a: 20               NOP
04d12b: 20               NOP
04d12c: 20               NOP
04d12d: 20               NOP
04d12e: 20               NOP
04d12f: 20               NOP
04d130: 20               NOP
04d131: 20               NOP
04d132: 20               NOP
04d133: 20               NOP
04d134: 20               NOP
04d135: 20               NOP
04d136: 20               NOP
04d137: 20               NOP
04d138: 20               NOP
04d139: 20               NOP
04d13a: 20               NOP
04d13b: 20               NOP
04d13c: 20               NOP
04d13d: 20               NOP
04d13e: 20               NOP
04d13f: 20               NOP
04d140: 20               NOP
04d141: 20               NOP
04d142: 20               NOP
04d143: 20               NOP
04d144: 20               NOP
04d145: 20               NOP
04d146: 20               NOP
04d147: 20               NOP
04d148: 20               NOP
04d149: 20               NOP
04d14a: 20               NOP
04d14b: 20               NOP
04d14c: 20               NOP
04d14d: 20               NOP
04d14e: 20               NOP
04d14f: 20               NOP
04d150: 20               NOP
04d151: 20               NOP
04d152: 20               NOP
04d153: 20               NOP
04d154: 20               NOP
04d155: 20               NOP
04d156: 20               NOP
04d157: 20               NOP
04d158: 20               NOP
04d159: 20               NOP
04d15a: 20               NOP
04d15b: 20               NOP
04d15c: 20               NOP
04d15d: 20               NOP
04d15e: 20               NOP
04d15f: 20               NOP
04d160: 20               NOP
04d161: 20               NOP
04d162: 20               NOP
04d163: 20               NOP
04d164: 20               NOP
04d165: 20               NOP
04d166: 20               NOP
04d167: 20               NOP
04d168: 20               NOP
04d169: 20               NOP
04d16a: 20               NOP
04d16b: 20               NOP
04d16c: 20               NOP
04d16d: 20               NOP
04d16e: 20               NOP
04d16f: 20               NOP
04d170: 20               NOP
04d171: 20               NOP
04d172: 20               NOP
04d173: 20               NOP
04d174: 20               NOP
04d175: 20               NOP
04d176: 20               NOP
04d177: 20               NOP
04d178: 20               NOP
04d179: 20               NOP
04d17a: 20               NOP
04d17b: 20               NOP
04d17c: 20               NOP
04d17d: 20               NOP
04d17e: 20               NOP
04d17f: 20               NOP
04d180: 20               NOP
04d181: 20               NOP
04d182: 20               NOP
04d183: 20               NOP
04d184: 20               NOP
04d185: 20               NOP
04d186: 20               NOP
04d187: 20               NOP
04d188: 20               NOP
04d189: 20               NOP
04d18a: 20               NOP
04d18b: 20               NOP
04d18c: 20               NOP
04d18d: 20               NOP
04d18e: 20               NOP
04d18f: 20               NOP
04d190: 20               NOP
04d191: 20               NOP
04d192: 20               NOP
04d193: 20               NOP
04d194: 20               NOP
04d195: 20               NOP
04d196: 20               NOP
04d197: 20               NOP
04d198: 20               NOP
04d199: 20               NOP
04d19a: 20               NOP
04d19b: 20               NOP
04d19c: 20               NOP
04d19d: 20               NOP
04d19e: 20               NOP
04d19f: 20               NOP
04d1a0: 20               NOP
04d1a1: 20               NOP
04d1a2: 20               NOP
04d1a3: 20               NOP
04d1a4: 20               NOP
04d1a5: 20               NOP
04d1a6: 20               NOP
04d1a7: 20               NOP
04d1a8: 20               NOP
04d1a9: 20               NOP
04d1aa: 20               NOP
04d1ab: 20               NOP
04d1ac: 20               NOP
04d1ad: 20               NOP
04d1ae: 20               NOP
04d1af: 20               NOP
04d1b0: 20               NOP
04d1b1: 20               NOP
04d1b2: 20               NOP
04d1b3: 20               NOP
04d1b4: 20               NOP
04d1b5: 20               NOP
04d1b6: 20               NOP
04d1b7: 20               NOP
04d1b8: 20               NOP
04d1b9: 20               NOP
04d1ba: 20               NOP
04d1bb: 20               NOP
04d1bc: 20               NOP
04d1bd: 20               NOP
04d1be: 20               NOP
04d1bf: 20               NOP
04d1c0: 20               NOP
04d1c1: 20               NOP
04d1c2: 20               NOP
04d1c3: 20               NOP
04d1c4: 20               NOP
04d1c5: 20               NOP
04d1c6: 20               NOP
04d1c7: 20               NOP
04d1c8: 20               NOP
04d1c9: 20               NOP
04d1ca: 20               NOP
04d1cb: 20               NOP
04d1cc: 20               NOP
04d1cd: 20               NOP
04d1ce: 20               NOP
04d1cf: 20               NOP
04d1d0: 20               NOP
04d1d1: 20               NOP
04d1d2: 20               NOP
04d1d3: 20               NOP
04d1d4: 20               NOP
04d1d5: 20               NOP
04d1d6: 20               NOP
04d1d7: 20               NOP
04d1d8: 20               NOP
04d1d9: 20               NOP
04d1da: 20               NOP
04d1db: 20               NOP
04d1dc: 20               NOP
04d1dd: 20               NOP
04d1de: 20               NOP
04d1df: 20               NOP
04d1e0: 20               NOP
04d1e1: 20               NOP
04d1e2: 20               NOP
04d1e3: 20               NOP
04d1e4: 20               NOP
04d1e5: 20               NOP
04d1e6: 20               NOP
04d1e7: 20               NOP
04d1e8: 20               NOP
04d1e9: 20               NOP
04d1ea: 20               NOP
04d1eb: 20               NOP
04d1ec: 20               NOP
04d1ed: 20               NOP
04d1ee: 20               NOP
04d1ef: 20               NOP
04d1f0: 20               NOP
04d1f1: 20               NOP
04d1f2: 20               NOP
04d1f3: 20               NOP
04d1f4: 20               NOP
04d1f5: 20               NOP
04d1f6: 20               NOP
04d1f7: 20               NOP
04d1f8: 20               NOP
04d1f9: 20               NOP
04d1fa: 20               NOP
04d1fb: 20               NOP
04d1fc: 20               NOP
04d1fd: 20               NOP
04d1fe: 20               NOP
04d1ff: 20               NOP
04d200: 20               NOP
04d201: 20               NOP
04d202: 20               NOP
04d203: 20               NOP
04d204: 20               NOP
04d205: 20               NOP
04d206: 20               NOP
04d207: 20               NOP
04d208: 20               NOP
04d209: 20               NOP
04d20a: 20               NOP
04d20b: 20               NOP
04d20c: 20               NOP
04d20d: 20               NOP
04d20e: 20               NOP
04d20f: 20               NOP
04d210: 20               NOP
04d211: 20               NOP
04d212: 20               NOP
04d213: 20               NOP
04d214: 20               NOP
04d215: 20               NOP
04d216: 20               NOP
04d217: 20               NOP
04d218: 20               NOP
04d219: 20               NOP
04d21a: 20               NOP
04d21b: 20               NOP
04d21c: 20               NOP
04d21d: 20               NOP
04d21e: 20               NOP
04d21f: 20               NOP
04d220: 20               NOP
04d221: 20               NOP
04d222: 20               NOP
04d223: 20               NOP
04d224: 20               NOP
04d225: 20               NOP
04d226: 20               NOP
04d227: 20               NOP
04d228: 20               NOP
04d229: 20               NOP
04d22a: 20               NOP
04d22b: 20               NOP
04d22c: 20               NOP
04d22d: 20               NOP
04d22e: 20               NOP
04d22f: 20               NOP
04d230: 20               NOP
04d231: 20               NOP
04d232: 20               NOP
04d233: 20               NOP
04d234: 20               NOP
04d235: 20               NOP
04d236: 20               NOP
04d237: 20               NOP
04d238: 20               NOP
04d239: 20               NOP
04d23a: 20               NOP
04d23b: 20               NOP
04d23c: 20               NOP
04d23d: 20               NOP
04d23e: 20               NOP
04d23f: 20               NOP
04d240: 20               NOP
04d241: 20               NOP
04d242: 20               NOP
04d243: 20               NOP
04d244: 20               NOP
04d245: 20               NOP
04d246: 20               NOP
04d247: 20               NOP
04d248: 20               NOP
04d249: 20               NOP
04d24a: 20               NOP
04d24b: 20               NOP
04d24c: 20               NOP
04d24d: 20               NOP
04d24e: 20               NOP
04d24f: 20               NOP
04d250: 20               NOP
04d251: 20               NOP
04d252: 20               NOP
04d253: 20               NOP
04d254: 20               NOP
04d255: 20               NOP
04d256: 20               NOP
04d257: 20               NOP
04d258: 20               NOP
04d259: 20               NOP
04d25a: 20               NOP
04d25b: 20               NOP
04d25c: 20               NOP
04d25d: 20               NOP
04d25e: 20               NOP
04d25f: 20               NOP
04d260: 20               NOP
04d261: 20               NOP
04d262: 20               NOP
04d263: 20               NOP
04d264: 20               NOP
04d265: 20               NOP
04d266: 20               NOP
04d267: 20               NOP
04d268: 20               NOP
04d269: 20               NOP
04d26a: 20               NOP
04d26b: 20               NOP
04d26c: 20               NOP
04d26d: 20               NOP
04d26e: 20               NOP
04d26f: 20               NOP
04d270: 20               NOP
04d271: 20               NOP
04d272: 20               NOP
04d273: 20               NOP
04d274: 20               NOP
04d275: 20               NOP
04d276: 20               NOP
04d277: 20               NOP
04d278: 20               NOP
04d279: 20               NOP
04d27a: 20               NOP
04d27b: 20               NOP
04d27c: 20               NOP
04d27d: 20               NOP
04d27e: 20               NOP
04d27f: 20               NOP
04d280: 20               NOP
04d281: 20               NOP
04d282: 20               NOP
04d283: 20               NOP
04d284: 20               NOP
04d285: 20               NOP
04d286: 20               NOP
04d287: 20               NOP
04d288: 20               NOP
04d289: 20               NOP
04d28a: 20               NOP
04d28b: 20               NOP
04d28c: 20               NOP
04d28d: 20               NOP
04d28e: 20               NOP
04d28f: 20               NOP
04d290: 20               NOP
04d291: 20               NOP
04d292: 20               NOP
04d293: 20               NOP
04d294: 20               NOP
04d295: 20               NOP
04d296: 20               NOP
04d297: 20               NOP
04d298: 20               NOP
04d299: 20               NOP
04d29a: 20               NOP
04d29b: 20               NOP
04d29c: 20               NOP
04d29d: 20               NOP
04d29e: 20               NOP
04d29f: 20               NOP
04d2a0: 20               NOP
04d2a1: 20               NOP
04d2a2: 20               NOP
04d2a3: 20               NOP
04d2a4: 20               NOP
04d2a5: 20               NOP
04d2a6: 20               NOP
04d2a7: 20               NOP
04d2a8: 20               NOP
04d2a9: 20               NOP
04d2aa: 20               NOP
04d2ab: 20               NOP
04d2ac: 20               NOP
04d2ad: 20               NOP
04d2ae: 20               NOP
04d2af: 20               NOP
04d2b0: 20               NOP
04d2b1: 20               NOP
04d2b2: 20               NOP
04d2b3: 20               NOP
04d2b4: 20               NOP
04d2b5: 20               NOP
04d2b6: 20               NOP
04d2b7: 20               NOP
04d2b8: 20               NOP
04d2b9: 20               NOP
04d2ba: 20               NOP
04d2bb: 20               NOP
04d2bc: 20               NOP
04d2bd: 20               NOP
04d2be: 20               NOP
04d2bf: 20               NOP
04d2c0: 20               NOP
04d2c1: 20               NOP
04d2c2: 20               NOP
04d2c3: 20               NOP
04d2c4: 20               NOP
04d2c5: 20               NOP
04d2c6: 20               NOP
04d2c7: 20               NOP
04d2c8: 20               NOP
04d2c9: 20               NOP
04d2ca: 20               NOP
04d2cb: 20               NOP
04d2cc: 20               NOP
04d2cd: 20               NOP
04d2ce: 20               NOP
04d2cf: 20               NOP
04d2d0: 20               NOP
04d2d1: 20               NOP
04d2d2: 20               NOP
04d2d3: 20               NOP
04d2d4: 20               NOP
04d2d5: 20               NOP
04d2d6: 20               NOP
04d2d7: 20               NOP
04d2d8: 20               NOP
04d2d9: 20               NOP
04d2da: 20               NOP
04d2db: 20               NOP
04d2dc: 20               NOP
04d2dd: 20               NOP
04d2de: 20               NOP
04d2df: 20               NOP
04d2e0: 20               NOP
04d2e1: 20               NOP
04d2e2: 20               NOP
04d2e3: 20               NOP
04d2e4: 20               NOP
04d2e5: 20               NOP
04d2e6: 20               NOP
04d2e7: 20               NOP
04d2e8: 20               NOP
04d2e9: 20               NOP
04d2ea: 20               NOP
04d2eb: 20               NOP
04d2ec: 20               NOP
04d2ed: 20               NOP
04d2ee: 20               NOP
04d2ef: 20               NOP
04d2f0: 20               NOP
04d2f1: 20               NOP
04d2f2: 20               NOP
04d2f3: 20               NOP
04d2f4: 20               NOP
04d2f5: 20               NOP
04d2f6: 20               NOP
04d2f7: 20               NOP
04d2f8: 20               NOP
04d2f9: 20               NOP
04d2fa: 20               NOP
04d2fb: 20               NOP
04d2fc: 20               NOP
04d2fd: 20               NOP
04d2fe: 20               NOP
04d2ff: 20               NOP
04d300: 20               NOP
04d301: 20               NOP
04d302: 20               NOP
04d303: 20               NOP
04d304: 20               NOP
04d305: 20               NOP
04d306: 20               NOP
04d307: 20               NOP
04d308: 20               NOP
04d309: 20               NOP
04d30a: 20               NOP
04d30b: 20               NOP
04d30c: 20               NOP
04d30d: 20               NOP
04d30e: 20               NOP
04d30f: 20               NOP
04d310: 20               NOP
04d311: 20               NOP
04d312: 20               NOP
04d313: 20               NOP
04d314: 20               NOP
04d315: 20               NOP
04d316: 20               NOP
04d317: 20               NOP
04d318: 20               NOP
04d319: 20               NOP
04d31a: 20               NOP
04d31b: 20               NOP
04d31c: 20               NOP
04d31d: 20               NOP
04d31e: 20               NOP
04d31f: 20               NOP
04d320: 20               NOP
04d321: 20               NOP
04d322: 20               NOP
04d323: 20               NOP
04d324: 20               NOP
04d325: 20               NOP
04d326: 20               NOP
04d327: 20               NOP
04d328: 20               NOP
04d329: 20               NOP
04d32a: 20               NOP
04d32b: 20               NOP
04d32c: 20               NOP
04d32d: 20               NOP
04d32e: 20               NOP
04d32f: 20               NOP
04d330: 20               NOP
04d331: 20               NOP
04d332: 20               NOP
04d333: 20               NOP
04d334: 20               NOP
04d335: 20               NOP
04d336: 20               NOP
04d337: 20               NOP
04d338: 20               NOP
04d339: 20               NOP
04d33a: 20               NOP
04d33b: 20               NOP
04d33c: 20               NOP
04d33d: 20               NOP
04d33e: 20               NOP
04d33f: 20               NOP
04d340: 20               NOP
04d341: 20               NOP
04d342: 20               NOP
04d343: 20               NOP
04d344: 20               NOP
04d345: 20               NOP
04d346: 20               NOP
04d347: 20               NOP
04d348: 20               NOP
04d349: 20               NOP
04d34a: 20               NOP
04d34b: 20               NOP
04d34c: 20               NOP
04d34d: 20               NOP
04d34e: 20               NOP
04d34f: 20               NOP
04d350: 20               NOP
04d351: 20               NOP
04d352: 20               NOP
04d353: 20               NOP
04d354: 20               NOP
04d355: 20               NOP
04d356: 20               NOP
04d357: 20               NOP
04d358: 20               NOP
04d359: 20               NOP
04d35a: 20               NOP
04d35b: 20               NOP
04d35c: 20               NOP
04d35d: 20               NOP
04d35e: 20               NOP
04d35f: 20               NOP
04d360: 20               NOP
04d361: 20               NOP
04d362: 20               NOP
04d363: 20               NOP
04d364: 20               NOP
04d365: 20               NOP
04d366: 20               NOP
04d367: 20               NOP
04d368: 20               NOP
04d369: 20               NOP
04d36a: 20               NOP
04d36b: 20               NOP
04d36c: 20               NOP
04d36d: 20               NOP
04d36e: 20               NOP
04d36f: 20               NOP
04d370: 20               NOP
04d371: 20               NOP
04d372: 20               NOP
04d373: 20               NOP
04d374: 20               NOP
04d375: 20               NOP
04d376: 20               NOP
04d377: 20               NOP
04d378: 20               NOP
04d379: 20               NOP
04d37a: 20               NOP
04d37b: 20               NOP
04d37c: 20               NOP
04d37d: 20               NOP
04d37e: 20               NOP
04d37f: 20               NOP
04d380: 20               NOP
04d381: 20               NOP
04d382: 20               NOP
04d383: 20               NOP
04d384: 20               NOP
04d385: 20               NOP
04d386: 20               NOP
04d387: 20               NOP
04d388: 20               NOP
04d389: 20               NOP
04d38a: 20               NOP
04d38b: 20               NOP
04d38c: 20               NOP
04d38d: 20               NOP
04d38e: 20               NOP
04d38f: 20               NOP
04d390: 20               NOP
04d391: 20               NOP
04d392: 20               NOP
04d393: 20               NOP
04d394: 20               NOP
04d395: 20               NOP
04d396: 20               NOP
04d397: 20               NOP
04d398: 20               NOP
04d399: 20               NOP
04d39a: 20               NOP
04d39b: 20               NOP
04d39c: 20               NOP
04d39d: 20               NOP
04d39e: 20               NOP
04d39f: 20               NOP
04d3a0: 20               NOP
04d3a1: 20               NOP
04d3a2: 20               NOP
04d3a3: 20               NOP
04d3a4: 20               NOP
04d3a5: 20               NOP
04d3a6: 20               NOP
04d3a7: 20               NOP
04d3a8: 20               NOP
04d3a9: 20               NOP
04d3aa: 20               NOP
04d3ab: 20               NOP
04d3ac: 20               NOP
04d3ad: 20               NOP
04d3ae: 20               NOP
04d3af: 20               NOP
04d3b0: 20               NOP
04d3b1: 20               NOP
04d3b2: 20               NOP
04d3b3: 20               NOP
04d3b4: 20               NOP
04d3b5: 20               NOP
04d3b6: 20               NOP
04d3b7: 20               NOP
04d3b8: 20               NOP
04d3b9: 20               NOP
04d3ba: 20               NOP
04d3bb: 20               NOP
04d3bc: 20               NOP
04d3bd: 20               NOP
04d3be: 20               NOP
04d3bf: 20               NOP
04d3c0: 20               NOP
04d3c1: 20               NOP
04d3c2: 20               NOP
04d3c3: 20               NOP
04d3c4: 20               NOP
04d3c5: 20               NOP
04d3c6: 20               NOP
04d3c7: 20               NOP
04d3c8: 20               NOP
04d3c9: 20               NOP
04d3ca: 20               NOP
04d3cb: 20               NOP
04d3cc: 20               NOP
04d3cd: 20               NOP
04d3ce: 20               NOP
04d3cf: 20               NOP
04d3d0: 20               NOP
04d3d1: 20               NOP
04d3d2: 20               NOP
04d3d3: 20               NOP
04d3d4: 20               NOP
04d3d5: 20               NOP
04d3d6: 20               NOP
04d3d7: 20               NOP
04d3d8: 20               NOP
04d3d9: 20               NOP
04d3da: 20               NOP
04d3db: 20               NOP
04d3dc: 20               NOP
04d3dd: 20               NOP
04d3de: 20               NOP
04d3df: 20               NOP
04d3e0: 20               NOP
04d3e1: 20               NOP
04d3e2: 20               NOP
04d3e3: 20               NOP
04d3e4: 20               NOP
04d3e5: 20               NOP
04d3e6: 20               NOP
04d3e7: 20               NOP
04d3e8: 20               NOP
04d3e9: 20               NOP
04d3ea: 20               NOP
04d3eb: 20               NOP
04d3ec: 20               NOP
04d3ed: 20               NOP
04d3ee: 20               NOP
04d3ef: 20               NOP
04d3f0: 20               NOP
04d3f1: 20               NOP
04d3f2: 20               NOP
04d3f3: 20               NOP
04d3f4: 20               NOP
04d3f5: 20               NOP
04d3f6: 20               NOP
04d3f7: 20               NOP
04d3f8: 20               NOP
04d3f9: 20               NOP
04d3fa: 20               NOP
04d3fb: 20               NOP
04d3fc: 20               NOP
04d3fd: 20               NOP
04d3fe: 20               NOP
04d3ff: 20               NOP
04d400: 20               NOP
04d401: 20               NOP
04d402: 20               NOP
04d403: 20               NOP
04d404: 20               NOP
04d405: 20               NOP
04d406: 20               NOP
04d407: 20               NOP
04d408: 20               NOP
04d409: 20               NOP
04d40a: 20               NOP
04d40b: 20               NOP
04d40c: 20               NOP
04d40d: 20               NOP
04d40e: 20               NOP
04d40f: 20               NOP
04d410: 20               NOP
04d411: 20               NOP
04d412: 20               NOP
04d413: 20               NOP
04d414: 20               NOP
04d415: 20               NOP
04d416: 20               NOP
04d417: 20               NOP
04d418: 20               NOP
04d419: 20               NOP
04d41a: 20               NOP
04d41b: 20               NOP
04d41c: 20               NOP
04d41d: 20               NOP
04d41e: 20               NOP
04d41f: 20               NOP
04d420: 20               NOP
04d421: 20               NOP
04d422: 20               NOP
04d423: 20               NOP
04d424: 20               NOP
04d425: 20               NOP
04d426: 20               NOP
04d427: 20               NOP
04d428: 20               NOP
04d429: 20               NOP
04d42a: 20               NOP
04d42b: 20               NOP
04d42c: 20               NOP
04d42d: 20               NOP
04d42e: 20               NOP
04d42f: 20               NOP
04d430: 20               NOP
04d431: 20               NOP
04d432: 20               NOP
04d433: 20               NOP
04d434: 20               NOP
04d435: 20               NOP
04d436: 20               NOP
04d437: 20               NOP
04d438: 20               NOP
04d439: 20               NOP
04d43a: 20               NOP
04d43b: 20               NOP
04d43c: 20               NOP
04d43d: 20               NOP
04d43e: 20               NOP
04d43f: 20               NOP
04d440: 20               NOP
04d441: 20               NOP
04d442: 20               NOP
04d443: 20               NOP
04d444: 20               NOP
04d445: 20               NOP
04d446: 20               NOP
04d447: 20               NOP
04d448: 20               NOP
04d449: 20               NOP
04d44a: 20               NOP
04d44b: 20               NOP
04d44c: 20               NOP
04d44d: 20               NOP
04d44e: 20               NOP
04d44f: 20               NOP
04d450: 20               NOP
04d451: 20               NOP
04d452: 20               NOP
04d453: 20               NOP
04d454: 20               NOP
04d455: 20               NOP
04d456: 20               NOP
04d457: 20               NOP
04d458: 20               NOP
04d459: 20               NOP
04d45a: 20               NOP
04d45b: 20               NOP
04d45c: 20               NOP
04d45d: 20               NOP
04d45e: 20               NOP
04d45f: 20               NOP
04d460: 20               NOP
04d461: 20               NOP
04d462: 20               NOP
04d463: 20               NOP
04d464: 20               NOP
04d465: 20               NOP
04d466: 20               NOP
04d467: 20               NOP
04d468: 20               NOP
04d469: 20               NOP
04d46a: 20               NOP
04d46b: 20               NOP
04d46c: 20               NOP
04d46d: 20               NOP
04d46e: 20               NOP
04d46f: 20               NOP
04d470: 20               NOP
04d471: 20               NOP
04d472: 20               NOP
04d473: 20               NOP
04d474: 20               NOP
04d475: 20               NOP
04d476: 20               NOP
04d477: 20               NOP
04d478: 20               NOP
04d479: 20               NOP
04d47a: 20               NOP
04d47b: 20               NOP
04d47c: 20               NOP
04d47d: 20               NOP
04d47e: 20               NOP
04d47f: 20               NOP
04d480: 20               NOP
04d481: 20               NOP
04d482: 20               NOP
04d483: 20               NOP
04d484: 20               NOP
04d485: 20               NOP
04d486: 20               NOP
04d487: 20               NOP
04d488: 20               NOP
04d489: 20               NOP
04d48a: 20               NOP
04d48b: 20               NOP
04d48c: 20               NOP
04d48d: 20               NOP
04d48e: 20               NOP
04d48f: 20               NOP
04d490: 20               NOP
04d491: 20               NOP
04d492: 20               NOP
04d493: 20               NOP
04d494: 20               NOP
04d495: 20               NOP
04d496: 20               NOP
04d497: 20               NOP
04d498: 20               NOP
04d499: 20               NOP
04d49a: 20               NOP
04d49b: 20               NOP
04d49c: 20               NOP
04d49d: 20               NOP
04d49e: 20               NOP
04d49f: 20               NOP
04d4a0: 20               NOP
04d4a1: 20               NOP
04d4a2: 20               NOP
04d4a3: 20               NOP
04d4a4: 20               NOP
04d4a5: 20               NOP
04d4a6: 20               NOP
04d4a7: 20               NOP
04d4a8: 20               NOP
04d4a9: 20               NOP
04d4aa: 20               NOP
04d4ab: 20               NOP
04d4ac: 20               NOP
04d4ad: 20               NOP
04d4ae: 20               NOP
04d4af: 20               NOP
04d4b0: 20               NOP
04d4b1: 20               NOP
04d4b2: 20               NOP
04d4b3: 20               NOP
04d4b4: 20               NOP
04d4b5: 20               NOP
04d4b6: 20               NOP
04d4b7: 20               NOP
04d4b8: 20               NOP
04d4b9: 20               NOP
04d4ba: 20               NOP
04d4bb: 20               NOP
04d4bc: 20               NOP
04d4bd: 20               NOP
04d4be: 20               NOP
04d4bf: 20               NOP
04d4c0: 20               NOP
04d4c1: 20               NOP
04d4c2: 20               NOP
04d4c3: 20               NOP
04d4c4: 20               NOP
04d4c5: 20               NOP
04d4c6: 20               NOP
04d4c7: 20               NOP
04d4c8: 20               NOP
04d4c9: 20               NOP
04d4ca: 20               NOP
04d4cb: 20               NOP
04d4cc: 20               NOP
04d4cd: 20               NOP
04d4ce: 20               NOP
04d4cf: 20               NOP
04d4d0: 20               NOP
04d4d1: 20               NOP
04d4d2: 20               NOP
04d4d3: 20               NOP
04d4d4: 20               NOP
04d4d5: 20               NOP
04d4d6: 20               NOP
04d4d7: 20               NOP
04d4d8: 20               NOP
04d4d9: 20               NOP
04d4da: 20               NOP
04d4db: 20               NOP
04d4dc: 20               NOP
04d4dd: 20               NOP
04d4de: 20               NOP
04d4df: 20               NOP
04d4e0: 20               NOP
04d4e1: 20               NOP
04d4e2: 20               NOP
04d4e3: 20               NOP
04d4e4: 20               NOP
04d4e5: 20               NOP
04d4e6: 20               NOP
04d4e7: 20               NOP
04d4e8: 20               NOP
04d4e9: 20               NOP
04d4ea: 20               NOP
04d4eb: 20               NOP
04d4ec: 20               NOP
04d4ed: 20               NOP
04d4ee: 20               NOP
04d4ef: 20               NOP
04d4f0: 20               NOP
04d4f1: 20               NOP
04d4f2: 20               NOP
04d4f3: 20               NOP
04d4f4: 20               NOP
04d4f5: 20               NOP
04d4f6: 20               NOP
04d4f7: 20               NOP
04d4f8: 20               NOP
04d4f9: 20               NOP
04d4fa: 20               NOP
04d4fb: 20               NOP
04d4fc: 20               NOP
04d4fd: 20               NOP
04d4fe: 20               NOP
04d4ff: 20               NOP
04d500: 20               NOP
04d501: 20               NOP
04d502: 20               NOP
04d503: 20               NOP
04d504: 20               NOP
04d505: 20               NOP
04d506: 20               NOP
04d507: 20               NOP
04d508: 20               NOP
04d509: 20               NOP
04d50a: 20               NOP
04d50b: 20               NOP
04d50c: 20               NOP
04d50d: 20               NOP
04d50e: 20               NOP
04d50f: 20               NOP
04d510: 20               NOP
04d511: 20               NOP
04d512: 20               NOP
04d513: 20               NOP
04d514: 20               NOP
04d515: 20               NOP
04d516: 20               NOP
04d517: 20               NOP
04d518: 20               NOP
04d519: 20               NOP
04d51a: 20               NOP
04d51b: 20               NOP
04d51c: 20               NOP
04d51d: 20               NOP
04d51e: 20               NOP
04d51f: 20               NOP
04d520: 20               NOP
04d521: 20               NOP
04d522: 20               NOP
04d523: 20               NOP
04d524: 20               NOP
04d525: 20               NOP
04d526: 20               NOP
04d527: 20               NOP
04d528: 20               NOP
04d529: 20               NOP
04d52a: 20               NOP
04d52b: 20               NOP
04d52c: 20               NOP
04d52d: 20               NOP
04d52e: 20               NOP
04d52f: 20               NOP
04d530: 20               NOP
04d531: 20               NOP
04d532: 20               NOP
04d533: 20               NOP
04d534: 20               NOP
04d535: 20               NOP
04d536: 20               NOP
04d537: 20               NOP
04d538: 20               NOP
04d539: 20               NOP
04d53a: 20               NOP
04d53b: 20               NOP
04d53c: 20               NOP
04d53d: 20               NOP
04d53e: 20               NOP
04d53f: 20               NOP
04d540: 20               NOP
04d541: 20               NOP
04d542: 20               NOP
04d543: 20               NOP
04d544: 20               NOP
04d545: 20               NOP
04d546: 20               NOP
04d547: 20               NOP
04d548: 20               NOP
04d549: 20               NOP
04d54a: 20               NOP
04d54b: 20               NOP
04d54c: 20               NOP
04d54d: 20               NOP
04d54e: 20               NOP
04d54f: 20               NOP
04d550: 20               NOP
04d551: 20               NOP
04d552: 20               NOP
04d553: 20               NOP
04d554: 20               NOP
04d555: 20               NOP
04d556: 20               NOP
04d557: 20               NOP
04d558: 20               NOP
04d559: 20               NOP
04d55a: 20               NOP
04d55b: 20               NOP
04d55c: 20               NOP
04d55d: 20               NOP
04d55e: 20               NOP
04d55f: 20               NOP
04d560: 20               NOP
04d561: 20               NOP
04d562: 20               NOP
04d563: 20               NOP
04d564: 20               NOP
04d565: 20               NOP
04d566: 20               NOP
04d567: 20               NOP
04d568: 20               NOP
04d569: 20               NOP
04d56a: 20               NOP
04d56b: 20               NOP
04d56c: 20               NOP
04d56d: 20               NOP
04d56e: 20               NOP
04d56f: 20               NOP
04d570: 20               NOP
04d571: 20               NOP
04d572: 20               NOP
04d573: 20               NOP
04d574: 20               NOP
04d575: 20               NOP
04d576: 20               NOP
04d577: 20               NOP
04d578: 20               NOP
04d579: 20               NOP
04d57a: 20               NOP
04d57b: 20               NOP
04d57c: 20               NOP
04d57d: 20               NOP
04d57e: 20               NOP
04d57f: 20               NOP
04d580: 20               NOP
04d581: 20               NOP
04d582: 20               NOP
04d583: 20               NOP
04d584: 20               NOP
04d585: 20               NOP
04d586: 20               NOP
04d587: 20               NOP
04d588: 20               NOP
04d589: 20               NOP
04d58a: 20               NOP
04d58b: 20               NOP
04d58c: 20               NOP
04d58d: 20               NOP
04d58e: 20               NOP
04d58f: 20               NOP
04d590: 20               NOP
04d591: 20               NOP
04d592: 20               NOP
04d593: 20               NOP
04d594: 20               NOP
04d595: 20               NOP
04d596: 20               NOP
04d597: 20               NOP
04d598: 20               NOP
04d599: 20               NOP
04d59a: 20               NOP
04d59b: 20               NOP
04d59c: 20               NOP
04d59d: 20               NOP
04d59e: 20               NOP
04d59f: 20               NOP
04d5a0: 20               NOP
04d5a1: 20               NOP
04d5a2: 20               NOP
04d5a3: 20               NOP
04d5a4: 20               NOP
04d5a5: 20               NOP
04d5a6: 20               NOP
04d5a7: 20               NOP
04d5a8: 20               NOP
04d5a9: 20               NOP
04d5aa: 20               NOP
04d5ab: 20               NOP
04d5ac: 20               NOP
04d5ad: 20               NOP
04d5ae: 20               NOP
04d5af: 20               NOP
04d5b0: 20               NOP
04d5b1: 20               NOP
04d5b2: 20               NOP
04d5b3: 20               NOP
04d5b4: 20               NOP
04d5b5: 20               NOP
04d5b6: 20               NOP
04d5b7: 20               NOP
04d5b8: 20               NOP
04d5b9: 20               NOP
04d5ba: 20               NOP
04d5bb: 20               NOP
04d5bc: 20               NOP
04d5bd: 20               NOP
04d5be: 20               NOP
04d5bf: 20               NOP
04d5c0: 20               NOP
04d5c1: 20               NOP
04d5c2: 20               NOP
04d5c3: 20               NOP
04d5c4: 20               NOP
04d5c5: 20               NOP
04d5c6: 20               NOP
04d5c7: 20               NOP
04d5c8: 20               NOP
04d5c9: 20               NOP
04d5ca: 20               NOP
04d5cb: 20               NOP
04d5cc: 20               NOP
04d5cd: 20               NOP
04d5ce: 20               NOP
04d5cf: 20               NOP
04d5d0: 20               NOP
04d5d1: 20               NOP
04d5d2: 20               NOP
04d5d3: 20               NOP
04d5d4: 20               NOP
04d5d5: 20               NOP
04d5d6: 20               NOP
04d5d7: 20               NOP
04d5d8: 20               NOP
04d5d9: 20               NOP
04d5da: 20               NOP
04d5db: 20               NOP
04d5dc: 20               NOP
04d5dd: 20               NOP
04d5de: 20               NOP
04d5df: 20               NOP
04d5e0: 20               NOP
04d5e1: 20               NOP
04d5e2: 20               NOP
04d5e3: 20               NOP
04d5e4: 20               NOP
04d5e5: 20               NOP
04d5e6: 20               NOP
04d5e7: 20               NOP
04d5e8: 20               NOP
04d5e9: 20               NOP
04d5ea: 20               NOP
04d5eb: 20               NOP
04d5ec: 20               NOP
04d5ed: 20               NOP
04d5ee: 20               NOP
04d5ef: 20               NOP
04d5f0: 20               NOP
04d5f1: 20               NOP
04d5f2: 20               NOP
04d5f3: 20               NOP
04d5f4: 20               NOP
04d5f5: 20               NOP
04d5f6: 20               NOP
04d5f7: 20               NOP
04d5f8: 20               NOP
04d5f9: 20               NOP
04d5fa: 20               NOP
04d5fb: 20               NOP
04d5fc: 20               NOP
04d5fd: 20               NOP
04d5fe: 20               NOP
04d5ff: 20               NOP
04d600: 20               NOP
04d601: 20               NOP
04d602: 20               NOP
04d603: 20               NOP
04d604: 20               NOP
04d605: 20               NOP
04d606: 20               NOP
04d607: 20               NOP
04d608: 20               NOP
04d609: 20               NOP
04d60a: 20               NOP
04d60b: 20               NOP
04d60c: 20               NOP
04d60d: 20               NOP
04d60e: 20               NOP
04d60f: 20               NOP
04d610: 20               NOP
04d611: 20               NOP
04d612: 20               NOP
04d613: 20               NOP
04d614: 20               NOP
04d615: 20               NOP
04d616: 20               NOP
04d617: 20               NOP
04d618: 20               NOP
04d619: 20               NOP
04d61a: 20               NOP
04d61b: 20               NOP
04d61c: 20               NOP
04d61d: 20               NOP
04d61e: 20               NOP
04d61f: 20               NOP
04d620: 20               NOP
04d621: 20               NOP
04d622: 20               NOP
04d623: 20               NOP
04d624: 20               NOP
04d625: 20               NOP
04d626: 20               NOP
04d627: 20               NOP
04d628: 20               NOP
04d629: 20               NOP
04d62a: 20               NOP
04d62b: 20               NOP
04d62c: 20               NOP
04d62d: 20               NOP
04d62e: 20               NOP
04d62f: 20               NOP
04d630: 20               NOP
04d631: 20               NOP
04d632: 20               NOP
04d633: 20               NOP
04d634: 20               NOP
04d635: 20               NOP
04d636: 20               NOP
04d637: 20               NOP
04d638: 20               NOP
04d639: 20               NOP
04d63a: 20               NOP
04d63b: 20               NOP
04d63c: 20               NOP
04d63d: 20               NOP
04d63e: 20               NOP
04d63f: 20               NOP
04d640: 20               NOP
04d641: 20               NOP
04d642: 20               NOP
04d643: 20               NOP
04d644: 20               NOP
04d645: 20               NOP
04d646: 20               NOP
04d647: 20               NOP
04d648: 20               NOP
04d649: 20               NOP
04d64a: 20               NOP
04d64b: 20               NOP
04d64c: 20               NOP
04d64d: 20               NOP
04d64e: 20               NOP
04d64f: 20               NOP
04d650: 20               NOP
04d651: 20               NOP
04d652: 20               NOP
04d653: 20               NOP
04d654: 20               NOP
04d655: 20               NOP
04d656: 20               NOP
04d657: 20               NOP
04d658: 20               NOP
04d659: 20               NOP
04d65a: 20               NOP
04d65b: 20               NOP
04d65c: 20               NOP
04d65d: 20               NOP
04d65e: 20               NOP
04d65f: 20               NOP
04d660: 20               NOP
04d661: 20               NOP
04d662: 20               NOP
04d663: 20               NOP
04d664: 20               NOP
04d665: 20               NOP
04d666: 20               NOP
04d667: 20               NOP
04d668: 20               NOP
04d669: 20               NOP
04d66a: 20               NOP
04d66b: 20               NOP
04d66c: 20               NOP
04d66d: 20               NOP
04d66e: 20               NOP
04d66f: 20               NOP
04d670: 20               NOP
04d671: 20               NOP
04d672: 20               NOP
04d673: 20               NOP
04d674: 20               NOP
04d675: 20               NOP
04d676: 20               NOP
04d677: 20               NOP
04d678: 20               NOP
04d679: 20               NOP
04d67a: 20               NOP
04d67b: 20               NOP
04d67c: 20               NOP
04d67d: 20               NOP
04d67e: 20               NOP
04d67f: 20               NOP
04d680: 20               NOP
04d681: 20               NOP
04d682: 20               NOP
04d683: 20               NOP
04d684: 20               NOP
04d685: 20               NOP
04d686: 20               NOP
04d687: 20               NOP
04d688: 20               NOP
04d689: 20               NOP
04d68a: 20               NOP
04d68b: 20               NOP
04d68c: 20               NOP
04d68d: 20               NOP
04d68e: 20               NOP
04d68f: 20               NOP
04d690: 20               NOP
04d691: 20               NOP
04d692: 20               NOP
04d693: 20               NOP
04d694: 20               NOP
04d695: 20               NOP
04d696: 20               NOP
04d697: 20               NOP
04d698: 20               NOP
04d699: 20               NOP
04d69a: 20               NOP
04d69b: 20               NOP
04d69c: 20               NOP
04d69d: 20               NOP
04d69e: 20               NOP
04d69f: 20               NOP
04d6a0: 20               NOP
04d6a1: 20               NOP
04d6a2: 20               NOP
04d6a3: 20               NOP
04d6a4: 20               NOP
04d6a5: 20               NOP
04d6a6: 20               NOP
04d6a7: 20               NOP
04d6a8: 20               NOP
04d6a9: 20               NOP
04d6aa: 20               NOP
04d6ab: 20               NOP
04d6ac: 20               NOP
04d6ad: 20               NOP
04d6ae: 20               NOP
04d6af: 20               NOP
04d6b0: 20               NOP
04d6b1: 20               NOP
04d6b2: 20               NOP
04d6b3: 20               NOP
04d6b4: 20               NOP
04d6b5: 20               NOP
04d6b6: 20               NOP
04d6b7: 20               NOP
04d6b8: 20               NOP
04d6b9: 20               NOP
04d6ba: 20               NOP
04d6bb: 20               NOP
04d6bc: 20               NOP
04d6bd: 20               NOP
04d6be: 20               NOP
04d6bf: 20               NOP
04d6c0: 20               NOP
04d6c1: 20               NOP
04d6c2: 20               NOP
04d6c3: 20               NOP
04d6c4: 20               NOP
04d6c5: 20               NOP
04d6c6: 20               NOP
04d6c7: 20               NOP
04d6c8: 20               NOP
04d6c9: 20               NOP
04d6ca: 20               NOP
04d6cb: 20               NOP
04d6cc: 20               NOP
04d6cd: 20               NOP
04d6ce: 20               NOP
04d6cf: 20               NOP
04d6d0: 20               NOP
04d6d1: 20               NOP
04d6d2: 20               NOP
04d6d3: 20               NOP
04d6d4: 20               NOP
04d6d5: 20               NOP
04d6d6: 20               NOP
04d6d7: 20               NOP
04d6d8: 20               NOP
04d6d9: 20               NOP
04d6da: 20               NOP
04d6db: 20               NOP
04d6dc: 20               NOP
04d6dd: 20               NOP
04d6de: 20               NOP
04d6df: 20               NOP
04d6e0: 20               NOP
04d6e1: 20               NOP
04d6e2: 20               NOP
04d6e3: 20               NOP
04d6e4: 20               NOP
04d6e5: 20               NOP
04d6e6: 20               NOP
04d6e7: 20               NOP
04d6e8: 20               NOP
04d6e9: 20               NOP
04d6ea: 20               NOP
04d6eb: 20               NOP
04d6ec: 20               NOP
04d6ed: 20               NOP
04d6ee: 20               NOP
04d6ef: 20               NOP
04d6f0: 20               NOP
04d6f1: 20               NOP
04d6f2: 20               NOP
04d6f3: 20               NOP
04d6f4: 20               NOP
04d6f5: 20               NOP
04d6f6: 20               NOP
04d6f7: 20               NOP
04d6f8: 20               NOP
04d6f9: 20               NOP
04d6fa: 20               NOP
04d6fb: 20               NOP
04d6fc: 20               NOP
04d6fd: 20               NOP
04d6fe: 20               NOP
04d6ff: 20               NOP
04d700: 20               NOP
04d701: 20               NOP
04d702: 20               NOP
04d703: 20               NOP
04d704: 20               NOP
04d705: 20               NOP
04d706: 20               NOP
04d707: 20               NOP
04d708: 20               NOP
04d709: 20               NOP
04d70a: 20               NOP
04d70b: 20               NOP
04d70c: 20               NOP
04d70d: 20               NOP
04d70e: 20               NOP
04d70f: 20               NOP
04d710: 20               NOP
04d711: 20               NOP
04d712: 20               NOP
04d713: 20               NOP
04d714: 20               NOP
04d715: 20               NOP
04d716: 20               NOP
04d717: 20               NOP
04d718: 20               NOP
04d719: 20               NOP
04d71a: 20               NOP
04d71b: 20               NOP
04d71c: 20               NOP
04d71d: 20               NOP
04d71e: 20               NOP
04d71f: 20               NOP
04d720: 20               NOP
04d721: 20               NOP
04d722: 20               NOP
04d723: 20               NOP
04d724: 20               NOP
04d725: 20               NOP
04d726: 20               NOP
04d727: 20               NOP
04d728: 20               NOP
04d729: 20               NOP
04d72a: 20               NOP
04d72b: 20               NOP
04d72c: 20               NOP
04d72d: 20               NOP
04d72e: 20               NOP
04d72f: 20               NOP
04d730: 20               NOP
04d731: 20               NOP
04d732: 20               NOP
04d733: 20               NOP
04d734: 20               NOP
04d735: 20               NOP
04d736: 20               NOP
04d737: 20               NOP
04d738: 20               NOP
04d739: 20               NOP
04d73a: 20               NOP
04d73b: 20               NOP
04d73c: 20               NOP
04d73d: 20               NOP
04d73e: 20               NOP
04d73f: 20               NOP
04d740: 20               NOP
04d741: 20               NOP
04d742: 20               NOP
04d743: 20               NOP
04d744: 20               NOP
04d745: 20               NOP
04d746: 20               NOP
04d747: 20               NOP
04d748: 20               NOP
04d749: 20               NOP
04d74a: 20               NOP
04d74b: 20               NOP
04d74c: 20               NOP
04d74d: 20               NOP
04d74e: 20               NOP
04d74f: 20               NOP
04d750: 20               NOP
04d751: 20               NOP
04d752: 20               NOP
04d753: 20               NOP
04d754: 20               NOP
04d755: 20               NOP
04d756: 20               NOP
04d757: 20               NOP
04d758: 20               NOP
04d759: 20               NOP
04d75a: 20               NOP
04d75b: 20               NOP
04d75c: 20               NOP
04d75d: 20               NOP
04d75e: 20               NOP
04d75f: 20               NOP
04d760: 20               NOP
04d761: 20               NOP
04d762: 20               NOP
04d763: 20               NOP
04d764: 20               NOP
04d765: 20               NOP
04d766: 20               NOP
04d767: 20               NOP
04d768: 20               NOP
04d769: 20               NOP
04d76a: 20               NOP
04d76b: 20               NOP
04d76c: 20               NOP
04d76d: 20               NOP
04d76e: 20               NOP
04d76f: 20               NOP
04d770: 20               NOP
04d771: 20               NOP
04d772: 20               NOP
04d773: 20               NOP
04d774: 20               NOP
04d775: 20               NOP
04d776: 20               NOP
04d777: 20               NOP
04d778: 20               NOP
04d779: 20               NOP
04d77a: 20               NOP
04d77b: 20               NOP
04d77c: 20               NOP
04d77d: 20               NOP
04d77e: 20               NOP
04d77f: 20               NOP
04d780: 20               NOP
04d781: 20               NOP
04d782: 20               NOP
04d783: 20               NOP
04d784: 20               NOP
04d785: 20               NOP
04d786: 20               NOP
04d787: 20               NOP
04d788: 20               NOP
04d789: 20               NOP
04d78a: 20               NOP
04d78b: 20               NOP
04d78c: 20               NOP
04d78d: 20               NOP
04d78e: 20               NOP
04d78f: 20               NOP
04d790: 20               NOP
04d791: 20               NOP
04d792: 20               NOP
04d793: 20               NOP
04d794: 20               NOP
04d795: 20               NOP
04d796: 20               NOP
04d797: 20               NOP
04d798: 20               NOP
04d799: 20               NOP
04d79a: 20               NOP
04d79b: 20               NOP
04d79c: 20               NOP
04d79d: 20               NOP
04d79e: 20               NOP
04d79f: 20               NOP
04d7a0: 20               NOP
04d7a1: 20               NOP
04d7a2: 20               NOP
04d7a3: 20               NOP
04d7a4: 20               NOP
04d7a5: 20               NOP
04d7a6: 20               NOP
04d7a7: 20               NOP
04d7a8: 20               NOP
04d7a9: 20               NOP
04d7aa: 20               NOP
04d7ab: 20               NOP
04d7ac: 20               NOP
04d7ad: 20               NOP
04d7ae: 20               NOP
04d7af: 20               NOP
04d7b0: 20               NOP
04d7b1: 20               NOP
04d7b2: 20               NOP
04d7b3: 20               NOP
04d7b4: 20               NOP
04d7b5: 20               NOP
04d7b6: 20               NOP
04d7b7: 20               NOP
04d7b8: 20               NOP
04d7b9: 20               NOP
04d7ba: 20               NOP
04d7bb: 20               NOP
04d7bc: 20               NOP
04d7bd: 20               NOP
04d7be: 20               NOP
04d7bf: 20               NOP
04d7c0: 20               NOP
04d7c1: 20               NOP
04d7c2: 20               NOP
04d7c3: 20               NOP
04d7c4: 20               NOP
04d7c5: 20               NOP
04d7c6: 20               NOP
04d7c7: 20               NOP
04d7c8: 20               NOP
04d7c9: 20               NOP
04d7ca: 20               NOP
04d7cb: 20               NOP
04d7cc: 20               NOP
04d7cd: 20               NOP
04d7ce: 20               NOP
04d7cf: 20               NOP
04d7d0: 20               NOP
04d7d1: 20               NOP
04d7d2: 20               NOP
04d7d3: 20               NOP
04d7d4: 20               NOP
04d7d5: 20               NOP
04d7d6: 20               NOP
04d7d7: 20               NOP
04d7d8: 20               NOP
04d7d9: 20               NOP
04d7da: 20               NOP
04d7db: 20               NOP
04d7dc: 20               NOP
04d7dd: 20               NOP
04d7de: 20               NOP
04d7df: 20               NOP
04d7e0: 20               NOP
04d7e1: 20               NOP
04d7e2: 20               NOP
04d7e3: 20               NOP
04d7e4: 20               NOP
04d7e5: 20               NOP
04d7e6: 20               NOP
04d7e7: 20               NOP
04d7e8: 20               NOP
04d7e9: 20               NOP
04d7ea: 20               NOP
04d7eb: 20               NOP
04d7ec: 20               NOP
04d7ed: 20               NOP
04d7ee: 20               NOP
04d7ef: 20               NOP
04d7f0: 20               NOP
04d7f1: 20               NOP
04d7f2: 20               NOP
04d7f3: 20               NOP
04d7f4: 20               NOP
04d7f5: 20               NOP
04d7f6: 20               NOP
04d7f7: 20               NOP
04d7f8: 20               NOP
04d7f9: 20               NOP
04d7fa: 20               NOP
04d7fb: 20               NOP
04d7fc: 20               NOP
04d7fd: 20               NOP
04d7fe: 20               NOP
04d7ff: 20               NOP
04d800: 20               NOP
04d801: 20               NOP
04d802: 20               NOP
04d803: 20               NOP
04d804: 20               NOP
04d805: 20               NOP
04d806: 20               NOP
04d807: 20               NOP
04d808: 20               NOP
04d809: 20               NOP
04d80a: 20               NOP
04d80b: 20               NOP
04d80c: 20               NOP
04d80d: 20               NOP
04d80e: 20               NOP
04d80f: 20               NOP
04d810: 20               NOP
04d811: 20               NOP
04d812: 20               NOP
04d813: 20               NOP
04d814: 20               NOP
04d815: 20               NOP
04d816: 20               NOP
04d817: 20               NOP
04d818: 20               NOP
04d819: 20               NOP
04d81a: 20               NOP
04d81b: 20               NOP
04d81c: 20               NOP
04d81d: 20               NOP
04d81e: 20               NOP
04d81f: 20               NOP
04d820: 20               NOP
04d821: 20               NOP
04d822: 20               NOP
04d823: 20               NOP
04d824: 20               NOP
04d825: 20               NOP
04d826: 20               NOP
04d827: 20               NOP
04d828: 20               NOP
04d829: 20               NOP
04d82a: 20               NOP
04d82b: 20               NOP
04d82c: 20               NOP
04d82d: 20               NOP
04d82e: 20               NOP
04d82f: 20               NOP
04d830: 20               NOP
04d831: 20               NOP
04d832: 20               NOP
04d833: 20               NOP
04d834: 20               NOP
04d835: 20               NOP
04d836: 20               NOP
04d837: 20               NOP
04d838: 20               NOP
04d839: 20               NOP
04d83a: 20               NOP
04d83b: 20               NOP
04d83c: 20               NOP
04d83d: 20               NOP
04d83e: 20               NOP
04d83f: 20               NOP
04d840: 20               NOP
04d841: 20               NOP
04d842: 20               NOP
04d843: 20               NOP
04d844: 20               NOP
04d845: 20               NOP
04d846: 20               NOP
04d847: 20               NOP
04d848: 20               NOP
04d849: 20               NOP
04d84a: 20               NOP
04d84b: 20               NOP
04d84c: 20               NOP
04d84d: 20               NOP
04d84e: 20               NOP
04d84f: 20               NOP
04d850: 20               NOP
04d851: 20               NOP
04d852: 20               NOP
04d853: 20               NOP
04d854: 20               NOP
04d855: 20               NOP
04d856: 20               NOP
04d857: 20               NOP
04d858: 20               NOP
04d859: 20               NOP
04d85a: 20               NOP
04d85b: 20               NOP
04d85c: 20               NOP
04d85d: 20               NOP
04d85e: 20               NOP
04d85f: 20               NOP
04d860: 20               NOP
04d861: 20               NOP
04d862: 20               NOP
04d863: 20               NOP
04d864: 20               NOP
04d865: 20               NOP
04d866: 20               NOP
04d867: 20               NOP
04d868: 20               NOP
04d869: 20               NOP
04d86a: 20               NOP
04d86b: 20               NOP
04d86c: 20               NOP
04d86d: 20               NOP
04d86e: 20               NOP
04d86f: 20               NOP
04d870: 20               NOP
04d871: 20               NOP
04d872: 20               NOP
04d873: 20               NOP
04d874: 20               NOP
04d875: 20               NOP
04d876: 20               NOP
04d877: 20               NOP
04d878: 20               NOP
04d879: 20               NOP
04d87a: 20               NOP
04d87b: 20               NOP
04d87c: 20               NOP
04d87d: 20               NOP
04d87e: 20               NOP
04d87f: 20               NOP
04d880: 20               NOP
04d881: 20               NOP
04d882: 20               NOP
04d883: 20               NOP
04d884: 20               NOP
04d885: 20               NOP
04d886: 20               NOP
04d887: 20               NOP
04d888: 20               NOP
04d889: 20               NOP
04d88a: 20               NOP
04d88b: 20               NOP
04d88c: 20               NOP
04d88d: 20               NOP
04d88e: 20               NOP
04d88f: 20               NOP
04d890: 20               NOP
04d891: 20               NOP
04d892: 20               NOP
04d893: 20               NOP
04d894: 20               NOP
04d895: 20               NOP
04d896: 20               NOP
04d897: 20               NOP
04d898: 20               NOP
04d899: 20               NOP
04d89a: 20               NOP
04d89b: 20               NOP
04d89c: 20               NOP
04d89d: 20               NOP
04d89e: 20               NOP
04d89f: 20               NOP
04d8a0: 20               NOP
04d8a1: 20               NOP
04d8a2: 20               NOP
04d8a3: 20               NOP
04d8a4: 20               NOP
04d8a5: 20               NOP
04d8a6: 20               NOP
04d8a7: 20               NOP
04d8a8: 20               NOP
04d8a9: 20               NOP
04d8aa: 20               NOP
04d8ab: 20               NOP
04d8ac: 20               NOP
04d8ad: 20               NOP
04d8ae: 20               NOP
04d8af: 20               NOP
04d8b0: 20               NOP
04d8b1: 20               NOP
04d8b2: 20               NOP
04d8b3: 20               NOP
04d8b4: 20               NOP
04d8b5: 20               NOP
04d8b6: 20               NOP
04d8b7: 20               NOP
04d8b8: 20               NOP
04d8b9: 20               NOP
04d8ba: 20               NOP
04d8bb: 20               NOP
04d8bc: 20               NOP
04d8bd: 20               NOP
04d8be: 20               NOP
04d8bf: 20               NOP
04d8c0: 20               NOP
04d8c1: 20               NOP
04d8c2: 20               NOP
04d8c3: 20               NOP
04d8c4: 20               NOP
04d8c5: 20               NOP
04d8c6: 20               NOP
04d8c7: 20               NOP
04d8c8: 20               NOP
04d8c9: 20               NOP
04d8ca: 20               NOP
04d8cb: 20               NOP
04d8cc: 20               NOP
04d8cd: 20               NOP
04d8ce: 20               NOP
04d8cf: 20               NOP
04d8d0: 20               NOP
04d8d1: 20               NOP
04d8d2: 20               NOP
04d8d3: 20               NOP
04d8d4: 20               NOP
04d8d5: 20               NOP
04d8d6: 20               NOP
04d8d7: 20               NOP
04d8d8: 20               NOP
04d8d9: 20               NOP
04d8da: 20               NOP
04d8db: 20               NOP
04d8dc: 20               NOP
04d8dd: 20               NOP
04d8de: 20               NOP
04d8df: 20               NOP
04d8e0: 20               NOP
04d8e1: 20               NOP
04d8e2: 20               NOP
04d8e3: 20               NOP
04d8e4: 20               NOP
04d8e5: 20               NOP
04d8e6: 20               NOP
04d8e7: 20               NOP
04d8e8: 20               NOP
04d8e9: 20               NOP
04d8ea: 20               NOP
04d8eb: 20               NOP
04d8ec: 20               NOP
04d8ed: 20               NOP
04d8ee: 20               NOP
04d8ef: 20               NOP
04d8f0: 20               NOP
04d8f1: 20               NOP
04d8f2: 20               NOP
04d8f3: 20               NOP
04d8f4: 20               NOP
04d8f5: 20               NOP
04d8f6: 20               NOP
04d8f7: 20               NOP
04d8f8: 20               NOP
04d8f9: 20               NOP
04d8fa: 20               NOP
04d8fb: 20               NOP
04d8fc: 20               NOP
04d8fd: 20               NOP
04d8fe: 20               NOP
04d8ff: 20               NOP
04d900: 20               NOP
04d901: 20               NOP
04d902: 20               NOP
04d903: 20               NOP
04d904: 20               NOP
04d905: 20               NOP
04d906: 20               NOP
04d907: 20               NOP
04d908: 20               NOP
04d909: 20               NOP
04d90a: 20               NOP
04d90b: 20               NOP
04d90c: 20               NOP
04d90d: 20               NOP
04d90e: 20               NOP
04d90f: 20               NOP
04d910: 20               NOP
04d911: 20               NOP
04d912: 20               NOP
04d913: 20               NOP
04d914: 20               NOP
04d915: 20               NOP
04d916: 20               NOP
04d917: 20               NOP
04d918: 20               NOP
04d919: 20               NOP
04d91a: 20               NOP
04d91b: 20               NOP
04d91c: 20               NOP
04d91d: 20               NOP
04d91e: 20               NOP
04d91f: 20               NOP
04d920: 20               NOP
04d921: 20               NOP
04d922: 20               NOP
04d923: 20               NOP
04d924: 20               NOP
04d925: 20               NOP
04d926: 20               NOP
04d927: 20               NOP
04d928: 20               NOP
04d929: 20               NOP
04d92a: 20               NOP
04d92b: 20               NOP
04d92c: 20               NOP
04d92d: 20               NOP
04d92e: 20               NOP
04d92f: 20               NOP
04d930: 20               NOP
04d931: 20               NOP
04d932: 20               NOP
04d933: 20               NOP
04d934: 20               NOP
04d935: 20               NOP
04d936: 20               NOP
04d937: 20               NOP
04d938: 20               NOP
04d939: 20               NOP
04d93a: 20               NOP
04d93b: 20               NOP
04d93c: 20               NOP
04d93d: 20               NOP
04d93e: 20               NOP
04d93f: 20               NOP
04d940: 20               NOP
04d941: 20               NOP
04d942: 20               NOP
04d943: 20               NOP
04d944: 20               NOP
04d945: 20               NOP
04d946: 20               NOP
04d947: 20               NOP
04d948: 20               NOP
04d949: 20               NOP
04d94a: 20               NOP
04d94b: 20               NOP
04d94c: 20               NOP
04d94d: 20               NOP
04d94e: 20               NOP
04d94f: 20               NOP
04d950: 20               NOP
04d951: 20               NOP
04d952: 20               NOP
04d953: 20               NOP
04d954: 20               NOP
04d955: 20               NOP
04d956: 20               NOP
04d957: 20               NOP
04d958: 20               NOP
04d959: 20               NOP
04d95a: 20               NOP
04d95b: 20               NOP
04d95c: 20               NOP
04d95d: 20               NOP
04d95e: 20               NOP
04d95f: 20               NOP
04d960: 20               NOP
04d961: 20               NOP
04d962: 20               NOP
04d963: 20               NOP
04d964: 20               NOP
04d965: 20               NOP
04d966: 20               NOP
04d967: 20               NOP
04d968: 20               NOP
04d969: 20               NOP
04d96a: 20               NOP
04d96b: 20               NOP
04d96c: 20               NOP
04d96d: 20               NOP
04d96e: 20               NOP
04d96f: 20               NOP
04d970: 20               NOP
04d971: 20               NOP
04d972: 20               NOP
04d973: 20               NOP
04d974: 20               NOP
04d975: 20               NOP
04d976: 20               NOP
04d977: 20               NOP
04d978: 20               NOP
04d979: 20               NOP
04d97a: 20               NOP
04d97b: 20               NOP
04d97c: 20               NOP
04d97d: 20               NOP
04d97e: 20               NOP
04d97f: 20               NOP
04d980: 20               NOP
04d981: 20               NOP
04d982: 20               NOP
04d983: 20               NOP
04d984: 20               NOP
04d985: 20               NOP
04d986: 20               NOP
04d987: 20               NOP
04d988: 20               NOP
04d989: 20               NOP
04d98a: 20               NOP
04d98b: 20               NOP
04d98c: 20               NOP
04d98d: 20               NOP
04d98e: 20               NOP
04d98f: 20               NOP
04d990: 20               NOP
04d991: 20               NOP
04d992: 20               NOP
04d993: 20               NOP
04d994: 20               NOP
04d995: 20               NOP
04d996: 20               NOP
04d997: 20               NOP
04d998: 20               NOP
04d999: 20               NOP
04d99a: 20               NOP
04d99b: 20               NOP
04d99c: 20               NOP
04d99d: 20               NOP
04d99e: 20               NOP
04d99f: 20               NOP
04d9a0: 20               NOP
04d9a1: 20               NOP
04d9a2: 20               NOP
04d9a3: 20               NOP
04d9a4: 20               NOP
04d9a5: 20               NOP
04d9a6: 20               NOP
04d9a7: 20               NOP
04d9a8: 20               NOP
04d9a9: 20               NOP
04d9aa: 20               NOP
04d9ab: 20               NOP
04d9ac: 20               NOP
04d9ad: 20               NOP
04d9ae: 20               NOP
04d9af: 20               NOP
04d9b0: 20               NOP
04d9b1: 20               NOP
04d9b2: 20               NOP
04d9b3: 20               NOP
04d9b4: 20               NOP
04d9b5: 20               NOP
04d9b6: 20               NOP
04d9b7: 20               NOP
04d9b8: 20               NOP
04d9b9: 20               NOP
04d9ba: 20               NOP
04d9bb: 20               NOP
04d9bc: 20               NOP
04d9bd: 20               NOP
04d9be: 20               NOP
04d9bf: 20               NOP
04d9c0: 20               NOP
04d9c1: 20               NOP
04d9c2: 20               NOP
04d9c3: 20               NOP
04d9c4: 20               NOP
04d9c5: 20               NOP
04d9c6: 20               NOP
04d9c7: 20               NOP
04d9c8: 20               NOP
04d9c9: 20               NOP
04d9ca: 20               NOP
04d9cb: 20               NOP
04d9cc: 20               NOP
04d9cd: 20               NOP
04d9ce: 20               NOP
04d9cf: 20               NOP
04d9d0: 20               NOP
04d9d1: 20               NOP
04d9d2: 20               NOP
04d9d3: 20               NOP
04d9d4: 20               NOP
04d9d5: 20               NOP
04d9d6: 20               NOP
04d9d7: 20               NOP
04d9d8: 20               NOP
04d9d9: 20               NOP
04d9da: 20               NOP
04d9db: 20               NOP
04d9dc: 20               NOP
04d9dd: 20               NOP
04d9de: 20               NOP
04d9df: 20               NOP
04d9e0: 20               NOP
04d9e1: 20               NOP
04d9e2: 20               NOP
04d9e3: 20               NOP
04d9e4: 20               NOP
04d9e5: 20               NOP
04d9e6: 20               NOP
04d9e7: 20               NOP
04d9e8: 20               NOP
04d9e9: 20               NOP
04d9ea: 20               NOP
04d9eb: 20               NOP
04d9ec: 20               NOP
04d9ed: 20               NOP
04d9ee: 20               NOP
04d9ef: 20               NOP
04d9f0: 20               NOP
04d9f1: 20               NOP
04d9f2: 20               NOP
04d9f3: 20               NOP
04d9f4: 20               NOP
04d9f5: 20               NOP
04d9f6: 20               NOP
04d9f7: 20               NOP
04d9f8:               _fgetc2:
04d9f8: 20               NOP
04d9f9: 20               NOP
04d9fa: 20               NOP
04d9fb: 20               NOP
04d9fc: 4efd             AADD #-3,SP
04d9fe: eb0085           MOV XAR0,dbl(@#00h)
04da01: ed00bf           MOV dbl(@#00h),XAR3
04da04: ed61bf           MOV dbl(*AR3),XAR3
04da07: a961             MOV *AR3,AR1
04da09: c904             MOV AR1,@#02h
04da0b: ed00af           MOV dbl(@#00h),XAR2
04da0e: ed41bf           MOV dbl(*AR2),XAR3
04da11: b463             AMAR *AR3+
04da13: eb41b5           MOV XAR3,dbl(*AR2)
04da16: a404             MOV @#02h,T0
04da18: 4e03             AADD #3,SP
04da1a: 4804             RET
04da1c:               _getint:
04da1c: 20               NOP
04da1d: 20               NOP
04da1e: 20               NOP
04da1f: 20               NOP
04da20: 4ef9             AADD #-7,SP
04da22: eb0085           MOV XAR0,dbl(@#00h)
04da25: 08ffd0           CALL _fgetc2
04da28: 2240             MOV T0,AC0
04da2a: eb0408           MOV AC0,dbl(@#02h)
04da2d:               $C$L1:
04da2d:               $C$DW$L$_getint$2$B:
04da2d: 76002308         MOV #35,AC0
04da31: ed0418           MOV dbl(@#02h),AC1
04da34: 121c00           CMP AC1 != AC0, TC1
04da37: 046431           BCC $C$DW$L$_getint$4$E,TC1
04da3a: 20               NOP
04da3b: 20               NOP
04da3c: 20               NOP
04da3d: 20               NOP
04da3e:               $C$DW$L$_getint$2$E:
04da3e:               $C$DW$L$_getint$3$B:
04da3e: ed0418_3da0      MOV dbl(@#02h),AC1 || MOV #10,AC0
04da43: 121000           CMP AC1 == AC0, TC1
04da46: 046422           BCC $C$DW$L$_getint$4$E,TC1
04da49: 20               NOP
04da4a: 20               NOP
04da4b: 20               NOP
04da4c: 20               NOP
04da4d:               $C$DW$L$_getint$3$E:
04da4d:               $C$L2:
04da4d: 20               NOP
04da4e: 20               NOP
04da4f: 20               NOP
04da50: 20               NOP
04da51:               $C$DW$L$_getint$4$B:
04da51: ed008f           MOV dbl(@#00h),XAR0
04da54: 08ffa1           CALL _fgetc2
04da57: 2240             MOV T0,AC0
04da59: eb0408           MOV AC0,dbl(@#02h)
04da5c: ed0418_3da0      MOV dbl(@#02h),AC1 || MOV #10,AC0
04da61: 121c00           CMP AC1 != AC0, TC1
04da64: 0464e6           BCC $C$DW$L$_getint$3$E,TC1
04da67: 20               NOP
04da68: 20               NOP
04da69: 20               NOP
04da6a: 20               NOP
04da6b:               $C$DW$L$_getint$4$E:
04da6b:               $C$L3:
04da6b: 20               NOP
04da6c: 20               NOP
04da6d: 20               NOP
04da6e: 20               NOP
04da6f:               $C$DW$L$_getint$5$B:
04da6f: ed0418_3f10      MOV dbl(@#02h),AC1 || MOV #-1,AC0
04da74: 121c00           CMP AC1 != AC0, TC1
04da77: 64e4             BCC $C$L4,TC1
04da79: 20               NOP
04da7a: 20               NOP
04da7b: 20               NOP
04da7c: 20               NOP
04da7d:               $C$DW$L$_getint$5$E:
04da7d: 3e14             MOV #-1,T0
04da7f: 0600a3           B $C$L10
04da82:               $C$L4:
04da82: 20               NOP
04da83: 20               NOP
04da84: 20               NOP
04da85: 20               NOP
04da86:               $C$DW$L$_getint$7$B:
04da86: 76003008         MOV #48,AC0
04da8a: ed0418           MOV dbl(@#02h),AC1
04da8d: 121400           CMP AC1 < AC0, TC1
04da90: 046415           BCC $C$DW$L$_getint$9$E,TC1
04da93: 20               NOP
04da94: 20               NOP
04da95: 20               NOP
04da96: 20               NOP
04da97:               $C$DW$L$_getint$7$E:
04da97:               $C$DW$L$_getint$8$B:
04da97: 76003908         MOV #57,AC0
04da9b: ed0418           MOV dbl(@#02h),AC1
04da9e: 120410           CMP AC0 < AC1, TC1
04daa1: 047416           BCC $C$DW$L$_getint$10$E,!TC1
04daa4: 20               NOP
04daa5: 20               NOP
04daa6: 20               NOP
04daa7: 20               NOP
04daa8:               $C$DW$L$_getint$9$E:
04daa8:               $C$L5:
04daa8:               $C$DW$L$_getint$8$E:
04daa8:               $C$DW$L$_getint$9$B:
04daa8: 20               NOP
04daa9: 20               NOP
04daaa: 20               NOP
04daab: 20               NOP
04daac:               $C$DW$L$_getint$10$B:
04daac: ed008f           MOV dbl(@#00h),XAR0
04daaf: 08ff46           CALL _fgetc2
04dab2: 2240             MOV T0,AC0
04dab4: eb0408           MOV AC0,dbl(@#02h)
04dab7: 06ff73           B $C$L1
04daba:               $C$DW$L$_getint$10$E:
04daba:               $C$L6:
04daba: 20               NOP
04dabb: 20               NOP
04dabc: 20               NOP
04dabd: 20               NOP
04dabe: 3c00             MOV #0,AC0
04dac0: eb0808           MOV AC0,dbl(@#04h)
04dac3:               $C$L7:
04dac3: 20               NOP
04dac4: 20               NOP
04dac5: 20               NOP
04dac6: 20               NOP
04dac7:               $C$DW$L$_getint$12$B:
04dac7: ed0808           MOV dbl(@#04h),AC0
04daca: 104501           SFTS AC0,#1,AC1
04dacd: 104303           ADD AC0 << #3,AC1
04dad0: ed0440           ADD dbl(@#02h),AC1,AC0
04dad3: 7c003000         SUB #48,AC0,AC0
04dad7: eb0808           MOV AC0,dbl(@#04h)
04dada: ed008f           MOV dbl(@#00h),XAR0
04dadd: 08ff18           CALL _fgetc2
04dae0: 2240             MOV T0,AC0
04dae2: eb0408           MOV AC0,dbl(@#02h)
04dae5: ed0418_3f10      MOV dbl(@#02h),AC1 || MOV #-1,AC0
04daea: 121c00           CMP AC1 != AC0, TC1
04daed: 6464             BCC $C$L8,TC1
04daef: 6c012f07         CALL _coverage_log
04daf3:               $C$DW$L$_getint$12$E:
04daf3: a40a             MOV @#05h,T0
04daf5: 4a2e             B $C$L10
04daf7:               $C$L8:
04daf7: 20               NOP
04daf8: 20               NOP
04daf9: 20               NOP
04dafa: 20               NOP
04dafb:               $C$DW$L$_getint$14$B:
04dafb: 76003008         MOV #48,AC0
04daff: ed0418           MOV dbl(@#02h),AC1
04db02: 121400           CMP AC1 < AC0, TC1
04db05: 046417           BCC $C$L9,TC1
04db08: 20               NOP
04db09: 20               NOP
04db0a: 20               NOP
04db0b: 20               NOP
04db0c:               $C$DW$L$_getint$14$E:
04db0c:               $C$DW$L$_getint$15$B:
04db0c: 76003908         MOV #57,AC0
04db10: ed0418           MOV dbl(@#02h),AC1
04db13: 120810           CMP AC0 >= AC1, TC1
04db16: 0464aa           BCC $C$L7,TC1
04db19: 20               NOP
04db1a: 20               NOP
04db1b: 20               NOP
04db1c: 20               NOP
04db1d:               $C$DW$L$_getint$15$E:
04db1d: 4a00             B $C$L9
04db1f:               $C$L9:
04db1f: 20               NOP
04db20: 20               NOP
04db21: 20               NOP
04db22: 20               NOP
04db23: a40a             MOV @#05h,T0
04db25:               $C$L10:
04db25: 4e07             AADD #7,SP
04db27: 4804             RET
04db29:               _get_image:
04db29: 20               NOP
04db2a: 20               NOP
04db2b: 20               NOP
04db2c: 20               NOP
04db2d: 4e95             AADD #-107,SP
04db2f: eb08a5           MOV XAR2,dbl(@#04h)
04db32: eb0495           MOV XAR1,dbl(@#02h)
04db35: eb0085           MOV XAR0,dbl(@#00h)
04db38: 08febd           CALL _fgetc2
04db3b: c40c             MOV T0,@#06h
04db3d: ed008f           MOV dbl(@#00h),XAR0
04db40: 08feb5           CALL _fgetc2
04db43: c40e             MOV T0,@#07h
04db45: f00c0050         CMP @#06h == #80, TC1
04db49: 6774             BCC $C$L11,!TC1
04db4b: 20               NOP
04db4c: 20               NOP
04db4d: 20               NOP
04db4e: 20               NOP
04db4f: f00e0035         CMP @#07h == #53, TC1
04db53: 66e4             BCC $C$L12,TC1
04db55: 20               NOP
04db56: 20               NOP
04db57: 20               NOP
04db58: 20               NOP
04db59:               $C$L11:
04db59: 20               NOP
04db5a: 20               NOP
04db5b: 20               NOP
04db5c: 20               NOP
04db5d: 3e14             MOV #-1,T0
04db5f: 06005c           B $C$L15
04db62:               $C$L12:
04db62: 20               NOP
04db63: 20               NOP
04db64: 20               NOP
04db65: 20               NOP
04db66: ed008f           MOV dbl(@#00h),XAR0
04db69: 08feb0           CALL _getint
04db6c: ed04bf           MOV dbl(@#02h),XAR3
04db6f: 2240             MOV T0,AC0
04db71: eb6108           MOV AC0,dbl(*AR3)
04db74: ed04bf           MOV dbl(@#02h),XAR3
04db77: ed6118_3f10      MOV dbl(*AR3),AC1 || MOV #-1,AC0
04db7c: 121c00           CMP AC1 != AC0, TC1
04db7f: 6464             BCC $C$L13,TC1
04db81: 6c012f07         CALL _coverage_log
04db85: 3e14             MOV #-1,T0
04db87: 4a35             B $C$L15
04db89:               $C$L13:
04db89: 20               NOP
04db8a: 20               NOP
04db8b: 20               NOP
04db8c: 20               NOP
04db8d: ed008f           MOV dbl(@#00h),XAR0
04db90: 08fe89           CALL _getint
04db93: ed08bf           MOV dbl(@#04h),XAR3
04db96: 2240             MOV T0,AC0
04db98: eb6108           MOV AC0,dbl(*AR3)
04db9b: ed08bf           MOV dbl(@#04h),XAR3
04db9e: ed6118_3f10      MOV dbl(*AR3),AC1 || MOV #-1,AC0
04dba3: 121c00           CMP AC1 != AC0, TC1
04dba6: 6464             BCC $C$L14,TC1
04dba8: 6c012f07         CALL _coverage_log
04dbac: 3e14             MOV #-1,T0
04dbae: 4a0e             B $C$L15
04dbb0:               $C$L14:
04dbb0: 20               NOP
04dbb1: 20               NOP
04dbb2: 20               NOP
04dbb3: 20               NOP
04dbb4: ed008f           MOV dbl(@#00h),XAR0
04dbb7: 08fe62           CALL _getint
04dbba: c4d4             MOV T0,@#6ah
04dbbc: 3c04             MOV #0,T0
04dbbe:               $C$L15:
04dbbe: 4e6b             AADD #107,SP
04dbc0: 4804             RET
04dbc2:               _int_to_uint16_t:
04dbc2: 6c012f07         CALL _coverage_log
04dbc6: 4ef3             AADD #-13,SP
04dbc8: eb0808           MOV AC0,dbl(@#04h)
04dbcb: eb0495           MOV XAR1,dbl(@#02h)
04dbce: eb0085           MOV XAR0,dbl(@#00h)
04dbd1: ed00bf           MOV dbl(@#00h),XAR3
04dbd4: ed6108           MOV dbl(*AR3),AC0
04dbd7: eb1008           MOV AC0,dbl(@#08h)
04dbda: ed00bf           MOV dbl(@#00h),XAR3
04dbdd: ed6108           MOV dbl(*AR3),AC0
04dbe0: eb1408           MOV AC0,dbl(@#0ah)
04dbe3: 3c00             MOV #0,AC0
04dbe5: eb0c08           MOV AC0,dbl(@#06h)
04dbe8: ed0c18           MOV dbl(@#06h),AC1
04dbeb: ed0808           MOV dbl(@#04h),AC0
04dbee: 121800           CMP AC1 >= AC0, TC1
04dbf1: 046468           BCC $C$DW$L$_int_to_uint16_t$6$E,TC1
04dbf4: 6c012f07         CALL _coverage_log
04dbf8:               $C$L16:
04dbf8: 6c012f07         CALL _coverage_log
04dbfc:               $C$DW$L$_int_to_uint16_t$2$B:
04dbfc: ed00bf           MOV dbl(@#00h),XAR3
04dbff: a40e             MOV @#07h,T0
04dc01: 5040             SFTL T0,#1
04dc03: ed1008           MOV dbl(@#08h),AC0
04dc06: ed6b18           MOV dbl(*AR3(AR0)),AC1
04dc09: 120810           CMP AC0 >= AC1, TC1
04dc0c: 6764             BCC $C$DW$L$_int_to_uint16_t$3$E,TC1
04dc0e: 6c012f07         CALL _coverage_log
04dc12:               $C$DW$L$_int_to_uint16_t$2$E:
04dc12:               $C$DW$L$_int_to_uint16_t$3$B:
04dc12: a40e             MOV @#07h,T0
04dc14: 5040             SFTL T0,#1
04dc16: ed6b08           MOV dbl(*AR3(AR0)),AC0
04dc19: eb1008           MOV AC0,dbl(@#08h)
04dc1c:               $C$DW$L$_int_to_uint16_t$3$E:
04dc1c:               $C$L17:
04dc1c: 6c012f07         CALL _coverage_log
04dc20:               $C$DW$L$_int_to_uint16_t$4$B:
04dc20: ed00bf           MOV dbl(@#00h),XAR3
04dc23: a40e             MOV @#07h,T0
04dc25: 5040             SFTL T0,#1
04dc27: ed1408           MOV dbl(@#0ah),AC0
04dc2a: ed6b18           MOV dbl(*AR3(AR0)),AC1
04dc2d: 121800           CMP AC1 >= AC0, TC1
04dc30: 6764             BCC $C$DW$L$_int_to_uint16_t$5$E,TC1
04dc32: 6c012f07         CALL _coverage_log
04dc36:               $C$DW$L$_int_to_uint16_t$4$E:
04dc36:               $C$DW$L$_int_to_uint16_t$5$B:
04dc36: a40e             MOV @#07h,T0
04dc38: 5040             SFTL T0,#1
04dc3a: ed6b08           MOV dbl(*AR3(AR0)),AC0
04dc3d: eb1408           MOV AC0,dbl(@#0ah)
04dc40:               $C$DW$L$_int_to_uint16_t$5$E:
04dc40:               $C$L18:
04dc40: 6c012f07         CALL _coverage_log
04dc44:               $C$DW$L$_int_to_uint16_t$6$B:
04dc44: ed0c08           MOV dbl(@#06h),AC0
04dc47: 4010             ADD #1,AC0
04dc49: eb0c08           MOV AC0,dbl(@#06h)
04dc4c: ed0c18           MOV dbl(@#06h),AC1
04dc4f: ed0808           MOV dbl(@#04h),AC0
04dc52: 121400           CMP AC1 < AC0, TC1
04dc55: 0464a0           BCC $C$L16,TC1
04dc58: 6c012f07         CALL _coverage_log
04dc5c:               $C$DW$L$_int_to_uint16_t$6$E:
04dc5c:               $C$L19:
04dc5c: 6c012f07         CALL _coverage_log
04dc60: ed1408           MOV dbl(@#0ah),AC0
04dc63: ed1004           SUB AC0,dbl(@#08h),AC0
04dc66: eb1008           MOV AC0,dbl(@#08h)
04dc69: 3c00             MOV #0,AC0
04dc6b: eb0c08           MOV AC0,dbl(@#06h)
04dc6e: ed0c18           MOV dbl(@#06h),AC1
04dc71: ed0808           MOV dbl(@#04h),AC0
04dc74: 121800           CMP AC1 >= AC0, TC1
04dc77: 046440           BCC $C$L21,TC1
04dc7a: 6c012f07         CALL _coverage_log
04dc7e:               $C$L20:
04dc7e: 6c012f07         CALL _coverage_log
04dc82:               $C$DW$L$_int_to_uint16_t$8$B:
04dc82: ed00bf           MOV dbl(@#00h),XAR3
04dc85: a40e             MOV @#07h,T0
04dc87: 5040             SFTL T0,#1
04dc89: ed1408           MOV dbl(@#0ah),AC0
04dc8c: ed6b14           SUB AC0,dbl(*AR3(AR0)),AC1
04dc8f: 101508           SFTS AC1,#8,AC0
04dc92: ed1018_2710      MOV dbl(@#08h),AC1 || SUB AC1,AC0
04dc97: 6c0134a8         CALL __divli
04dc9b: a40e             MOV @#07h,T0
04dc9d: ed04bf           MOV dbl(@#02h),XAR3
04dca0: c06b             MOV AC0,*AR3(AR0)
04dca2: ed0c08           MOV dbl(@#06h),AC0
04dca5: 4010             ADD #1,AC0
04dca7: eb0c08           MOV AC0,dbl(@#06h)
04dcaa: ed0808           MOV dbl(@#04h),AC0
04dcad: ed0c18           MOV dbl(@#06h),AC1
04dcb0: 121400           CMP AC1 < AC0, TC1
04dcb3: 0464c8           BCC $C$L20,TC1
04dcb6: 6c012f07         CALL _coverage_log
04dcba:               $C$L21:
04dcba:               $C$DW$L$_int_to_uint16_t$8$E:
04dcba: 6c012f07         CALL _coverage_log
04dcbe: 4e0d             AADD #13,SP
04dcc0: 4804             RET
04dcc2:               _int_to_uchar:
04dcc2: 20               NOP
04dcc3: 20               NOP
04dcc4: 20               NOP
04dcc5: 20               NOP
04dcc6: 4ef3             AADD #-13,SP
04dcc8: eb0808           MOV AC0,dbl(@#04h)
04dccb: eb0495           MOV XAR1,dbl(@#02h)
04dcce: eb0085           MOV XAR0,dbl(@#00h)
04dcd1: ed00bf           MOV dbl(@#00h),XAR3
04dcd4: ed6108           MOV dbl(*AR3),AC0
04dcd7: eb1008           MOV AC0,dbl(@#08h)
04dcda: ed00bf           MOV dbl(@#00h),XAR3
04dcdd: ed6108           MOV dbl(*AR3),AC0
04dce0: eb1408           MOV AC0,dbl(@#0ah)
04dce3: 3c00             MOV #0,AC0
04dce5: eb0c08           MOV AC0,dbl(@#06h)
04dce8: ed0c18           MOV dbl(@#06h),AC1
04dceb: ed0808           MOV dbl(@#04h),AC0
04dcee: 121800           CMP AC1 >= AC0, TC1
04dcf1: 046468           BCC $C$DW$L$_int_to_uchar$6$E,TC1
04dcf4: 20               NOP
04dcf5: 20               NOP
04dcf6: 20               NOP
04dcf7: 20               NOP
04dcf8:               $C$L22:
04dcf8: 20               NOP
04dcf9: 20               NOP
04dcfa: 20               NOP
04dcfb: 20               NOP
04dcfc:               $C$DW$L$_int_to_uchar$2$B:
04dcfc: ed00bf           MOV dbl(@#00h),XAR3
04dcff: a40e             MOV @#07h,T0
04dd01: 5040             SFTL T0,#1
04dd03: ed1008           MOV dbl(@#08h),AC0
04dd06: ed6b18           MOV dbl(*AR3(AR0)),AC1
04dd09: 120810           CMP AC0 >= AC1, TC1
04dd0c: 6764             BCC $C$DW$L$_int_to_uchar$3$E,TC1
04dd0e: 6c012f07         CALL _coverage_log
04dd12:               $C$DW$L$_int_to_uchar$2$E:
04dd12:               $C$DW$L$_int_to_uchar$3$B:
04dd12: a40e             MOV @#07h,T0
04dd14: 5040             SFTL T0,#1
04dd16: ed6b08           MOV dbl(*AR3(AR0)),AC0
04dd19: eb1008           MOV AC0,dbl(@#08h)
04dd1c:               $C$DW$L$_int_to_uchar$3$E:
04dd1c:               $C$L23:
04dd1c: 20               NOP
04dd1d: 20               NOP
04dd1e: 20               NOP
04dd1f: 20               NOP
04dd20:               $C$DW$L$_int_to_uchar$4$B:
04dd20: ed00bf           MOV dbl(@#00h),XAR3
04dd23: a40e             MOV @#07h,T0
04dd25: 5040             SFTL T0,#1
04dd27: ed1408           MOV dbl(@#0ah),AC0
04dd2a: ed6b18           MOV dbl(*AR3(AR0)),AC1
04dd2d: 121800           CMP AC1 >= AC0, TC1
04dd30: 6764             BCC $C$DW$L$_int_to_uchar$5$E,TC1
04dd32: 6c012f07         CALL _coverage_log
04dd36:               $C$DW$L$_int_to_uchar$4$E:
04dd36:               $C$DW$L$_int_to_uchar$5$B:
04dd36: a40e             MOV @#07h,T0
04dd38: 5040             SFTL T0,#1
04dd3a: ed6b08           MOV dbl(*AR3(AR0)),AC0
04dd3d: eb1408           MOV AC0,dbl(@#0ah)
04dd40:               $C$DW$L$_int_to_uchar$5$E:
04dd40:               $C$L24:
04dd40: 20               NOP
04dd41: 20               NOP
04dd42: 20               NOP
04dd43: 20               NOP
04dd44:               $C$DW$L$_int_to_uchar$6$B:
04dd44: ed0c08           MOV dbl(@#06h),AC0
04dd47: 4010             ADD #1,AC0
04dd49: eb0c08           MOV AC0,dbl(@#06h)
04dd4c: ed0c18           MOV dbl(@#06h),AC1
04dd4f: ed0808           MOV dbl(@#04h),AC0
04dd52: 121400           CMP AC1 < AC0, TC1
04dd55: 0464a0           BCC $C$L22,TC1
04dd58: 20               NOP
04dd59: 20               NOP
04dd5a: 20               NOP
04dd5b: 20               NOP
04dd5c:               $C$DW$L$_int_to_uchar$6$E:
04dd5c:               $C$L25:
04dd5c: 20               NOP
04dd5d: 20               NOP
04dd5e: 20               NOP
04dd5f: 20               NOP
04dd60: ed1408           MOV dbl(@#0ah),AC0
04dd63: ed1004           SUB AC0,dbl(@#08h),AC0
04dd66: eb1008           MOV AC0,dbl(@#08h)
04dd69: 3c00             MOV #0,AC0
04dd6b: eb0c08           MOV AC0,dbl(@#06h)
04dd6e: ed0c18           MOV dbl(@#06h),AC1
04dd71: ed0808           MOV dbl(@#04h),AC0
04dd74: 121800           CMP AC1 >= AC0, TC1
04dd77: 046440           BCC $C$L27,TC1
04dd7a: 20               NOP
04dd7b: 20               NOP
04dd7c: 20               NOP
04dd7d: 20               NOP
04dd7e:               $C$L26:
04dd7e: 20               NOP
04dd7f: 20               NOP
04dd80: 20               NOP
04dd81: 20               NOP
04dd82:               $C$DW$L$_int_to_uchar$8$B:
04dd82: ed00bf           MOV dbl(@#00h),XAR3
04dd85: a40e             MOV @#07h,T0
04dd87: 5040             SFTL T0,#1
04dd89: ed1408           MOV dbl(@#0ah),AC0
04dd8c: ed6b14           SUB AC0,dbl(*AR3(AR0)),AC1
04dd8f: 101508           SFTS AC1,#8,AC0
04dd92: ed1018_2710      MOV dbl(@#08h),AC1 || SUB AC1,AC0
04dd97: 6c0134a8         CALL __divli
04dd9b: a40e             MOV @#07h,T0
04dd9d: ed04bf           MOV dbl(@#02h),XAR3
04dda0: c06b             MOV AC0,*AR3(AR0)
04dda2: ed0c08           MOV dbl(@#06h),AC0
04dda5: 4010             ADD #1,AC0
04dda7: eb0c08           MOV AC0,dbl(@#06h)
04ddaa: ed0808           MOV dbl(@#04h),AC0
04ddad: ed0c18           MOV dbl(@#06h),AC1
04ddb0: 121400           CMP AC1 < AC0, TC1
04ddb3: 0464c8           BCC $C$L26,TC1
04ddb6: 20               NOP
04ddb7: 20               NOP
04ddb8: 20               NOP
04ddb9: 20               NOP
04ddba:               $C$L27:
04ddba:               $C$DW$L$_int_to_uchar$8$E:
04ddba: 20               NOP
04ddbb: 20               NOP
04ddbc: 20               NOP
04ddbd: 20               NOP
04ddbe: 4e0d             AADD #13,SP
04ddc0: 4804             RET
04ddc2:               _setup_brightness_lut:
04ddc2: 20               NOP
04ddc3: 20               NOP
04ddc4: 20               NOP
04ddc5: 20               NOP
04ddc6: 4ef3             AADD #-13,SP
04ddc8: eb0818           MOV AC1,dbl(@#04h)
04ddcb: eb0408           MOV AC0,dbl(@#02h)
04ddce: eb0085           MOV XAR0,dbl(@#00h)
04ddd1: ed00af           MOV dbl(@#00h),XAR2
04ddd4: ec31be048000     AMAR *(#048000h),XAR3
04ddda: eb41b5           MOV XAR3,dbl(*AR2)
04dddd: ed00bf           MOV dbl(@#00h),XAR3
04dde0: ed61bf           MOV dbl(*AR3),XAR3
04dde3: ed00af           MOV dbl(@#00h),XAR2
04dde6: b46f0102         AMAR *+AR3(#0102h)
04ddea: eb41b5           MOV XAR3,dbl(*AR2)
04dded: 76ff0008         MOV #-256,AC0
04ddf1: eb0c08           MOV AC0,dbl(@#06h)
04ddf4: 76010108         MOV #257,AC0
04ddf8: ed0c18           MOV dbl(@#06h),AC1
04ddfb: 121800           CMP AC1 >= AC0, TC1
04ddfe: 6d64009c         BCC $C$L30,TC1
04de02: 20               NOP
04de03: 20               NOP
04de04: 20               NOP
04de05: 20               NOP
04de06:               $C$L28:
04de06: 20               NOP
04de07: 20               NOP
04de08: 20               NOP
04de09: 20               NOP
04de0a:               $C$DW$L$_setup_brightness_lut$2$B:
04de0a: ed0c08           MOV dbl(@#06h),AC0
04de0d: 6c013349         CALL __fltlid
04de11: eb1408           MOV AC0,dbl(@#0ah)
04de14: ed0408           MOV dbl(@#02h),AC0
04de17: 6c013349         CALL __fltlid
04de1b: ed1408_1b0010    MOV dbl(@#0ah),AC0 || OR #0,AC0,AC1
04de21: 6c01196c         CALL __divd
04de25: eb1008           MOV AC0,dbl(@#08h)
04de28: ed1018           MOV dbl(@#08h),AC1
04de2b: 6c01298c         CALL __mpyd
04de2f: eb1008           MOV AC0,dbl(@#08h)
04de32: ed0818_3d60      MOV dbl(@#04h),AC1 || MOV #6,AC0
04de37: 121c00           CMP AC1 != AC0, TC1
04de3a: 046418           BCC $C$DW$L$_setup_brightness_lut$3$E,TC1
04de3d: 20               NOP
04de3e: 20               NOP
04de3f: 20               NOP
04de40: 20               NOP
04de41:               $C$DW$L$_setup_brightness_lut$2$E:
04de41:               $C$DW$L$_setup_brightness_lut$3$B:
04de41: ed1008           MOV dbl(@#08h),AC0
04de44: ed1018           MOV dbl(@#08h),AC1
04de47: 6c01298c         CALL __mpyd
04de4b: ed1018           MOV dbl(@#08h),AC1
04de4e: 6c01298c         CALL __mpyd
04de52: eb1008           MOV AC0,dbl(@#08h)
04de55:               $C$DW$L$_setup_brightness_lut$3$E:
04de55:               $C$L29:
04de55: 20               NOP
04de56: 20               NOP
04de57: 20               NOP
04de58: 20               NOP
04de59:               $C$DW$L$_setup_brightness_lut$4$B:
04de59: ed1008           MOV dbl(@#08h),AC0
04de5c: 6c0136f2         CALL __negd
04de60: 6c0127d6         CALL _exp
04de64: 1a0010           OR #0,AC0,AC1
04de67: ed310804eb58     MOV dbl(*(#04eb58h)),AC0
04de6d: 6c01298c         CALL __mpyd
04de71: eb1008           MOV AC0,dbl(@#08h)
04de74: 6c013676         CALL __fixdu
04de78: ed00bf           MOV dbl(@#00h),XAR3
04de7b: a40e_2349        MOV @#07h,T0 || MOV T0,AR1
04de7f: ed61bf           MOV dbl(*AR3),XAR3
04de82: c96b             MOV AR1,*AR3(AR0)
04de84: ed0c08           MOV dbl(@#06h),AC0
04de87: 4010             ADD #1,AC0
04de89: eb0c08           MOV AC0,dbl(@#06h)
04de8c: 76010108         MOV #257,AC0
04de90: ed0c18           MOV dbl(@#06h),AC1
04de93: 121400           CMP AC1 < AC0, TC1
04de96: 6d64ff6c         BCC $C$L28,TC1
04de9a: 6c012f07         CALL _coverage_log
04de9e:               $C$L30:
04de9e:               $C$DW$L$_setup_brightness_lut$4$E:
04de9e: 20               NOP
04de9f: 20               NOP
04dea0: 20               NOP
04dea1: 20               NOP
04dea2: 4e0d             AADD #13,SP
04dea4: 4804             RET
04dea6:               _edge_draw:
04dea6: 6c012f07         CALL _coverage_log
04deaa: 4eef             AADD #-17,SP
04deac: eb1028           MOV AC2,dbl(@#08h)
04deaf: eb0c18           MOV AC1,dbl(@#06h)
04deb2: eb0808           MOV AC0,dbl(@#04h)
04deb5: eb0495           MOV XAR1,dbl(@#02h)
04deb8: eb0085           MOV XAR0,dbl(@#00h)
04debb: ed1008           MOV dbl(@#08h),AC0
04debe: 6d100108         BCC $C$DW$L$_edge_draw$5$E,AC0 != #0
04dec2: 6c012f07         CALL _coverage_log
04dec6: ed04bf           MOV dbl(@#02h),XAR3
04dec9: eb1cb5           MOV XAR3,dbl(@#0eh)
04decc: 3c00             MOV #0,AC0
04dece: eb1408           MOV AC0,dbl(@#0ah)
04ded1: ed0c18           MOV dbl(@#06h),AC1
04ded4: ed0808           MOV dbl(@#04h),AC0
04ded7: 6c0136bc         CALL I$$LMPY
04dedb: ed1418           MOV dbl(@#0ah),AC1
04dede: 121800           CMP AC1 >= AC0, TC1
04dee1: 6d6400e5         BCC $C$DW$L$_edge_draw$5$E,TC1
04dee5: 6c012f07         CALL _coverage_log
04dee9:               $C$L31:
04dee9: 6c012f07         CALL _coverage_log
04deed:               $C$DW$L$_edge_draw$3$B:
04deed: ed1cbf           MOV dbl(@#0eh),XAR3
04def0: a961_3d8a        MOV *AR3,AR1 || MOV #8,AR2
04def4: 1298a4           CMPU AR1 >= AR2, TC1
04def7: 6d6400a3         BCC $C$DW$L$_edge_draw$4$E,TC1
04defb: 6c012f07         CALL _coverage_log
04deff:               $C$DW$L$_edge_draw$3$E:
04deff:               $C$DW$L$_edge_draw$4$B:
04deff: ed04bf           MOV dbl(@#02h),XAR3
04df02: ed1caf           MOV dbl(@#0eh),XAR2
04df05: 14b1a2           ASUB XAR3,XAR2
04df08: ed00bf           MOV dbl(@#00h),XAR3
04df0b: a90a             MOV @#05h,AR1
04df0d: 14a1b0           AADD XAR2,XAR3
04df10: 1490b2           ASUB AR1,AR3
04df13: b465             AMAR *AR3-
04df15: eb18b5           MOV XAR3,dbl(@#0ch)
04df18: ed18af           MOV dbl(@#0ch),XAR2
04df1b: b463             AMAR *AR3+
04df1d: eb18b5           MOV XAR3,dbl(@#0ch)
04df20: fb4100ff         MOV #255,*AR2
04df24: ed18af           MOV dbl(@#0ch),XAR2
04df27: ec41be           AMAR *AR2,XAR3
04df2a: b463             AMAR *AR3+
04df2c: eb18b5           MOV XAR3,dbl(@#0ch)
04df2f: fb4100ff         MOV #255,*AR2
04df33: ed18bf           MOV dbl(@#0ch),XAR3
04df36: fb6100ff         MOV #255,*AR3
04df3a: ed18bf           MOV dbl(@#0ch),XAR3
04df3d: ed0808           MOV dbl(@#04h),AC0
04df40: 4220             SUB #2,AC0
04df42: 2209             MOV AC0,AR1
04df44: 8e18bb10b590     MOV XAR3,dbl(@#0ch) || AADD AR1,AR3
04df4a: ed18af           MOV dbl(@#0ch),XAR2
04df4d: b463             AMAR *AR3+
04df4f: eb18b5           MOV XAR3,dbl(@#0ch)
04df52: fb4100ff         MOV #255,*AR2
04df56: ed18af           MOV dbl(@#0ch),XAR2
04df59: ec41be           AMAR *AR2,XAR3
04df5c: b463             AMAR *AR3+
04df5e: eb18b5           MOV XAR3,dbl(@#0ch)
04df61: fb4100ff         MOV #255,*AR2
04df65: ed18bf           MOV dbl(@#0ch),XAR3
04df68: fb6100ff         MOV #255,*AR3
04df6c: ed18bf           MOV dbl(@#0ch),XAR3
04df6f: ed0808           MOV dbl(@#04h),AC0
04df72: 4220             SUB #2,AC0
04df74: 2209             MOV AC0,AR1
04df76: 8e18bb10b590     MOV XAR3,dbl(@#0ch) || AADD AR1,AR3
04df7c: ed18af           MOV dbl(@#0ch),XAR2
04df7f: b463             AMAR *AR3+
04df81: eb18b5           MOV XAR3,dbl(@#0ch)
04df84: fb4100ff         MOV #255,*AR2
04df88: ed18af           MOV dbl(@#0ch),XAR2
04df8b: ec41be           AMAR *AR2,XAR3
04df8e: b463             AMAR *AR3+
04df90: eb18b5           MOV XAR3,dbl(@#0ch)
04df93: fb4100ff         MOV #255,*AR2
04df97: ed18bf           MOV dbl(@#0ch),XAR3
04df9a: fb6100ff         MOV #255,*AR3
04df9e:               $C$DW$L$_edge_draw$4$E:
04df9e:               $C$L32:
04df9e: 6c012f07         CALL _coverage_log
04dfa2:               $C$DW$L$_edge_draw$5$B:
04dfa2: ed1cbf           MOV dbl(@#0eh),XAR3
04dfa5: b463             AMAR *AR3+
04dfa7: eb1cb5           MOV XAR3,dbl(@#0eh)
04dfaa: ed1408           MOV dbl(@#0ah),AC0
04dfad: 4010             ADD #1,AC0
04dfaf: eb1408           MOV AC0,dbl(@#0ah)
04dfb2: ed0c18           MOV dbl(@#06h),AC1
04dfb5: ed0808           MOV dbl(@#04h),AC0
04dfb8: 6c0136bc         CALL I$$LMPY
04dfbc: ed1418           MOV dbl(@#0ah),AC1
04dfbf: 121400           CMP AC1 < AC0, TC1
04dfc2: 6d64ff23         BCC $C$L31,TC1
04dfc6: 6c012f07         CALL _coverage_log
04dfca:               $C$DW$L$_edge_draw$5$E:
04dfca:               $C$L33:
04dfca: 6c012f07         CALL _coverage_log
04dfce: ed04bf           MOV dbl(@#02h),XAR3
04dfd1: eb1cb5           MOV XAR3,dbl(@#0eh)
04dfd4: 3c00             MOV #0,AC0
04dfd6: eb1408           MOV AC0,dbl(@#0ah)
04dfd9: ed0c18           MOV dbl(@#06h),AC1
04dfdc: ed0808           MOV dbl(@#04h),AC0
04dfdf: 6c0136bc         CALL I$$LMPY
04dfe3: ed1418           MOV dbl(@#0ah),AC1
04dfe6: 121800           CMP AC1 >= AC0, TC1
04dfe9: 046458           BCC $C$L36,TC1
04dfec: 6c012f07         CALL _coverage_log
04dff0:               $C$L34:
04dff0: 6c012f07         CALL _coverage_log
04dff4:               $C$DW$L$_edge_draw$7$B:
04dff4: ed1cbf           MOV dbl(@#0eh),XAR3
04dff7: a961_3d8a        MOV *AR3,AR1 || MOV #8,AR2
04dffb: 1298a4           CMPU AR1 >= AR2, TC1
04dffe: 046418           BCC $C$DW$L$_edge_draw$8$E,TC1
04e001: 6c012f07         CALL _coverage_log
04e005:               $C$DW$L$_edge_draw$7$E:
04e005:               $C$DW$L$_edge_draw$8$B:
04e005: ed04bf           MOV dbl(@#02h),XAR3
04e008: 90b1             MOV XAR3,AC1
04e00a: ed1cbf           MOV dbl(@#0eh),XAR3
04e00d: 90b0             MOV XAR3,AC0
04e00f: ed00bf           MOV dbl(@#00h),XAR3
04e012: 2610             SUB AC1,AC0
04e014: 2204             MOV AC0,T0
04e016: e66b00           MOV #0,*AR3(AR0)
04e019:               $C$DW$L$_edge_draw$8$E:
04e019:               $C$L35:
04e019: 6c012f07         CALL _coverage_log
04e01d:               $C$DW$L$_edge_draw$9$B:
04e01d: ed1cbf           MOV dbl(@#0eh),XAR3
04e020: b463             AMAR *AR3+
04e022: eb1cb5           MOV XAR3,dbl(@#0eh)
04e025: ed1408           MOV dbl(@#0ah),AC0
04e028: 4010             ADD #1,AC0
04e02a: eb1408           MOV AC0,dbl(@#0ah)
04e02d: ed0c18           MOV dbl(@#06h),AC1
04e030: ed0808           MOV dbl(@#04h),AC0
04e033: 6c0136bc         CALL I$$LMPY
04e037: ed1418           MOV dbl(@#0ah),AC1
04e03a: 121400           CMP AC1 < AC0, TC1
04e03d: 0464b0           BCC $C$L34,TC1
04e040: 6c012f07         CALL _coverage_log
04e044:               $C$L36:
04e044:               $C$DW$L$_edge_draw$9$E:
04e044: 6c012f07         CALL _coverage_log
04e048: 4e11             AADD #17,SP
04e04a: 4804             RET
04e04c:               _susan_principle_small:
04e04c: 20               NOP
04e04d: 20               NOP
04e04e: 20               NOP
04e04f: 20               NOP
04e050: 4ee9             AADD #-23,SP
04e052: eb1428           MOV AC2,dbl(@#0ah)
04e055: eb1018           MOV AC1,dbl(@#08h)
04e058: eb0c08           MOV AC0,dbl(@#06h)
04e05b: eb08a5           MOV XAR2,dbl(@#04h)
04e05e: eb0495           MOV XAR1,dbl(@#02h)
04e061: eb0085           MOV XAR0,dbl(@#00h)
04e064: ed1008           MOV dbl(@#08h),AC0
04e067: ed1418           MOV dbl(@#0ah),AC1
04e06a: 6c0136bc         CALL I$$LMPY
04e06e: ed088f           MOV dbl(@#04h),XAR0
04e071: 4450_3d04        SFTS AC0,#1 || MOV #0,T0
04e075: 6c0136e1_2305    CALL _memset || MOV AC0,T1
04e07b: 7602da08         MOV #730,AC0
04e07f: eb0c08           MOV AC0,dbl(@#06h)
04e082: 3c10             MOV #1,AC0
04e084: eb1808           MOV AC0,dbl(@#0ch)
04e087: ed1408           MOV dbl(@#0ah),AC0
04e08a: ed1818_4310      MOV dbl(@#0ch),AC1 || SUB #1,AC0
04e08f: 121800           CMP AC1 >= AC0, TC1
04e092: 6d64019d         BCC $C$L41,TC1
04e096: 20               NOP
04e097: 20               NOP
04e098: 20               NOP
04e099: 20               NOP
04e09a:               $C$L37:
04e09a: 20               NOP
04e09b: 20               NOP
04e09c: 20               NOP
04e09d: 20               NOP
04e09e:               $C$DW$L$_susan_principle_small$2$B:
04e09e: 3c10             MOV #1,AC0
04e0a0: eb1c08           MOV AC0,dbl(@#0eh)
04e0a3: ed1008           MOV dbl(@#08h),AC0
04e0a6: ed1c18_4310      MOV dbl(@#0eh),AC1 || SUB #1,AC0
04e0ab: 121800           CMP AC1 >= AC0, TC1
04e0ae: 6d640162         BCC $C$DW$L$_susan_principle_small$5$E,TC1
04e0b2: 20               NOP
04e0b3: 20               NOP
04e0b4: 20               NOP
04e0b5: 20               NOP
04e0b6:               $C$DW$L$_susan_principle_small$2$E:
04e0b6:               $C$L38:
04e0b6: 20               NOP
04e0b7: 20               NOP
04e0b8: 20               NOP
04e0b9: 20               NOP
04e0ba:               $C$DW$L$_susan_principle_small$3$B:
04e0ba: 76006408         MOV #100,AC0
04e0be: eb2008           MOV AC0,dbl(@#10h)
04e0c1: ed1018_3d10      MOV dbl(@#08h),AC1 || MOV #1,AC0
04e0c6: ed1804           SUB AC0,dbl(@#0ch),AC0
04e0c9: 6c0136bc         CALL I$$LMPY
04e0cd: 2209             MOV AC0,AR1
04e0cf: ed00bf           MOV dbl(@#00h),XAR3
04e0d2: 8a1eb91890       MOV @#0fh,AR1 || AADD AR1,AR3
04e0d7: 1490b0           AADD AR1,AR3
04e0da: b465             AMAR *AR3-
04e0dc: eb24b5           MOV XAR3,dbl(@#12h)
04e0df: ed1808           MOV dbl(@#0ch),AC0
04e0e2: ed1018           MOV dbl(@#08h),AC1
04e0e5: 6c0136bc         CALL I$$LMPY
04e0e9: ed00bf           MOV dbl(@#00h),XAR3
04e0ec: ed1c00           ADD dbl(@#0eh),AC0,AC0
04e0ef: 2204             MOV AC0,T0
04e0f1: a96b             MOV *AR3(AR0),AR1
04e0f3: ed04bf           MOV dbl(@#02h),XAR3
04e0f6: 8e28bb10b590     MOV XAR3,dbl(@#14h) || AADD AR1,AR3
04e0fc: ed24bf           MOV dbl(@#12h),XAR3
04e0ff: a963             MOV *AR3+,AR1
04e101: eb24b5           MOV XAR3,dbl(@#12h)
04e104: ed28bf           MOV dbl(@#14h),XAR3
04e107: 1490b2           ASUB AR1,AR3
04e10a: df6105           MOV uns(*AR3),AC0
04e10d: ed2000           ADD dbl(@#10h),AC0,AC0
04e110: eb2008           MOV AC0,dbl(@#10h)
04e113: ed24bf           MOV dbl(@#12h),XAR3
04e116: a963             MOV *AR3+,AR1
04e118: eb24b5           MOV XAR3,dbl(@#12h)
04e11b: ed28bf           MOV dbl(@#14h),XAR3
04e11e: 1490b2           ASUB AR1,AR3
04e121: df6105           MOV uns(*AR3),AC0
04e124: ed2000           ADD dbl(@#10h),AC0,AC0
04e127: eb2008           MOV AC0,dbl(@#10h)
04e12a: ed24bf           MOV dbl(@#12h),XAR3
04e12d: a961             MOV *AR3,AR1
04e12f: ed28bf           MOV dbl(@#14h),XAR3
04e132: 1490b2           ASUB AR1,AR3
04e135: df6105           MOV uns(*AR3),AC0
04e138: ed2000           ADD dbl(@#10h),AC0,AC0
04e13b: eb2008           MOV AC0,dbl(@#10h)
04e13e: ed24bf           MOV dbl(@#12h),XAR3
04e141: ed1008           MOV dbl(@#08h),AC0
04e144: 4220             SUB #2,AC0
04e146: 2209             MOV AC0,AR1
04e148: 8e24bb10b590     MOV XAR3,dbl(@#12h) || AADD AR1,AR3
04e14e: a961             MOV *AR3,AR1
04e150: ed28bf           MOV dbl(@#14h),XAR3
04e153: 1490b2           ASUB AR1,AR3
04e156: df6105           MOV uns(*AR3),AC0
04e159: ed2000           ADD dbl(@#10h),AC0,AC0
04e15c: eb2008           MOV AC0,dbl(@#10h)
04e15f: ed24bf           MOV dbl(@#12h),XAR3
04e162: 8e24bb14b502     MOV XAR3,dbl(@#12h) || AADD #2,AR3
04e168: a961             MOV *AR3,AR1
04e16a: ed28bf           MOV dbl(@#14h),XAR3
04e16d: 1490b2           ASUB AR1,AR3
04e170: df6105           MOV uns(*AR3),AC0
04e173: ed2000           ADD dbl(@#10h),AC0,AC0
04e176: eb2008           MOV AC0,dbl(@#10h)
04e179: ed24bf           MOV dbl(@#12h),XAR3
04e17c: ed1008           MOV dbl(@#08h),AC0
04e17f: 4220             SUB #2,AC0
04e181: 2209             MOV AC0,AR1
04e183: 8e24bb10b590     MOV XAR3,dbl(@#12h) || AADD AR1,AR3
04e189: a963             MOV *AR3+,AR1
04e18b: eb24b5           MOV XAR3,dbl(@#12h)
04e18e: ed28bf           MOV dbl(@#14h),XAR3
04e191: 1490b2           ASUB AR1,AR3
04e194: df6105           MOV uns(*AR3),AC0
04e197: ed2000           ADD dbl(@#10h),AC0,AC0
04e19a: eb2008           MOV AC0,dbl(@#10h)
04e19d: ed24bf           MOV dbl(@#12h),XAR3
04e1a0: a963             MOV *AR3+,AR1
04e1a2: eb24b5           MOV XAR3,dbl(@#12h)
04e1a5: ed28bf           MOV dbl(@#14h),XAR3
04e1a8: 1490b2           ASUB AR1,AR3
04e1ab: df6105           MOV uns(*AR3),AC0
04e1ae: ed2000           ADD dbl(@#10h),AC0,AC0
04e1b1: eb2008           MOV AC0,dbl(@#10h)
04e1b4: ed24bf           MOV dbl(@#12h),XAR3
04e1b7: a961             MOV *AR3,AR1
04e1b9: ed28bf           MOV dbl(@#14h),XAR3
04e1bc: 1490b2           ASUB AR1,AR3
04e1bf: df6105           MOV uns(*AR3),AC0
04e1c2: ed2000           ADD dbl(@#10h),AC0,AC0
04e1c5: eb2008           MOV AC0,dbl(@#10h)
04e1c8: ed0c08           MOV dbl(@#06h),AC0
04e1cb: ed2018           MOV dbl(@#10h),AC1
04e1ce: 120410           CMP AC0 < AC1, TC1
04e1d1: 046421           BCC $C$DW$L$_susan_principle_small$4$E,TC1
04e1d4: 6c012f07         CALL _coverage_log
04e1d8:               $C$DW$L$_susan_principle_small$3$E:
04e1d8:               $C$DW$L$_susan_principle_small$4$B:
04e1d8: ed1808           MOV dbl(@#0ch),AC0
04e1db: ed1018           MOV dbl(@#08h),AC1
04e1de: 6c0136bc         CALL I$$LMPY
04e1e2: ed08bf           MOV dbl(@#04h),XAR3
04e1e5: ed1c00           ADD dbl(@#0eh),AC0,AC0
04e1e8: 2204             MOV AC0,T0
04e1ea: 5040             SFTL T0,#1
04e1ec: ed2008           MOV dbl(@#10h),AC0
04e1ef: ed0c04           SUB AC0,dbl(@#06h),AC0
04e1f2: eb6b08           MOV AC0,dbl(*AR3(AR0))
04e1f5:               $C$DW$L$_susan_principle_small$4$E:
04e1f5:               $C$L39:
04e1f5: 20               NOP
04e1f6: 20               NOP
04e1f7: 20               NOP
04e1f8: 20               NOP
04e1f9:               $C$DW$L$_susan_principle_small$5$B:
04e1f9: ed1c08           MOV dbl(@#0eh),AC0
04e1fc: 4010             ADD #1,AC0
04e1fe: eb1c08           MOV AC0,dbl(@#0eh)
04e201: ed1008           MOV dbl(@#08h),AC0
04e204: ed1c18_4310      MOV dbl(@#0eh),AC1 || SUB #1,AC0
04e209: 121400           CMP AC1 < AC0, TC1
04e20c: 6d64fea6         BCC $C$DW$L$_susan_principle_small$2$E,TC1
04e210: 20               NOP
04e211: 20               NOP
04e212: 20               NOP
04e213: 20               NOP
04e214:               $C$DW$L$_susan_principle_small$5$E:
04e214:               $C$L40:
04e214: 20               NOP
04e215: 20               NOP
04e216: 20               NOP
04e217: 20               NOP
04e218:               $C$DW$L$_susan_principle_small$6$B:
04e218: ed1808           MOV dbl(@#0ch),AC0
04e21b: 4010             ADD #1,AC0
04e21d: eb1808           MOV AC0,dbl(@#0ch)
04e220: ed1408           MOV dbl(@#0ah),AC0
04e223: ed1818_4310      MOV dbl(@#0ch),AC1 || SUB #1,AC0
04e228: 121400           CMP AC1 < AC0, TC1
04e22b: 6d64fe6b         BCC $C$L37,TC1
04e22f: 20               NOP
04e230: 20               NOP
04e231: 20               NOP
04e232: 20               NOP
04e233:               $C$L41:
04e233:               $C$DW$L$_susan_principle_small$6$E:
04e233: 20               NOP
04e234: 20               NOP
04e235: 20               NOP
04e236: 20               NOP
04e237: 4e17             AADD #23,SP
04e239: 4804             RET
04e23b:               _susan_edges_small:
04e23b: 6c012f07         CALL _coverage_log
04e23f: 4ed3             AADD #-45,SP
04e241: eb1828           MOV AC2,dbl(@#0ch)
04e244: eb1418           MOV AC1,dbl(@#0ah)
04e247: eb1008           MOV AC0,dbl(@#08h)
04e24a: eb0cb5           MOV XAR3,dbl(@#06h)
04e24d: eb08a5           MOV XAR2,dbl(@#04h)
04e250: eb0495           MOV XAR1,dbl(@#02h)
04e253: eb0085           MOV XAR0,dbl(@#00h)
04e256: ed1408           MOV dbl(@#0ah),AC0
04e259: ed1818           MOV dbl(@#0ch),AC1
04e25c: 6c0136bc         CALL I$$LMPY
04e260: ed048f           MOV dbl(@#02h),XAR0
04e263: 4450_3d04        SFTS AC0,#1 || MOV #0,T0
04e267: 6c0136e1_2305    CALL _memset || MOV AC0,T1
04e26d: 7602da08         MOV #730,AC0
04e271: eb1008           MOV AC0,dbl(@#08h)
04e274: 3c10             MOV #1,AC0
04e276: eb2408           MOV AC0,dbl(@#12h)
04e279: ed1808           MOV dbl(@#0ch),AC0
04e27c: ed2418_4310      MOV dbl(@#12h),AC1 || SUB #1,AC0
04e281: 121800           CMP AC1 >= AC0, TC1
04e284: 6d64019d         BCC $C$DW$L$_susan_edges_small$6$E,TC1
04e288: 6c012f07         CALL _coverage_log
04e28c:               $C$L42:
04e28c: 6c012f07         CALL _coverage_log
04e290:               $C$DW$L$_susan_edges_small$2$B:
04e290: 3c10             MOV #1,AC0
04e292: eb2808           MOV AC0,dbl(@#14h)
04e295: ed1408           MOV dbl(@#0ah),AC0
04e298: ed2818_4310      MOV dbl(@#14h),AC1 || SUB #1,AC0
04e29d: 121800           CMP AC1 >= AC0, TC1
04e2a0: 6d640162         BCC $C$DW$L$_susan_edges_small$5$E,TC1
04e2a4: 6c012f07         CALL _coverage_log
04e2a8:               $C$DW$L$_susan_edges_small$2$E:
04e2a8:               $C$L43:
04e2a8: 6c012f07         CALL _coverage_log
04e2ac:               $C$DW$L$_susan_edges_small$3$B:
04e2ac: 76006408         MOV #100,AC0
04e2b0: eb3008           MOV AC0,dbl(@#18h)
04e2b3: ed1418_3d10      MOV dbl(@#0ah),AC1 || MOV #1,AC0
04e2b8: ed2404           SUB AC0,dbl(@#12h),AC0
04e2bb: 6c0136bc         CALL I$$LMPY
04e2bf: 2209             MOV AC0,AR1
04e2c1: ed00bf           MOV dbl(@#00h),XAR3
04e2c4: 8a2ab91890       MOV @#15h,AR1 || AADD AR1,AR3
04e2c9: 1490b0           AADD AR1,AR3
04e2cc: b465             AMAR *AR3-
04e2ce: eb4cb5           MOV XAR3,dbl(@#26h)
04e2d1: ed2408           MOV dbl(@#12h),AC0
04e2d4: ed1418           MOV dbl(@#0ah),AC1
04e2d7: 6c0136bc         CALL I$$LMPY
04e2db: ed00bf           MOV dbl(@#00h),XAR3
04e2de: ed2800           ADD dbl(@#14h),AC0,AC0
04e2e1: 2204             MOV AC0,T0
04e2e3: a96b             MOV *AR3(AR0),AR1
04e2e5: ed0cbf           MOV dbl(@#06h),XAR3
04e2e8: 8e50bb10b590     MOV XAR3,dbl(@#28h) || AADD AR1,AR3
04e2ee: ed4cbf           MOV dbl(@#26h),XAR3
04e2f1: a963             MOV *AR3+,AR1
04e2f3: eb4cb5           MOV XAR3,dbl(@#26h)
04e2f6: ed50bf           MOV dbl(@#28h),XAR3
04e2f9: 1490b2           ASUB AR1,AR3
04e2fc: df6105           MOV uns(*AR3),AC0
04e2ff: ed3000           ADD dbl(@#18h),AC0,AC0
04e302: eb3008           MOV AC0,dbl(@#18h)
04e305: ed4cbf           MOV dbl(@#26h),XAR3
04e308: a963             MOV *AR3+,AR1
04e30a: eb4cb5           MOV XAR3,dbl(@#26h)
04e30d: ed50bf           MOV dbl(@#28h),XAR3
04e310: 1490b2           ASUB AR1,AR3
04e313: df6105           MOV uns(*AR3),AC0
04e316: ed3000           ADD dbl(@#18h),AC0,AC0
04e319: eb3008           MOV AC0,dbl(@#18h)
04e31c: ed4cbf           MOV dbl(@#26h),XAR3
04e31f: a961             MOV *AR3,AR1
04e321: ed50bf           MOV dbl(@#28h),XAR3
04e324: 1490b2           ASUB AR1,AR3
04e327: df6105           MOV uns(*AR3),AC0
04e32a: ed3000           ADD dbl(@#18h),AC0,AC0
04e32d: eb3008           MOV AC0,dbl(@#18h)
04e330: ed4cbf           MOV dbl(@#26h),XAR3
04e333: ed1408           MOV dbl(@#0ah),AC0
04e336: 4220             SUB #2,AC0
04e338: 2209             MOV AC0,AR1
04e33a: 8e4cbb10b590     MOV XAR3,dbl(@#26h) || AADD AR1,AR3
04e340: a961             MOV *AR3,AR1
04e342: ed50bf           MOV dbl(@#28h),XAR3
04e345: 1490b2           ASUB AR1,AR3
04e348: df6105           MOV uns(*AR3),AC0
04e34b: ed3000           ADD dbl(@#18h),AC0,AC0
04e34e: eb3008           MOV AC0,dbl(@#18h)
04e351: ed4cbf           MOV dbl(@#26h),XAR3
04e354: 8e4cbb14b502     MOV XAR3,dbl(@#26h) || AADD #2,AR3
04e35a: a961             MOV *AR3,AR1
04e35c: ed50bf           MOV dbl(@#28h),XAR3
04e35f: 1490b2           ASUB AR1,AR3
04e362: df6105           MOV uns(*AR3),AC0
04e365: ed3000           ADD dbl(@#18h),AC0,AC0
04e368: eb3008           MOV AC0,dbl(@#18h)
04e36b: ed4cbf           MOV dbl(@#26h),XAR3
04e36e: ed1408           MOV dbl(@#0ah),AC0
04e371: 4220             SUB #2,AC0
04e373: 2209             MOV AC0,AR1
04e375: 8e4cbb10b590     MOV XAR3,dbl(@#26h) || AADD AR1,AR3
04e37b: a963             MOV *AR3+,AR1
04e37d: eb4cb5           MOV XAR3,dbl(@#26h)
04e380: ed50bf           MOV dbl(@#28h),XAR3
04e383: 1490b2           ASUB AR1,AR3
04e386: df6105           MOV uns(*AR3),AC0
04e389: ed3000           ADD dbl(@#18h),AC0,AC0
04e38c: eb3008           MOV AC0,dbl(@#18h)
04e38f: ed4cbf           MOV dbl(@#26h),XAR3
04e392: a963             MOV *AR3+,AR1
04e394: eb4cb5           MOV XAR3,dbl(@#26h)
04e397: ed50bf           MOV dbl(@#28h),XAR3
04e39a: 1490b2           ASUB AR1,AR3
04e39d: df6105           MOV uns(*AR3),AC0
04e3a0: ed3000           ADD dbl(@#18h),AC0,AC0
04e3a3: eb3008           MOV AC0,dbl(@#18h)
04e3a6: ed4cbf           MOV dbl(@#26h),XAR3
04e3a9: a961             MOV *AR3,AR1
04e3ab: ed50bf           MOV dbl(@#28h),XAR3
04e3ae: 1490b2           ASUB AR1,AR3
04e3b1: df6105           MOV uns(*AR3),AC0
04e3b4: ed3000           ADD dbl(@#18h),AC0,AC0
04e3b7: eb3008           MOV AC0,dbl(@#18h)
04e3ba: ed1008           MOV dbl(@#08h),AC0
04e3bd: ed3018           MOV dbl(@#18h),AC1
04e3c0: 120410           CMP AC0 < AC1, TC1
04e3c3: 046421           BCC $C$DW$L$_susan_edges_small$4$E,TC1
04e3c6: 6c012f07         CALL _coverage_log
04e3ca:               $C$DW$L$_susan_edges_small$3$E:
04e3ca:               $C$DW$L$_susan_edges_small$4$B:
04e3ca: ed2408           MOV dbl(@#12h),AC0
04e3cd: ed1418           MOV dbl(@#0ah),AC1
04e3d0: 6c0136bc         CALL I$$LMPY
04e3d4: ed04bf           MOV dbl(@#02h),XAR3
04e3d7: ed2800           ADD dbl(@#14h),AC0,AC0
04e3da: 2204             MOV AC0,T0
04e3dc: 5040             SFTL T0,#1
04e3de: ed3008           MOV dbl(@#18h),AC0
04e3e1: ed1004           SUB AC0,dbl(@#08h),AC0
04e3e4: eb6b08           MOV AC0,dbl(*AR3(AR0))
04e3e7:               $C$DW$L$_susan_edges_small$4$E:
04e3e7:               $C$L44:
04e3e7: 6c012f07         CALL _coverage_log
04e3eb:               $C$DW$L$_susan_edges_small$5$B:
04e3eb: ed2808           MOV dbl(@#14h),AC0
04e3ee: 4010             ADD #1,AC0
04e3f0: eb2808           MOV AC0,dbl(@#14h)
04e3f3: ed1408           MOV dbl(@#0ah),AC0
04e3f6: ed2818_4310      MOV dbl(@#14h),AC1 || SUB #1,AC0
04e3fb: 121400           CMP AC1 < AC0, TC1
04e3fe: 6d64fea6         BCC $C$DW$L$_susan_edges_small$2$E,TC1
04e402: 6c012f07         CALL _coverage_log
04e406:               $C$DW$L$_susan_edges_small$5$E:
04e406:               $C$L45:
04e406: 6c012f07         CALL _coverage_log
04e40a:               $C$DW$L$_susan_edges_small$6$B:
04e40a: ed2408           MOV dbl(@#12h),AC0
04e40d: 4010             ADD #1,AC0
04e40f: eb2408           MOV AC0,dbl(@#12h)
04e412: ed1808           MOV dbl(@#0ch),AC0
04e415: ed2418_4310      MOV dbl(@#12h),AC1 || SUB #1,AC0
04e41a: 121400           CMP AC1 < AC0, TC1
04e41d: 6d64fe6b         BCC $C$L42,TC1
04e421: 6c012f07         CALL _coverage_log
04e425:               $C$DW$L$_susan_edges_small$6$E:
04e425:               $C$L46:
04e425: 6c012f07         CALL _coverage_log
04e429: 3c20             MOV #2,AC0
04e42b: eb2408           MOV AC0,dbl(@#12h)
04e42e: ed1808           MOV dbl(@#0ch),AC0
04e431: ed2418_4320      MOV dbl(@#12h),AC1 || SUB #2,AC0
04e436: 121800           CMP AC1 >= AC0, TC1
04e439: 6d64062c         BCC $C$L68,TC1
04e43d: 6c012f07         CALL _coverage_log
04e441:               $C$L47:
04e441: 6c012f07         CALL _coverage_log
04e445:               $C$DW$L$_susan_edges_small$8$B:
04e445: 3c20             MOV #2,AC0
04e447: eb2808           MOV AC0,dbl(@#14h)
04e44a: ed1408           MOV dbl(@#0ah),AC0
04e44d: ed2818_4320      MOV dbl(@#14h),AC1 || SUB #2,AC0
04e452: 121800           CMP AC1 >= AC0, TC1
04e455: 6d6405f1         BCC $C$DW$L$_susan_edges_small$44$E,TC1
04e459: 6c012f07         CALL _coverage_log
04e45d:               $C$DW$L$_susan_edges_small$8$E:
04e45d:               $C$L48:
04e45d: 6c012f07         CALL _coverage_log
04e461:               $C$DW$L$_susan_edges_small$9$B:
04e461: ed2408           MOV dbl(@#12h),AC0
04e464: ed1418           MOV dbl(@#0ah),AC1
04e467: 6c0136bc         CALL I$$LMPY
04e46b: ed04bf           MOV dbl(@#02h),XAR3
04e46e: ed2800           ADD dbl(@#14h),AC0,AC0
04e471: 2204             MOV AC0,T0
04e473: 5040             SFTL T0,#1
04e475: ed6b08           MOV dbl(*AR3(AR0)),AC0
04e478: 6d3005af         BCC $C$DW$L$_susan_edges_small$43$E,AC0 <= #0
04e47c: 6c012f07         CALL _coverage_log
04e480:               $C$DW$L$_susan_edges_small$9$E:
04e480:               $C$DW$L$_susan_edges_small$10$B:
04e480: ed2408           MOV dbl(@#12h),AC0
04e483: ed1418           MOV dbl(@#0ah),AC1
04e486: 6c0136bc         CALL I$$LMPY
04e48a: ed04bf           MOV dbl(@#02h),XAR3
04e48d: ed2800           ADD dbl(@#14h),AC0,AC0
04e490: 2204             MOV AC0,T0
04e492: 5040             SFTL T0,#1
04e494: ed6b08           MOV dbl(*AR3(AR0)),AC0
04e497: eb2c08           MOV AC0,dbl(@#16h)
04e49a: ed2c08           MOV dbl(@#16h),AC0
04e49d: ed1004           SUB AC0,dbl(@#08h),AC0
04e4a0: eb3008           MOV AC0,dbl(@#18h)
04e4a3: ed2408           MOV dbl(@#12h),AC0
04e4a6: ed1418           MOV dbl(@#0ah),AC1
04e4a9: 6c0136bc         CALL I$$LMPY
04e4ad: ed00bf           MOV dbl(@#00h),XAR3
04e4b0: ed2800           ADD dbl(@#14h),AC0,AC0
04e4b3: 2204             MOV AC0,T0
04e4b5: a96b             MOV *AR3(AR0),AR1
04e4b7: ed0cbf           MOV dbl(@#06h),XAR3
04e4ba: 8e50bb10b590     MOV XAR3,dbl(@#28h) || AADD AR1,AR3
04e4c0: 7600fa08         MOV #250,AC0
04e4c4: ed3018           MOV dbl(@#18h),AC1
04e4c7: 120810           CMP AC0 >= AC1, TC1
04e4ca: 6d6402d6         BCC $C$DW$L$_susan_edges_small$28$E,TC1
04e4ce: 6c012f07         CALL _coverage_log
04e4d2:               $C$DW$L$_susan_edges_small$10$E:
04e4d2:               $C$DW$L$_susan_edges_small$11$B:
04e4d2: ed1418_3d10      MOV dbl(@#0ah),AC1 || MOV #1,AC0
04e4d7: ed2404           SUB AC0,dbl(@#12h),AC0
04e4da: 6c0136bc         CALL I$$LMPY
04e4de: 2209             MOV AC0,AR1
04e4e0: ed00bf           MOV dbl(@#00h),XAR3
04e4e3: 8a2ab91890       MOV @#15h,AR1 || AADD AR1,AR3
04e4e8: 1490b0           AADD AR1,AR3
04e4eb: b465             AMAR *AR3-
04e4ed: eb4cb5           MOV XAR3,dbl(@#26h)
04e4f0: 3c00             MOV #0,AC0
04e4f2: eb3c08           MOV AC0,dbl(@#1eh)
04e4f5: eb4008           MOV AC0,dbl(@#20h)
04e4f8: ed4cbf           MOV dbl(@#26h),XAR3
04e4fb: a963             MOV *AR3+,AR1
04e4fd: eb4cb5           MOV XAR3,dbl(@#26h)
04e500: ed50bf           MOV dbl(@#28h),XAR3
04e503: 1490b2           ASUB AR1,AR3
04e506: a961             MOV *AR3,AR1
04e508: c948             MOV AR1,@#24h
04e50a: df4805           MOV uns(@#24h),AC0
04e50d: ed3c04           SUB AC0,dbl(@#1eh),AC0
04e510: eb3c08           MOV AC0,dbl(@#1eh)
04e513: df4805           MOV uns(@#24h),AC0
04e516: ed4004           SUB AC0,dbl(@#20h),AC0
04e519: eb4008           MOV AC0,dbl(@#20h)
04e51c: ed4cbf           MOV dbl(@#26h),XAR3
04e51f: a963             MOV *AR3+,AR1
04e521: eb4cb5           MOV XAR3,dbl(@#26h)
04e524: ed50bf           MOV dbl(@#28h),XAR3
04e527: 1490b2           ASUB AR1,AR3
04e52a: a961             MOV *AR3,AR1
04e52c: c948             MOV AR1,@#24h
04e52e: df4805           MOV uns(@#24h),AC0
04e531: ed4004           SUB AC0,dbl(@#20h),AC0
04e534: eb4008           MOV AC0,dbl(@#20h)
04e537: ed4cbf           MOV dbl(@#26h),XAR3
04e53a: a961             MOV *AR3,AR1
04e53c: ed50bf           MOV dbl(@#28h),XAR3
04e53f: 1490b2           ASUB AR1,AR3
04e542: a961             MOV *AR3,AR1
04e544: c948             MOV AR1,@#24h
04e546: df4805           MOV uns(@#24h),AC0
04e549: ed3c00           ADD dbl(@#1eh),AC0,AC0
04e54c: eb3c08           MOV AC0,dbl(@#1eh)
04e54f: df4805           MOV uns(@#24h),AC0
04e552: ed4004           SUB AC0,dbl(@#20h),AC0
04e555: eb4008           MOV AC0,dbl(@#20h)
04e558: ed4cbf           MOV dbl(@#26h),XAR3
04e55b: ed1408           MOV dbl(@#0ah),AC0
04e55e: 4220             SUB #2,AC0
04e560: 2209             MOV AC0,AR1
04e562: 8e4cbb10b590     MOV XAR3,dbl(@#26h) || AADD AR1,AR3
04e568: a961             MOV *AR3,AR1
04e56a: ed50bf           MOV dbl(@#28h),XAR3
04e56d: 1490b2           ASUB AR1,AR3
04e570: a961             MOV *AR3,AR1
04e572: c948             MOV AR1,@#24h
04e574: df4805           MOV uns(@#24h),AC0
04e577: ed3c04           SUB AC0,dbl(@#1eh),AC0
04e57a: eb3c08           MOV AC0,dbl(@#1eh)
04e57d: ed4cbf           MOV dbl(@#26h),XAR3
04e580: 8e4cbb14b502     MOV XAR3,dbl(@#26h) || AADD #2,AR3
04e586: a961             MOV *AR3,AR1
04e588: ed50bf           MOV dbl(@#28h),XAR3
04e58b: 1490b2           ASUB AR1,AR3
04e58e: a961             MOV *AR3,AR1
04e590: c948             MOV AR1,@#24h
04e592: df4805           MOV uns(@#24h),AC0
04e595: ed3c00           ADD dbl(@#1eh),AC0,AC0
04e598: eb3c08           MOV AC0,dbl(@#1eh)
04e59b: ed4cbf           MOV dbl(@#26h),XAR3
04e59e: ed1408           MOV dbl(@#0ah),AC0
04e5a1: 4220             SUB #2,AC0
04e5a3: 2209             MOV AC0,AR1
04e5a5: 8e4cbb10b590     MOV XAR3,dbl(@#26h) || AADD AR1,AR3
04e5ab: a963             MOV *AR3+,AR1
04e5ad: eb4cb5           MOV XAR3,dbl(@#26h)
04e5b0: ed50bf           MOV dbl(@#28h),XAR3
04e5b3: 1490b2           ASUB AR1,AR3
04e5b6: a961             MOV *AR3,AR1
04e5b8: c948             MOV AR1,@#24h
04e5ba: df4805           MOV uns(@#24h),AC0
04e5bd: ed3c04           SUB AC0,dbl(@#1eh),AC0
04e5c0: eb3c08           MOV AC0,dbl(@#1eh)
04e5c3: df4805           MOV uns(@#24h),AC0
04e5c6: ed4000           ADD dbl(@#20h),AC0,AC0
04e5c9: eb4008           MOV AC0,dbl(@#20h)
04e5cc: ed4cbf           MOV dbl(@#26h),XAR3
04e5cf: a963             MOV *AR3+,AR1
04e5d1: eb4cb5           MOV XAR3,dbl(@#26h)
04e5d4: ed50bf           MOV dbl(@#28h),XAR3
04e5d7: 1490b2           ASUB AR1,AR3
04e5da: a961             MOV *AR3,AR1
04e5dc: c948             MOV AR1,@#24h
04e5de: df4805           MOV uns(@#24h),AC0
04e5e1: ed4000           ADD dbl(@#20h),AC0,AC0
04e5e4: eb4008           MOV AC0,dbl(@#20h)
04e5e7: ed4cbf           MOV dbl(@#26h),XAR3
04e5ea: a961             MOV *AR3,AR1
04e5ec: ed50bf           MOV dbl(@#28h),XAR3
04e5ef: 1490b2           ASUB AR1,AR3
04e5f2: a961             MOV *AR3,AR1
04e5f4: c948             MOV AR1,@#24h
04e5f6: df4805           MOV uns(@#24h),AC0
04e5f9: ed3c00           ADD dbl(@#1eh),AC0,AC0
04e5fc: eb3c08           MOV AC0,dbl(@#1eh)
04e5ff: df4805           MOV uns(@#24h),AC0
04e602: ed4000           ADD dbl(@#20h),AC0,AC0
04e605: eb4008           MOV AC0,dbl(@#20h)
04e608: ed3c08           MOV dbl(@#1eh),AC0
04e60b: ed3c18           MOV dbl(@#1eh),AC1
04e60e: 6c0136bc         CALL I$$LMPY
04e612: ed4018           MOV dbl(@#20h),AC1
04e615: ed4008_1b0020    MOV dbl(@#20h),AC0 || OR #0,AC0,AC2
04e61b: 6c0136bc         CALL I$$LMPY
04e61f: 6c013349_2520    CALL __fltlid || ADD AC2,AC0
04e625: 6c012ad8         CALL _sqrt
04e629: eb1c08           MOV AC0,dbl(@#0eh)
04e62c: ed3008           MOV dbl(@#18h),AC0
04e62f: 6c013349         CALL __fltlid
04e633: 1a0010           OR #0,AC0,AC1
04e636: ed310804eb5a     MOV dbl(*(#04eb5ah)),AC0
04e63c: 6c01298c         CALL __mpyd
04e640: ed1c08_1b0010    MOV dbl(@#0eh),AC0 || OR #0,AC0,AC1
04e646: 6c01277e         CALL __cmpd
04e64a: 6d34014b         BCC $C$DW$L$_susan_edges_small$27$E,T0 <= #0
04e64e: 6c012f07         CALL _coverage_log
04e652:               $C$DW$L$_susan_edges_small$11$E:
04e652:               $C$DW$L$_susan_edges_small$12$B:
04e652: 3c00             MOV #0,AC0
04e654: eb2008           MOV AC0,dbl(@#10h)
04e657: ed3c08           MOV dbl(@#1eh),AC0
04e65a: 6790             BCC $C$DW$L$_susan_edges_small$13$E,AC0 != #0
04e65c: 6c012f07         CALL _coverage_log
04e660:               $C$DW$L$_susan_edges_small$12$E:
04e660:               $C$DW$L$_susan_edges_small$13$B:
04e660: ed310804eb5c     MOV dbl(*(#04eb5ch)),AC0
04e666: eb1c08           MOV AC0,dbl(@#0eh)
04e669: 4a22             B $C$DW$L$_susan_edges_small$14$E
04e66b:               $C$DW$L$_susan_edges_small$13$E:
04e66b:               $C$L49:
04e66b: 6c012f07         CALL _coverage_log
04e66f:               $C$DW$L$_susan_edges_small$14$B:
04e66f: ed4008           MOV dbl(@#20h),AC0
04e672: 6c013349         CALL __fltlid
04e676: eb5408           MOV AC0,dbl(@#2ah)
04e679: ed3c08           MOV dbl(@#1eh),AC0
04e67c: 6c013349         CALL __fltlid
04e680: ed5408_1b0010    MOV dbl(@#2ah),AC0 || OR #0,AC0,AC1
04e686: 6c01196c         CALL __divd
04e68a: eb1c08           MOV AC0,dbl(@#0eh)
04e68d:               $C$DW$L$_susan_edges_small$14$E:
04e68d:               $C$L50:
04e68d: 6c012f07         CALL _coverage_log
04e691:               $C$DW$L$_susan_edges_small$15$B:
04e691: ed311804eb5e     MOV dbl(*(#04eb5eh)),AC1
04e697: 6c01277e         CALL __cmpd
04e69b: 045415           BCC $C$DW$L$_susan_edges_small$16$E,T0 >= #0
04e69e: 6c012f07         CALL _coverage_log
04e6a2:               $C$DW$L$_susan_edges_small$15$E:
04e6a2:               $C$DW$L$_susan_edges_small$16$B:
04e6a2: ed1c08           MOV dbl(@#0eh),AC0
04e6a5: 6c0136f2         CALL __negd
04e6a9: eb1c08           MOV AC0,dbl(@#0eh)
04e6ac: 3e10             MOV #-1,AC0
04e6ae: eb4408           MOV AC0,dbl(@#22h)
04e6b1: 4a09             B $C$DW$L$_susan_edges_small$17$E
04e6b3:               $C$DW$L$_susan_edges_small$16$E:
04e6b3:               $C$L51:
04e6b3: 6c012f07         CALL _coverage_log
04e6b7:               $C$DW$L$_susan_edges_small$17$B:
04e6b7: 3c10             MOV #1,AC0
04e6b9: eb4408           MOV AC0,dbl(@#22h)
04e6bc:               $C$DW$L$_susan_edges_small$17$E:
04e6bc:               $C$L52:
04e6bc: 6c012f07         CALL _coverage_log
04e6c0:               $C$DW$L$_susan_edges_small$18$B:
04e6c0: ed1c08           MOV dbl(@#0eh),AC0
04e6c3: ed311804eb60     MOV dbl(*(#04eb60h)),AC1
04e6c9: 6c01277e         CALL __cmpd
04e6cd: 045411           BCC $C$DW$L$_susan_edges_small$19$E,T0 >= #0
04e6d0: 6c012f07         CALL _coverage_log
04e6d4:               $C$DW$L$_susan_edges_small$18$E:
04e6d4:               $C$DW$L$_susan_edges_small$19$B:
04e6d4: 3c00             MOV #0,AC0
04e6d6: eb3408           MOV AC0,dbl(@#1ah)
04e6d9: 3c10             MOV #1,AC0
04e6db: eb3808           MOV AC0,dbl(@#1ch)
04e6de: 060049           B $C$DW$L$_susan_edges_small$24$E
04e6e1:               $C$DW$L$_susan_edges_small$19$E:
04e6e1:               $C$L53:
04e6e1: 6c012f07         CALL _coverage_log
04e6e5:               $C$DW$L$_susan_edges_small$20$B:
04e6e5: ed1c08           MOV dbl(@#0eh),AC0
04e6e8: ed311804eb62     MOV dbl(*(#04eb62h)),AC1
04e6ee: 6c01277e         CALL __cmpd
04e6f2: 043410           BCC $C$DW$L$_susan_edges_small$21$E,T0 <= #0
04e6f5: 6c012f07         CALL _coverage_log
04e6f9:               $C$DW$L$_susan_edges_small$20$E:
04e6f9:               $C$DW$L$_susan_edges_small$21$B:
04e6f9: 3c10             MOV #1,AC0
04e6fb: eb3408           MOV AC0,dbl(@#1ah)
04e6fe: 3c00             MOV #0,AC0
04e700: eb3808           MOV AC0,dbl(@#1ch)
04e703: 4a25             B $C$DW$L$_susan_edges_small$24$E
04e705:               $C$DW$L$_susan_edges_small$21$E:
04e705:               $C$L54:
04e705: 6c012f07         CALL _coverage_log
04e709:               $C$DW$L$_susan_edges_small$22$B:
04e709: ed4408           MOV dbl(@#22h),AC0
04e70c: 6730             BCC $C$DW$L$_susan_edges_small$23$E,AC0 <= #0
04e70e: 6c012f07         CALL _coverage_log
04e712:               $C$DW$L$_susan_edges_small$22$E:
04e712:               $C$DW$L$_susan_edges_small$23$B:
04e712: 3c10             MOV #1,AC0
04e714: eb3408           MOV AC0,dbl(@#1ah)
04e717: eb3808           MOV AC0,dbl(@#1ch)
04e71a: 4a0e             B $C$DW$L$_susan_edges_small$24$E
04e71c:               $C$DW$L$_susan_edges_small$23$E:
04e71c:               $C$L55:
04e71c: 6c012f07         CALL _coverage_log
04e720:               $C$DW$L$_susan_edges_small$24$B:
04e720: 3e10             MOV #-1,AC0
04e722: eb3408           MOV AC0,dbl(@#1ah)
04e725: 3c10             MOV #1,AC0
04e727: eb3808           MOV AC0,dbl(@#1ch)
04e72a:               $C$DW$L$_susan_edges_small$24$E:
04e72a:               $C$L56:
04e72a: 6c012f07         CALL _coverage_log
04e72e:               $C$DW$L$_susan_edges_small$25$B:
04e72e: ed3408           MOV dbl(@#1ah),AC0
04e731: ed1418           MOV dbl(@#0ah),AC1
04e734: ed2400           ADD dbl(@#12h),AC0,AC0
04e737: 6c0136bc         CALL I$$LMPY
04e73b: ed04bf           MOV dbl(@#02h),XAR3
04e73e: ed2800           ADD dbl(@#14h),AC0,AC0
04e741: ed3800           ADD dbl(@#1ch),AC0,AC0
04e744: 2204             MOV AC0,T0
04e746: 5040             SFTL T0,#1
04e748: ed2c18           MOV dbl(@#16h),AC1
04e74b: ed6b08           MOV dbl(*AR3(AR0)),AC0
04e74e: 120810           CMP AC0 >= AC1, TC1
04e751: 046459           BCC $C$DW$L$_susan_edges_small$29$E,TC1
04e754: 6c012f07         CALL _coverage_log
04e758:               $C$DW$L$_susan_edges_small$25$E:
04e758:               $C$DW$L$_susan_edges_small$26$B:
04e758: ed3408           MOV dbl(@#1ah),AC0
04e75b: ed1418           MOV dbl(@#0ah),AC1
04e75e: ed2404           SUB AC0,dbl(@#12h),AC0
04e761: 6c0136bc         CALL I$$LMPY
04e765: ed04bf           MOV dbl(@#02h),XAR3
04e768: ed2800           ADD dbl(@#14h),AC0,AC0
04e76b: ed3802           SUB dbl(@#1ch),AC0,AC0
04e76e: 2204             MOV AC0,T0
04e770: 5040             SFTL T0,#1
04e772: ed2c18           MOV dbl(@#16h),AC1
04e775: ed6b08           MOV dbl(*AR3(AR0)),AC0
04e778: 121400           CMP AC1 < AC0, TC1
04e77b: 04642f           BCC $C$DW$L$_susan_edges_small$29$E,TC1
04e77e: 6c012f07         CALL _coverage_log
04e782:               $C$DW$L$_susan_edges_small$26$E:
04e782:               $C$DW$L$_susan_edges_small$27$B:
04e782: ed2408           MOV dbl(@#12h),AC0
04e785: ed1418           MOV dbl(@#0ah),AC1
04e788: 6c0136bc         CALL I$$LMPY
04e78c: ed08bf           MOV dbl(@#04h),XAR3
04e78f: ed2800           ADD dbl(@#14h),AC0,AC0
04e792: 2204             MOV AC0,T0
04e794: e66b01           MOV #1,*AR3(AR0)
04e797: 4a14             B $C$DW$L$_susan_edges_small$29$E
04e799:               $C$DW$L$_susan_edges_small$27$E:
04e799:               $C$L57:
04e799: 6c012f07         CALL _coverage_log
04e79d:               $C$DW$L$_susan_edges_small$28$B:
04e79d: 3c10             MOV #1,AC0
04e79f: eb2008           MOV AC0,dbl(@#10h)
04e7a2: 4a09             B $C$DW$L$_susan_edges_small$29$E
04e7a4:               $C$DW$L$_susan_edges_small$28$E:
04e7a4:               $C$L58:
04e7a4: 6c012f07         CALL _coverage_log
04e7a8:               $C$DW$L$_susan_edges_small$29$B:
04e7a8: 3c10             MOV #1,AC0
04e7aa: eb2008           MOV AC0,dbl(@#10h)
04e7ad:               $C$DW$L$_susan_edges_small$29$E:
04e7ad:               $C$L59:
04e7ad: 6c012f07         CALL _coverage_log
04e7b1:               $C$DW$L$_susan_edges_small$30$B:
04e7b1: ed2018_3d10      MOV dbl(@#10h),AC1 || MOV #1,AC0
04e7b6: 121c00           CMP AC1 != AC0, TC1
04e7b9: 6d64026e         BCC $C$DW$L$_susan_edges_small$43$E,TC1
04e7bd: 6c012f07         CALL _coverage_log
04e7c1:               $C$DW$L$_susan_edges_small$30$E:
04e7c1:               $C$DW$L$_susan_edges_small$31$B:
04e7c1: ed2404           SUB AC0,dbl(@#12h),AC0
04e7c4: ed1418           MOV dbl(@#0ah),AC1
04e7c7: 6c0136bc         CALL I$$LMPY
04e7cb: 2209             MOV AC0,AR1
04e7cd: ed00bf           MOV dbl(@#00h),XAR3
04e7d0: 8a2ab91890       MOV @#15h,AR1 || AADD AR1,AR3
04e7d5: 1490b0           AADD AR1,AR3
04e7d8: b465             AMAR *AR3-
04e7da: eb4cb5           MOV XAR3,dbl(@#26h)
04e7dd: 3c00             MOV #0,AC0
04e7df: eb3c08           MOV AC0,dbl(@#1eh)
04e7e2: eb4008           MOV AC0,dbl(@#20h)
04e7e5: eb4408           MOV AC0,dbl(@#22h)
04e7e8: ed4cbf           MOV dbl(@#26h),XAR3
04e7eb: a963             MOV *AR3+,AR1
04e7ed: eb4cb5           MOV XAR3,dbl(@#26h)
04e7f0: ed50bf           MOV dbl(@#28h),XAR3
04e7f3: 1490b2           ASUB AR1,AR3
04e7f6: a961             MOV *AR3,AR1
04e7f8: c948             MOV AR1,@#24h
04e7fa: df4805           MOV uns(@#24h),AC0
04e7fd: ed3c00           ADD dbl(@#1eh),AC0,AC0
04e800: eb3c08           MOV AC0,dbl(@#1eh)
04e803: df4805           MOV uns(@#24h),AC0
04e806: ed4000           ADD dbl(@#20h),AC0,AC0
04e809: eb4008           MOV AC0,dbl(@#20h)
04e80c: df4805           MOV uns(@#24h),AC0
04e80f: ed4400           ADD dbl(@#22h),AC0,AC0
04e812: eb4408           MOV AC0,dbl(@#22h)
04e815: ed4cbf           MOV dbl(@#26h),XAR3
04e818: a963             MOV *AR3+,AR1
04e81a: eb4cb5           MOV XAR3,dbl(@#26h)
04e81d: ed50bf           MOV dbl(@#28h),XAR3
04e820: 1490b2           ASUB AR1,AR3
04e823: a961             MOV *AR3,AR1
04e825: c948             MOV AR1,@#24h
04e827: df4805           MOV uns(@#24h),AC0
04e82a: ed4000           ADD dbl(@#20h),AC0,AC0
04e82d: eb4008           MOV AC0,dbl(@#20h)
04e830: ed4cbf           MOV dbl(@#26h),XAR3
04e833: a961             MOV *AR3,AR1
04e835: ed50bf           MOV dbl(@#28h),XAR3
04e838: 1490b2           ASUB AR1,AR3
04e83b: a961             MOV *AR3,AR1
04e83d: c948             MOV AR1,@#24h
04e83f: df4805           MOV uns(@#24h),AC0
04e842: ed3c00           ADD dbl(@#1eh),AC0,AC0
04e845: eb3c08           MOV AC0,dbl(@#1eh)
04e848: df4805           MOV uns(@#24h),AC0
04e84b: ed4000           ADD dbl(@#20h),AC0,AC0
04e84e: eb4008           MOV AC0,dbl(@#20h)
04e851: df4805           MOV uns(@#24h),AC0
04e854: ed4404           SUB AC0,dbl(@#22h),AC0
04e857: eb4408           MOV AC0,dbl(@#22h)
04e85a: ed4cbf           MOV dbl(@#26h),XAR3
04e85d: ed1408           MOV dbl(@#0ah),AC0
04e860: 4220             SUB #2,AC0
04e862: 2209             MOV AC0,AR1
04e864: 8e4cbb10b590     MOV XAR3,dbl(@#26h) || AADD AR1,AR3
04e86a: a961             MOV *AR3,AR1
04e86c: ed50bf           MOV dbl(@#28h),XAR3
04e86f: 1490b2           ASUB AR1,AR3
04e872: a961             MOV *AR3,AR1
04e874: c948             MOV AR1,@#24h
04e876: df4805           MOV uns(@#24h),AC0
04e879: ed3c00           ADD dbl(@#1eh),AC0,AC0
04e87c: eb3c08           MOV AC0,dbl(@#1eh)
04e87f: ed4cbf           MOV dbl(@#26h),XAR3
04e882: 8e4cbb14b502     MOV XAR3,dbl(@#26h) || AADD #2,AR3
04e888: a961             MOV *AR3,AR1
04e88a: ed50bf           MOV dbl(@#28h),XAR3
04e88d: 1490b2           ASUB AR1,AR3
04e890: a961             MOV *AR3,AR1
04e892: c948             MOV AR1,@#24h
04e894: df4805           MOV uns(@#24h),AC0
04e897: ed3c00           ADD dbl(@#1eh),AC0,AC0
04e89a: eb3c08           MOV AC0,dbl(@#1eh)
04e89d: ed4cbf           MOV dbl(@#26h),XAR3
04e8a0: ed1408           MOV dbl(@#0ah),AC0
04e8a3: 4220             SUB #2,AC0
04e8a5: 2209             MOV AC0,AR1
04e8a7: 8e4cbb10b590     MOV XAR3,dbl(@#26h) || AADD AR1,AR3
04e8ad: a963             MOV *AR3+,AR1
04e8af: eb4cb5           MOV XAR3,dbl(@#26h)
04e8b2: ed50bf           MOV dbl(@#28h),XAR3
04e8b5: 1490b2           ASUB AR1,AR3
04e8b8: a961             MOV *AR3,AR1
04e8ba: c948             MOV AR1,@#24h
04e8bc: df4805           MOV uns(@#24h),AC0
04e8bf: ed3c00           ADD dbl(@#1eh),AC0,AC0
04e8c2: eb3c08           MOV AC0,dbl(@#1eh)
04e8c5: df4805           MOV uns(@#24h),AC0
04e8c8: ed4000           ADD dbl(@#20h),AC0,AC0
04e8cb: eb4008           MOV AC0,dbl(@#20h)
04e8ce: df4805           MOV uns(@#24h),AC0
04e8d1: ed4404           SUB AC0,dbl(@#22h),AC0
04e8d4: eb4408           MOV AC0,dbl(@#22h)
04e8d7: ed4cbf           MOV dbl(@#26h),XAR3
04e8da: a963             MOV *AR3+,AR1
04e8dc: eb4cb5           MOV XAR3,dbl(@#26h)
04e8df: ed50bf           MOV dbl(@#28h),XAR3
04e8e2: 1490b2           ASUB AR1,AR3
04e8e5: a961             MOV *AR3,AR1
04e8e7: c948             MOV AR1,@#24h
04e8e9: df4805           MOV uns(@#24h),AC0
04e8ec: ed4000           ADD dbl(@#20h),AC0,AC0
04e8ef: eb4008           MOV AC0,dbl(@#20h)
04e8f2: ed4cbf           MOV dbl(@#26h),XAR3
04e8f5: a961             MOV *AR3,AR1
04e8f7: ed50bf           MOV dbl(@#28h),XAR3
04e8fa: 1490b2           ASUB AR1,AR3
04e8fd: a961             MOV *AR3,AR1
04e8ff: c948             MOV AR1,@#24h
04e901: df4805           MOV uns(@#24h),AC0
04e904: ed3c00           ADD dbl(@#1eh),AC0,AC0
04e907: eb3c08           MOV AC0,dbl(@#1eh)
04e90a: df4805           MOV uns(@#24h),AC0
04e90d: ed4000           ADD dbl(@#20h),AC0,AC0
04e910: eb4008           MOV AC0,dbl(@#20h)
04e913: df4805           MOV uns(@#24h),AC0
04e916: ed4400           ADD dbl(@#22h),AC0,AC0
04e919: eb4408           MOV AC0,dbl(@#22h)
04e91c: ed4008           MOV dbl(@#20h),AC0
04e91f: 6790             BCC $C$DW$L$_susan_edges_small$32$E,AC0 != #0
04e921: 6c012f07         CALL _coverage_log
04e925:               $C$DW$L$_susan_edges_small$31$E:
04e925:               $C$DW$L$_susan_edges_small$32$B:
04e925: ed310804eb5c     MOV dbl(*(#04eb5ch)),AC0
04e92b: eb1c08           MOV AC0,dbl(@#0eh)
04e92e: 4a22             B $C$DW$L$_susan_edges_small$33$E
04e930:               $C$DW$L$_susan_edges_small$32$E:
04e930:               $C$L60:
04e930: 6c012f07         CALL _coverage_log
04e934:               $C$DW$L$_susan_edges_small$33$B:
04e934: ed3c08           MOV dbl(@#1eh),AC0
04e937: 6c013349         CALL __fltlid
04e93b: eb5408           MOV AC0,dbl(@#2ah)
04e93e: ed4008           MOV dbl(@#20h),AC0
04e941: 6c013349         CALL __fltlid
04e945: ed5408_1b0010    MOV dbl(@#2ah),AC0 || OR #0,AC0,AC1
04e94b: 6c01196c         CALL __divd
04e94f: eb1c08           MOV AC0,dbl(@#0eh)
04e952:               $C$DW$L$_susan_edges_small$33$E:
04e952:               $C$L61:
04e952: 6c012f07         CALL _coverage_log
04e956:               $C$DW$L$_susan_edges_small$34$B:
04e956: ed311804eb60     MOV dbl(*(#04eb60h)),AC1
04e95c: 6c01277e         CALL __cmpd
04e960: 045411           BCC $C$DW$L$_susan_edges_small$35$E,T0 >= #0
04e963: 6c012f07         CALL _coverage_log
04e967:               $C$DW$L$_susan_edges_small$34$E:
04e967:               $C$DW$L$_susan_edges_small$35$B:
04e967: 3c00             MOV #0,AC0
04e969: eb3408           MOV AC0,dbl(@#1ah)
04e96c: 3c10             MOV #1,AC0
04e96e: eb3808           MOV AC0,dbl(@#1ch)
04e971: 06004a           B $C$DW$L$_susan_edges_small$40$E
04e974:               $C$DW$L$_susan_edges_small$35$E:
04e974:               $C$L62:
04e974: 6c012f07         CALL _coverage_log
04e978:               $C$DW$L$_susan_edges_small$36$B:
04e978: ed1c08           MOV dbl(@#0eh),AC0
04e97b: ed311804eb62     MOV dbl(*(#04eb62h)),AC1
04e981: 6c01277e         CALL __cmpd
04e985: 043410           BCC $C$DW$L$_susan_edges_small$37$E,T0 <= #0
04e988: 6c012f07         CALL _coverage_log
04e98c:               $C$DW$L$_susan_edges_small$36$E:
04e98c:               $C$DW$L$_susan_edges_small$37$B:
04e98c: 3c10             MOV #1,AC0
04e98e: eb3408           MOV AC0,dbl(@#1ah)
04e991: 3c00             MOV #0,AC0
04e993: eb3808           MOV AC0,dbl(@#1ch)
04e996: 4a26             B $C$DW$L$_susan_edges_small$40$E
04e998:               $C$DW$L$_susan_edges_small$37$E:
04e998:               $C$L63:
04e998: 6c012f07         CALL _coverage_log
04e99c:               $C$DW$L$_susan_edges_small$38$B:
04e99c: ed4408           MOV dbl(@#22h),AC0
04e99f: 043010           BCC $C$DW$L$_susan_edges_small$39$E,AC0 <= #0
04e9a2: 6c012f07         CALL _coverage_log
04e9a6:               $C$DW$L$_susan_edges_small$38$E:
04e9a6:               $C$DW$L$_susan_edges_small$39$B:
04e9a6: 3e10             MOV #-1,AC0
04e9a8: eb3408           MOV AC0,dbl(@#1ah)
04e9ab: 3c10             MOV #1,AC0
04e9ad: eb3808           MOV AC0,dbl(@#1ch)
04e9b0: 4a0c             B $C$DW$L$_susan_edges_small$40$E
04e9b2:               $C$DW$L$_susan_edges_small$39$E:
04e9b2:               $C$L64:
04e9b2: 6c012f07         CALL _coverage_log
04e9b6:               $C$DW$L$_susan_edges_small$40$B:
04e9b6: 3c10             MOV #1,AC0
04e9b8: eb3408           MOV AC0,dbl(@#1ah)
04e9bb: eb3808           MOV AC0,dbl(@#1ch)
04e9be:               $C$DW$L$_susan_edges_small$40$E:
04e9be:               $C$L65:
04e9be: 6c012f07         CALL _coverage_log
04e9c2:               $C$DW$L$_susan_edges_small$41$B:
04e9c2: ed3408           MOV dbl(@#1ah),AC0
04e9c5: ed1418           MOV dbl(@#0ah),AC1
04e9c8: ed2400           ADD dbl(@#12h),AC0,AC0
04e9cb: 6c0136bc         CALL I$$LMPY
04e9cf: ed04bf           MOV dbl(@#02h),XAR3
04e9d2: ed2800           ADD dbl(@#14h),AC0,AC0
04e9d5: ed3800           ADD dbl(@#1ch),AC0,AC0
04e9d8: 2204             MOV AC0,T0
04e9da: 5040             SFTL T0,#1
04e9dc: ed2c18           MOV dbl(@#16h),AC1
04e9df: ed6b08           MOV dbl(*AR3(AR0)),AC0
04e9e2: 120810           CMP AC0 >= AC1, TC1
04e9e5: 046443           BCC $C$DW$L$_susan_edges_small$43$E,TC1
04e9e8: 6c012f07         CALL _coverage_log
04e9ec:               $C$DW$L$_susan_edges_small$41$E:
04e9ec:               $C$DW$L$_susan_edges_small$42$B:
04e9ec: ed3408           MOV dbl(@#1ah),AC0
04e9ef: ed1418           MOV dbl(@#0ah),AC1
04e9f2: ed2404           SUB AC0,dbl(@#12h),AC0
04e9f5: 6c0136bc         CALL I$$LMPY
04e9f9: ed04bf           MOV dbl(@#02h),XAR3
04e9fc: ed2800           ADD dbl(@#14h),AC0,AC0
04e9ff: ed3802           SUB dbl(@#1ch),AC0,AC0
04ea02: 2204             MOV AC0,T0
04ea04: 5040             SFTL T0,#1
04ea06: ed2c18           MOV dbl(@#16h),AC1
04ea09: ed6b08           MOV dbl(*AR3(AR0)),AC0
04ea0c: 121400           CMP AC1 < AC0, TC1
04ea0f: 046419           BCC $C$DW$L$_susan_edges_small$43$E,TC1
04ea12: 6c012f07         CALL _coverage_log
04ea16:               $C$DW$L$_susan_edges_small$42$E:
04ea16:               $C$DW$L$_susan_edges_small$43$B:
04ea16: ed2408           MOV dbl(@#12h),AC0
04ea19: ed1418           MOV dbl(@#0ah),AC1
04ea1c: 6c0136bc         CALL I$$LMPY
04ea20: ed08bf           MOV dbl(@#04h),XAR3
04ea23: ed2800           ADD dbl(@#14h),AC0,AC0
04ea26: 2204             MOV AC0,T0
04ea28: e66b02           MOV #2,*AR3(AR0)
04ea2b:               $C$DW$L$_susan_edges_small$43$E:
04ea2b:               $C$L66:
04ea2b: 6c012f07         CALL _coverage_log
04ea2f:               $C$DW$L$_susan_edges_small$44$B:
04ea2f: ed2808           MOV dbl(@#14h),AC0
04ea32: 4010             ADD #1,AC0
04ea34: eb2808           MOV AC0,dbl(@#14h)
04ea37: ed1408           MOV dbl(@#0ah),AC0
04ea3a: ed2818_4320      MOV dbl(@#14h),AC1 || SUB #2,AC0
04ea3f: 121400           CMP AC1 < AC0, TC1
04ea42: 6d64fa17         BCC $C$DW$L$_susan_edges_small$8$E,TC1
04ea46: 6c012f07         CALL _coverage_log
04ea4a:               $C$DW$L$_susan_edges_small$44$E:
04ea4a:               $C$L67:
04ea4a: 6c012f07         CALL _coverage_log
04ea4e:               $C$DW$L$_susan_edges_small$45$B:
04ea4e: ed2408           MOV dbl(@#12h),AC0
04ea51: 4010             ADD #1,AC0
04ea53: eb2408           MOV AC0,dbl(@#12h)
04ea56: ed1808           MOV dbl(@#0ch),AC0
04ea59: ed2418_4320      MOV dbl(@#12h),AC1 || SUB #2,AC0
04ea5e: 121400           CMP AC1 < AC0, TC1
04ea61: 6d64f9dc         BCC $C$L47,TC1
04ea65: 6c012f07         CALL _coverage_log
04ea69:               $C$L68:
04ea69:               $C$DW$L$_susan_edges_small$45$E:
04ea69: 6c012f07         CALL _coverage_log
04ea6d: 4e2d             AADD #45,SP
04ea6f: 4804             RET
04ea71:               _susan_edges:
04ea71: 20               NOP
04ea72: 20               NOP
04ea73: 20               NOP
04ea74: 20               NOP
04ea75: 4eeb             AADD #-21,SP
04ea77: eb0085           MOV XAR0,dbl(@#00h)
04ea7a: 76001408         MOV #20,AC0
04ea7e: eb0808           MOV AC0,dbl(@#04h)
04ea81: 760a5a08         MOV #2650,AC0
04ea85: eb0c08           MOV AC0,dbl(@#06h)
04ea88: 3e10             MOV #-1,AC0
04ea8a: eb1008           MOV AC0,dbl(@#08h)
04ea8d: eb1408           MOV AC0,dbl(@#0ah)
04ea90: e61800           MOV #0,@#0ch
04ea93: ec109e           AMAR @#08h,XAR1
04ea96: ec14ae           AMAR @#0ah,XAR2
04ea99: ec008e           AMAR @#00h,XAR0
04ea9c: 08f08a           CALL _get_image
04ea9f: c418             MOV T0,@#0ch
04eaa1: 2249             MOV T0,AR1
04eaa3: 64d9             BCC $C$L69,AR1 >= #0
04eaa5: 20               NOP
04eaa6: 20               NOP
04eaa7: 20               NOP
04eaa8: 20               NOP
04eaa9: 3e14             MOV #-1,T0
04eaab: 06009f           B $C$L72
04eaae:               $C$L69:
04eaae: 20               NOP
04eaaf: 20               NOP
04eab0: 20               NOP
04eab1: 20               NOP
04eab2: ec048e           AMAR @#02h,XAR0
04eab5: ed0808           MOV dbl(@#04h),AC0
04eab8: 08f305_3d61      CALL _setup_brightness_lut || MOV #6,AC1
04eabd: ec31ae048204     AMAR *(#048204h),XAR2
04eac3: ed049f           MOV dbl(@#02h),XAR1
04eac6: ed1428           MOV dbl(@#0ah),AC2
04eac9: ed008f           MOV dbl(@#00h),XAR0
04eacc: ed0c08           MOV dbl(@#06h),AC0
04eacf: ed1018           MOV dbl(@#08h),AC1
04ead2: 08f577           CALL _susan_principle_small
04ead5: ed1418           MOV dbl(@#0ah),AC1
04ead8: ed1008           MOV dbl(@#08h),AC0
04eadb: 6c0136bc         CALL I$$LMPY
04eadf: ec318e048204     AMAR *(#048204h),XAR0
04eae5: ed009f           MOV dbl(@#00h),XAR1
04eae8: 08f1d7           CALL _int_to_uchar
04eaeb: 3c00             MOV #0,AC0
04eaed: eb2008           MOV AC0,dbl(@#10h)
04eaf0: eb2408           MOV AC0,dbl(@#12h)
04eaf3: ed1008           MOV dbl(@#08h),AC0
04eaf6: ed1418           MOV dbl(@#0ah),AC1
04eaf9: 6c0136bc         CALL I$$LMPY
04eafd: ed2418           MOV dbl(@#12h),AC1
04eb00: 121800           CMP AC1 >= AC0, TC1
04eb03: 046435           BCC $C$DW$L$_susan_edges$4$E,TC1
04eb06: 20               NOP
04eb07: 20               NOP
04eb08: 20               NOP
04eb09: 20               NOP
04eb0a:               $C$L70:
04eb0a: 20               NOP
04eb0b: 20               NOP
04eb0c: 20               NOP
04eb0d: 20               NOP
04eb0e:               $C$DW$L$_susan_edges$4$B:
04eb0e: a426             MOV @#13h,T0
04eb10: ed00bf           MOV dbl(@#00h),XAR3
04eb13: df6b05           MOV uns(*AR3(AR0)),AC0
04eb16: ed2000           ADD dbl(@#10h),AC0,AC0
04eb19: eb2008           MOV AC0,dbl(@#10h)
04eb1c: ed2408           MOV dbl(@#12h),AC0
04eb1f: 4010             ADD #1,AC0
04eb21: eb2408           MOV AC0,dbl(@#12h)
04eb24: ed1418           MOV dbl(@#0ah),AC1
04eb27: ed1008           MOV dbl(@#08h),AC0
04eb2a: 6c0136bc         CALL I$$LMPY
04eb2e: ed2418           MOV dbl(@#12h),AC1
04eb31: 121400           CMP AC1 < AC0, TC1
04eb34: 0464d3           BCC $C$L70,TC1
04eb37: 20               NOP
04eb38: 20               NOP
04eb39: 20               NOP
04eb3a: 20               NOP
04eb3b:               $C$DW$L$_susan_edges$4$E:
04eb3b:               $C$L71:
04eb3b: 20               NOP
04eb3c: 20               NOP
04eb3d: 20               NOP
04eb3e: 20               NOP
04eb3f: ed2008           MOV dbl(@#10h),AC0
04eb42: eb1c08           MOV AC0,dbl(@#0eh)
04eb45: 20               NOP
04eb46: 20               NOP
04eb47: 20               NOP
04eb48: ed1c08           MOV dbl(@#0eh),AC0
04eb4b: 3c04             MOV #0,T0
04eb4d:               $C$L72:
04eb4d: 20               NOP
04eb4e: 20               NOP
04eb4f: 20               NOP
04eb50: 20               NOP
04eb51: 4e15             AADD #21,SP
04eb53: 4804             RET
04eb55: 20               NOP
04eb56: 20               NOP
04eb57: 20               NOP
04eb58:               .const:
04eb58:               $C$FL1:
04eb58: 42c8             SUB #12,AR0
04eb5a: 00003e           RPTCC #62, AC0 == #0
04eb5d: cccc                MOV AR4,@#66h
04eb5f: cd49             MOV AR5,*(AR2-AR0)
04eb61: 74240000         XOR #9216 << #0,AC0,AC0
04eb65: 000000_3f00      RPTCC #0, AC0 == #0 || MOV #-0,AC0
04eb6a: 000040              RPTCC #64, AC0 == #0
04eb6d: 000000              RPTCC #0, AC0 == #0
04eb70: 20                  NOP
04eb71: 20               NOP
