******************************************************************************
              TMS320C55x Linker Unix v4.4.1                    
******************************************************************************
>> Linked Mon Jun 17 14:58:34 2024

OUTPUT FILE NAME:   <DSPFuzz.out>
ENTRY POINT SYMBOL: "_c_int00"  address: 00015634


MEMORY CONFIGURATION

         name            origin    length      used     unused   attr    fill
                        (bytes)   (bytes)    (bytes)   (bytes)
----------------------  --------  ---------  --------  --------  ----  --------
  MMR                   00000000   000000c0  00000000  000000c0  RWIX
  SPRAM                 000000c0   00000020  00000000  00000020  RWIX
  DARAM0                00000100   00003f00  00001600  00002900  RWIX
  DARAM1                00004000   00004000  00001000  00003000  RW X
  DARAM2                00008000   00004000  00000240  00003dc0  RW X
  DARAM3                0000c000   00004000  00000000  00004000  RW X
  SARAM01               00010000   00008000  00005916  000026ea  RW X
  SARAM2                00018000   00004000  00000000  00004000  RWIX
  SARAM3                0001c000   00004000  00000000  00004000  RWIX
  SARAM4                00020000   00004000  00000000  00004000  RWIX
  SARAM5                00024000   0000c000  00000e54  0000b1ac  RWIX
  SARAM6                00030000   00004000  00000000  00004000  RWIX
  SARAM7                00034000   00004000  00000000  00004000  RW X
  SARAM8                00038000   00004000  000003e4  00003c1c  RWIX
  SARAM9                0003c000   00008000  0000008b  00007f75  RWIX
  SARAM10               00044000   00008000  00002200  00005e00  RWIX
  CE0                   00050000   003b0000  00000000  003b0000  RWIX
  CE1                   00400000   00400000  00000000  00400000  RWIX
  CE2                   00800000   00400000  00000000  00400000  RWIX
  CE3                   00c00000   003f8000  00000000  003f8000  RWIX
  PDROM                 00ff8000   00007f00  00000000  00007f00  RWIX
  VECS                  00ffff00   00000100  00000000  00000100  RWIX


SECTION ALLOCATION MAP
(Addresses surrounded by []'s are displayed for convenience only!)

output                                                          attributes/
section   page  orgn(bytes) orgn(words) len(bytes) len(words)   input sections
--------  ----  ----------- ----------- ---------- ----------   --------------
.stack       0   [ 00000100 ]  00000080          *   00000800   UNINITIALIZED
                 [ 00000100 ]  00000080          *   00000800   --HOLE--

.sysstack 
*            0   [ 00001100 ]  00000880          *   00000200   UNINITIALIZED
                 [ 00001100 ]  00000880          *   00000200   --HOLE--

vectors      0     00001500  [ 00000a80 ] 00000200          *   NOLOAD SECTION
                   00001500  [ 00000a80 ] 00000100          *   C55XXCSL_LP.lib : vectors.obj (vectors)
                   00001600  [ 00000b00 ] 00000100          *   rts55x.lib : vectors.obj (vectors)

.sysmem      0   [ 00004000 ]  00002000          *   00000800   UNINITIALIZED
                 [ 00004000 ]  00002000          *   00000800   --HOLE--

.cio         0   [ 00008000 ]  00004000          *   00000120   UNINITIALIZED
                 [ 00008000 ]  00004000          *   00000120   rts55x.lib : trgmsg.obj (.cio)

.text        0     00010000  [ 00008000 ] 0000577e          *   
                   00010000  [ 00008000 ] 000015a4          *   rts55x.lib : _printfi.obj (.text)
                   000115a4  [ 00008ad2 ] 00000894          *   fuzz.obj (.text)
                   00011e38  [ 00008f1c ] 00000543          *   rts55x.lib : lowlev.obj (.text)
                   0001237b  [ 000091bd+] 00000528          *              : trgdrv.obj (.text)
                   000128a3  [ 00009451+] 00000508          *   C55XXCSL_LP.lib : csl_intc.obj (.text)
                   00012dab  [ 000096d5+] 000004b5          *   rts55x.lib : memory.obj (.text)
                   00013260  [ 00009930 ] 000003cc          *              : divd.obj (.text)
                   0001362c  [ 00009b16 ] 000003a4          *   fuzz.obj (.text:retain)
                   000139d0  [ 00009ce8 ] 000002eb          *   C55XXCSL_LP.lib : csl_gpt.obj (.text)
                   00013cbb  [ 00009e5d+] 0000027f          *   rts55x.lib : fopen.obj (.text)
                   00013f3a  [ 00009f9d ] 0000025e          *              : llmpy.obj (.text)
                   00014198  [ 0000a0cc ] 0000025a          *              : addd.obj (.text)
                   000143f2  [ 0000a1f9 ] 000001ea          *              : cmpd.obj (.text)
                   000145dc  [ 0000a2ee ] 00000163          *              : fputs.obj (.text)
                   0001473f  [ 0000a39f+] 0000014c          *              : mpyd.obj (.text)
                   0001488b  [ 0000a445+] 000000e6          *              : setvbuf.obj (.text)
                   00014971  [ 0000a4b8+] 000000dd          *              : _io_perm.obj (.text)
                   00014a4e  [ 0000a527 ] 000000c2          *              : fflush.obj (.text)
                   00014b10  [ 0000a588 ] 000000ba          *              : trgmsg.obj (.text:CIO_breakpoint)
                   00014bca  [ 0000a5e5 ] 000000a6          *              : fputc.obj (.text)
                   00014c70  [ 0000a638 ] 000000a1          *              : divul.obj (.text)
                   00014d11  [ 0000a688+] 00000099          *   coverage.obj (.text)
                   00014daa  [ 0000a6d5 ] 0000008c          *   C55XXCSL_LP.lib : csl_irqplug.obj (.text)
                   00014e36  [ 0000a71b ] 0000007d          *   rts55x.lib : ltoa.obj (.text)
                   00014eb3  [ 0000a759+] 0000007b          *              : fclose.obj (.text)
                   00014f2e  [ 0000a797 ] 00000076          *              : frcmpyd.obj (.text)
                   00014fa4  [ 0000a7d2 ] 00000073          *              : frcmpyd_div.obj (.text)
                   00015017  [ 0000a80b+] 00000072          *              : remul.obj (.text)
                   00015089  [ 0000a844+] 0000006f          *              : fixdli.obj (.text)
                   000150f8  [ 0000a87c ] 0000006d          *   C55XXCSL_LP.lib : vectors.obj (.text)
                   00015165  [ 0000a8b2+] 0000006d          *   rts55x.lib : trgmsg.obj (.text)
                   000151d2  [ 0000a8e9 ] 0000006b          *              : fseek.obj (.text)
                   0001523d  [ 0000a91e+] 00000067          *              : fltlid.obj (.text)
                   000152a4  [ 0000a952 ] 00000060          *              : rand.obj (.text)
                   00015304  [ 0000a982 ] 0000005c          *              : atoi.obj (.text)
                   00015360  [ 0000a9b0 ] 0000005b          *              : fltuld.obj (.text)
                   000153bb  [ 0000a9dd+] 00000050          *              : printf.obj (.text)
                   0001540b  [ 0000aa05+] 0000004d          *              : autoinit.obj (.text)
                   00015458  [ 0000aa2c ] 0000004b          *              : args_main.obj (.text)
                   000154a3  [ 0000aa51+] 0000004b          *              : remli.obj (.text)
                   000154ee  [ 0000aa77 ] 00000048          *              : divli.obj (.text)
                   00015536  [ 0000aa9b ] 00000045          *              : setjmp.obj (.text)
                   0001557b  [ 0000aabd+] 0000003f          *              : memcpy.obj (.text)
                   000155ba  [ 0000aadd ] 0000003e          *              : exit.obj (.text)
                   000155f8  [ 0000aafc ] 0000003c          *              : idiv.obj (.text)
                   00015634  [ 0000ab1a ] 00000034          *              : boot.obj (.text)
                   00015668  [ 0000ab34 ] 0000002a          *              : fixdi.obj (.text)
                   00015692  [ 0000ab49 ] 0000002a          *              : udiv.obj (.text)
                   000156bc  [ 0000ab5e ] 00000023          *              : memccpy.obj (.text)
                   000156df  [ 0000ab6f+] 0000001a          *              : isinf.obj (.text)
                   000156f9  [ 0000ab7c+] 00000017          *              : time.obj (.text)
                   00015710  [ 0000ab88 ] 00000014          *              : subd.obj (.text)
                   00015724  [ 0000ab92 ] 00000013          *              : lmpy.obj (.text)
                   00015737  [ 0000ab9b+] 00000012          *              : _lock.obj (.text)
                   00015749  [ 0000aba4+] 00000011          *              : memset.obj (.text)
                   0001575a  [ 0000abad ] 00000010          *              : negd.obj (.text)
                   0001576a  [ 0000abb5 ] 0000000a          *              : remove.obj (.text)
                   00015774  [ 0000abba ] 00000007          *              : exit.obj (.text:CIO_breakpoint)
                   0001577b  [ 0000abbd+] 00000002          *              : vectors.obj (.text)
                   0001577d  [ 0000abbe ] 00000001          *   --HOLE-- [fill = 20]

.cinit       0   [ 0001577e ]  0000abbf          *   000000cc   
                 [ 0001577e ]  0000abbf          *   00000053   fuzz.obj (.cinit)
                 [ 00015824 ]  0000ac12          *   0000002d   rts55x.lib : lowlev.obj (.cinit)
                 [ 0001587e ]  0000ac3f          *   0000002a              : defs.obj (.cinit)
                 [ 000158d2 ]  0000ac69          *   0000000a              : _lock.obj (.cinit)
                 [ 000158e6 ]  0000ac73          *   0000000a              : exit.obj (.cinit)
                 [ 000158fa ]  0000ac7d          *   00000005              : rand.obj (.cinit)
                 [ 00015904 ]  0000ac82          *   00000004              : fopen.obj (.cinit)
                 [ 0001590c ]  0000ac86          *   00000004              : memory.obj (.cinit)
                 [ 00015914 ]  0000ac8a          *   00000001   --HOLE-- [fill = 0]

.bss         0   [ 00024000 ]  00012000          *   0000072a   UNINITIALIZED
                 [ 00024000 ]  00012000          *   00000439   fuzz.obj (.bss)
                 [ 00024872 ]  00012439          *   00000001   rts55x.lib : fopen.obj (.bss)
                 [ 00024874 ]  0001243a          *   00000119              : defs.obj (.bss)
                 [ 00024aa6 ]  00012553          *   000000d0              : trgdrv.obj (.bss)
                 [ 00024c46 ]  00012623          *   00000001   --HOLE--
                 [ 00024c48 ]  00012624          *   00000084   C55XXCSL_LP.lib : csl_intc.obj (.bss)
                 [ 00024d50 ]  000126a8          *   00000071   rts55x.lib : lowlev.obj (.bss)
                 [ 00024e32 ]  00012719          *   00000001   --HOLE--
                 [ 00024e34 ]  0001271a          *   00000006              : memory.obj (.bss)
                 [ 00024e40 ]  00012720          *   00000004              : _lock.obj (.bss)
                 [ 00024e48 ]  00012724          *   00000004              : exit.obj (.bss)
                 [ 00024e50 ]  00012728          *   00000002              : rand.obj (.bss)

.data        0   [ 00038000 ]  0001c000          *   00000000   UNINITIALIZED

.const       0   [ 00038000 ]  0001c000          *   000001f2   
                 [ 00038000 ]  0001c000          *   00000101   rts55x.lib : ctype.obj (.const:__ctypes_)
                 [ 00038202 ]  0001c101          *   00000001   --HOLE-- [fill = 0]
                 [ 00038204 ]  0001c102          *   000000b2   fuzz.obj (.const:.string)
                 [ 00038368 ]  0001c1b4          *   00000024   rts55x.lib : _printfi.obj (.const:.string)
                 [ 000383b0 ]  0001c1d8          *   0000000c              : _printfi.obj (.const)
                 [ 000383c8 ]  0001c1e4          *   00000008              : divd.obj (.const:_initial_approx$1)
                 [ 000383d8 ]  0001c1ec          *   00000002              : fputs.obj (.const:.string)
                 [ 000383dc ]  0001c1ee          *   00000002              : fltlid.obj (.const)
                 [ 000383e0 ]  0001c1f0          *   00000002              : fltuld.obj (.const)

.program_sandbox 
*            0     0003c000  [ 0001e000 ] 0000008b          *   
                   0003c000  [ 0001e000 ] 0000008a          *   new_test_fuzz.obj (.text)
                   0003c08a  [ 0001e045 ] 00000001          *   --HOLE-- [fill = 20]

.data_sandbox 
*            0   [ 00044000 ]  00022000          *   00001100   UNINITIALIZED
                 [ 00044000 ]  00022000          *   00001100   fuzz.obj (.data_sandbox)


GLOBAL SYMBOLS: SORTED ALPHABETICALLY BY Name 

abs. value/
byte addr   word addr   name
---------   ---------   ----
00000002                $TI_capability$C5500$CallingConvention
00000002                $TI_capability$C5500$MemoryModel
00000001                $TI_capability_requires_rev3
            00012000    .bss
            0001c000    .data
00010000                .text
00015775                C$$EXIT
00014bc5                C$$IO$$
000155f8                I$$DIV
00015724                I$$LMPY
00015617                I$$MOD
00015692                I$$UDIV
000156a7                I$$UMOD
00001500                RST
00013b0d                _GPT_close
00013c14                _GPT_config
00013bd9                _GPT_getCnt
000139d0                _GPT_open
00013a93                _GPT_reset
00013b82                _GPT_start
00013baf                _GPT_stop
00012845                _HOSTclock
000127da                _HOSTclose
00012725                _HOSTlseek
00012686                _HOSTopen
000125f9                _HOSTread
0001254b                _HOSTrename
000124ed                _HOSTtime
00012483                _HOSTunlink
000123f6                _HOSTwrite
0001292b                _IRQ_clear
0001297e                _IRQ_clearAll
0001298e                _IRQ_config
00012a9b                _IRQ_disable
00012b19                _IRQ_disableAll
00012b27                _IRQ_enable
00012c21                _IRQ_getArg
00012a13                _IRQ_getConfig
00012d65                _IRQ_globalDisable
00012d7e                _IRQ_globalEnable
00012d97                _IRQ_globalRestore
000128a3                _IRQ_init
00012c96                _IRQ_map
00014daa                _IRQ_plug
00012bb1                _IRQ_restore
00012c65                _IRQ_setArg
00012cc2                _IRQ_setVecs
00012cf3                _IRQ_test
00001600                _Reset
00001500                _VECSTART
            00004000    __CIOBUF_
            00000880    __STACK_END
00001000                __STACK_SIZE
00001000                __SYSMEM_SIZE
00000400                __SYSSTACK_SIZE
00000001                __TI_args_main
ffffffff                ___binit__
            00012000    ___bss__
ffffffff                ___c_args__
            0000abbf    ___cinit__
            0001c000    ___data__
            0001c000    ___edata__
            0001272a    ___end__
0001577e                ___etext__
000156df                ___isinf
ffffffff                ___pinit__
00010000                ___text__
00014198                __addd
00015458                __args_main
00013ddc                __cleanup
            00012724    __cleanup_ptr
00014584                __cmpd
            0001c000    __ctypes_
00013260                __divd
000155f8                __divi
000154ee                __divli
00014163                __divlli
00015692                __divu
00014c70                __divul
0001406f                __divull
00014a4e                __doflush
            00012726    __dtors_ptr
00014550                __eqld
00015668                __fixdi
00015089                __fixdli
0001523d                __fltlid
00015360                __fltuld
00014f2e                __frcmpyd
00014fa4                __frcmpyd_div
            00012552    __ft_end
            0001243a    __ftable
00014506                __geqd
000144bb                __gtrd
0001446e                __leqd
            00012720    __lock
00014426                __lssd
0001473f                __mpyd
00015724                __mpyli
00013fb7                __mpylli
0001575a                __negd
000143f2                __neqd
00015747                __nop
00011362                __printfi
000149f1                __rd_ok
0001573f                __register_lock
00015737                __register_unlock
00015617                __remi
000154a3                __remli
00013f88                __remlli
000156a7                __remu
00015017                __remul
00013f3a                __remull
00015536                __setjmp
            00000080    __stack
00015710                __subd
            00002000    __sys_memory
            00000880    __sysstack
            000124b2    __tmpnams
            00012722    __unlock
00014971                __wrt_ok
00015774                _abort
0001228b                _add_device
00015304                _atoi
0001540b                _auto_init
00013784                _bus_error_isr
00015634                _c_int00
0001323a                _calloc
00013232                _chkheap
00012218                _close
            00012415    _corpusWaiting
            00012436    _count
00014d11                _coverage_log
            0001200f    _coverage_map
            00012432    _cpuCycleCount
000115a4                _crash_void
            00012427    _current_corpus_size
            00022f00    _current_input
000138aa                _data_log_isr
00011ca6                _dequeue_seed
            00012430    _end_time
            0001242c    _execution_time
000155ba                _exit
00014eb3                _fclose
00014ab7                _fflush
0001220f                _find_registered_device
00013eff                _fopen
00014bca                _fputc
000145dc                _fputs
00012dab                _free
000131dc                _free_memory
00013e36                _freopen
000151d2                _fseek
0001362c                _fuzzer_isr
0001237b                _getenv
00011d1d                _handle_results
000115d7                _input_printf
            00012414    _isError
            00012413    _isIncreasing
            00012438    _isTest
            00012429    _iterations
            00022000    _local_pool
            00012000    _local_pool_tracker
00015557                _longjmp
000121a9                _lseek
00014e36                _ltoa
00011e2d                _main
00011d94                _main_harness_loop
00012edc                _malloc
00013182                _max_free
000156bc                _memccpy
0001557b                _memcpy
00015749                _memset
000115a6                _memset_volatile
00012e77                _minit
            00012428    _mutation_frequency
0001174f                _mutator
000120ea                _open
            00023000    _output_buffer
000153bb                _printf
00014bca                _putc
00014c61                _putchar
00014711                _puts
000152c6                _rand
0001203c                _read
00015165                _readmsg
00012fd1                _realloc
00011c8e                _refresh_seed_corpus
0001576a                _remove
00012006                _remove_device
00011fad                _rename
            00012416    _saved_context
            0001240f    _seed_head
            00012412    _seed_tail
00011d14                _seed_to_global_pool
00015536                _setjmp
0001170d                _setup
0001488b                _setvbuf
000152a4                _srand
            00012426    _stage_cycles
            0001242e    _start_time
0001162d                _start_timer
000116e0                _stop_timer
            00012410    _sut_start_address
            00012434    _sysClk
0003c000                _test
000156f9                _time
            0001242a    _total_time
00011d5a                _track_time
00011f7a                _unlink
00011e38                _write
00014b10                _writemsg
ffffffff                binit
            0000abbf    cinit
            0001c000    edata
            0001272a    end
0001577e                etext
ffffffff                pinit


GLOBAL SYMBOLS: SORTED BY Symbol Address 

abs. value/
byte addr   word addr   name
---------   ---------   ----
00000001                $TI_capability_requires_rev3
00000001                __TI_args_main
00000002                $TI_capability$C5500$CallingConvention
00000002                $TI_capability$C5500$MemoryModel
            00000080    __stack
00000400                __SYSSTACK_SIZE
00001000                __STACK_SIZE
00001000                __SYSMEM_SIZE
            00000880    __STACK_END
            00000880    __sysstack
00001500                RST
00001500                _VECSTART
00001600                _Reset
            00002000    __sys_memory
            00004000    __CIOBUF_
00010000                .text
00010000                ___text__
00011362                __printfi
000115a4                _crash_void
000115a6                _memset_volatile
000115d7                _input_printf
0001162d                _start_timer
000116e0                _stop_timer
0001170d                _setup
0001174f                _mutator
00011c8e                _refresh_seed_corpus
00011ca6                _dequeue_seed
00011d14                _seed_to_global_pool
00011d1d                _handle_results
00011d5a                _track_time
00011d94                _main_harness_loop
00011e2d                _main
00011e38                _write
00011f7a                _unlink
00011fad                _rename
00012006                _remove_device
0001203c                _read
000120ea                _open
000121a9                _lseek
0001220f                _find_registered_device
00012218                _close
0001228b                _add_device
0001237b                _getenv
000123f6                _HOSTwrite
00012483                _HOSTunlink
000124ed                _HOSTtime
0001254b                _HOSTrename
000125f9                _HOSTread
00012686                _HOSTopen
00012725                _HOSTlseek
000127da                _HOSTclose
00012845                _HOSTclock
000128a3                _IRQ_init
0001292b                _IRQ_clear
0001297e                _IRQ_clearAll
0001298e                _IRQ_config
00012a13                _IRQ_getConfig
00012a9b                _IRQ_disable
00012b19                _IRQ_disableAll
00012b27                _IRQ_enable
00012bb1                _IRQ_restore
00012c21                _IRQ_getArg
00012c65                _IRQ_setArg
00012c96                _IRQ_map
00012cc2                _IRQ_setVecs
00012cf3                _IRQ_test
00012d65                _IRQ_globalDisable
00012d7e                _IRQ_globalEnable
00012d97                _IRQ_globalRestore
00012dab                _free
00012e77                _minit
00012edc                _malloc
00012fd1                _realloc
00013182                _max_free
000131dc                _free_memory
00013232                _chkheap
0001323a                _calloc
00013260                __divd
0001362c                _fuzzer_isr
00013784                _bus_error_isr
000138aa                _data_log_isr
000139d0                _GPT_open
00013a93                _GPT_reset
00013b0d                _GPT_close
00013b82                _GPT_start
00013baf                _GPT_stop
00013bd9                _GPT_getCnt
00013c14                _GPT_config
00013ddc                __cleanup
00013e36                _freopen
00013eff                _fopen
00013f3a                __remull
00013f88                __remlli
00013fb7                __mpylli
0001406f                __divull
00014163                __divlli
00014198                __addd
000143f2                __neqd
00014426                __lssd
0001446e                __leqd
000144bb                __gtrd
00014506                __geqd
00014550                __eqld
00014584                __cmpd
000145dc                _fputs
00014711                _puts
0001473f                __mpyd
0001488b                _setvbuf
00014971                __wrt_ok
000149f1                __rd_ok
00014a4e                __doflush
00014ab7                _fflush
00014b10                _writemsg
00014bc5                C$$IO$$
00014bca                _fputc
00014bca                _putc
00014c61                _putchar
00014c70                __divul
00014d11                _coverage_log
00014daa                _IRQ_plug
00014e36                _ltoa
00014eb3                _fclose
00014f2e                __frcmpyd
00014fa4                __frcmpyd_div
00015017                __remul
00015089                __fixdli
00015165                _readmsg
000151d2                _fseek
0001523d                __fltlid
000152a4                _srand
000152c6                _rand
00015304                _atoi
00015360                __fltuld
000153bb                _printf
0001540b                _auto_init
00015458                __args_main
000154a3                __remli
000154ee                __divli
00015536                __setjmp
00015536                _setjmp
00015557                _longjmp
0001557b                _memcpy
000155ba                _exit
000155f8                I$$DIV
000155f8                __divi
00015617                I$$MOD
00015617                __remi
00015634                _c_int00
00015668                __fixdi
00015692                I$$UDIV
00015692                __divu
000156a7                I$$UMOD
000156a7                __remu
000156bc                _memccpy
000156df                ___isinf
000156f9                _time
00015710                __subd
00015724                I$$LMPY
00015724                __mpyli
00015737                __register_unlock
0001573f                __register_lock
00015747                __nop
00015749                _memset
0001575a                __negd
0001576a                _remove
00015774                _abort
00015775                C$$EXIT
            0000abbf    ___cinit__
0001577e                ___etext__
            0000abbf    cinit
0001577e                etext
            00012000    .bss
            00012000    ___bss__
            00012000    _local_pool_tracker
            0001200f    _coverage_map
            0001240f    _seed_head
            00012410    _sut_start_address
            00012412    _seed_tail
            00012413    _isIncreasing
            00012414    _isError
            00012415    _corpusWaiting
            00012416    _saved_context
            00012426    _stage_cycles
            00012427    _current_corpus_size
            00012428    _mutation_frequency
            00012429    _iterations
            0001242a    _total_time
            0001242c    _execution_time
            0001242e    _start_time
            00012430    _end_time
            00012432    _cpuCycleCount
            00012434    _sysClk
            00012436    _count
            00012438    _isTest
            0001243a    __ftable
            000124b2    __tmpnams
            00012552    __ft_end
            00012720    __lock
            00012722    __unlock
            00012724    __cleanup_ptr
            00012726    __dtors_ptr
            0001272a    ___end__
            0001272a    end
            0001c000    .data
            0001c000    ___data__
            0001c000    ___edata__
            0001c000    __ctypes_
            0001c000    edata
0003c000                _test
            00022000    _local_pool
            00022f00    _current_input
            00023000    _output_buffer
ffffffff                ___binit__
ffffffff                ___c_args__
ffffffff                ___pinit__
ffffffff                binit
ffffffff                pinit

[217 symbols]
