******************************************************************************
              TMS320C55x Linker Unix v4.4.1                    
******************************************************************************
>> Linked Tue Jun 18 16:50:09 2024

OUTPUT FILE NAME:   <DSPFuzz.out>
ENTRY POINT SYMBOL: "_c_int00"  address: 00015619


MEMORY CONFIGURATION

         name            origin    length      used     unused   attr    fill
                        (bytes)   (bytes)    (bytes)   (bytes)
----------------------  --------  ---------  --------  --------  ----  --------
  MMR                   00000000   000000c0  00000000  000000c0  RWIX
  SPRAM                 000000c0   00000020  00000000  00000020  RWIX
  DARAM0                00000100   00003f00  00001600  00002900  RWIX
  DARAM1                00004000   00004000  00001000  00003000  RW X
  DARAM2                00008000   00004000  00000240  00003dc0  RW X
  DARAM3                0000c000   00004000  00000000  00004000  RW X
  SARAM01               00010000   00008000  000058fb  00002705  RW X
  SARAM2                00018000   00004000  00000000  00004000  RWIX
  SARAM3                0001c000   00004000  00000000  00004000  RWIX
  SARAM4                00020000   00004000  00000000  00004000  RWIX
  SARAM5                00024000   0000c000  00000e54  0000b1ac  RWIX
  SARAM6                00030000   00004000  00000000  00004000  RWIX
  SARAM7                00034000   00004000  00000000  00004000  RW X
  SARAM8                00038000   00004000  000003b0  00003c50  RWIX
  SARAM9                0003c000   00008000  0000008b  00007f75  RWIX
  SARAM10               00044000   00008000  00002200  00005e00  RWIX
  CE0                   00050000   003b0000  00000000  003b0000  RWIX
  CE1                   00400000   00400000  00000000  00400000  RWIX
  CE2                   00800000   00400000  00000000  00400000  RWIX
  CE3                   00c00000   003f8000  00000000  003f8000  RWIX
  PDROM                 00ff8000   00007f00  00000000  00007f00  RWIX
  VECS                  00ffff00   00000100  00000000  00000100  RWIX


SECTION ALLOCATION MAP
(Addresses surrounded by []'s are displayed for convenience only!)

output                                                          attributes/
section   page  orgn(bytes) orgn(words) len(bytes) len(words)   input sections
--------  ----  ----------- ----------- ---------- ----------   --------------
.stack       0   [ 00000100 ]  00000080          *   00000800   UNINITIALIZED
                 [ 00000100 ]  00000080          *   00000800   --HOLE--

.sysstack 
*            0   [ 00001100 ]  00000880          *   00000200   UNINITIALIZED
                 [ 00001100 ]  00000880          *   00000200   --HOLE--

vectors      0     00001500  [ 00000a80 ] 00000200          *   NOLOAD SECTION
                   00001500  [ 00000a80 ] 00000100          *   C55XXCSL_LP.lib : vectors.obj (vectors)
                   00001600  [ 00000b00 ] 00000100          *   rts55x.lib : vectors.obj (vectors)

.sysmem      0   [ 00004000 ]  00002000          *   00000800   UNINITIALIZED
                 [ 00004000 ]  00002000          *   00000800   --HOLE--

.cio         0   [ 00008000 ]  00004000          *   00000120   UNINITIALIZED
                 [ 00008000 ]  00004000          *   00000120   rts55x.lib : trgmsg.obj (.cio)

.text        0     00010000  [ 00008000 ] 00005763          *   
                   00010000  [ 00008000 ] 000015a4          *   rts55x.lib : _printfi.obj (.text)
                   000115a4  [ 00008ad2 ] 00000879          *   fuzz.obj (.text)
                   00011e1d  [ 00008f0e+] 00000543          *   rts55x.lib : lowlev.obj (.text)
                   00012360  [ 000091b0 ] 00000528          *              : trgdrv.obj (.text)
                   00012888  [ 00009444 ] 00000508          *   C55XXCSL_LP.lib : csl_intc.obj (.text)
                   00012d90  [ 000096c8 ] 000004b5          *   rts55x.lib : memory.obj (.text)
                   00013245  [ 00009922+] 000003cc          *              : divd.obj (.text)
                   00013611  [ 00009b08+] 000003a4          *   fuzz.obj (.text:retain)
                   000139b5  [ 00009cda+] 000002eb          *   C55XXCSL_LP.lib : csl_gpt.obj (.text)
                   00013ca0  [ 00009e50 ] 0000027f          *   rts55x.lib : fopen.obj (.text)
                   00013f1f  [ 00009f8f+] 0000025e          *              : llmpy.obj (.text)
                   0001417d  [ 0000a0be+] 0000025a          *              : addd.obj (.text)
                   000143d7  [ 0000a1eb+] 000001ea          *              : cmpd.obj (.text)
                   000145c1  [ 0000a2e0+] 00000163          *              : fputs.obj (.text)
                   00014724  [ 0000a392 ] 0000014c          *              : mpyd.obj (.text)
                   00014870  [ 0000a438 ] 000000e6          *              : setvbuf.obj (.text)
                   00014956  [ 0000a4ab ] 000000dd          *              : _io_perm.obj (.text)
                   00014a33  [ 0000a519+] 000000c2          *              : fflush.obj (.text)
                   00014af5  [ 0000a57a+] 000000ba          *              : trgmsg.obj (.text:CIO_breakpoint)
                   00014baf  [ 0000a5d7+] 000000a6          *              : fputc.obj (.text)
                   00014c55  [ 0000a62a+] 000000a1          *              : divul.obj (.text)
                   00014cf6  [ 0000a67b ] 00000099          *   coverage.obj (.text)
                   00014d8f  [ 0000a6c7+] 0000008c          *   C55XXCSL_LP.lib : csl_irqplug.obj (.text)
                   00014e1b  [ 0000a70d+] 0000007d          *   rts55x.lib : ltoa.obj (.text)
                   00014e98  [ 0000a74c ] 0000007b          *              : fclose.obj (.text)
                   00014f13  [ 0000a789+] 00000076          *              : frcmpyd.obj (.text)
                   00014f89  [ 0000a7c4+] 00000073          *              : frcmpyd_div.obj (.text)
                   00014ffc  [ 0000a7fe ] 00000072          *              : remul.obj (.text)
                   0001506e  [ 0000a837 ] 0000006f          *              : fixdli.obj (.text)
                   000150dd  [ 0000a86e+] 0000006d          *   C55XXCSL_LP.lib : vectors.obj (.text)
                   0001514a  [ 0000a8a5 ] 0000006d          *   rts55x.lib : trgmsg.obj (.text)
                   000151b7  [ 0000a8db+] 0000006b          *              : fseek.obj (.text)
                   00015222  [ 0000a911 ] 00000067          *              : fltlid.obj (.text)
                   00015289  [ 0000a944+] 00000060          *              : rand.obj (.text)
                   000152e9  [ 0000a974+] 0000005c          *              : atoi.obj (.text)
                   00015345  [ 0000a9a2+] 0000005b          *              : fltuld.obj (.text)
                   000153a0  [ 0000a9d0 ] 00000050          *              : printf.obj (.text)
                   000153f0  [ 0000a9f8 ] 0000004d          *              : autoinit.obj (.text)
                   0001543d  [ 0000aa1e+] 0000004b          *              : args_main.obj (.text)
                   00015488  [ 0000aa44 ] 0000004b          *              : remli.obj (.text)
                   000154d3  [ 0000aa69+] 00000048          *              : divli.obj (.text)
                   0001551b  [ 0000aa8d+] 00000045          *              : setjmp.obj (.text)
                   00015560  [ 0000aab0 ] 0000003f          *              : memcpy.obj (.text)
                   0001559f  [ 0000aacf+] 0000003e          *              : exit.obj (.text)
                   000155dd  [ 0000aaee+] 0000003c          *              : idiv.obj (.text)
                   00015619  [ 0000ab0c+] 00000034          *              : boot.obj (.text)
                   0001564d  [ 0000ab26+] 0000002a          *              : fixdi.obj (.text)
                   00015677  [ 0000ab3b+] 0000002a          *              : udiv.obj (.text)
                   000156a1  [ 0000ab50+] 00000023          *              : memccpy.obj (.text)
                   000156c4  [ 0000ab62 ] 0000001a          *              : isinf.obj (.text)
                   000156de  [ 0000ab6f ] 00000017          *              : time.obj (.text)
                   000156f5  [ 0000ab7a+] 00000014          *              : subd.obj (.text)
                   00015709  [ 0000ab84+] 00000013          *              : lmpy.obj (.text)
                   0001571c  [ 0000ab8e ] 00000012          *              : _lock.obj (.text)
                   0001572e  [ 0000ab97 ] 00000011          *              : memset.obj (.text)
                   0001573f  [ 0000ab9f+] 00000010          *              : negd.obj (.text)
                   0001574f  [ 0000aba7+] 0000000a          *              : remove.obj (.text)
                   00015759  [ 0000abac+] 00000007          *              : exit.obj (.text:CIO_breakpoint)
                   00015760  [ 0000abb0 ] 00000002          *              : vectors.obj (.text)
                   00015762  [ 0000abb1 ] 00000001          *   --HOLE-- [fill = 20]

.cinit       0   [ 00015764 ]  0000abb2          *   000000cc   
                 [ 00015764 ]  0000abb2          *   00000053   fuzz.obj (.cinit)
                 [ 0001580a ]  0000ac05          *   0000002d   rts55x.lib : lowlev.obj (.cinit)
                 [ 00015864 ]  0000ac32          *   0000002a              : defs.obj (.cinit)
                 [ 000158b8 ]  0000ac5c          *   0000000a              : _lock.obj (.cinit)
                 [ 000158cc ]  0000ac66          *   0000000a              : exit.obj (.cinit)
                 [ 000158e0 ]  0000ac70          *   00000005              : rand.obj (.cinit)
                 [ 000158ea ]  0000ac75          *   00000004              : fopen.obj (.cinit)
                 [ 000158f2 ]  0000ac79          *   00000004              : memory.obj (.cinit)
                 [ 000158fa ]  0000ac7d          *   00000001   --HOLE-- [fill = 0]

.bss         0   [ 00024000 ]  00012000          *   0000072a   UNINITIALIZED
                 [ 00024000 ]  00012000          *   00000439   fuzz.obj (.bss)
                 [ 00024872 ]  00012439          *   00000001   rts55x.lib : fopen.obj (.bss)
                 [ 00024874 ]  0001243a          *   00000119              : defs.obj (.bss)
                 [ 00024aa6 ]  00012553          *   000000d0              : trgdrv.obj (.bss)
                 [ 00024c46 ]  00012623          *   00000001   --HOLE--
                 [ 00024c48 ]  00012624          *   00000084   C55XXCSL_LP.lib : csl_intc.obj (.bss)
                 [ 00024d50 ]  000126a8          *   00000071   rts55x.lib : lowlev.obj (.bss)
                 [ 00024e32 ]  00012719          *   00000001   --HOLE--
                 [ 00024e34 ]  0001271a          *   00000006              : memory.obj (.bss)
                 [ 00024e40 ]  00012720          *   00000004              : _lock.obj (.bss)
                 [ 00024e48 ]  00012724          *   00000004              : exit.obj (.bss)
                 [ 00024e50 ]  00012728          *   00000002              : rand.obj (.bss)

.data        0   [ 00038000 ]  0001c000          *   00000000   UNINITIALIZED

.const       0   [ 00038000 ]  0001c000          *   000001d8   
                 [ 00038000 ]  0001c000          *   00000101   rts55x.lib : ctype.obj (.const:__ctypes_)
                 [ 00038202 ]  0001c101          *   00000001   --HOLE-- [fill = 0]
                 [ 00038204 ]  0001c102          *   00000098   fuzz.obj (.const:.string)
                 [ 00038334 ]  0001c19a          *   00000024   rts55x.lib : _printfi.obj (.const:.string)
                 [ 0003837c ]  0001c1be          *   0000000c              : _printfi.obj (.const)
                 [ 00038394 ]  0001c1ca          *   00000008              : divd.obj (.const:_initial_approx$1)
                 [ 000383a4 ]  0001c1d2          *   00000002              : fputs.obj (.const:.string)
                 [ 000383a8 ]  0001c1d4          *   00000002              : fltlid.obj (.const)
                 [ 000383ac ]  0001c1d6          *   00000002              : fltuld.obj (.const)

.program_sandbox 
*            0     0003c000  [ 0001e000 ] 0000008b          *   
                   0003c000  [ 0001e000 ] 0000008a          *   new_test_fuzz.obj (.text)
                   0003c08a  [ 0001e045 ] 00000001          *   --HOLE-- [fill = 20]

.data_sandbox 
*            0   [ 00044000 ]  00022000          *   00001100   UNINITIALIZED
                 [ 00044000 ]  00022000          *   00001100   fuzz.obj (.data_sandbox)


GLOBAL SYMBOLS: SORTED ALPHABETICALLY BY Name 

abs. value/
byte addr   word addr   name
---------   ---------   ----
00000002                $TI_capability$C5500$CallingConvention
00000002                $TI_capability$C5500$MemoryModel
00000001                $TI_capability_requires_rev3
            00012000    .bss
            0001c000    .data
00010000                .text
0001575a                C$$EXIT
00014baa                C$$IO$$
000155dd                I$$DIV
00015709                I$$LMPY
000155fc                I$$MOD
00015677                I$$UDIV
0001568c                I$$UMOD
00001500                RST
00013af2                _GPT_close
00013bf9                _GPT_config
00013bbe                _GPT_getCnt
000139b5                _GPT_open
00013a78                _GPT_reset
00013b67                _GPT_start
00013b94                _GPT_stop
0001282a                _HOSTclock
000127bf                _HOSTclose
0001270a                _HOSTlseek
0001266b                _HOSTopen
000125de                _HOSTread
00012530                _HOSTrename
000124d2                _HOSTtime
00012468                _HOSTunlink
000123db                _HOSTwrite
00012910                _IRQ_clear
00012963                _IRQ_clearAll
00012973                _IRQ_config
00012a80                _IRQ_disable
00012afe                _IRQ_disableAll
00012b0c                _IRQ_enable
00012c06                _IRQ_getArg
000129f8                _IRQ_getConfig
00012d4a                _IRQ_globalDisable
00012d63                _IRQ_globalEnable
00012d7c                _IRQ_globalRestore
00012888                _IRQ_init
00012c7b                _IRQ_map
00014d8f                _IRQ_plug
00012b96                _IRQ_restore
00012c4a                _IRQ_setArg
00012ca7                _IRQ_setVecs
00012cd8                _IRQ_test
00001600                _Reset
00001500                _VECSTART
            00004000    __CIOBUF_
            00000880    __STACK_END
00001000                __STACK_SIZE
00001000                __SYSMEM_SIZE
00000400                __SYSSTACK_SIZE
00000001                __TI_args_main
ffffffff                ___binit__
            00012000    ___bss__
ffffffff                ___c_args__
            0000abb2    ___cinit__
            0001c000    ___data__
            0001c000    ___edata__
            0001272a    ___end__
00015763                ___etext__
000156c4                ___isinf
ffffffff                ___pinit__
00010000                ___text__
0001417d                __addd
0001543d                __args_main
00013dc1                __cleanup
            00012724    __cleanup_ptr
00014569                __cmpd
            0001c000    __ctypes_
00013245                __divd
000155dd                __divi
000154d3                __divli
00014148                __divlli
00015677                __divu
00014c55                __divul
00014054                __divull
00014a33                __doflush
            00012726    __dtors_ptr
00014535                __eqld
0001564d                __fixdi
0001506e                __fixdli
00015222                __fltlid
00015345                __fltuld
00014f13                __frcmpyd
00014f89                __frcmpyd_div
            00012552    __ft_end
            0001243a    __ftable
000144eb                __geqd
000144a0                __gtrd
00014453                __leqd
            00012720    __lock
0001440b                __lssd
00014724                __mpyd
00015709                __mpyli
00013f9c                __mpylli
0001573f                __negd
000143d7                __neqd
0001572c                __nop
00011362                __printfi
000149d6                __rd_ok
00015724                __register_lock
0001571c                __register_unlock
000155fc                __remi
00015488                __remli
00013f6d                __remlli
0001568c                __remu
00014ffc                __remul
00013f1f                __remull
0001551b                __setjmp
            00000080    __stack
000156f5                __subd
            00002000    __sys_memory
            00000880    __sysstack
            000124b2    __tmpnams
            00012722    __unlock
00014956                __wrt_ok
00015759                _abort
00012270                _add_device
000152e9                _atoi
000153f0                _auto_init
00013769                _bus_error_isr
00015619                _c_int00
0001321f                _calloc
00013217                _chkheap
000121fd                _close
            00012415    _corpusWaiting
            00012436    _count
00014cf6                _coverage_log
            0001200f    _coverage_map
            00012432    _cpuCycleCount
000115a4                _crash_void
            00012427    _current_corpus_size
            00022f00    _current_input
0001388f                _data_log_isr
00011ca6                _dequeue_seed
            00012430    _end_time
            0001242c    _execution_time
0001559f                _exit
00014e98                _fclose
00014a9c                _fflush
000121f4                _find_registered_device
00013ee4                _fopen
00014baf                _fputc
000145c1                _fputs
00012d90                _free
000131c1                _free_memory
00013e1b                _freopen
000151b7                _fseek
00013611                _fuzzer_isr
00012360                _getenv
00011d1d                _handle_results
000115d7                _input_printf
            00012414    _isError
            00012413    _isIncreasing
            00012438    _isTest
            00012429    _iterations
            00022000    _local_pool
            00012000    _local_pool_tracker
0001553c                _longjmp
0001218e                _lseek
00014e1b                _ltoa
00011e12                _main
00011d86                _main_harness_loop
00012ec1                _malloc
00013167                _max_free
000156a1                _memccpy
00015560                _memcpy
0001572e                _memset
000115a6                _memset_volatile
00012e5c                _minit
            00012428    _mutation_frequency
0001174f                _mutator
000120cf                _open
            00023000    _output_buffer
000153a0                _printf
00014baf                _putc
00014c46                _putchar
000146f6                _puts
000152ab                _rand
00012021                _read
0001514a                _readmsg
00012fb6                _realloc
00011c8e                _refresh_seed_corpus
0001574f                _remove
00011feb                _remove_device
00011f92                _rename
            00012416    _saved_context
            0001240f    _seed_head
            00012412    _seed_tail
00011d14                _seed_to_global_pool
0001551b                _setjmp
0001170d                _setup
00014870                _setvbuf
00015289                _srand
            00012426    _stage_cycles
            0001242e    _start_time
0001162d                _start_timer
000116e0                _stop_timer
            00012410    _sut_start_address
            00012434    _sysClk
0003c000                _test
000156de                _time
            0001242a    _total_time
00011d4c                _track_time
00011f5f                _unlink
00011e1d                _write
00014af5                _writemsg
ffffffff                binit
            0000abb2    cinit
            0001c000    edata
            0001272a    end
00015763                etext
ffffffff                pinit


GLOBAL SYMBOLS: SORTED BY Symbol Address 

abs. value/
byte addr   word addr   name
---------   ---------   ----
00000001                $TI_capability_requires_rev3
00000001                __TI_args_main
00000002                $TI_capability$C5500$CallingConvention
00000002                $TI_capability$C5500$MemoryModel
            00000080    __stack
00000400                __SYSSTACK_SIZE
00001000                __STACK_SIZE
00001000                __SYSMEM_SIZE
            00000880    __STACK_END
            00000880    __sysstack
00001500                RST
00001500                _VECSTART
00001600                _Reset
            00002000    __sys_memory
            00004000    __CIOBUF_
00010000                .text
00010000                ___text__
00011362                __printfi
000115a4                _crash_void
000115a6                _memset_volatile
000115d7                _input_printf
0001162d                _start_timer
000116e0                _stop_timer
0001170d                _setup
0001174f                _mutator
00011c8e                _refresh_seed_corpus
00011ca6                _dequeue_seed
00011d14                _seed_to_global_pool
00011d1d                _handle_results
00011d4c                _track_time
00011d86                _main_harness_loop
00011e12                _main
00011e1d                _write
00011f5f                _unlink
00011f92                _rename
00011feb                _remove_device
00012021                _read
000120cf                _open
0001218e                _lseek
000121f4                _find_registered_device
000121fd                _close
00012270                _add_device
00012360                _getenv
000123db                _HOSTwrite
00012468                _HOSTunlink
000124d2                _HOSTtime
00012530                _HOSTrename
000125de                _HOSTread
0001266b                _HOSTopen
0001270a                _HOSTlseek
000127bf                _HOSTclose
0001282a                _HOSTclock
00012888                _IRQ_init
00012910                _IRQ_clear
00012963                _IRQ_clearAll
00012973                _IRQ_config
000129f8                _IRQ_getConfig
00012a80                _IRQ_disable
00012afe                _IRQ_disableAll
00012b0c                _IRQ_enable
00012b96                _IRQ_restore
00012c06                _IRQ_getArg
00012c4a                _IRQ_setArg
00012c7b                _IRQ_map
00012ca7                _IRQ_setVecs
00012cd8                _IRQ_test
00012d4a                _IRQ_globalDisable
00012d63                _IRQ_globalEnable
00012d7c                _IRQ_globalRestore
00012d90                _free
00012e5c                _minit
00012ec1                _malloc
00012fb6                _realloc
00013167                _max_free
000131c1                _free_memory
00013217                _chkheap
0001321f                _calloc
00013245                __divd
00013611                _fuzzer_isr
00013769                _bus_error_isr
0001388f                _data_log_isr
000139b5                _GPT_open
00013a78                _GPT_reset
00013af2                _GPT_close
00013b67                _GPT_start
00013b94                _GPT_stop
00013bbe                _GPT_getCnt
00013bf9                _GPT_config
00013dc1                __cleanup
00013e1b                _freopen
00013ee4                _fopen
00013f1f                __remull
00013f6d                __remlli
00013f9c                __mpylli
00014054                __divull
00014148                __divlli
0001417d                __addd
000143d7                __neqd
0001440b                __lssd
00014453                __leqd
000144a0                __gtrd
000144eb                __geqd
00014535                __eqld
00014569                __cmpd
000145c1                _fputs
000146f6                _puts
00014724                __mpyd
00014870                _setvbuf
00014956                __wrt_ok
000149d6                __rd_ok
00014a33                __doflush
00014a9c                _fflush
00014af5                _writemsg
00014baa                C$$IO$$
00014baf                _fputc
00014baf                _putc
00014c46                _putchar
00014c55                __divul
00014cf6                _coverage_log
00014d8f                _IRQ_plug
00014e1b                _ltoa
00014e98                _fclose
00014f13                __frcmpyd
00014f89                __frcmpyd_div
00014ffc                __remul
0001506e                __fixdli
0001514a                _readmsg
000151b7                _fseek
00015222                __fltlid
00015289                _srand
000152ab                _rand
000152e9                _atoi
00015345                __fltuld
000153a0                _printf
000153f0                _auto_init
0001543d                __args_main
00015488                __remli
000154d3                __divli
0001551b                __setjmp
0001551b                _setjmp
0001553c                _longjmp
00015560                _memcpy
0001559f                _exit
000155dd                I$$DIV
000155dd                __divi
000155fc                I$$MOD
000155fc                __remi
00015619                _c_int00
0001564d                __fixdi
00015677                I$$UDIV
00015677                __divu
0001568c                I$$UMOD
0001568c                __remu
000156a1                _memccpy
000156c4                ___isinf
000156de                _time
000156f5                __subd
00015709                I$$LMPY
00015709                __mpyli
0001571c                __register_unlock
00015724                __register_lock
0001572c                __nop
0001572e                _memset
0001573f                __negd
0001574f                _remove
00015759                _abort
0001575a                C$$EXIT
00015763                ___etext__
00015763                etext
            0000abb2    ___cinit__
            0000abb2    cinit
            00012000    .bss
            00012000    ___bss__
            00012000    _local_pool_tracker
            0001200f    _coverage_map
            0001240f    _seed_head
            00012410    _sut_start_address
            00012412    _seed_tail
            00012413    _isIncreasing
            00012414    _isError
            00012415    _corpusWaiting
            00012416    _saved_context
            00012426    _stage_cycles
            00012427    _current_corpus_size
            00012428    _mutation_frequency
            00012429    _iterations
            0001242a    _total_time
            0001242c    _execution_time
            0001242e    _start_time
            00012430    _end_time
            00012432    _cpuCycleCount
            00012434    _sysClk
            00012436    _count
            00012438    _isTest
            0001243a    __ftable
            000124b2    __tmpnams
            00012552    __ft_end
            00012720    __lock
            00012722    __unlock
            00012724    __cleanup_ptr
            00012726    __dtors_ptr
            0001272a    ___end__
            0001272a    end
            0001c000    .data
            0001c000    ___data__
            0001c000    ___edata__
            0001c000    __ctypes_
            0001c000    edata
0003c000                _test
            00022000    _local_pool
            00022f00    _current_input
            00023000    _output_buffer
ffffffff                ___binit__
ffffffff                ___c_args__
ffffffff                ___pinit__
ffffffff                binit
ffffffff                pinit

[217 symbols]
