;*******************************************************************************
;* TMS320C55x C/C++ Codegen                                        Unix v4.4.1 *
;* Date/Time created: Thu May  2 04:44:11 2024                                 *
;*******************************************************************************
	.compiler_opts --hll_source=on --mem_model:code=flat --mem_model:data=large --object_format=coff --silicon_core_3_3 --symdebug:dwarf 
	.mmregs
	.cpl_on
	.arms_on
	.c54cm_off
	.asg AR6, FP
	.asg XAR6, XFP
	.asg DPH, MDP
	.model call=c55_std
	.model mem=large
	.noremark 5002  ; code respects overwrite rules
;*******************************************************************************
;* GLOBAL FILE PARAMETERS                                                      *
;*                                                                             *
;*   Architecture       : TMS320C55x                                           *
;*   Optimizing for     : Speed                                                *
;*   Memory             : Large Model (23-Bit Data Pointers)                   *
;*   Calls              : Normal Library ASM calls                             *
;*   Debug Info         : Standard TI Debug Information                        *
;*******************************************************************************

$C$DW$CU	.dwtag  DW_TAG_compile_unit
	.dwattr $C$DW$CU, DW_AT_name("src/csl_sdio.c")
	.dwattr $C$DW$CU, DW_AT_producer("TMS320C55x C/C++ Codegen Unix v4.4.1 Copyright (c) 1996-2012 Texas Instruments Incorporated")
	.dwattr $C$DW$CU, DW_AT_TI_version(0x01)
	.dwattr $C$DW$CU, DW_AT_comp_dir("/home/santiago/dspfuzz/on_board/library")
;	/home/santiago/ti/55x_Tools/bin/acp55 -@/tmp/17549ssJBLt 
	.sect	".text"
	.global	_SDIO_init

$C$DW$1	.dwtag  DW_TAG_subprogram, DW_AT_name("SDIO_init")
	.dwattr $C$DW$1, DW_AT_low_pc(_SDIO_init)
	.dwattr $C$DW$1, DW_AT_high_pc(0x00)
	.dwattr $C$DW$1, DW_AT_TI_symbol_name("_SDIO_init")
	.dwattr $C$DW$1, DW_AT_external
	.dwattr $C$DW$1, DW_AT_type(*$C$DW$T$57)
	.dwattr $C$DW$1, DW_AT_TI_begin_file("src/csl_sdio.c")
	.dwattr $C$DW$1, DW_AT_TI_begin_line(0x5f)
	.dwattr $C$DW$1, DW_AT_TI_begin_column(0x0c)
	.dwattr $C$DW$1, DW_AT_TI_max_frame_size(0x02)
	.dwpsn	file "src/csl_sdio.c",line 96,column 1,is_stmt,address _SDIO_init

	.dwfde $C$DW$CIE, _SDIO_init
;*******************************************************************************
;* FUNCTION NAME: SDIO_init                                                    *
;*                                                                             *
;*   Function Uses Regs : AC0,AC0,T0,AR1,SP,M40,SATA,SATD,RDM,FRCT,SMUL        *
;*   Stack Frame        : Compact (No Frame Pointer, w/ debug)                 *
;*   Total Frame Size   : 2 words                                              *
;*                        (1 return address/alignment)                         *
;*                        (1 local values)                                     *
;*   Min System Stack   : 1 word                                               *
;*******************************************************************************
_SDIO_init:
	.dwcfi	cfa_offset, 1
	.dwcfi	save_reg_to_mem, 91, -1
        AADD #-1, SP
	.dwcfi	cfa_offset, 2
$C$DW$2	.dwtag  DW_TAG_variable, DW_AT_name("status")
	.dwattr $C$DW$2, DW_AT_TI_symbol_name("_status")
	.dwattr $C$DW$2, DW_AT_type(*$C$DW$T$57)
	.dwattr $C$DW$2, DW_AT_location[DW_OP_bregx 0x24 0]
	.dwpsn	file "src/csl_sdio.c",line 99,column 5,is_stmt
        MOV #0, *SP(#0) ; |99| 
	.dwpsn	file "src/csl_sdio.c",line 102,column 5,is_stmt
        AND #0xffef, *port(#7170) ; |102| 
	.dwpsn	file "src/csl_sdio.c",line 103,column 5,is_stmt
        AND #0xff7f, *port(#7171) ; |103| 
	.dwpsn	file "src/csl_sdio.c",line 106,column 5,is_stmt
        MOV #0, AC0 ; |106| 
        MOV *port(#7172), AR1 ; |106| 
        BSET @#5, AC0 ; |106| 
        MOV AC0, *port(#7172) ; |106| 
	.dwpsn	file "src/csl_sdio.c",line 107,column 5,is_stmt
        MOV *port(#7173), AR1 ; |107| 
        BCLR @#5, AR1 ; |107| 
        BSET @#5, AR1 ; |107| 
        MOV AR1, *port(#7173) ; |107| 
	.dwpsn	file "src/csl_sdio.c",line 110,column 5,is_stmt
        AND #0xfcff, *port(#7168) ; |110| 
	.dwpsn	file "src/csl_sdio.c",line 112,column 5,is_stmt
        AND #0xf3ff, *port(#7168) ; |112| 
	.dwpsn	file "src/csl_sdio.c",line 114,column 5,is_stmt
        MOV *SP(#0), T0 ; |114| 
	.dwpsn	file "src/csl_sdio.c",line 115,column 1,is_stmt
        AADD #1, SP
	.dwcfi	cfa_offset, 1
$C$DW$3	.dwtag  DW_TAG_TI_branch
	.dwattr $C$DW$3, DW_AT_low_pc(0x00)
	.dwattr $C$DW$3, DW_AT_TI_return
        RET
                                        ; return occurs
	.dwattr $C$DW$1, DW_AT_TI_end_file("src/csl_sdio.c")
	.dwattr $C$DW$1, DW_AT_TI_end_line(0x73)
	.dwattr $C$DW$1, DW_AT_TI_end_column(0x01)
	.dwendentry
	.dwendtag $C$DW$1

	.sect	".text"
	.global	_SDIO_open

$C$DW$4	.dwtag  DW_TAG_subprogram, DW_AT_name("SDIO_open")
	.dwattr $C$DW$4, DW_AT_low_pc(_SDIO_open)
	.dwattr $C$DW$4, DW_AT_high_pc(0x00)
	.dwattr $C$DW$4, DW_AT_TI_symbol_name("_SDIO_open")
	.dwattr $C$DW$4, DW_AT_external
	.dwattr $C$DW$4, DW_AT_type(*$C$DW$T$55)
	.dwattr $C$DW$4, DW_AT_TI_begin_file("src/csl_sdio.c")
	.dwattr $C$DW$4, DW_AT_TI_begin_line(0xa8)
	.dwattr $C$DW$4, DW_AT_TI_begin_column(0x10)
	.dwattr $C$DW$4, DW_AT_TI_max_frame_size(0x0a)
	.dwpsn	file "src/csl_sdio.c",line 171,column 1,is_stmt,address _SDIO_open

	.dwfde $C$DW$CIE, _SDIO_open
$C$DW$5	.dwtag  DW_TAG_formal_parameter, DW_AT_name("pSdioContObj")
	.dwattr $C$DW$5, DW_AT_TI_symbol_name("_pSdioContObj")
	.dwattr $C$DW$5, DW_AT_type(*$C$DW$T$54)
	.dwattr $C$DW$5, DW_AT_location[DW_OP_reg17]
$C$DW$6	.dwtag  DW_TAG_formal_parameter, DW_AT_name("instId")
	.dwattr $C$DW$6, DW_AT_TI_symbol_name("_instId")
	.dwattr $C$DW$6, DW_AT_type(*$C$DW$T$48)
	.dwattr $C$DW$6, DW_AT_location[DW_OP_reg12]
$C$DW$7	.dwtag  DW_TAG_formal_parameter, DW_AT_name("status")
	.dwattr $C$DW$7, DW_AT_TI_symbol_name("_status")
	.dwattr $C$DW$7, DW_AT_type(*$C$DW$T$58)
	.dwattr $C$DW$7, DW_AT_location[DW_OP_reg19]
;*******************************************************************************
;* FUNCTION NAME: SDIO_open                                                    *
;*                                                                             *
;*   Function Uses Regs : AC0,AC0,T0,AR0,XAR0,AR1,XAR1,AR2,AR3,XAR3,SP,TC1,M40,*
;*                        SATA,SATD,RDM,FRCT,SMUL                              *
;*   Stack Frame        : Compact (No Frame Pointer, w/ debug)                 *
;*   Total Frame Size   : 10 words                                             *
;*                        (2 return address/alignment)                         *
;*                        (8 local values)                                     *
;*   Min System Stack   : 1 word                                               *
;*******************************************************************************
_SDIO_open:
	.dwcfi	cfa_offset, 1
	.dwcfi	save_reg_to_mem, 91, -1
        AADD #-9, SP
	.dwcfi	cfa_offset, 10
$C$DW$8	.dwtag  DW_TAG_variable, DW_AT_name("pSdioContObj")
	.dwattr $C$DW$8, DW_AT_TI_symbol_name("_pSdioContObj")
	.dwattr $C$DW$8, DW_AT_type(*$C$DW$T$54)
	.dwattr $C$DW$8, DW_AT_location[DW_OP_bregx 0x24 0]
$C$DW$9	.dwtag  DW_TAG_variable, DW_AT_name("instId")
	.dwattr $C$DW$9, DW_AT_TI_symbol_name("_instId")
	.dwattr $C$DW$9, DW_AT_type(*$C$DW$T$48)
	.dwattr $C$DW$9, DW_AT_location[DW_OP_bregx 0x24 2]
$C$DW$10	.dwtag  DW_TAG_variable, DW_AT_name("status")
	.dwattr $C$DW$10, DW_AT_TI_symbol_name("_status")
	.dwattr $C$DW$10, DW_AT_type(*$C$DW$T$58)
	.dwattr $C$DW$10, DW_AT_location[DW_OP_bregx 0x24 4]
$C$DW$11	.dwtag  DW_TAG_variable, DW_AT_name("hSdio")
	.dwattr $C$DW$11, DW_AT_TI_symbol_name("_hSdio")
	.dwattr $C$DW$11, DW_AT_type(*$C$DW$T$55)
	.dwattr $C$DW$11, DW_AT_location[DW_OP_bregx 0x24 6]
        MOV XAR1, dbl(*SP(#4))
        MOV T0, *SP(#2) ; |171| 
        MOV XAR0, dbl(*SP(#0))
	.dwpsn	file "src/csl_sdio.c",line 174,column 5,is_stmt
        MOV #0, AC0 ; |174| 
        MOV AC0, dbl(*SP(#6))
	.dwpsn	file "src/csl_sdio.c",line 176,column 5,is_stmt
        MOV dbl(*SP(#0)), XAR3
        MOV XAR3, AC0
        BCC $C$L2,AC0 != #0 ; |176| 
                                        ; branchcc occurs ; |176| 
	.dwpsn	file "src/csl_sdio.c",line 178,column 3,is_stmt
        MOV dbl(*SP(#4)), XAR3
        MOV XAR3, AC0
        BCC $C$L1,AC0 == #0 ; |178| 
                                        ; branchcc occurs ; |178| 
	.dwpsn	file "src/csl_sdio.c",line 180,column 10,is_stmt
        MOV #-6, *AR3 ; |180| 
$C$L1:    
	.dwpsn	file "src/csl_sdio.c",line 183,column 9,is_stmt
        MOV #0, AC0 ; |183| 
        MOV AC0, dbl(*SP(#6))
	.dwpsn	file "src/csl_sdio.c",line 184,column 5,is_stmt
        B $C$L8   ; |184| 
                                        ; branch occurs ; |184| 
$C$L2:    
	.dwpsn	file "src/csl_sdio.c",line 185,column 10,is_stmt
        MOV dbl(*SP(#4)), XAR3
        MOV XAR3, AC0
        BCC $C$L6,AC0 != #0 ; |185| 
                                        ; branchcc occurs ; |185| 
	.dwpsn	file "src/csl_sdio.c",line 187,column 3,is_stmt
        MOV #0, AC0 ; |187| 
        MOV AC0, dbl(*SP(#6))
	.dwpsn	file "src/csl_sdio.c",line 188,column 2,is_stmt
        B $C$L8   ; |188| 
                                        ; branch occurs ; |188| 
$C$L3:    
	.dwpsn	file "src/csl_sdio.c",line 195,column 17,is_stmt
        MOV #0, *AR3 ; |195| 
	.dwpsn	file "src/csl_sdio.c",line 196,column 17,is_stmt
        MOV dbl(*SP(#0)), XAR3
        MOV #14848, *AR3 ; |196| 
	.dwpsn	file "src/csl_sdio.c",line 197,column 17,is_stmt
        MOV dbl(*SP(#0)), XAR3
        MOV XAR3, dbl(*SP(#6))
	.dwpsn	file "src/csl_sdio.c",line 198,column 17,is_stmt
        B $C$L7   ; |198| 
                                        ; branch occurs ; |198| 
$C$L4:    
	.dwpsn	file "src/csl_sdio.c",line 203,column 17,is_stmt
        MOV #0, *AR3 ; |203| 
	.dwpsn	file "src/csl_sdio.c",line 204,column 17,is_stmt
        MOV dbl(*SP(#0)), XAR3
        MOV #15104, *AR3 ; |204| 
	.dwpsn	file "src/csl_sdio.c",line 205,column 17,is_stmt
        MOV dbl(*SP(#0)), XAR3
        MOV XAR3, dbl(*SP(#6))
	.dwpsn	file "src/csl_sdio.c",line 206,column 17,is_stmt
        B $C$L7   ; |206| 
                                        ; branch occurs ; |206| 
$C$L5:    
	.dwpsn	file "src/csl_sdio.c",line 211,column 17,is_stmt
        MOV #-6, *AR3 ; |211| 
	.dwpsn	file "src/csl_sdio.c",line 212,column 17,is_stmt
        MOV dbl(*SP(#0)), XAR3
        MOV #0, *AR3 ; |212| 
	.dwpsn	file "src/csl_sdio.c",line 213,column 17,is_stmt
        MOV #0, AC0 ; |213| 
        MOV AC0, dbl(*SP(#6))
	.dwpsn	file "src/csl_sdio.c",line 214,column 17,is_stmt
        B $C$L7   ; |214| 
                                        ; branch occurs ; |214| 
$C$L6:    
	.dwpsn	file "src/csl_sdio.c",line 191,column 9,is_stmt
        MOV *SP(#2), AR1 ; |191| 
        BCC $C$L3,AR1 == #0 ; |191| 
                                        ; branchcc occurs ; |191| 
        MOV #1, AR2
        CMP AR1 == AR2, TC1 ; |191| 
        BCC $C$L4,TC1 ; |191| 
                                        ; branchcc occurs ; |191| 
        B $C$L5   ; |191| 
                                        ; branch occurs ; |191| 
$C$L7:    
	.dwpsn	file "src/csl_sdio.c",line 218,column 9,is_stmt
        MOV dbl(*SP(#6)), XAR3
        MOV #0, *AR3(short(#4)) ; |218| 
	.dwpsn	file "src/csl_sdio.c",line 219,column 9,is_stmt
        MOV dbl(*SP(#6)), XAR3
        MOV #0, *AR3(short(#5)) ; |219| 
	.dwpsn	file "src/csl_sdio.c",line 222,column 9,is_stmt
        MOV dbl(*SP(#6)), XAR3
        MOV *AR3, AR3 ; |222| 
        MOV port(*AR3), AR1 ; |222| 
        MOV dbl(*SP(#6)), XAR3
        MOV *AR3(short(#5)) << #10, AC0 ; |222| 
        MOV *AR3, AR3 ; |222| 
        BCLR @#10, AR1 ; |222| 
        AND #0x0400, AC0, AR2 ; |222| 
        OR AR1, AR2 ; |222| 
        MOV AR2, port(*AR3) ; |222| 
	.dwpsn	file "src/csl_sdio.c",line 226,column 9,is_stmt
        MOV dbl(*SP(#6)), XAR3
        MOV *AR3, AR3 ; |226| 
        MOV port(*AR3), AR1 ; |226| 
        MOV dbl(*SP(#6)), XAR3
        MOV *AR3(short(#4)) << #9, AC0 ; |226| 
        MOV *AR3, AR3 ; |226| 
        BCLR @#9, AR1 ; |226| 
        AND #0x0200, AC0, AR2 ; |226| 
        OR AR1, AR2 ; |226| 
        MOV AR2, port(*AR3) ; |226| 
$C$L8:    
	.dwpsn	file "src/csl_sdio.c",line 230,column 5,is_stmt
        MOV dbl(*SP(#6)), XAR0
	.dwpsn	file "src/csl_sdio.c",line 231,column 1,is_stmt
        AADD #9, SP
	.dwcfi	cfa_offset, 1
$C$DW$12	.dwtag  DW_TAG_TI_branch
	.dwattr $C$DW$12, DW_AT_low_pc(0x00)
	.dwattr $C$DW$12, DW_AT_TI_return
        RET
                                        ; return occurs
	.dwattr $C$DW$4, DW_AT_TI_end_file("src/csl_sdio.c")
	.dwattr $C$DW$4, DW_AT_TI_end_line(0xe7)
	.dwattr $C$DW$4, DW_AT_TI_end_column(0x01)
	.dwendentry
	.dwendtag $C$DW$4

	.sect	".text"
	.global	_SDIO_close

$C$DW$13	.dwtag  DW_TAG_subprogram, DW_AT_name("SDIO_close")
	.dwattr $C$DW$13, DW_AT_low_pc(_SDIO_close)
	.dwattr $C$DW$13, DW_AT_high_pc(0x00)
	.dwattr $C$DW$13, DW_AT_TI_symbol_name("_SDIO_close")
	.dwattr $C$DW$13, DW_AT_external
	.dwattr $C$DW$13, DW_AT_type(*$C$DW$T$57)
	.dwattr $C$DW$13, DW_AT_TI_begin_file("src/csl_sdio.c")
	.dwattr $C$DW$13, DW_AT_TI_begin_line(0x112)
	.dwattr $C$DW$13, DW_AT_TI_begin_column(0x0c)
	.dwattr $C$DW$13, DW_AT_TI_max_frame_size(0x04)
	.dwpsn	file "src/csl_sdio.c",line 275,column 1,is_stmt,address _SDIO_close

	.dwfde $C$DW$CIE, _SDIO_close
$C$DW$14	.dwtag  DW_TAG_formal_parameter, DW_AT_name("hSdio")
	.dwattr $C$DW$14, DW_AT_TI_symbol_name("_hSdio")
	.dwattr $C$DW$14, DW_AT_type(*$C$DW$T$55)
	.dwattr $C$DW$14, DW_AT_location[DW_OP_reg17]
;*******************************************************************************
;* FUNCTION NAME: SDIO_close                                                   *
;*                                                                             *
;*   Function Uses Regs : AC0,AC0,AC1,AC1,T0,AR0,XAR0,AR3,XAR3,SP,TC1,M40,SATA,*
;*                        SATD,RDM,FRCT,SMUL                                   *
;*   Stack Frame        : Compact (No Frame Pointer, w/ debug)                 *
;*   Total Frame Size   : 4 words                                              *
;*                        (1 return address/alignment)                         *
;*                        (3 local values)                                     *
;*   Min System Stack   : 1 word                                               *
;*******************************************************************************
_SDIO_close:
	.dwcfi	cfa_offset, 1
	.dwcfi	save_reg_to_mem, 91, -1
        AADD #-3, SP
	.dwcfi	cfa_offset, 4
$C$DW$15	.dwtag  DW_TAG_variable, DW_AT_name("hSdio")
	.dwattr $C$DW$15, DW_AT_TI_symbol_name("_hSdio")
	.dwattr $C$DW$15, DW_AT_type(*$C$DW$T$55)
	.dwattr $C$DW$15, DW_AT_location[DW_OP_bregx 0x24 0]
$C$DW$16	.dwtag  DW_TAG_variable, DW_AT_name("status")
	.dwattr $C$DW$16, DW_AT_TI_symbol_name("_status")
	.dwattr $C$DW$16, DW_AT_type(*$C$DW$T$57)
	.dwattr $C$DW$16, DW_AT_location[DW_OP_bregx 0x24 2]
        MOV XAR0, dbl(*SP(#0))
	.dwpsn	file "src/csl_sdio.c",line 278,column 5,is_stmt
        MOV #-5, *SP(#2) ; |278| 
	.dwpsn	file "src/csl_sdio.c",line 280,column 5,is_stmt
        MOV dbl(*SP(#0)), XAR3

        MOV XAR3, AC0
||      MOV #0, AC1 ; |280| 

        CMPU AC1 == AC0, TC1 ; |280| 
        BCC $C$L9,TC1 ; |280| 
                                        ; branchcc occurs ; |280| 
	.dwpsn	file "src/csl_sdio.c",line 282,column 9,is_stmt
        MOV #0, *AR3 ; |282| 
	.dwpsn	file "src/csl_sdio.c",line 283,column 9,is_stmt
        MOV #0, AC0 ; |283| 
        MOV AC0, dbl(*SP(#0))
	.dwpsn	file "src/csl_sdio.c",line 284,column 9,is_stmt
        MOV #0, *SP(#2) ; |284| 
$C$L9:    
	.dwpsn	file "src/csl_sdio.c",line 287,column 5,is_stmt
        MOV *SP(#2), T0 ; |287| 
	.dwpsn	file "src/csl_sdio.c",line 288,column 1,is_stmt
        AADD #3, SP
	.dwcfi	cfa_offset, 1
$C$DW$17	.dwtag  DW_TAG_TI_branch
	.dwattr $C$DW$17, DW_AT_low_pc(0x00)
	.dwattr $C$DW$17, DW_AT_TI_return
        RET
                                        ; return occurs
	.dwattr $C$DW$13, DW_AT_TI_end_file("src/csl_sdio.c")
	.dwattr $C$DW$13, DW_AT_TI_end_line(0x120)
	.dwattr $C$DW$13, DW_AT_TI_end_column(0x01)
	.dwendentry
	.dwendtag $C$DW$13

	.sect	".text"
	.global	_SDIO_config

$C$DW$18	.dwtag  DW_TAG_subprogram, DW_AT_name("SDIO_config")
	.dwattr $C$DW$18, DW_AT_low_pc(_SDIO_config)
	.dwattr $C$DW$18, DW_AT_high_pc(0x00)
	.dwattr $C$DW$18, DW_AT_TI_symbol_name("_SDIO_config")
	.dwattr $C$DW$18, DW_AT_external
	.dwattr $C$DW$18, DW_AT_type(*$C$DW$T$57)
	.dwattr $C$DW$18, DW_AT_TI_begin_file("src/csl_sdio.c")
	.dwattr $C$DW$18, DW_AT_TI_begin_line(0x157)
	.dwattr $C$DW$18, DW_AT_TI_begin_column(0x0c)
	.dwattr $C$DW$18, DW_AT_TI_max_frame_size(0x06)
	.dwpsn	file "src/csl_sdio.c",line 345,column 1,is_stmt,address _SDIO_config

	.dwfde $C$DW$CIE, _SDIO_config
$C$DW$19	.dwtag  DW_TAG_formal_parameter, DW_AT_name("hSdio")
	.dwattr $C$DW$19, DW_AT_TI_symbol_name("_hSdio")
	.dwattr $C$DW$19, DW_AT_type(*$C$DW$T$55)
	.dwattr $C$DW$19, DW_AT_location[DW_OP_reg17]
$C$DW$20	.dwtag  DW_TAG_formal_parameter, DW_AT_name("pSdioConfig")
	.dwattr $C$DW$20, DW_AT_TI_symbol_name("_pSdioConfig")
	.dwattr $C$DW$20, DW_AT_type(*$C$DW$T$61)
	.dwattr $C$DW$20, DW_AT_location[DW_OP_reg19]
;*******************************************************************************
;* FUNCTION NAME: SDIO_config                                                  *
;*                                                                             *
;*   Function Uses Regs : AC0,AC0,AC1,AC1,T0,AR0,XAR0,AR1,XAR1,AR3,XAR3,SP,TC1,*
;*                        M40,SATA,SATD,RDM,FRCT,SMUL                          *
;*   Stack Frame        : Compact (No Frame Pointer, w/ debug)                 *
;*   Total Frame Size   : 6 words                                              *
;*                        (1 return address/alignment)                         *
;*                        (5 local values)                                     *
;*   Min System Stack   : 1 word                                               *
;*******************************************************************************
_SDIO_config:
	.dwcfi	cfa_offset, 1
	.dwcfi	save_reg_to_mem, 91, -1
        AADD #-5, SP
	.dwcfi	cfa_offset, 6
$C$DW$21	.dwtag  DW_TAG_variable, DW_AT_name("hSdio")
	.dwattr $C$DW$21, DW_AT_TI_symbol_name("_hSdio")
	.dwattr $C$DW$21, DW_AT_type(*$C$DW$T$55)
	.dwattr $C$DW$21, DW_AT_location[DW_OP_bregx 0x24 0]
$C$DW$22	.dwtag  DW_TAG_variable, DW_AT_name("pSdioConfig")
	.dwattr $C$DW$22, DW_AT_TI_symbol_name("_pSdioConfig")
	.dwattr $C$DW$22, DW_AT_type(*$C$DW$T$61)
	.dwattr $C$DW$22, DW_AT_location[DW_OP_bregx 0x24 2]
$C$DW$23	.dwtag  DW_TAG_variable, DW_AT_name("status")
	.dwattr $C$DW$23, DW_AT_TI_symbol_name("_status")
	.dwattr $C$DW$23, DW_AT_type(*$C$DW$T$57)
	.dwattr $C$DW$23, DW_AT_location[DW_OP_bregx 0x24 4]
        MOV XAR1, dbl(*SP(#2))
        MOV XAR0, dbl(*SP(#0))
	.dwpsn	file "src/csl_sdio.c",line 348,column 5,is_stmt
        MOV #-5, *SP(#4) ; |348| 
	.dwpsn	file "src/csl_sdio.c",line 350,column 5,is_stmt
        MOV dbl(*SP(#0)), XAR3

        MOV XAR3, AC0
||      MOV #0, AC1 ; |350| 

        CMPU AC1 == AC0, TC1 ; |350| 
        BCC $C$L11,TC1 ; |350| 
                                        ; branchcc occurs ; |350| 
	.dwpsn	file "src/csl_sdio.c",line 352,column 9,is_stmt
        MOV dbl(*SP(#2)), XAR3
        MOV XAR3, AC0
        CMPU AC1 == AC0, TC1 ; |352| 
        BCC $C$L10,TC1 ; |352| 
                                        ; branchcc occurs ; |352| 
	.dwpsn	file "src/csl_sdio.c",line 354,column 13,is_stmt
        MOV *AR3, AR1 ; |354| 
        MOV dbl(*SP(#0)), XAR3
        MOV *AR3, AR3 ; |354| 
        MOV AR1, port(*AR3) ; |354| 
	.dwpsn	file "src/csl_sdio.c",line 355,column 13,is_stmt
        MOV dbl(*SP(#2)), XAR3
        MOV *AR3(short(#1)), AR1 ; |355| 
        MOV dbl(*SP(#0)), XAR3
        MOV *AR3, AR3 ; |355| 
        MOV AR1, port(*AR3(short(#4))) ; |355| 
	.dwpsn	file "src/csl_sdio.c",line 356,column 13,is_stmt
        MOV dbl(*SP(#2)), XAR3
        MOV *AR3(short(#2)), AR1 ; |356| 
        MOV dbl(*SP(#0)), XAR3
        MOV #16, T0 ; |356| 
        MOV *AR3, AR3 ; |356| 
        MOV AR1, port(*AR3(T0)) ; |356| 
	.dwpsn	file "src/csl_sdio.c",line 357,column 13,is_stmt
        MOV dbl(*SP(#2)), XAR3
        MOV *AR3(short(#3)), AR1 ; |357| 
        MOV dbl(*SP(#0)), XAR3
        MOV #20, T0 ; |357| 
        MOV *AR3, AR3 ; |357| 
        MOV AR1, port(*AR3(T0)) ; |357| 
	.dwpsn	file "src/csl_sdio.c",line 358,column 13,is_stmt
        MOV dbl(*SP(#2)), XAR3
        MOV *AR3(short(#4)), AR1 ; |358| 
        MOV dbl(*SP(#0)), XAR3
        MOV #24, T0 ; |358| 
        MOV *AR3, AR3 ; |358| 
        MOV AR1, port(*AR3(T0)) ; |358| 
	.dwpsn	file "src/csl_sdio.c",line 359,column 13,is_stmt
        MOV dbl(*SP(#2)), XAR3
        MOV *AR3(short(#5)), AR1 ; |359| 
        MOV dbl(*SP(#0)), XAR3
        MOV #28, T0 ; |359| 
        MOV *AR3, AR3 ; |359| 
        MOV AR1, port(*AR3(T0)) ; |359| 
	.dwpsn	file "src/csl_sdio.c",line 360,column 13,is_stmt
        MOV dbl(*SP(#2)), XAR3
        MOV *AR3(short(#6)), AR1 ; |360| 
        MOV dbl(*SP(#0)), XAR3
        MOV #32, T0 ; |360| 
        MOV *AR3, AR3 ; |360| 
        MOV AR1, port(*AR3(T0)) ; |360| 
	.dwpsn	file "src/csl_sdio.c",line 361,column 13,is_stmt
        MOV dbl(*SP(#2)), XAR3
        MOV *AR3(short(#7)), AR1 ; |361| 
        MOV dbl(*SP(#0)), XAR3
        MOV #116, T0 ; |361| 
        MOV *AR3, AR3 ; |361| 
        MOV AR1, port(*AR3(T0)) ; |361| 
	.dwpsn	file "src/csl_sdio.c",line 362,column 13,is_stmt
        MOV dbl(*SP(#2)), XAR3
        MOV *AR3(#8), AR1 ; |362| 
        MOV dbl(*SP(#0)), XAR3
        MOV #100, T0 ; |362| 
        MOV *AR3, AR3 ; |362| 
        MOV AR1, port(*AR3(T0)) ; |362| 
	.dwpsn	file "src/csl_sdio.c",line 363,column 13,is_stmt
        MOV dbl(*SP(#2)), XAR3
        MOV *AR3(#9), AR1 ; |363| 
        MOV dbl(*SP(#0)), XAR3
        MOV #108, T0 ; |363| 
        MOV *AR3, AR3 ; |363| 
        MOV AR1, port(*AR3(T0)) ; |363| 
	.dwpsn	file "src/csl_sdio.c",line 365,column 13,is_stmt
        MOV #0, *SP(#4) ; |365| 
	.dwpsn	file "src/csl_sdio.c",line 366,column 9,is_stmt
        B $C$L11  ; |366| 
                                        ; branch occurs ; |366| 
$C$L10:    
	.dwpsn	file "src/csl_sdio.c",line 369,column 13,is_stmt
        MOV #-6, *SP(#4) ; |369| 
$C$L11:    
	.dwpsn	file "src/csl_sdio.c",line 373,column 5,is_stmt
        MOV *SP(#4), T0 ; |373| 
	.dwpsn	file "src/csl_sdio.c",line 374,column 1,is_stmt
        AADD #5, SP
	.dwcfi	cfa_offset, 1
$C$DW$24	.dwtag  DW_TAG_TI_branch
	.dwattr $C$DW$24, DW_AT_low_pc(0x00)
	.dwattr $C$DW$24, DW_AT_TI_return
        RET
                                        ; return occurs
	.dwattr $C$DW$18, DW_AT_TI_end_file("src/csl_sdio.c")
	.dwattr $C$DW$18, DW_AT_TI_end_line(0x176)
	.dwattr $C$DW$18, DW_AT_TI_end_column(0x01)
	.dwendentry
	.dwendtag $C$DW$18

	.sect	".text"
	.global	_SDIO_detectCard

$C$DW$25	.dwtag  DW_TAG_subprogram, DW_AT_name("SDIO_detectCard")
	.dwattr $C$DW$25, DW_AT_low_pc(_SDIO_detectCard)
	.dwattr $C$DW$25, DW_AT_high_pc(0x00)
	.dwattr $C$DW$25, DW_AT_TI_symbol_name("_SDIO_detectCard")
	.dwattr $C$DW$25, DW_AT_external
	.dwattr $C$DW$25, DW_AT_type(*$C$DW$T$57)
	.dwattr $C$DW$25, DW_AT_TI_begin_file("src/csl_sdio.c")
	.dwattr $C$DW$25, DW_AT_TI_begin_line(0x1b3)
	.dwattr $C$DW$25, DW_AT_TI_begin_column(0x0c)
	.dwattr $C$DW$25, DW_AT_TI_max_frame_size(0x18)
	.dwpsn	file "src/csl_sdio.c",line 437,column 1,is_stmt,address _SDIO_detectCard

	.dwfde $C$DW$CIE, _SDIO_detectCard
$C$DW$26	.dwtag  DW_TAG_formal_parameter, DW_AT_name("hSdio")
	.dwattr $C$DW$26, DW_AT_TI_symbol_name("_hSdio")
	.dwattr $C$DW$26, DW_AT_type(*$C$DW$T$55)
	.dwattr $C$DW$26, DW_AT_location[DW_OP_reg17]
$C$DW$27	.dwtag  DW_TAG_formal_parameter, DW_AT_name("pSdioCardObj")
	.dwattr $C$DW$27, DW_AT_TI_symbol_name("_pSdioCardObj")
	.dwattr $C$DW$27, DW_AT_type(*$C$DW$T$37)
	.dwattr $C$DW$27, DW_AT_location[DW_OP_reg19]
;*******************************************************************************
;* FUNCTION NAME: SDIO_detectCard                                              *
;*                                                                             *
;*   Function Uses Regs : AC0,AC0,AC1,AC1,T0,AR0,XAR0,AR1,XAR1,AR2,XAR2,AR3,   *
;*                        XAR3,SP,CARRY,TC1,M40,SATA,SATD,RDM,FRCT,SMUL        *
;*   Stack Frame        : Compact (No Frame Pointer, w/ debug)                 *
;*   Total Frame Size   : 24 words                                             *
;*                        (2 return address/alignment)                         *
;*                        (22 local values)                                    *
;*   Min System Stack   : 1 word                                               *
;*******************************************************************************
_SDIO_detectCard:
	.dwcfi	cfa_offset, 1
	.dwcfi	save_reg_to_mem, 91, -1
        AADD #-23, SP
	.dwcfi	cfa_offset, 24
$C$DW$28	.dwtag  DW_TAG_variable, DW_AT_name("hSdio")
	.dwattr $C$DW$28, DW_AT_TI_symbol_name("_hSdio")
	.dwattr $C$DW$28, DW_AT_type(*$C$DW$T$55)
	.dwattr $C$DW$28, DW_AT_location[DW_OP_bregx 0x24 0]
$C$DW$29	.dwtag  DW_TAG_variable, DW_AT_name("pSdioCardObj")
	.dwattr $C$DW$29, DW_AT_TI_symbol_name("_pSdioCardObj")
	.dwattr $C$DW$29, DW_AT_type(*$C$DW$T$37)
	.dwattr $C$DW$29, DW_AT_location[DW_OP_bregx 0x24 2]
$C$DW$30	.dwtag  DW_TAG_variable, DW_AT_name("argument")
	.dwattr $C$DW$30, DW_AT_TI_symbol_name("_argument")
	.dwattr $C$DW$30, DW_AT_type(*$C$DW$T$26)
	.dwattr $C$DW$30, DW_AT_location[DW_OP_bregx 0x24 4]
$C$DW$31	.dwtag  DW_TAG_variable, DW_AT_name("response")
	.dwattr $C$DW$31, DW_AT_TI_symbol_name("_response")
	.dwattr $C$DW$31, DW_AT_type(*$C$DW$T$26)
	.dwattr $C$DW$31, DW_AT_location[DW_OP_bregx 0x24 6]
$C$DW$32	.dwtag  DW_TAG_variable, DW_AT_name("ocr")
	.dwattr $C$DW$32, DW_AT_TI_symbol_name("_ocr")
	.dwattr $C$DW$32, DW_AT_type(*$C$DW$T$26)
	.dwattr $C$DW$32, DW_AT_location[DW_OP_bregx 0x24 8]
$C$DW$33	.dwtag  DW_TAG_variable, DW_AT_name("status")
	.dwattr $C$DW$33, DW_AT_TI_symbol_name("_status")
	.dwattr $C$DW$33, DW_AT_type(*$C$DW$T$57)
	.dwattr $C$DW$33, DW_AT_location[DW_OP_bregx 0x24 10]
$C$DW$34	.dwtag  DW_TAG_variable, DW_AT_name("statusReg")
	.dwattr $C$DW$34, DW_AT_TI_symbol_name("_statusReg")
	.dwattr $C$DW$34, DW_AT_type(*$C$DW$T$20)
	.dwattr $C$DW$34, DW_AT_location[DW_OP_bregx 0x24 11]
$C$DW$35	.dwtag  DW_TAG_variable, DW_AT_name("resp")
	.dwattr $C$DW$35, DW_AT_TI_symbol_name("_resp")
	.dwattr $C$DW$35, DW_AT_type(*$C$DW$T$42)
	.dwattr $C$DW$35, DW_AT_location[DW_OP_bregx 0x24 12]
$C$DW$36	.dwtag  DW_TAG_variable, DW_AT_name("cmd5Timeout")
	.dwattr $C$DW$36, DW_AT_TI_symbol_name("_cmd5Timeout")
	.dwattr $C$DW$36, DW_AT_type(*$C$DW$T$19)
	.dwattr $C$DW$36, DW_AT_location[DW_OP_bregx 0x24 20]
$C$DW$37	.dwtag  DW_TAG_variable, DW_AT_name("mem")
	.dwattr $C$DW$37, DW_AT_TI_symbol_name("_mem")
	.dwattr $C$DW$37, DW_AT_type(*$C$DW$T$28)
	.dwattr $C$DW$37, DW_AT_location[DW_OP_bregx 0x24 21]
        MOV XAR1, dbl(*SP(#2))
        MOV XAR0, dbl(*SP(#0))
	.dwpsn	file "src/csl_sdio.c",line 447,column 5,is_stmt
        MOV #0, AC0 ; |447| 
        MOV AC0, dbl(*SP(#4)) ; |447| 
	.dwpsn	file "src/csl_sdio.c",line 448,column 5,is_stmt
        MOV AC0, dbl(*SP(#6)) ; |448| 
	.dwpsn	file "src/csl_sdio.c",line 449,column 5,is_stmt
        MOV AC0, dbl(*SP(#8)) ; |449| 
	.dwpsn	file "src/csl_sdio.c",line 450,column 5,is_stmt
        MOV #-5, *SP(#10) ; |450| 
	.dwpsn	file "src/csl_sdio.c",line 451,column 5,is_stmt
        MOV #0, *SP(#11) ; |451| 
	.dwpsn	file "src/csl_sdio.c",line 452,column 5,is_stmt
        MOV #500, *SP(#20) ; |452| 
	.dwpsn	file "src/csl_sdio.c",line 453,column 5,is_stmt
        MOV #0, *SP(#21) ; |453| 
	.dwpsn	file "src/csl_sdio.c",line 455,column 5,is_stmt
        MOV dbl(*SP(#0)), XAR3

        MOV XAR3, AC0
||      MOV #0, AC1 ; |455| 

        CMPU AC1 == AC0, TC1 ; |455| 
        BCC $C$L27,TC1 ; |455| 
                                        ; branchcc occurs ; |455| 
	.dwpsn	file "src/csl_sdio.c",line 457,column 9,is_stmt
        MOV dbl(*SP(#2)), XAR3
        MOV XAR3, AC0
        CMPU AC1 == AC0, TC1 ; |457| 
        BCC $C$L26,TC1 ; |457| 
                                        ; branchcc occurs ; |457| 
	.dwpsn	file "src/csl_sdio.c",line 459,column 13,is_stmt
        MOV #0, *AR3(#8) ; |459| 
	.dwpsn	file "src/csl_sdio.c",line 460,column 13,is_stmt
        MOV dbl(*SP(#0)), XAR3
        MOV dbl(*SP(#2)), XAR2
        MOV XAR2, dbl(*AR3(short(#2)))
	.dwpsn	file "src/csl_sdio.c",line 462,column 13,is_stmt
        MOV dbl(*SP(#0)), XAR3
        MOV *AR3, AR3 ; |462| 
        MOV port(*AR3), AR1 ; |462| 
        MOV dbl(*SP(#0)), XAR3
        MOV *AR3, AR3 ; |462| 
        BCLR @#1, AR1 ; |462| 
        BSET @#1, AR1 ; |462| 
        MOV AR1, port(*AR3) ; |462| 
	.dwpsn	file "src/csl_sdio.c",line 463,column 13,is_stmt
        MOV dbl(*SP(#0)), XAR3
        MOV *AR3, AR3 ; |463| 
        MOV port(*AR3), AR1 ; |463| 
        MOV dbl(*SP(#0)), XAR3
        MOV *AR3, AR3 ; |463| 
        BCLR @#0, AR1 ; |463| 
        BSET @#0, AR1 ; |463| 
        MOV AR1, port(*AR3) ; |463| 
	.dwpsn	file "src/csl_sdio.c",line 466,column 13,is_stmt
        MOV dbl(*SP(#0)), XAR3
        MOV *AR3, AR3 ; |466| 
        MOV port(*AR3(short(#4))), AR1 ; |466| 
        MOV dbl(*SP(#0)), XAR3
        MOV *AR3, AR3 ; |466| 
        BCLR @#8, AR1 ; |466| 
        MOV AR1, port(*AR3(short(#4))) ; |466| 
	.dwpsn	file "src/csl_sdio.c",line 467,column 13,is_stmt
        MOV dbl(*SP(#0)), XAR3
        MOV *AR3, AR3 ; |467| 
        MOV port(*AR3(short(#4))), AR1 ; |467| 
        MOV dbl(*SP(#0)), XAR3
        MOV *AR3, AR3 ; |467| 
        AND #0xff00, AR1, AR1 ; |467| 
        OR #0x0046, AR1, AR1 ; |467| 
        MOV AR1, port(*AR3(short(#4))) ; |467| 
	.dwpsn	file "src/csl_sdio.c",line 470,column 13,is_stmt
        MOV dbl(*SP(#0)), XAR3
        MOV #20, T0 ; |470| 
        MOV *AR3, AR3 ; |470| 
        MOV #65535, port(*AR3(T0)) ; |470| 
	.dwpsn	file "src/csl_sdio.c",line 471,column 13,is_stmt
        MOV dbl(*SP(#0)), XAR3
        MOV #24, T0 ; |471| 
        MOV *AR3, AR3 ; |471| 
        MOV #65535, port(*AR3(T0)) ; |471| 
	.dwpsn	file "src/csl_sdio.c",line 473,column 13,is_stmt
        MOV dbl(*SP(#0)), XAR3
        MOV *AR3, AR3 ; |473| 
        MOV port(*AR3), AR1 ; |473| 
        MOV dbl(*SP(#0)), XAR3
        MOV *AR3, AR3 ; |473| 
        BCLR @#2, AR1 ; |473| 
        MOV AR1, port(*AR3) ; |473| 
	.dwpsn	file "src/csl_sdio.c",line 475,column 13,is_stmt
        MOV dbl(*SP(#0)), XAR3
        MOV *AR3, AR3 ; |475| 
        MOV port(*AR3), AR1 ; |475| 
        MOV dbl(*SP(#0)), XAR3
        MOV *AR3, AR3 ; |475| 
        BCLR @#1, AR1 ; |475| 
        MOV AR1, port(*AR3) ; |475| 
	.dwpsn	file "src/csl_sdio.c",line 476,column 13,is_stmt
        MOV dbl(*SP(#0)), XAR3
        MOV *AR3, AR3 ; |476| 
        MOV port(*AR3), AR1 ; |476| 
        MOV dbl(*SP(#0)), XAR3
        MOV *AR3, AR3 ; |476| 
        BCLR @#0, AR1 ; |476| 
        MOV AR1, port(*AR3) ; |476| 
	.dwpsn	file "src/csl_sdio.c",line 479,column 4,is_stmt
        MOV dbl(*SP(#0)), XAR3
        MOV #80, T0 ; |479| 
        MOV *AR3, AR3 ; |479| 
        MOV port(*AR3(T0)), AR1 ; |479| 
        MOV dbl(*SP(#0)), XAR3
        MOV *AR3, AR3 ; |479| 
        AND #0xffc0, AR1, AC0 ; |479| 
        MOV AC0, port(*AR3(T0)) ; |479| 
	.dwpsn	file "src/csl_sdio.c",line 481,column 4,is_stmt
        MOV dbl(*SP(#0)), XAR3
        MOV #52, T0 ; |481| 
        MOV *AR3, AR3 ; |481| 
        MOV port(*AR3(T0)), AR1 ; |481| 
        MOV dbl(*SP(#0)), XAR3
        MOV *AR3, AR3 ; |481| 
        MOV #0, port(*AR3(T0)) ; |481| 
	.dwpsn	file "src/csl_sdio.c",line 483,column 4,is_stmt
        MOV dbl(*SP(#0)), XAR3
        MOV #53, T0 ; |483| 
        MOV *AR3, AR3 ; |483| 
        MOV port(*AR3(T0)), AR1 ; |483| 
        MOV dbl(*SP(#0)), XAR3
        MOV *AR3, AR3 ; |483| 
        MOV #0, port(*AR3(T0)) ; |483| 
	.dwpsn	file "src/csl_sdio.c",line 486,column 4,is_stmt
        MOV dbl(*SP(#0)), XAR3
        MOV #48, T0 ; |486| 
        MOV *AR3, AR3 ; |486| 
        MOV #0, port(*AR3(T0)) ; |486| 
        MOV #8, T0
$C$L12:    
$C$DW$L$_SDIO_detectCard$4$B:
	.dwpsn	file "src/csl_sdio.c",line 490,column 5,is_stmt
        MOV dbl(*SP(#0)), XAR3
        MOV *AR3, AR3 ; |490| 
        MOV port(*AR3(T0)), AR1 ; |490| 
        MOV AR1, *SP(#11) ; |490| 
        NOP
        NOP
        NOP
	.dwpsn	file "src/csl_sdio.c",line 491,column 13,is_stmt
        BTST #2, *SP(#11), TC1 ; |491| 
        BCC $C$L12,!TC1 ; |491| 
                                        ; branchcc occurs ; |491| 
$C$DW$L$_SDIO_detectCard$4$E:
	.dwpsn	file "src/csl_sdio.c",line 494,column 4,is_stmt
        MOV #426, AC0 ; |494| 
        MOV AC0, dbl(*SP(#4)) ; |494| 
	.dwpsn	file "src/csl_sdio.c",line 496,column 4,is_stmt
        MOV dbl(*SP(#0)), XAR3
        MOV #68, T0 ; |496| 
        MOV *AR3, AR3 ; |496| 
        MOV #0, port(*AR3(T0)) ; |496| 
	.dwpsn	file "src/csl_sdio.c",line 497,column 4,is_stmt
        MOV dbl(*SP(#0)), XAR3
        MOV #80, T0 ; |497| 
        MOV *AR3, AR3 ; |497| 
        MOV port(*AR3(T0)), AR1 ; |497| 
        MOV dbl(*SP(#0)), XAR3
        MOV *AR3, AR3 ; |497| 
        AND #0xffc0, AR1, AC0 ; |497| 
        MOV AC0, port(*AR3(T0)) ; |497| 
	.dwpsn	file "src/csl_sdio.c",line 499,column 4,is_stmt
        MOV dbl(*SP(#0)), XAR3
        MOV #52, T0 ; |499| 
        MOV *AR3, AR3 ; |499| 
        MOV port(*AR3(T0)), AR1 ; |499| 
        MOV dbl(*SP(#0)), XAR3
        MOV *AR3, AR3 ; |499| 
        MOV dbl(*SP(#4)), AC0 ; |499| 
        AND #0xffff, AC0, AC0 ; |499| 
        OR AC1, AC0 ; |499| 
        MOV AC0, port(*AR3(T0)) ; |499| 
	.dwpsn	file "src/csl_sdio.c",line 501,column 4,is_stmt
        MOV dbl(*SP(#0)), XAR3
        MOV #53, T0 ; |501| 
        MOV *AR3, AR3 ; |501| 
        MOV port(*AR3(T0)), AR1 ; |501| 
        MOV dbl(*SP(#0)), XAR3
        MOV *AR3, AR3 ; |501| 
        MOV dbl(*SP(#4)), AC0 ; |501| 
        SFTL AC0, #-16, AC0 ; |501| 
        AND #0xffff, AC0, AC0 ; |501| 
        OR AC1, AC0 ; |501| 
        MOV AC0, port(*AR3(T0)) ; |501| 
	.dwpsn	file "src/csl_sdio.c",line 504,column 4,is_stmt
        MOV dbl(*SP(#0)), XAR3
        MOV #48, T0 ; |504| 
        MOV *AR3, AR3 ; |504| 
        MOV #520, port(*AR3(T0)) ; |504| 
        MOV #8, T0
$C$L13:    
$C$DW$L$_SDIO_detectCard$6$B:
	.dwpsn	file "src/csl_sdio.c",line 508,column 5,is_stmt
        MOV dbl(*SP(#0)), XAR3
        MOV *AR3, AR3 ; |508| 
        MOV port(*AR3(T0)), AR1 ; |508| 
        MOV AR1, *SP(#11) ; |508| 
        NOP
        NOP
        NOP
	.dwpsn	file "src/csl_sdio.c",line 509,column 5,is_stmt
        BTST #7, *SP(#11), TC1 ; |509| 
        BCC $C$L14,!TC1 ; |509| 
                                        ; branchcc occurs ; |509| 
$C$DW$L$_SDIO_detectCard$6$E:
	.dwpsn	file "src/csl_sdio.c",line 511,column 6,is_stmt
        MOV #-17, T0 ; |511| 
        B $C$L28  ; |511| 
                                        ; branch occurs ; |511| 
$C$L14:    
$C$DW$L$_SDIO_detectCard$8$B:
	.dwpsn	file "src/csl_sdio.c",line 513,column 12,is_stmt
        BAND *SP(#11), #252, TC1 ; |513| 
        BCC $C$L13,!TC1 ; |513| 
                                        ; branchcc occurs ; |513| 
$C$DW$L$_SDIO_detectCard$8$E:
	.dwpsn	file "src/csl_sdio.c",line 516,column 4,is_stmt
        BAND *SP(#11), #248, TC1 ; |516| 
        BCC $C$L15,!TC1 ; |516| 
                                        ; branchcc occurs ; |516| 
	.dwpsn	file "src/csl_sdio.c",line 518,column 5,is_stmt
        MOV dbl(*SP(#0)), XAR3
        MOV #0, *AR3(short(#6)) ; |518| 
	.dwpsn	file "src/csl_sdio.c",line 519,column 4,is_stmt
        B $C$L17  ; |519| 
                                        ; branch occurs ; |519| 
$C$L15:    
	.dwpsn	file "src/csl_sdio.c",line 522,column 5,is_stmt
        MOV dbl(*SP(#0)), XAR3
        MOV #68, T0 ; |522| 
        MOV *AR3, AR3 ; |522| 
        MOV #426, AR2 ; |522| 
        MOV port(*AR3(T0)), AR1 ; |522| 
        AND #0x01ff, AR1, AR1 ; |522| 
        CMPU AR2 != AR1, TC1 ; |522| 
        BCC $C$L16,TC1 ; |522| 
                                        ; branchcc occurs ; |522| 
	.dwpsn	file "src/csl_sdio.c",line 524,column 6,is_stmt
        MOV dbl(*SP(#0)), XAR3
        MOV #1, *AR3(short(#6)) ; |524| 
	.dwpsn	file "src/csl_sdio.c",line 525,column 5,is_stmt
        B $C$L17  ; |525| 
                                        ; branch occurs ; |525| 
$C$L16:    
	.dwpsn	file "src/csl_sdio.c",line 529,column 6,is_stmt
        MOV dbl(*SP(#2)), XAR3
        MOV #3, *AR3(#8) ; |529| 
	.dwpsn	file "src/csl_sdio.c",line 530,column 6,is_stmt
        MOV #-1, T0
        B $C$L28  ; |530| 
                                        ; branch occurs ; |530| 
$C$L17:    
$C$DW$L$_SDIO_detectCard$14$B:
	.dwpsn	file "src/csl_sdio.c",line 537,column 5,is_stmt
        MOV dbl(*SP(#0)), XAR3
        MOV #80, T0 ; |537| 
        MOV *AR3, AR3 ; |537| 
        MOV port(*AR3(T0)), AR1 ; |537| 
        MOV dbl(*SP(#0)), XAR3
        MOV *AR3, AR3 ; |537| 
        AND #0xffc0, AR1, AC0 ; |537| 
        MOV AC0, port(*AR3(T0)) ; |537| 
	.dwpsn	file "src/csl_sdio.c",line 538,column 5,is_stmt
        MOV dbl(*SP(#0)), XAR3
        MOV #68, T0 ; |538| 
        MOV *AR3, AR3 ; |538| 
        MOV #0, port(*AR3(T0)) ; |538| 
	.dwpsn	file "src/csl_sdio.c",line 539,column 5,is_stmt
        MOV dbl(*SP(#0)), XAR3
        MOV #69, T0 ; |539| 
        MOV *AR3, AR3 ; |539| 
        MOV #0, port(*AR3(T0)) ; |539| 
	.dwpsn	file "src/csl_sdio.c",line 541,column 5,is_stmt
        MOV dbl(*SP(#0)), XAR3
        MOV #52, T0 ; |541| 
        MOV *AR3, AR3 ; |541| 
        MOV port(*AR3(T0)), AR1 ; |541| 
        MOV dbl(*SP(#0)), XAR3
        MOV *AR3, AR3 ; |541| 
        MOV #0, port(*AR3(T0)) ; |541| 
	.dwpsn	file "src/csl_sdio.c",line 543,column 5,is_stmt
        MOV dbl(*SP(#0)), XAR3
        MOV #53, T0 ; |543| 
        MOV *AR3, AR3 ; |543| 
        MOV port(*AR3(T0)), AR1 ; |543| 
        MOV dbl(*SP(#0)), XAR3
        MOV *AR3, AR3 ; |543| 
        MOV #0, port(*AR3(T0)) ; |543| 
	.dwpsn	file "src/csl_sdio.c",line 547,column 5,is_stmt
        MOV dbl(*SP(#0)), XAR3
        MOV #48, T0 ; |547| 
        MOV *AR3, AR3 ; |547| 
        MOV #1541, port(*AR3(T0)) ; |547| 
        MOV #8, T0
$C$DW$L$_SDIO_detectCard$14$E:
$C$L18:    
$C$DW$L$_SDIO_detectCard$15$B:
	.dwpsn	file "src/csl_sdio.c",line 551,column 6,is_stmt
        MOV dbl(*SP(#0)), XAR3
        MOV *AR3, AR3 ; |551| 
        MOV port(*AR3(T0)), AR1 ; |551| 
        MOV AR1, *SP(#11) ; |551| 
        NOP
        NOP
        NOP
	.dwpsn	file "src/csl_sdio.c",line 552,column 6,is_stmt
        BTST #4, *SP(#11), TC1 ; |552| 
        BCC $C$L19,!TC1 ; |552| 
                                        ; branchcc occurs ; |552| 
$C$DW$L$_SDIO_detectCard$15$E:
	.dwpsn	file "src/csl_sdio.c",line 554,column 7,is_stmt
        MOV #-16, T0 ; |554| 
        B $C$L28  ; |554| 
                                        ; branch occurs ; |554| 
$C$L19:    
$C$DW$L$_SDIO_detectCard$17$B:
	.dwpsn	file "src/csl_sdio.c",line 557,column 13,is_stmt
        BTST #2, *SP(#11), TC1 ; |557| 
        BCC $C$L18,!TC1 ; |557| 
                                        ; branchcc occurs ; |557| 
$C$DW$L$_SDIO_detectCard$17$E:
$C$DW$L$_SDIO_detectCard$18$B:
	.dwpsn	file "src/csl_sdio.c",line 559,column 5,is_stmt
        MOV dbl(*SP(#0)), XAR3
        MOV #68, T0 ; |559| 
        MOV *AR3, AR3 ; |559| 
        MOV port(*AR3(T0)), AR1 ; |559| 
        MOV AR1, *SP(#12) ; |559| 
	.dwpsn	file "src/csl_sdio.c",line 560,column 5,is_stmt
        MOV dbl(*SP(#0)), XAR3
        MOV #69, T0 ; |560| 
        MOV *AR3, AR3 ; |560| 
        MOV port(*AR3(T0)), AR1 ; |560| 
        MOV AR1, *SP(#13) ; |560| 
	.dwpsn	file "src/csl_sdio.c",line 562,column 5,is_stmt
        MOV AR1, HI(AC0) ; |562| 
        OR *SP(#12), AC0, AC0 ; |562| 
        MOV AC0, dbl(*SP(#6)) ; |562| 
	.dwpsn	file "src/csl_sdio.c",line 564,column 5,is_stmt
        SUB #1, *SP(#20) ; |564| 
	.dwpsn	file "src/csl_sdio.c",line 566,column 13,is_stmt
        MOV dbl(*SP(#6)), AC0 ; |566| 
        BCC $C$L20,AC0 != #0 ; |566| 
                                        ; branchcc occurs ; |566| 
$C$DW$L$_SDIO_detectCard$18$E:
$C$DW$L$_SDIO_detectCard$19$B:
        MOV *SP(#20), AR1 ; |566| 
        BCC $C$L17,AR1 != #0 ; |566| 
                                        ; branchcc occurs ; |566| 
$C$DW$L$_SDIO_detectCard$19$E:
$C$L20:    
	.dwpsn	file "src/csl_sdio.c",line 568,column 4,is_stmt
        MOV *SP(#20), AR1 ; |568| 
        BCC $C$L21,AR1 != #0 ; |568| 
                                        ; branchcc occurs ; |568| 
	.dwpsn	file "src/csl_sdio.c",line 570,column 5,is_stmt
        MOV #-16, T0 ; |570| 
        B $C$L28  ; |570| 
                                        ; branch occurs ; |570| 
$C$L21:    
	.dwpsn	file "src/csl_sdio.c",line 573,column 4,is_stmt
        MOV #255 << #16, AC0 ; |573| 
        MOV dbl(*SP(#6)), AC1 ; |573| 
        OR #0xffff, AC0, AC0 ; |573| 
        AND AC1, AC0 ; |573| 
        MOV AC0, dbl(*SP(#8)) ; |573| 
	.dwpsn	file "src/csl_sdio.c",line 574,column 4,is_stmt
        MOV dbl(*SP(#6)), AC0 ; |574| 
        SFTL AC0, #-27, AC0 ; |574| 
        AND #0x0001, AC0, AC0 ; |574| 
        MOV AC0, *SP(#21) ; |574| 
	.dwpsn	file "src/csl_sdio.c",line 576,column 4,is_stmt
        MOV dbl(*SP(#8)), AC0 ; |576| 
        BCC $C$L22,AC0 != #0 ; |576| 
                                        ; branchcc occurs ; |576| 
	.dwpsn	file "src/csl_sdio.c",line 578,column 5,is_stmt
        MOV dbl(*SP(#2)), XAR3
        MOV #3, *AR3(#8) ; |578| 
	.dwpsn	file "src/csl_sdio.c",line 579,column 4,is_stmt
        B $C$L25  ; |579| 
                                        ; branch occurs ; |579| 
$C$L22:    
	.dwpsn	file "src/csl_sdio.c",line 582,column 5,is_stmt
        CMP *SP(#21) == #1, TC1 ; |582| 
        BCC $C$L23,!TC1 ; |582| 
                                        ; branchcc occurs ; |582| 
	.dwpsn	file "src/csl_sdio.c",line 584,column 6,is_stmt
        MOV dbl(*SP(#2)), XAR3
        MOV #2, *AR3(#8) ; |584| 
	.dwpsn	file "src/csl_sdio.c",line 585,column 5,is_stmt
        B $C$L24  ; |585| 
                                        ; branch occurs ; |585| 
$C$L23:    
	.dwpsn	file "src/csl_sdio.c",line 588,column 6,is_stmt
        MOV dbl(*SP(#2)), XAR3
        MOV #1, *AR3(#8) ; |588| 
$C$L24:    
	.dwpsn	file "src/csl_sdio.c",line 591,column 5,is_stmt
        MOV dbl(*SP(#2)), XAR3
        MOV dbl(*SP(#8)), AC0 ; |591| 
        MOV AC0, dbl(*AR3(short(#2))) ; |591| 
	.dwpsn	file "src/csl_sdio.c",line 592,column 5,is_stmt
        MOV dbl(*SP(#2)), XAR3
        MOV dbl(*SP(#6)), AC0 ; |592| 
        SFTL AC0, #-28, AC0 ; |592| 
        AND #0x0007, AC0, AC0 ; |592| 
        MOV AC0, *AR3(short(#4)) ; |592| 
	.dwpsn	file "src/csl_sdio.c",line 593,column 5,is_stmt
        MOV dbl(*SP(#2)), XAR3
        MOV dbl(*SP(#6)), AC0 ; |593| 
        SFTL AC0, #-31, AC0 ; |593| 
        AND #0x0001, AC0, AC0 ; |593| 
        MOV AC0, *AR3(short(#5)) ; |593| 
$C$L25:    
	.dwpsn	file "src/csl_sdio.c",line 596,column 4,is_stmt
        MOV #0, *SP(#10) ; |596| 
	.dwpsn	file "src/csl_sdio.c",line 597,column 9,is_stmt
        B $C$L27  ; |597| 
                                        ; branch occurs ; |597| 
$C$L26:    
	.dwpsn	file "src/csl_sdio.c",line 600,column 13,is_stmt
        MOV #-6, *SP(#10) ; |600| 
$C$L27:    
	.dwpsn	file "src/csl_sdio.c",line 604,column 5,is_stmt
        MOV *SP(#10), T0 ; |604| 
$C$L28:    
	.dwpsn	file "src/csl_sdio.c",line 605,column 1,is_stmt
        AADD #23, SP
	.dwcfi	cfa_offset, 1
$C$DW$38	.dwtag  DW_TAG_TI_branch
	.dwattr $C$DW$38, DW_AT_low_pc(0x00)
	.dwattr $C$DW$38, DW_AT_TI_return
        RET
                                        ; return occurs

$C$DW$39	.dwtag  DW_TAG_TI_loop
	.dwattr $C$DW$39, DW_AT_name("/home/santiago/dspfuzz/on_board/library/csl_sdio.asm:$C$L17:1:1714639451")
	.dwattr $C$DW$39, DW_AT_TI_begin_file("src/csl_sdio.c")
	.dwattr $C$DW$39, DW_AT_TI_begin_line(0x217)
	.dwattr $C$DW$39, DW_AT_TI_end_line(0x236)
$C$DW$40	.dwtag  DW_TAG_TI_loop_range
	.dwattr $C$DW$40, DW_AT_low_pc($C$DW$L$_SDIO_detectCard$14$B)
	.dwattr $C$DW$40, DW_AT_high_pc($C$DW$L$_SDIO_detectCard$14$E)
$C$DW$41	.dwtag  DW_TAG_TI_loop_range
	.dwattr $C$DW$41, DW_AT_low_pc($C$DW$L$_SDIO_detectCard$18$B)
	.dwattr $C$DW$41, DW_AT_high_pc($C$DW$L$_SDIO_detectCard$18$E)
$C$DW$42	.dwtag  DW_TAG_TI_loop_range
	.dwattr $C$DW$42, DW_AT_low_pc($C$DW$L$_SDIO_detectCard$19$B)
	.dwattr $C$DW$42, DW_AT_high_pc($C$DW$L$_SDIO_detectCard$19$E)

$C$DW$43	.dwtag  DW_TAG_TI_loop
	.dwattr $C$DW$43, DW_AT_name("/home/santiago/dspfuzz/on_board/library/csl_sdio.asm:$C$L18:2:1714639451")
	.dwattr $C$DW$43, DW_AT_TI_begin_file("src/csl_sdio.c")
	.dwattr $C$DW$43, DW_AT_TI_begin_line(0x225)
	.dwattr $C$DW$43, DW_AT_TI_end_line(0x22d)
$C$DW$44	.dwtag  DW_TAG_TI_loop_range
	.dwattr $C$DW$44, DW_AT_low_pc($C$DW$L$_SDIO_detectCard$15$B)
	.dwattr $C$DW$44, DW_AT_high_pc($C$DW$L$_SDIO_detectCard$15$E)
$C$DW$45	.dwtag  DW_TAG_TI_loop_range
	.dwattr $C$DW$45, DW_AT_low_pc($C$DW$L$_SDIO_detectCard$17$B)
	.dwattr $C$DW$45, DW_AT_high_pc($C$DW$L$_SDIO_detectCard$17$E)
	.dwendtag $C$DW$43

	.dwendtag $C$DW$39


$C$DW$46	.dwtag  DW_TAG_TI_loop
	.dwattr $C$DW$46, DW_AT_name("/home/santiago/dspfuzz/on_board/library/csl_sdio.asm:$C$L13:1:1714639451")
	.dwattr $C$DW$46, DW_AT_TI_begin_file("src/csl_sdio.c")
	.dwattr $C$DW$46, DW_AT_TI_begin_line(0x1fa)
	.dwattr $C$DW$46, DW_AT_TI_end_line(0x201)
$C$DW$47	.dwtag  DW_TAG_TI_loop_range
	.dwattr $C$DW$47, DW_AT_low_pc($C$DW$L$_SDIO_detectCard$6$B)
	.dwattr $C$DW$47, DW_AT_high_pc($C$DW$L$_SDIO_detectCard$6$E)
$C$DW$48	.dwtag  DW_TAG_TI_loop_range
	.dwattr $C$DW$48, DW_AT_low_pc($C$DW$L$_SDIO_detectCard$8$B)
	.dwattr $C$DW$48, DW_AT_high_pc($C$DW$L$_SDIO_detectCard$8$E)
	.dwendtag $C$DW$46


$C$DW$49	.dwtag  DW_TAG_TI_loop
	.dwattr $C$DW$49, DW_AT_name("/home/santiago/dspfuzz/on_board/library/csl_sdio.asm:$C$L12:1:1714639451")
	.dwattr $C$DW$49, DW_AT_TI_begin_file("src/csl_sdio.c")
	.dwattr $C$DW$49, DW_AT_TI_begin_line(0x1e8)
	.dwattr $C$DW$49, DW_AT_TI_end_line(0x1eb)
$C$DW$50	.dwtag  DW_TAG_TI_loop_range
	.dwattr $C$DW$50, DW_AT_low_pc($C$DW$L$_SDIO_detectCard$4$B)
	.dwattr $C$DW$50, DW_AT_high_pc($C$DW$L$_SDIO_detectCard$4$E)
	.dwendtag $C$DW$49

	.dwattr $C$DW$25, DW_AT_TI_end_file("src/csl_sdio.c")
	.dwattr $C$DW$25, DW_AT_TI_end_line(0x25d)
	.dwattr $C$DW$25, DW_AT_TI_end_column(0x01)
	.dwendentry
	.dwendtag $C$DW$25

	.sect	".text"
	.global	_SDIO_initCard

$C$DW$51	.dwtag  DW_TAG_subprogram, DW_AT_name("SDIO_initCard")
	.dwattr $C$DW$51, DW_AT_low_pc(_SDIO_initCard)
	.dwattr $C$DW$51, DW_AT_high_pc(0x00)
	.dwattr $C$DW$51, DW_AT_TI_symbol_name("_SDIO_initCard")
	.dwattr $C$DW$51, DW_AT_external
	.dwattr $C$DW$51, DW_AT_type(*$C$DW$T$57)
	.dwattr $C$DW$51, DW_AT_TI_begin_file("src/csl_sdio.c")
	.dwattr $C$DW$51, DW_AT_TI_begin_line(0x29c)
	.dwattr $C$DW$51, DW_AT_TI_begin_column(0x0c)
	.dwattr $C$DW$51, DW_AT_TI_max_frame_size(0x18)
	.dwpsn	file "src/csl_sdio.c",line 671,column 1,is_stmt,address _SDIO_initCard

	.dwfde $C$DW$CIE, _SDIO_initCard
$C$DW$52	.dwtag  DW_TAG_formal_parameter, DW_AT_name("hSdio")
	.dwattr $C$DW$52, DW_AT_TI_symbol_name("_hSdio")
	.dwattr $C$DW$52, DW_AT_type(*$C$DW$T$55)
	.dwattr $C$DW$52, DW_AT_location[DW_OP_reg17]
$C$DW$53	.dwtag  DW_TAG_formal_parameter, DW_AT_name("OpCondReg")
	.dwattr $C$DW$53, DW_AT_TI_symbol_name("_OpCondReg")
	.dwattr $C$DW$53, DW_AT_type(*$C$DW$T$26)
	.dwattr $C$DW$53, DW_AT_location[DW_OP_reg0]
$C$DW$54	.dwtag  DW_TAG_formal_parameter, DW_AT_name("initMem")
	.dwattr $C$DW$54, DW_AT_TI_symbol_name("_initMem")
	.dwattr $C$DW$54, DW_AT_type(*$C$DW$T$28)
	.dwattr $C$DW$54, DW_AT_location[DW_OP_reg12]
;*******************************************************************************
;* FUNCTION NAME: SDIO_initCard                                                *
;*                                                                             *
;*   Function Uses Regs : AC0,AC0,AC1,AC1,T0,AR0,XAR0,AR1,AR2,AR3,XAR3,SP,     *
;*                        CARRY,TC1,M40,SATA,SATD,RDM,FRCT,SMUL                *
;*   Stack Frame        : Compact (No Frame Pointer, w/ debug)                 *
;*   Total Frame Size   : 24 words                                             *
;*                        (2 return address/alignment)                         *
;*                        (22 local values)                                    *
;*   Min System Stack   : 1 word                                               *
;*******************************************************************************
_SDIO_initCard:
	.dwcfi	cfa_offset, 1
	.dwcfi	save_reg_to_mem, 91, -1
        AADD #-23, SP
	.dwcfi	cfa_offset, 24
$C$DW$55	.dwtag  DW_TAG_variable, DW_AT_name("hSdio")
	.dwattr $C$DW$55, DW_AT_TI_symbol_name("_hSdio")
	.dwattr $C$DW$55, DW_AT_type(*$C$DW$T$55)
	.dwattr $C$DW$55, DW_AT_location[DW_OP_bregx 0x24 0]
$C$DW$56	.dwtag  DW_TAG_variable, DW_AT_name("OpCondReg")
	.dwattr $C$DW$56, DW_AT_TI_symbol_name("_OpCondReg")
	.dwattr $C$DW$56, DW_AT_type(*$C$DW$T$26)
	.dwattr $C$DW$56, DW_AT_location[DW_OP_bregx 0x24 2]
$C$DW$57	.dwtag  DW_TAG_variable, DW_AT_name("initMem")
	.dwattr $C$DW$57, DW_AT_TI_symbol_name("_initMem")
	.dwattr $C$DW$57, DW_AT_type(*$C$DW$T$28)
	.dwattr $C$DW$57, DW_AT_location[DW_OP_bregx 0x24 4]
$C$DW$58	.dwtag  DW_TAG_variable, DW_AT_name("argument")
	.dwattr $C$DW$58, DW_AT_TI_symbol_name("_argument")
	.dwattr $C$DW$58, DW_AT_type(*$C$DW$T$26)
	.dwattr $C$DW$58, DW_AT_location[DW_OP_bregx 0x24 6]
$C$DW$59	.dwtag  DW_TAG_variable, DW_AT_name("response")
	.dwattr $C$DW$59, DW_AT_TI_symbol_name("_response")
	.dwattr $C$DW$59, DW_AT_type(*$C$DW$T$26)
	.dwattr $C$DW$59, DW_AT_location[DW_OP_bregx 0x24 8]
$C$DW$60	.dwtag  DW_TAG_variable, DW_AT_name("status")
	.dwattr $C$DW$60, DW_AT_TI_symbol_name("_status")
	.dwattr $C$DW$60, DW_AT_type(*$C$DW$T$57)
	.dwattr $C$DW$60, DW_AT_location[DW_OP_bregx 0x24 10]
$C$DW$61	.dwtag  DW_TAG_variable, DW_AT_name("statusReg")
	.dwattr $C$DW$61, DW_AT_TI_symbol_name("_statusReg")
	.dwattr $C$DW$61, DW_AT_type(*$C$DW$T$20)
	.dwattr $C$DW$61, DW_AT_location[DW_OP_bregx 0x24 11]
$C$DW$62	.dwtag  DW_TAG_variable, DW_AT_name("sdioStatus")
	.dwattr $C$DW$62, DW_AT_TI_symbol_name("_sdioStatus")
	.dwattr $C$DW$62, DW_AT_type(*$C$DW$T$20)
	.dwattr $C$DW$62, DW_AT_location[DW_OP_bregx 0x24 12]
$C$DW$63	.dwtag  DW_TAG_variable, DW_AT_name("cmdTimeout")
	.dwattr $C$DW$63, DW_AT_TI_symbol_name("_cmdTimeout")
	.dwattr $C$DW$63, DW_AT_type(*$C$DW$T$19)
	.dwattr $C$DW$63, DW_AT_location[DW_OP_bregx 0x24 13]
$C$DW$64	.dwtag  DW_TAG_variable, DW_AT_name("resp")
	.dwattr $C$DW$64, DW_AT_TI_symbol_name("_resp")
	.dwattr $C$DW$64, DW_AT_type(*$C$DW$T$42)
	.dwattr $C$DW$64, DW_AT_location[DW_OP_bregx 0x24 14]
        MOV T0, *SP(#4) ; |671| 
        MOV AC0, dbl(*SP(#2)) ; |671| 
        MOV XAR0, dbl(*SP(#0))
	.dwpsn	file "src/csl_sdio.c",line 680,column 5,is_stmt
        MOV #0, AC0 ; |680| 
        MOV AC0, dbl(*SP(#6)) ; |680| 
	.dwpsn	file "src/csl_sdio.c",line 681,column 5,is_stmt
        MOV AC0, dbl(*SP(#8)) ; |681| 
	.dwpsn	file "src/csl_sdio.c",line 682,column 5,is_stmt
        MOV #-5, *SP(#10) ; |682| 
	.dwpsn	file "src/csl_sdio.c",line 683,column 5,is_stmt
        MOV #0, *SP(#11) ; |683| 
	.dwpsn	file "src/csl_sdio.c",line 684,column 5,is_stmt
        MOV #0, *SP(#12) ; |684| 
	.dwpsn	file "src/csl_sdio.c",line 685,column 5,is_stmt
        MOV #500, *SP(#13) ; |685| 
	.dwpsn	file "src/csl_sdio.c",line 687,column 5,is_stmt
        MOV dbl(*SP(#0)), XAR3

        MOV XAR3, AC0
||      MOV #0, AC1 ; |687| 

        CMPU AC1 == AC0, TC1 ; |687| 
        BCC $C$L53,TC1 ; |687| 
                                        ; branchcc occurs ; |687| 
$C$L29:    
$C$DW$L$_SDIO_initCard$2$B:
	.dwpsn	file "src/csl_sdio.c",line 695,column 13,is_stmt
        MOV dbl(*SP(#2)), AC0 ; |695| 
        MOV AC0, dbl(*SP(#6)) ; |695| 
	.dwpsn	file "src/csl_sdio.c",line 697,column 13,is_stmt
        MOV dbl(*SP(#0)), XAR3
        MOV #80, T0 ; |697| 
        MOV *AR3, AR3 ; |697| 
        MOV port(*AR3(T0)), AR1 ; |697| 
        MOV dbl(*SP(#0)), XAR3
        MOV *AR3, AR3 ; |697| 
        AND #0xffc0, AR1, AC0 ; |697| 
        MOV AC0, port(*AR3(T0)) ; |697| 
	.dwpsn	file "src/csl_sdio.c",line 698,column 4,is_stmt
        MOV dbl(*SP(#0)), XAR3
        MOV #68, T0 ; |698| 
        MOV *AR3, AR3 ; |698| 
        MOV #0, port(*AR3(T0)) ; |698| 
	.dwpsn	file "src/csl_sdio.c",line 699,column 4,is_stmt
        MOV dbl(*SP(#0)), XAR3
        MOV #69, T0 ; |699| 
        MOV *AR3, AR3 ; |699| 
        MOV #0, port(*AR3(T0)) ; |699| 
	.dwpsn	file "src/csl_sdio.c",line 701,column 13,is_stmt
        MOV dbl(*SP(#0)), XAR3
        MOV #52, T0 ; |701| 
        MOV *AR3, AR3 ; |701| 
        MOV port(*AR3(T0)), AR1 ; |701| 
        MOV dbl(*SP(#0)), XAR3
        MOV *AR3, AR3 ; |701| 
        MOV dbl(*SP(#6)), AC0 ; |701| 
        AND #0xffff, AC0, AC0 ; |701| 
        OR AC1, AC0 ; |701| 
        MOV AC0, port(*AR3(T0)) ; |701| 
	.dwpsn	file "src/csl_sdio.c",line 703,column 13,is_stmt
        MOV dbl(*SP(#0)), XAR3
        MOV #53, T0 ; |703| 
        MOV *AR3, AR3 ; |703| 
        MOV port(*AR3(T0)), AR1 ; |703| 
        MOV dbl(*SP(#0)), XAR3
        MOV *AR3, AR3 ; |703| 
        MOV dbl(*SP(#6)), AC0 ; |703| 
        SFTL AC0, #-16, AC0 ; |703| 
        AND #0xffff, AC0, AC0 ; |703| 
        OR AC1, AC0 ; |703| 
        MOV AC0, port(*AR3(T0)) ; |703| 
	.dwpsn	file "src/csl_sdio.c",line 706,column 13,is_stmt
        MOV dbl(*SP(#0)), XAR3
        MOV #48, T0 ; |706| 
        MOV *AR3, AR3 ; |706| 
        MOV #1541, port(*AR3(T0)) ; |706| 
        MOV #8, T0
$C$DW$L$_SDIO_initCard$2$E:
$C$L30:    
$C$DW$L$_SDIO_initCard$3$B:
	.dwpsn	file "src/csl_sdio.c",line 710,column 5,is_stmt
        MOV dbl(*SP(#0)), XAR3
        MOV *AR3, AR3 ; |710| 
        MOV port(*AR3(T0)), AR1 ; |710| 
        MOV AR1, *SP(#11) ; |710| 
        NOP
        NOP
        NOP
	.dwpsn	file "src/csl_sdio.c",line 711,column 5,is_stmt
        BTST #4, *SP(#11), TC1 ; |711| 
        BCC $C$L31,!TC1 ; |711| 
                                        ; branchcc occurs ; |711| 
$C$DW$L$_SDIO_initCard$3$E:
	.dwpsn	file "src/csl_sdio.c",line 713,column 6,is_stmt
        MOV #-16, T0 ; |713| 
        B $C$L54  ; |713| 
                                        ; branch occurs ; |713| 
$C$L31:    
$C$DW$L$_SDIO_initCard$5$B:
	.dwpsn	file "src/csl_sdio.c",line 716,column 12,is_stmt
        BTST #2, *SP(#11), TC1 ; |716| 
        BCC $C$L30,!TC1 ; |716| 
                                        ; branchcc occurs ; |716| 
$C$DW$L$_SDIO_initCard$5$E:
$C$DW$L$_SDIO_initCard$6$B:
	.dwpsn	file "src/csl_sdio.c",line 718,column 13,is_stmt
        MOV dbl(*SP(#0)), XAR3
        MOV #68, T0 ; |718| 
        MOV *AR3, AR3 ; |718| 
        MOV port(*AR3(T0)), AR1 ; |718| 
        MOV AR1, *SP(#14) ; |718| 
	.dwpsn	file "src/csl_sdio.c",line 719,column 13,is_stmt
        MOV dbl(*SP(#0)), XAR3
        MOV #69, T0 ; |719| 
        MOV *AR3, AR3 ; |719| 
        MOV port(*AR3(T0)), AR1 ; |719| 
        MOV AR1, *SP(#15) ; |719| 
	.dwpsn	file "src/csl_sdio.c",line 721,column 13,is_stmt
        MOV AR1, HI(AC0) ; |721| 
        OR *SP(#14), AC0, AC0 ; |721| 
        MOV AC0, dbl(*SP(#8)) ; |721| 
	.dwpsn	file "src/csl_sdio.c",line 723,column 13,is_stmt
        MOV dbl(*SP(#0)), XAR3
        MOV dbl(*AR3(short(#2))), XAR3
        MOV dbl(*SP(#8)), AC0 ; |723| 
        SFTL AC0, #-31, AC0 ; |723| 
        AND #0x0001, AC0, AC0 ; |723| 
        MOV AC0, *AR3(short(#5)) ; |723| 
	.dwpsn	file "src/csl_sdio.c",line 725,column 13,is_stmt
        SUB #1, *SP(#13) ; |725| 
	.dwpsn	file "src/csl_sdio.c",line 727,column 17,is_stmt
        MOV dbl(*SP(#0)), XAR3
        MOV dbl(*AR3(short(#2))), XAR3

        MOV *AR3(short(#5)), AR1 ; |727| 
||      MOV #0, AR2

        CMPU AR2 != AR1, TC1 ; |727| 
        BCC $C$L32,TC1 ; |727| 
                                        ; branchcc occurs ; |727| 
$C$DW$L$_SDIO_initCard$6$E:
$C$DW$L$_SDIO_initCard$7$B:
        MOV *SP(#13), AR1 ; |727| 
        CMPU AR2 == AR1, TC1 ; |727| 
        BCC $C$L29,!TC1 ; |727| 
                                        ; branchcc occurs ; |727| 
$C$DW$L$_SDIO_initCard$7$E:
$C$L32:    
	.dwpsn	file "src/csl_sdio.c",line 729,column 9,is_stmt

        MOV #0, AR2
||      MOV *SP(#13), AR1 ; |729| 

        CMPU AR2 != AR1, TC1 ; |729| 
        BCC $C$L33,TC1 ; |729| 
                                        ; branchcc occurs ; |729| 
	.dwpsn	file "src/csl_sdio.c",line 731,column 13,is_stmt
        MOV #257, *SP(#10) ; |731| 
	.dwpsn	file "src/csl_sdio.c",line 732,column 9,is_stmt
        B $C$L53  ; |732| 
                                        ; branch occurs ; |732| 
$C$L33:    
	.dwpsn	file "src/csl_sdio.c",line 736,column 13,is_stmt
        MOV dbl(*SP(#0)), XAR3
        MOV dbl(*AR3(short(#2))), XAR3
        MOV #2, AR2
        MOV *AR3(#8), AR1 ; |736| 
        CMP AR2 != AR1, TC1 ; |736| 
        BCC $C$L45,TC1 ; |736| 
                                        ; branchcc occurs ; |736| 

        MOV #1, AR2
||      MOV *SP(#4), AR1 ; |736| 

        CMPU AR2 != AR1, TC1 ; |736| 
        BCC $C$L45,TC1 ; |736| 
                                        ; branchcc occurs ; |736| 
	.dwpsn	file "src/csl_sdio.c",line 739,column 5,is_stmt
        MOV dbl(*SP(#0)), XAR3
        MOV *AR3(short(#6)), AR1 ; |739| 
        BCC $C$L34,AR1 != #0 ; |739| 
                                        ; branchcc occurs ; |739| 
	.dwpsn	file "src/csl_sdio.c",line 746,column 6,is_stmt
        MOV #255 << #16, AC0 ; |746| 
        OR #0x8000, AC0, AC0 ; |746| 
        MOV AC0, dbl(*SP(#6)) ; |746| 
	.dwpsn	file "src/csl_sdio.c",line 747,column 5,is_stmt
        B $C$L35  ; |747| 
                                        ; branch occurs ; |747| 
$C$L34:    
	.dwpsn	file "src/csl_sdio.c",line 754,column 21,is_stmt
        MOV #16639 << #16, AC0 ; |754| 
        OR #0x8000, AC0, AC0 ; |754| 
        MOV AC0, dbl(*SP(#6)) ; |754| 
$C$L35:    
	.dwpsn	file "src/csl_sdio.c",line 757,column 17,is_stmt
        MOV #500, *SP(#13) ; |757| 
$C$L36:    
$C$DW$L$_SDIO_initCard$16$B:
	.dwpsn	file "src/csl_sdio.c",line 762,column 21,is_stmt
        MOV dbl(*SP(#0)), XAR3
        MOV #80, T0 ; |762| 
        MOV *AR3, AR3 ; |762| 
        MOV port(*AR3(T0)), AR1 ; |762| 
        MOV dbl(*SP(#0)), XAR3
        MOV *AR3, AR3 ; |762| 
        AND #0xffc0, AR1, AC0 ; |762| 
        MOV AC0, port(*AR3(T0)) ; |762| 
	.dwpsn	file "src/csl_sdio.c",line 764,column 21,is_stmt
        MOV dbl(*SP(#0)), XAR3
        MOV #52, T0 ; |764| 
        MOV *AR3, AR3 ; |764| 
        MOV port(*AR3(T0)), AR1 ; |764| 
        MOV dbl(*SP(#0)), XAR3
        MOV *AR3, AR3 ; |764| 
        MOV #0, port(*AR3(T0)) ; |764| 
	.dwpsn	file "src/csl_sdio.c",line 766,column 21,is_stmt
        MOV dbl(*SP(#0)), XAR3
        MOV #53, T0 ; |766| 
        MOV *AR3, AR3 ; |766| 
        MOV port(*AR3(T0)), AR1 ; |766| 
        MOV dbl(*SP(#0)), XAR3
        MOV *AR3, AR3 ; |766| 
        MOV #0, port(*AR3(T0)) ; |766| 
	.dwpsn	file "src/csl_sdio.c",line 769,column 21,is_stmt
        MOV dbl(*SP(#0)), XAR3
        MOV #48, T0 ; |769| 
        MOV *AR3, AR3 ; |769| 
        MOV #567, port(*AR3(T0)) ; |769| 
        AMOV #8, T0
$C$DW$L$_SDIO_initCard$16$E:
$C$L37:    
$C$DW$L$_SDIO_initCard$17$B:
	.dwpsn	file "src/csl_sdio.c",line 773,column 25,is_stmt
        MOV dbl(*SP(#0)), XAR3
        MOV *AR3, AR3 ; |773| 
        MOV port(*AR3(T0)), AR1 ; |773| 
        MOV AR1, *SP(#11) ; |773| 
        NOP
        NOP
        NOP
	.dwpsn	file "src/csl_sdio.c",line 774,column 7,is_stmt
        BAND *SP(#11), #144, TC1 ; |774| 
        BCC $C$L39,!TC1 ; |774| 
                                        ; branchcc occurs ; |774| 
$C$DW$L$_SDIO_initCard$17$E:
	.dwpsn	file "src/csl_sdio.c",line 776,column 8,is_stmt
        BTST #4, *SP(#11), TC1 ; |776| 
        BCC $C$L38,!TC1 ; |776| 
                                        ; branchcc occurs ; |776| 
	.dwpsn	file "src/csl_sdio.c",line 778,column 9,is_stmt
        MOV #-16, T0 ; |778| 
        B $C$L54  ; |778| 
                                        ; branch occurs ; |778| 
$C$L38:    
	.dwpsn	file "src/csl_sdio.c",line 782,column 9,is_stmt
        MOV #-17, T0 ; |782| 
        B $C$L54  ; |782| 
                                        ; branch occurs ; |782| 
$C$L39:    
$C$DW$L$_SDIO_initCard$22$B:
	.dwpsn	file "src/csl_sdio.c",line 785,column 29,is_stmt
        BTST #2, *SP(#11), TC1 ; |785| 
        BCC $C$L37,!TC1 ; |785| 
                                        ; branchcc occurs ; |785| 
$C$DW$L$_SDIO_initCard$22$E:
$C$DW$L$_SDIO_initCard$23$B:
	.dwpsn	file "src/csl_sdio.c",line 789,column 21,is_stmt
        MOV dbl(*SP(#0)), XAR3
        MOV #68, T0 ; |789| 
        MOV *AR3, AR3 ; |789| 
        MOV #0, port(*AR3(T0)) ; |789| 
	.dwpsn	file "src/csl_sdio.c",line 790,column 21,is_stmt
        MOV dbl(*SP(#0)), XAR3
        MOV #69, T0 ; |790| 
        MOV *AR3, AR3 ; |790| 
        MOV #0, port(*AR3(T0)) ; |790| 
	.dwpsn	file "src/csl_sdio.c",line 791,column 21,is_stmt
        MOV dbl(*SP(#0)), XAR3
        MOV #80, T0 ; |791| 
        MOV *AR3, AR3 ; |791| 
        MOV port(*AR3(T0)), AR1 ; |791| 
        MOV dbl(*SP(#0)), XAR3
        MOV *AR3, AR3 ; |791| 
        AND #0xffc0, AR1, AC0 ; |791| 
        MOV AC0, port(*AR3(T0)) ; |791| 
	.dwpsn	file "src/csl_sdio.c",line 793,column 21,is_stmt
        MOV dbl(*SP(#0)), XAR3
        MOV #52, T0 ; |793| 
        MOV *AR3, AR3 ; |793| 
        MOV port(*AR3(T0)), AR1 ; |793| 
        MOV dbl(*SP(#0)), XAR3
        MOV *AR3, AR3 ; |793| 
        MOV dbl(*SP(#6)), AC0 ; |793| 
        MOV #0 << #16, AC1 ; |793| 
        AND #0xffff, AC0, AC0 ; |793| 
        OR AC1, AC0 ; |793| 
        MOV AC0, port(*AR3(T0)) ; |793| 
	.dwpsn	file "src/csl_sdio.c",line 795,column 21,is_stmt
        MOV dbl(*SP(#0)), XAR3
        MOV #53, T0 ; |795| 
        MOV *AR3, AR3 ; |795| 
        MOV port(*AR3(T0)), AR1 ; |795| 
        MOV dbl(*SP(#0)), XAR3
        MOV *AR3, AR3 ; |795| 
        MOV dbl(*SP(#6)), AC0 ; |795| 
        SFTL AC0, #-16, AC0 ; |795| 
        AND #0xffff, AC0, AC0 ; |795| 
        OR AC1, AC0 ; |795| 
        MOV AC0, port(*AR3(T0)) ; |795| 
	.dwpsn	file "src/csl_sdio.c",line 798,column 21,is_stmt
        MOV dbl(*SP(#0)), XAR3
        MOV #48, T0 ; |798| 
        MOV *AR3, AR3 ; |798| 
        MOV #1577, port(*AR3(T0)) ; |798| 
        AMOV #8, T0
$C$DW$L$_SDIO_initCard$23$E:
$C$L40:    
$C$DW$L$_SDIO_initCard$24$B:
	.dwpsn	file "src/csl_sdio.c",line 802,column 25,is_stmt
        MOV dbl(*SP(#0)), XAR3
        MOV *AR3, AR3 ; |802| 
        MOV port(*AR3(T0)), AR1 ; |802| 
        MOV AR1, *SP(#11) ; |802| 
        NOP
        NOP
        NOP
	.dwpsn	file "src/csl_sdio.c",line 803,column 7,is_stmt
        BTST #4, *SP(#11), TC1 ; |803| 
        BCC $C$L41,!TC1 ; |803| 
                                        ; branchcc occurs ; |803| 
$C$DW$L$_SDIO_initCard$24$E:
	.dwpsn	file "src/csl_sdio.c",line 805,column 8,is_stmt
        MOV #-16, T0 ; |805| 
        B $C$L54  ; |805| 
                                        ; branch occurs ; |805| 
$C$L41:    
$C$DW$L$_SDIO_initCard$26$B:
	.dwpsn	file "src/csl_sdio.c",line 807,column 29,is_stmt
        BTST #2, *SP(#11), TC1 ; |807| 
        BCC $C$L40,!TC1 ; |807| 
                                        ; branchcc occurs ; |807| 
$C$DW$L$_SDIO_initCard$26$E:
$C$DW$L$_SDIO_initCard$27$B:
	.dwpsn	file "src/csl_sdio.c",line 809,column 21,is_stmt
        MOV dbl(*SP(#0)), XAR3
        MOV #68, T0 ; |809| 
        MOV *AR3, AR3 ; |809| 
        MOV port(*AR3(T0)), AR1 ; |809| 
        MOV AR1, *SP(#14) ; |809| 
	.dwpsn	file "src/csl_sdio.c",line 810,column 6,is_stmt
        MOV dbl(*SP(#0)), XAR3
        MOV #69, T0 ; |810| 
        MOV *AR3, AR3 ; |810| 
        MOV port(*AR3(T0)), AR1 ; |810| 
        MOV AR1, *SP(#15) ; |810| 
	.dwpsn	file "src/csl_sdio.c",line 812,column 6,is_stmt
        MOV AR1, HI(AC0) ; |812| 
        OR *SP(#14), AC0, AC0 ; |812| 
        MOV AC0, dbl(*SP(#8)) ; |812| 
	.dwpsn	file "src/csl_sdio.c",line 814,column 21,is_stmt
        SUB #1, *SP(#13) ; |814| 
	.dwpsn	file "src/csl_sdio.c",line 816,column 26,is_stmt
        MOV #-32513 << #16, AC0 ; |816| 
        MOV dbl(*SP(#8)), AC1 ; |816| 
        OR #0x8000, AC0, AC0 ; |816| 

        MOV #-32513 << #16, AC1 ; |816| 
||      AND AC1, AC0 ; |816| 

        OR #0x8000, AC1, AC1 ; |816| 
        CMPU AC0 == AC1, TC1 ; |816| 
        BCC $C$L42,TC1 ; |816| 
                                        ; branchcc occurs ; |816| 
$C$DW$L$_SDIO_initCard$27$E:
$C$DW$L$_SDIO_initCard$28$B:
        MOV *SP(#13), AR1 ; |816| 
        BCC $C$L36,AR1 != #0 ; |816| 
                                        ; branchcc occurs ; |816| 
$C$DW$L$_SDIO_initCard$28$E:
$C$L42:    
	.dwpsn	file "src/csl_sdio.c",line 819,column 17,is_stmt

        MOV #0, AR2
||      MOV *SP(#13), AR1 ; |819| 

        CMPU AR2 != AR1, TC1 ; |819| 
        BCC $C$L43,TC1 ; |819| 
                                        ; branchcc occurs ; |819| 
	.dwpsn	file "src/csl_sdio.c",line 821,column 21,is_stmt
        MOV #258, T0 ; |821| 
        B $C$L54  ; |821| 
                                        ; branch occurs ; |821| 
$C$L43:    
	.dwpsn	file "src/csl_sdio.c",line 824,column 17,is_stmt
        MOV dbl(*SP(#8)), AC1 ; |824| 
        MOV #16384 << #16, AC0 ; |824| 
        AND AC1, AC0 ; |824| 
        BCC $C$L44,AC0 == #0 ; |824| 
                                        ; branchcc occurs ; |824| 
	.dwpsn	file "src/csl_sdio.c",line 826,column 21,is_stmt
        MOV dbl(*SP(#0)), XAR3
        MOV dbl(*AR3(short(#2))), XAR3
        MOV #1, *AR3(short(#7)) ; |826| 
	.dwpsn	file "src/csl_sdio.c",line 827,column 17,is_stmt
        B $C$L52  ; |827| 
                                        ; branch occurs ; |827| 
$C$L44:    
	.dwpsn	file "src/csl_sdio.c",line 830,column 21,is_stmt
        MOV dbl(*SP(#0)), XAR3
        MOV dbl(*AR3(short(#2))), XAR3
        MOV #0, *AR3(short(#7)) ; |830| 
	.dwpsn	file "src/csl_sdio.c",line 832,column 13,is_stmt
        B $C$L52  ; |832| 
                                        ; branch occurs ; |832| 
$C$L45:    
	.dwpsn	file "src/csl_sdio.c",line 836,column 5,is_stmt
        MOV dbl(*SP(#0)), XAR3
        MOV #80, T0 ; |836| 
        MOV *AR3, AR3 ; |836| 
        MOV port(*AR3(T0)), AR1 ; |836| 
        MOV dbl(*SP(#0)), XAR3
        MOV *AR3, AR3 ; |836| 
        AND #0xffc0, AR1, AC0 ; |836| 
        MOV AC0, port(*AR3(T0)) ; |836| 
	.dwpsn	file "src/csl_sdio.c",line 837,column 5,is_stmt
        MOV dbl(*SP(#0)), XAR3
        MOV #69, T0 ; |837| 
        MOV *AR3, AR3 ; |837| 
        MOV #0, port(*AR3(T0)) ; |837| 
	.dwpsn	file "src/csl_sdio.c",line 839,column 5,is_stmt
        MOV dbl(*SP(#0)), XAR3
        MOV #52, T0 ; |839| 
        MOV *AR3, AR3 ; |839| 
        MOV port(*AR3(T0)), AR1 ; |839| 
        MOV dbl(*SP(#0)), XAR3
        MOV *AR3, AR3 ; |839| 
        MOV #0, port(*AR3(T0)) ; |839| 
	.dwpsn	file "src/csl_sdio.c",line 841,column 5,is_stmt
        MOV dbl(*SP(#0)), XAR3
        MOV #53, T0 ; |841| 
        MOV *AR3, AR3 ; |841| 
        MOV port(*AR3(T0)), AR1 ; |841| 
        MOV dbl(*SP(#0)), XAR3
        MOV *AR3, AR3 ; |841| 
        MOV #0, port(*AR3(T0)) ; |841| 
	.dwpsn	file "src/csl_sdio.c",line 844,column 5,is_stmt
        MOV dbl(*SP(#0)), XAR3
        MOV #48, T0 ; |844| 
        MOV *AR3, AR3 ; |844| 
        MOV #515, port(*AR3(T0)) ; |844| 
        MOV #8, T0
$C$L46:    
$C$DW$L$_SDIO_initCard$35$B:
	.dwpsn	file "src/csl_sdio.c",line 848,column 6,is_stmt
        MOV dbl(*SP(#0)), XAR3
        MOV *AR3, AR3 ; |848| 
        MOV port(*AR3(T0)), AR1 ; |848| 
        MOV AR1, *SP(#11) ; |848| 
        NOP
        NOP
        NOP
	.dwpsn	file "src/csl_sdio.c",line 849,column 6,is_stmt
        BAND *SP(#11), #144, TC1 ; |849| 
        BCC $C$L48,!TC1 ; |849| 
                                        ; branchcc occurs ; |849| 
$C$DW$L$_SDIO_initCard$35$E:
	.dwpsn	file "src/csl_sdio.c",line 851,column 7,is_stmt
        BTST #4, *SP(#11), TC1 ; |851| 
        BCC $C$L47,!TC1 ; |851| 
                                        ; branchcc occurs ; |851| 
	.dwpsn	file "src/csl_sdio.c",line 853,column 8,is_stmt
        MOV #-16, T0 ; |853| 
        B $C$L54  ; |853| 
                                        ; branch occurs ; |853| 
$C$L47:    
	.dwpsn	file "src/csl_sdio.c",line 857,column 8,is_stmt
        MOV #-17, T0 ; |857| 
        B $C$L54  ; |857| 
                                        ; branch occurs ; |857| 
$C$L48:    
$C$DW$L$_SDIO_initCard$40$B:
	.dwpsn	file "src/csl_sdio.c",line 861,column 13,is_stmt
        BTST #2, *SP(#11), TC1 ; |861| 
        BCC $C$L46,!TC1 ; |861| 
                                        ; branchcc occurs ; |861| 
$C$DW$L$_SDIO_initCard$40$E:
	.dwpsn	file "src/csl_sdio.c",line 863,column 5,is_stmt
        MOV dbl(*SP(#0)), XAR3
        MOV #69, T0 ; |863| 
        MOV *AR3, AR3 ; |863| 
        MOV port(*AR3(T0)), AR1 ; |863| 
        MOV AR1, *SP(#14) ; |863| 
	.dwpsn	file "src/csl_sdio.c",line 865,column 5,is_stmt
        MOV dbl(*SP(#0)), XAR3
        MOV dbl(*AR3(short(#2))), XAR3
        MOV AR1, *AR3 ; |865| 
	.dwpsn	file "src/csl_sdio.c",line 868,column 5,is_stmt
        MOV #0, AC0 ; |868| 
        MOV AC0, dbl(*SP(#6)) ; |868| 
	.dwpsn	file "src/csl_sdio.c",line 869,column 5,is_stmt
        MOV *SP(#14), AR1 ; |869| 
        MOV AR1, HI(AC0) ; |869| 
        MOV AC0, dbl(*SP(#6)) ; |869| 
	.dwpsn	file "src/csl_sdio.c",line 871,column 5,is_stmt
        MOV dbl(*SP(#0)), XAR3
        MOV #80, T0 ; |871| 
        MOV *AR3, AR3 ; |871| 
        MOV port(*AR3(T0)), AR1 ; |871| 
        MOV dbl(*SP(#0)), XAR3
        MOV *AR3, AR3 ; |871| 
        AND #0xffc0, AR1, AC0 ; |871| 
        MOV AC0, port(*AR3(T0)) ; |871| 
	.dwpsn	file "src/csl_sdio.c",line 873,column 5,is_stmt
        MOV dbl(*SP(#0)), XAR3
        MOV #52, T0 ; |873| 
        MOV *AR3, AR3 ; |873| 
        MOV port(*AR3(T0)), AR1 ; |873| 
        MOV dbl(*SP(#0)), XAR3
        MOV *AR3, AR3 ; |873| 
        MOV dbl(*SP(#6)), AC0 ; |873| 
        AND #0xffff, AC0, AC0 ; |873| 
        OR AC1, AC0 ; |873| 
        MOV AC0, port(*AR3(T0)) ; |873| 
	.dwpsn	file "src/csl_sdio.c",line 875,column 5,is_stmt
        MOV dbl(*SP(#0)), XAR3
        MOV #53, T0 ; |875| 
        MOV *AR3, AR3 ; |875| 
        MOV port(*AR3(T0)), AR1 ; |875| 
        MOV dbl(*SP(#0)), XAR3
        MOV *AR3, AR3 ; |875| 
        MOV dbl(*SP(#6)), AC0 ; |875| 
        SFTL AC0, #-16, AC0 ; |875| 
        AND #0xffff, AC0, AC0 ; |875| 
        OR AC1, AC0 ; |875| 
        MOV AC0, port(*AR3(T0)) ; |875| 
	.dwpsn	file "src/csl_sdio.c",line 878,column 5,is_stmt
        MOV dbl(*SP(#0)), XAR3
        MOV #48, T0 ; |878| 
        MOV *AR3, AR3 ; |878| 
        MOV #775, port(*AR3(T0)) ; |878| 
	.dwpsn	file "src/csl_sdio.c",line 880,column 5,is_stmt
        MOV #8, T0
        MOV #0, *SP(#12) ; |880| 
$C$L49:    
$C$DW$L$_SDIO_initCard$42$B:
	.dwpsn	file "src/csl_sdio.c",line 883,column 6,is_stmt
        MOV dbl(*SP(#0)), XAR3
        MOV *AR3, AR3 ; |883| 
        MOV port(*AR3(T0)), AR1 ; |883| 
        MOV AR1, *SP(#11) ; |883| 
        NOP
        NOP
        NOP
	.dwpsn	file "src/csl_sdio.c",line 885,column 6,is_stmt
        MOV *SP(#11), AR1 ; |885| 
        AND #0x0004, AR1, AR1 ; |885| 
        OR *SP(#12), AR1, AR1 ; |885| 
        MOV AR1, *SP(#12) ; |885| 
        NOP
        NOP
        NOP
	.dwpsn	file "src/csl_sdio.c",line 886,column 6,is_stmt
        MOV *SP(#11), AR1 ; |886| 
        AND #0x0002, AR1, AR1 ; |886| 
        OR *SP(#12), AR1, AR1 ; |886| 
        MOV AR1, *SP(#12) ; |886| 
        NOP
        NOP
        NOP
	.dwpsn	file "src/csl_sdio.c",line 888,column 6,is_stmt
        BAND *SP(#11), #144, TC1 ; |888| 
        BCC $C$L51,!TC1 ; |888| 
                                        ; branchcc occurs ; |888| 
$C$DW$L$_SDIO_initCard$42$E:
	.dwpsn	file "src/csl_sdio.c",line 890,column 7,is_stmt
        BTST #4, *SP(#11), TC1 ; |890| 
        BCC $C$L50,!TC1 ; |890| 
                                        ; branchcc occurs ; |890| 
	.dwpsn	file "src/csl_sdio.c",line 892,column 8,is_stmt
        MOV #-16, T0 ; |892| 
        B $C$L54  ; |892| 
                                        ; branch occurs ; |892| 
$C$L50:    
	.dwpsn	file "src/csl_sdio.c",line 896,column 8,is_stmt
        MOV #-17, T0 ; |896| 
        B $C$L54  ; |896| 
                                        ; branch occurs ; |896| 
$C$L51:    
$C$DW$L$_SDIO_initCard$47$B:
	.dwpsn	file "src/csl_sdio.c",line 899,column 13,is_stmt
        BTST #2, *SP(#12), TC1 ; |899| 
        BCC $C$L49,!TC1 ; |899| 
                                        ; branchcc occurs ; |899| 
$C$DW$L$_SDIO_initCard$47$E:
$C$DW$L$_SDIO_initCard$48$B:
        BTST #1, *SP(#12), TC1 ; |899| 
        BCC $C$L49,!TC1 ; |899| 
                                        ; branchcc occurs ; |899| 
$C$DW$L$_SDIO_initCard$48$E:
$C$L52:    
	.dwpsn	file "src/csl_sdio.c",line 903,column 13,is_stmt
        MOV #0, *SP(#10) ; |903| 
$C$L53:    
	.dwpsn	file "src/csl_sdio.c",line 907,column 5,is_stmt
        MOV dbl(*SP(#0)), XAR3
        MOV dbl(*AR3(short(#2))), XAR3
        MOV #1, *AR3(short(#6)) ; |907| 
	.dwpsn	file "src/csl_sdio.c",line 909,column 5,is_stmt
        MOV *SP(#10), T0 ; |909| 
$C$L54:    
	.dwpsn	file "src/csl_sdio.c",line 910,column 1,is_stmt
        AADD #23, SP
	.dwcfi	cfa_offset, 1
$C$DW$65	.dwtag  DW_TAG_TI_branch
	.dwattr $C$DW$65, DW_AT_low_pc(0x00)
	.dwattr $C$DW$65, DW_AT_TI_return
        RET
                                        ; return occurs

$C$DW$66	.dwtag  DW_TAG_TI_loop
	.dwattr $C$DW$66, DW_AT_name("/home/santiago/dspfuzz/on_board/library/csl_sdio.asm:$C$L49:1:1714639451")
	.dwattr $C$DW$66, DW_AT_TI_begin_file("src/csl_sdio.c")
	.dwattr $C$DW$66, DW_AT_TI_begin_line(0x371)
	.dwattr $C$DW$66, DW_AT_TI_end_line(0x383)
$C$DW$67	.dwtag  DW_TAG_TI_loop_range
	.dwattr $C$DW$67, DW_AT_low_pc($C$DW$L$_SDIO_initCard$42$B)
	.dwattr $C$DW$67, DW_AT_high_pc($C$DW$L$_SDIO_initCard$42$E)
$C$DW$68	.dwtag  DW_TAG_TI_loop_range
	.dwattr $C$DW$68, DW_AT_low_pc($C$DW$L$_SDIO_initCard$48$B)
	.dwattr $C$DW$68, DW_AT_high_pc($C$DW$L$_SDIO_initCard$48$E)
$C$DW$69	.dwtag  DW_TAG_TI_loop_range
	.dwattr $C$DW$69, DW_AT_low_pc($C$DW$L$_SDIO_initCard$47$B)
	.dwattr $C$DW$69, DW_AT_high_pc($C$DW$L$_SDIO_initCard$47$E)
	.dwendtag $C$DW$66


$C$DW$70	.dwtag  DW_TAG_TI_loop
	.dwattr $C$DW$70, DW_AT_name("/home/santiago/dspfuzz/on_board/library/csl_sdio.asm:$C$L46:1:1714639451")
	.dwattr $C$DW$70, DW_AT_TI_begin_file("src/csl_sdio.c")
	.dwattr $C$DW$70, DW_AT_TI_begin_line(0x34e)
	.dwattr $C$DW$70, DW_AT_TI_end_line(0x35d)
$C$DW$71	.dwtag  DW_TAG_TI_loop_range
	.dwattr $C$DW$71, DW_AT_low_pc($C$DW$L$_SDIO_initCard$35$B)
	.dwattr $C$DW$71, DW_AT_high_pc($C$DW$L$_SDIO_initCard$35$E)
$C$DW$72	.dwtag  DW_TAG_TI_loop_range
	.dwattr $C$DW$72, DW_AT_low_pc($C$DW$L$_SDIO_initCard$40$B)
	.dwattr $C$DW$72, DW_AT_high_pc($C$DW$L$_SDIO_initCard$40$E)
	.dwendtag $C$DW$70


$C$DW$73	.dwtag  DW_TAG_TI_loop
	.dwattr $C$DW$73, DW_AT_name("/home/santiago/dspfuzz/on_board/library/csl_sdio.asm:$C$L36:1:1714639451")
	.dwattr $C$DW$73, DW_AT_TI_begin_file("src/csl_sdio.c")
	.dwattr $C$DW$73, DW_AT_TI_begin_line(0x2f7)
	.dwattr $C$DW$73, DW_AT_TI_end_line(0x330)
$C$DW$74	.dwtag  DW_TAG_TI_loop_range
	.dwattr $C$DW$74, DW_AT_low_pc($C$DW$L$_SDIO_initCard$16$B)
	.dwattr $C$DW$74, DW_AT_high_pc($C$DW$L$_SDIO_initCard$16$E)
$C$DW$75	.dwtag  DW_TAG_TI_loop_range
	.dwattr $C$DW$75, DW_AT_low_pc($C$DW$L$_SDIO_initCard$23$B)
	.dwattr $C$DW$75, DW_AT_high_pc($C$DW$L$_SDIO_initCard$23$E)
$C$DW$76	.dwtag  DW_TAG_TI_loop_range
	.dwattr $C$DW$76, DW_AT_low_pc($C$DW$L$_SDIO_initCard$27$B)
	.dwattr $C$DW$76, DW_AT_high_pc($C$DW$L$_SDIO_initCard$27$E)
$C$DW$77	.dwtag  DW_TAG_TI_loop_range
	.dwattr $C$DW$77, DW_AT_low_pc($C$DW$L$_SDIO_initCard$28$B)
	.dwattr $C$DW$77, DW_AT_high_pc($C$DW$L$_SDIO_initCard$28$E)

$C$DW$78	.dwtag  DW_TAG_TI_loop
	.dwattr $C$DW$78, DW_AT_name("/home/santiago/dspfuzz/on_board/library/csl_sdio.asm:$C$L37:2:1714639451")
	.dwattr $C$DW$78, DW_AT_TI_begin_file("src/csl_sdio.c")
	.dwattr $C$DW$78, DW_AT_TI_begin_line(0x303)
	.dwattr $C$DW$78, DW_AT_TI_end_line(0x311)
$C$DW$79	.dwtag  DW_TAG_TI_loop_range
	.dwattr $C$DW$79, DW_AT_low_pc($C$DW$L$_SDIO_initCard$17$B)
	.dwattr $C$DW$79, DW_AT_high_pc($C$DW$L$_SDIO_initCard$17$E)
$C$DW$80	.dwtag  DW_TAG_TI_loop_range
	.dwattr $C$DW$80, DW_AT_low_pc($C$DW$L$_SDIO_initCard$22$B)
	.dwattr $C$DW$80, DW_AT_high_pc($C$DW$L$_SDIO_initCard$22$E)
	.dwendtag $C$DW$78


$C$DW$81	.dwtag  DW_TAG_TI_loop
	.dwattr $C$DW$81, DW_AT_name("/home/santiago/dspfuzz/on_board/library/csl_sdio.asm:$C$L40:2:1714639451")
	.dwattr $C$DW$81, DW_AT_TI_begin_file("src/csl_sdio.c")
	.dwattr $C$DW$81, DW_AT_TI_begin_line(0x320)
	.dwattr $C$DW$81, DW_AT_TI_end_line(0x327)
$C$DW$82	.dwtag  DW_TAG_TI_loop_range
	.dwattr $C$DW$82, DW_AT_low_pc($C$DW$L$_SDIO_initCard$24$B)
	.dwattr $C$DW$82, DW_AT_high_pc($C$DW$L$_SDIO_initCard$24$E)
$C$DW$83	.dwtag  DW_TAG_TI_loop_range
	.dwattr $C$DW$83, DW_AT_low_pc($C$DW$L$_SDIO_initCard$26$B)
	.dwattr $C$DW$83, DW_AT_high_pc($C$DW$L$_SDIO_initCard$26$E)
	.dwendtag $C$DW$81

	.dwendtag $C$DW$73


$C$DW$84	.dwtag  DW_TAG_TI_loop
	.dwattr $C$DW$84, DW_AT_name("/home/santiago/dspfuzz/on_board/library/csl_sdio.asm:$C$L29:1:1714639451")
	.dwattr $C$DW$84, DW_AT_TI_begin_file("src/csl_sdio.c")
	.dwattr $C$DW$84, DW_AT_TI_begin_line(0x2b5)
	.dwattr $C$DW$84, DW_AT_TI_end_line(0x2d7)
$C$DW$85	.dwtag  DW_TAG_TI_loop_range
	.dwattr $C$DW$85, DW_AT_low_pc($C$DW$L$_SDIO_initCard$2$B)
	.dwattr $C$DW$85, DW_AT_high_pc($C$DW$L$_SDIO_initCard$2$E)
$C$DW$86	.dwtag  DW_TAG_TI_loop_range
	.dwattr $C$DW$86, DW_AT_low_pc($C$DW$L$_SDIO_initCard$6$B)
	.dwattr $C$DW$86, DW_AT_high_pc($C$DW$L$_SDIO_initCard$6$E)
$C$DW$87	.dwtag  DW_TAG_TI_loop_range
	.dwattr $C$DW$87, DW_AT_low_pc($C$DW$L$_SDIO_initCard$7$B)
	.dwattr $C$DW$87, DW_AT_high_pc($C$DW$L$_SDIO_initCard$7$E)

$C$DW$88	.dwtag  DW_TAG_TI_loop
	.dwattr $C$DW$88, DW_AT_name("/home/santiago/dspfuzz/on_board/library/csl_sdio.asm:$C$L30:2:1714639451")
	.dwattr $C$DW$88, DW_AT_TI_begin_file("src/csl_sdio.c")
	.dwattr $C$DW$88, DW_AT_TI_begin_line(0x2c4)
	.dwattr $C$DW$88, DW_AT_TI_end_line(0x2cc)
$C$DW$89	.dwtag  DW_TAG_TI_loop_range
	.dwattr $C$DW$89, DW_AT_low_pc($C$DW$L$_SDIO_initCard$3$B)
	.dwattr $C$DW$89, DW_AT_high_pc($C$DW$L$_SDIO_initCard$3$E)
$C$DW$90	.dwtag  DW_TAG_TI_loop_range
	.dwattr $C$DW$90, DW_AT_low_pc($C$DW$L$_SDIO_initCard$5$B)
	.dwattr $C$DW$90, DW_AT_high_pc($C$DW$L$_SDIO_initCard$5$E)
	.dwendtag $C$DW$88

	.dwendtag $C$DW$84

	.dwattr $C$DW$51, DW_AT_TI_end_file("src/csl_sdio.c")
	.dwattr $C$DW$51, DW_AT_TI_end_line(0x38e)
	.dwattr $C$DW$51, DW_AT_TI_end_column(0x01)
	.dwendentry
	.dwendtag $C$DW$51

	.sect	".text"
	.global	_SDIO_resetCard

$C$DW$91	.dwtag  DW_TAG_subprogram, DW_AT_name("SDIO_resetCard")
	.dwattr $C$DW$91, DW_AT_low_pc(_SDIO_resetCard)
	.dwattr $C$DW$91, DW_AT_high_pc(0x00)
	.dwattr $C$DW$91, DW_AT_TI_symbol_name("_SDIO_resetCard")
	.dwattr $C$DW$91, DW_AT_external
	.dwattr $C$DW$91, DW_AT_type(*$C$DW$T$57)
	.dwattr $C$DW$91, DW_AT_TI_begin_file("src/csl_sdio.c")
	.dwattr $C$DW$91, DW_AT_TI_begin_line(0x3be)
	.dwattr $C$DW$91, DW_AT_TI_begin_column(0x0c)
	.dwattr $C$DW$91, DW_AT_TI_max_frame_size(0x12)
	.dwpsn	file "src/csl_sdio.c",line 959,column 1,is_stmt,address _SDIO_resetCard

	.dwfde $C$DW$CIE, _SDIO_resetCard
$C$DW$92	.dwtag  DW_TAG_formal_parameter, DW_AT_name("hSdio")
	.dwattr $C$DW$92, DW_AT_TI_symbol_name("_hSdio")
	.dwattr $C$DW$92, DW_AT_type(*$C$DW$T$55)
	.dwattr $C$DW$92, DW_AT_location[DW_OP_reg17]
;*******************************************************************************
;* FUNCTION NAME: SDIO_resetCard                                               *
;*                                                                             *
;*   Function Uses Regs : AC0,AC0,AC1,AC1,T0,AR0,XAR0,AR1,AR3,XAR3,SP,CARRY,   *
;*                        TC1,M40,SATA,SATD,RDM,FRCT,SMUL                      *
;*   Stack Frame        : Compact (No Frame Pointer, w/ debug)                 *
;*   Total Frame Size   : 18 words                                             *
;*                        (2 return address/alignment)                         *
;*                        (16 local values)                                    *
;*   Min System Stack   : 1 word                                               *
;*******************************************************************************
_SDIO_resetCard:
	.dwcfi	cfa_offset, 1
	.dwcfi	save_reg_to_mem, 91, -1
        AADD #-17, SP
	.dwcfi	cfa_offset, 18
$C$DW$93	.dwtag  DW_TAG_variable, DW_AT_name("hSdio")
	.dwattr $C$DW$93, DW_AT_TI_symbol_name("_hSdio")
	.dwattr $C$DW$93, DW_AT_type(*$C$DW$T$55)
	.dwattr $C$DW$93, DW_AT_location[DW_OP_bregx 0x24 0]
$C$DW$94	.dwtag  DW_TAG_variable, DW_AT_name("argument")
	.dwattr $C$DW$94, DW_AT_TI_symbol_name("_argument")
	.dwattr $C$DW$94, DW_AT_type(*$C$DW$T$26)
	.dwattr $C$DW$94, DW_AT_location[DW_OP_bregx 0x24 2]
$C$DW$95	.dwtag  DW_TAG_variable, DW_AT_name("wrData")
	.dwattr $C$DW$95, DW_AT_TI_symbol_name("_wrData")
	.dwattr $C$DW$95, DW_AT_type(*$C$DW$T$26)
	.dwattr $C$DW$95, DW_AT_location[DW_OP_bregx 0x24 4]
$C$DW$96	.dwtag  DW_TAG_variable, DW_AT_name("regAddr")
	.dwattr $C$DW$96, DW_AT_TI_symbol_name("_regAddr")
	.dwattr $C$DW$96, DW_AT_type(*$C$DW$T$26)
	.dwattr $C$DW$96, DW_AT_location[DW_OP_bregx 0x24 6]
$C$DW$97	.dwtag  DW_TAG_variable, DW_AT_name("rawFlag")
	.dwattr $C$DW$97, DW_AT_TI_symbol_name("_rawFlag")
	.dwattr $C$DW$97, DW_AT_type(*$C$DW$T$26)
	.dwattr $C$DW$97, DW_AT_location[DW_OP_bregx 0x24 8]
$C$DW$98	.dwtag  DW_TAG_variable, DW_AT_name("funNum")
	.dwattr $C$DW$98, DW_AT_TI_symbol_name("_funNum")
	.dwattr $C$DW$98, DW_AT_type(*$C$DW$T$26)
	.dwattr $C$DW$98, DW_AT_location[DW_OP_bregx 0x24 10]
$C$DW$99	.dwtag  DW_TAG_variable, DW_AT_name("rwFlag")
	.dwattr $C$DW$99, DW_AT_TI_symbol_name("_rwFlag")
	.dwattr $C$DW$99, DW_AT_type(*$C$DW$T$26)
	.dwattr $C$DW$99, DW_AT_location[DW_OP_bregx 0x24 12]
$C$DW$100	.dwtag  DW_TAG_variable, DW_AT_name("status")
	.dwattr $C$DW$100, DW_AT_TI_symbol_name("_status")
	.dwattr $C$DW$100, DW_AT_type(*$C$DW$T$57)
	.dwattr $C$DW$100, DW_AT_location[DW_OP_bregx 0x24 14]
$C$DW$101	.dwtag  DW_TAG_variable, DW_AT_name("statusReg")
	.dwattr $C$DW$101, DW_AT_TI_symbol_name("_statusReg")
	.dwattr $C$DW$101, DW_AT_type(*$C$DW$T$20)
	.dwattr $C$DW$101, DW_AT_location[DW_OP_bregx 0x24 15]
        MOV XAR0, dbl(*SP(#0))
	.dwpsn	file "src/csl_sdio.c",line 969,column 5,is_stmt
        MOV #0, AC0 ; |969| 
        MOV AC0, dbl(*SP(#2)) ; |969| 
	.dwpsn	file "src/csl_sdio.c",line 970,column 5,is_stmt
        MOV AC0, dbl(*SP(#4)) ; |970| 
	.dwpsn	file "src/csl_sdio.c",line 971,column 5,is_stmt
        MOV AC0, dbl(*SP(#6)) ; |971| 
	.dwpsn	file "src/csl_sdio.c",line 972,column 5,is_stmt
        MOV AC0, dbl(*SP(#8)) ; |972| 
	.dwpsn	file "src/csl_sdio.c",line 973,column 5,is_stmt
        MOV AC0, dbl(*SP(#10)) ; |973| 
	.dwpsn	file "src/csl_sdio.c",line 974,column 5,is_stmt
        MOV AC0, dbl(*SP(#12)) ; |974| 
	.dwpsn	file "src/csl_sdio.c",line 975,column 5,is_stmt
        MOV #-5, *SP(#14) ; |975| 
	.dwpsn	file "src/csl_sdio.c",line 976,column 5,is_stmt
        MOV #0, *SP(#15) ; |976| 
	.dwpsn	file "src/csl_sdio.c",line 978,column 5,is_stmt
        MOV dbl(*SP(#0)), XAR3

        MOV XAR3, AC0
||      MOV #0, AC1 ; |978| 

        CMPU AC1 == AC0, TC1 ; |978| 
        BCC $C$L58,TC1 ; |978| 
                                        ; branchcc occurs ; |978| 
	.dwpsn	file "src/csl_sdio.c",line 981,column 9,is_stmt
        MOV #8, AC0 ; |981| 
        MOV AC0, dbl(*SP(#4)) ; |981| 
	.dwpsn	file "src/csl_sdio.c",line 982,column 9,is_stmt
        MOV #6, AC0 ; |982| 
        MOV AC0, dbl(*SP(#6)) ; |982| 
	.dwpsn	file "src/csl_sdio.c",line 983,column 9,is_stmt
        MOV #0, AC0 ; |983| 
        MOV AC0, dbl(*SP(#8)) ; |983| 
	.dwpsn	file "src/csl_sdio.c",line 984,column 9,is_stmt
        MOV AC0, dbl(*SP(#10)) ; |984| 
	.dwpsn	file "src/csl_sdio.c",line 985,column 9,is_stmt
        MOV AC0, dbl(*SP(#12)) ; |985| 
	.dwpsn	file "src/csl_sdio.c",line 987,column 9,is_stmt
        MOV AC0, dbl(*SP(#2)) ; |987| 
	.dwpsn	file "src/csl_sdio.c",line 988,column 9,is_stmt
        MOV dbl(*SP(#6)), AC1 ; |988| 
        MOV dbl(*SP(#4)), AC0 ; |988| 

        MOV dbl(*SP(#8)), AC1 ; |988| 
||      OR AC1 << #9, AC0 ; |988| 

        MOV dbl(*SP(#10)), AC1 ; |988| 
||      OR AC1 << #27, AC0 ; |988| 

        MOV dbl(*SP(#12)), AC1 ; |988| 
||      OR AC1 << #28, AC0 ; |988| 

        OR AC1 << #31, AC0 ; |988| 
        MOV AC0, dbl(*SP(#2)) ; |988| 
	.dwpsn	file "src/csl_sdio.c",line 992,column 9,is_stmt
        MOV dbl(*SP(#0)), XAR3
        MOV #52, T0 ; |992| 
        MOV *AR3, AR3 ; |992| 
        MOV port(*AR3(T0)), AR1 ; |992| 
        MOV dbl(*SP(#0)), XAR3
        MOV *AR3, AR3 ; |992| 
        MOV dbl(*SP(#2)), AC0 ; |992| 
        MOV #0 << #16, AC1 ; |992| 
        AND #0xffff, AC0, AC0 ; |992| 
        OR AC1, AC0 ; |992| 
        MOV AC0, port(*AR3(T0)) ; |992| 
	.dwpsn	file "src/csl_sdio.c",line 994,column 9,is_stmt
        MOV dbl(*SP(#0)), XAR3
        MOV #53, T0 ; |994| 
        MOV *AR3, AR3 ; |994| 
        MOV port(*AR3(T0)), AR1 ; |994| 
        MOV dbl(*SP(#0)), XAR3
        MOV *AR3, AR3 ; |994| 
        MOV dbl(*SP(#2)), AC0 ; |994| 
        SFTL AC0, #-16, AC0 ; |994| 
        AND #0xffff, AC0, AC0 ; |994| 
        OR AC1, AC0 ; |994| 
        MOV AC0, port(*AR3(T0)) ; |994| 
	.dwpsn	file "src/csl_sdio.c",line 997,column 9,is_stmt
        MOV dbl(*SP(#0)), XAR3
        MOV #48, T0 ; |997| 
        MOV *AR3, AR3 ; |997| 
        MOV #564, port(*AR3(T0)) ; |997| 
        MOV #8, T0
$C$L55:    
$C$DW$L$_SDIO_resetCard$3$B:
	.dwpsn	file "src/csl_sdio.c",line 1001,column 13,is_stmt
        MOV dbl(*SP(#0)), XAR3
        MOV *AR3, AR3 ; |1001| 
        MOV port(*AR3(T0)), AR1 ; |1001| 
        MOV AR1, *SP(#15) ; |1001| 
        NOP
        NOP
        NOP
	.dwpsn	file "src/csl_sdio.c",line 1002,column 4,is_stmt
        BAND *SP(#15), #144, TC1 ; |1002| 
        BCC $C$L57,!TC1 ; |1002| 
                                        ; branchcc occurs ; |1002| 
$C$DW$L$_SDIO_resetCard$3$E:
	.dwpsn	file "src/csl_sdio.c",line 1004,column 5,is_stmt
        BTST #4, *SP(#15), TC1 ; |1004| 
        BCC $C$L56,!TC1 ; |1004| 
                                        ; branchcc occurs ; |1004| 
	.dwpsn	file "src/csl_sdio.c",line 1006,column 6,is_stmt
        MOV #-16, T0 ; |1006| 
        B $C$L59  ; |1006| 
                                        ; branch occurs ; |1006| 
$C$L56:    
	.dwpsn	file "src/csl_sdio.c",line 1010,column 6,is_stmt
        MOV #-17, T0 ; |1010| 
        B $C$L59  ; |1010| 
                                        ; branch occurs ; |1010| 
$C$L57:    
$C$DW$L$_SDIO_resetCard$8$B:
	.dwpsn	file "src/csl_sdio.c",line 1014,column 17,is_stmt
        BTST #2, *SP(#15), TC1 ; |1014| 
        BCC $C$L55,!TC1 ; |1014| 
                                        ; branchcc occurs ; |1014| 
$C$DW$L$_SDIO_resetCard$8$E:
	.dwpsn	file "src/csl_sdio.c",line 1016,column 9,is_stmt
        MOV #0, *SP(#14) ; |1016| 
$C$L58:    
	.dwpsn	file "src/csl_sdio.c",line 1019,column 5,is_stmt
        MOV *SP(#14), T0 ; |1019| 
$C$L59:    
	.dwpsn	file "src/csl_sdio.c",line 1020,column 1,is_stmt
        AADD #17, SP
	.dwcfi	cfa_offset, 1
$C$DW$102	.dwtag  DW_TAG_TI_branch
	.dwattr $C$DW$102, DW_AT_low_pc(0x00)
	.dwattr $C$DW$102, DW_AT_TI_return
        RET
                                        ; return occurs

$C$DW$103	.dwtag  DW_TAG_TI_loop
	.dwattr $C$DW$103, DW_AT_name("/home/santiago/dspfuzz/on_board/library/csl_sdio.asm:$C$L55:1:1714639451")
	.dwattr $C$DW$103, DW_AT_TI_begin_file("src/csl_sdio.c")
	.dwattr $C$DW$103, DW_AT_TI_begin_line(0x3e7)
	.dwattr $C$DW$103, DW_AT_TI_end_line(0x3f6)
$C$DW$104	.dwtag  DW_TAG_TI_loop_range
	.dwattr $C$DW$104, DW_AT_low_pc($C$DW$L$_SDIO_resetCard$3$B)
	.dwattr $C$DW$104, DW_AT_high_pc($C$DW$L$_SDIO_resetCard$3$E)
$C$DW$105	.dwtag  DW_TAG_TI_loop_range
	.dwattr $C$DW$105, DW_AT_low_pc($C$DW$L$_SDIO_resetCard$8$B)
	.dwattr $C$DW$105, DW_AT_high_pc($C$DW$L$_SDIO_resetCard$8$E)
	.dwendtag $C$DW$103

	.dwattr $C$DW$91, DW_AT_TI_end_file("src/csl_sdio.c")
	.dwattr $C$DW$91, DW_AT_TI_end_line(0x3fc)
	.dwattr $C$DW$91, DW_AT_TI_end_column(0x01)
	.dwendentry
	.dwendtag $C$DW$91

	.sect	".text"
	.global	_SDIO_getRca

$C$DW$106	.dwtag  DW_TAG_subprogram, DW_AT_name("SDIO_getRca")
	.dwattr $C$DW$106, DW_AT_low_pc(_SDIO_getRca)
	.dwattr $C$DW$106, DW_AT_high_pc(0x00)
	.dwattr $C$DW$106, DW_AT_TI_symbol_name("_SDIO_getRca")
	.dwattr $C$DW$106, DW_AT_external
	.dwattr $C$DW$106, DW_AT_type(*$C$DW$T$57)
	.dwattr $C$DW$106, DW_AT_TI_begin_file("src/csl_sdio.c")
	.dwattr $C$DW$106, DW_AT_TI_begin_line(0x434)
	.dwattr $C$DW$106, DW_AT_TI_begin_column(0x0c)
	.dwattr $C$DW$106, DW_AT_TI_max_frame_size(0x08)
	.dwpsn	file "src/csl_sdio.c",line 1078,column 1,is_stmt,address _SDIO_getRca

	.dwfde $C$DW$CIE, _SDIO_getRca
$C$DW$107	.dwtag  DW_TAG_formal_parameter, DW_AT_name("hSdio")
	.dwattr $C$DW$107, DW_AT_TI_symbol_name("_hSdio")
	.dwattr $C$DW$107, DW_AT_type(*$C$DW$T$55)
	.dwattr $C$DW$107, DW_AT_location[DW_OP_reg17]
$C$DW$108	.dwtag  DW_TAG_formal_parameter, DW_AT_name("pRCardAddr")
	.dwattr $C$DW$108, DW_AT_TI_symbol_name("_pRCardAddr")
	.dwattr $C$DW$108, DW_AT_type(*$C$DW$T$74)
	.dwattr $C$DW$108, DW_AT_location[DW_OP_reg19]
;*******************************************************************************
;* FUNCTION NAME: SDIO_getRca                                                  *
;*                                                                             *
;*   Function Uses Regs : AC0,AC0,AC1,AC1,T0,AR0,XAR0,AR1,XAR1,AR2,XAR2,AR3,   *
;*                        XAR3,SP,TC1,M40,SATA,SATD,RDM,FRCT,SMUL              *
;*   Stack Frame        : Compact (No Frame Pointer, w/ debug)                 *
;*   Total Frame Size   : 8 words                                              *
;*                        (2 return address/alignment)                         *
;*                        (6 local values)                                     *
;*   Min System Stack   : 1 word                                               *
;*******************************************************************************
_SDIO_getRca:
	.dwcfi	cfa_offset, 1
	.dwcfi	save_reg_to_mem, 91, -1
        AADD #-7, SP
	.dwcfi	cfa_offset, 8
$C$DW$109	.dwtag  DW_TAG_variable, DW_AT_name("hSdio")
	.dwattr $C$DW$109, DW_AT_TI_symbol_name("_hSdio")
	.dwattr $C$DW$109, DW_AT_type(*$C$DW$T$55)
	.dwattr $C$DW$109, DW_AT_location[DW_OP_bregx 0x24 0]
$C$DW$110	.dwtag  DW_TAG_variable, DW_AT_name("pRCardAddr")
	.dwattr $C$DW$110, DW_AT_TI_symbol_name("_pRCardAddr")
	.dwattr $C$DW$110, DW_AT_type(*$C$DW$T$74)
	.dwattr $C$DW$110, DW_AT_location[DW_OP_bregx 0x24 2]
$C$DW$111	.dwtag  DW_TAG_variable, DW_AT_name("status")
	.dwattr $C$DW$111, DW_AT_TI_symbol_name("_status")
	.dwattr $C$DW$111, DW_AT_type(*$C$DW$T$57)
	.dwattr $C$DW$111, DW_AT_location[DW_OP_bregx 0x24 4]
$C$DW$112	.dwtag  DW_TAG_variable, DW_AT_name("statusReg")
	.dwattr $C$DW$112, DW_AT_TI_symbol_name("_statusReg")
	.dwattr $C$DW$112, DW_AT_type(*$C$DW$T$20)
	.dwattr $C$DW$112, DW_AT_location[DW_OP_bregx 0x24 5]
        MOV XAR1, dbl(*SP(#2))
        MOV XAR0, dbl(*SP(#0))
	.dwpsn	file "src/csl_sdio.c",line 1082,column 5,is_stmt
        MOV #-5, *SP(#4) ; |1082| 
	.dwpsn	file "src/csl_sdio.c",line 1083,column 5,is_stmt
        MOV #0, *SP(#5) ; |1083| 
	.dwpsn	file "src/csl_sdio.c",line 1085,column 5,is_stmt
        MOV dbl(*SP(#0)), XAR3

        MOV XAR3, AC0
||      MOV #0, AC1 ; |1085| 

        CMPU AC1 == AC0, TC1 ; |1085| 
        BCC $C$L64,TC1 ; |1085| 
                                        ; branchcc occurs ; |1085| 
	.dwpsn	file "src/csl_sdio.c",line 1087,column 9,is_stmt
        MOV dbl(*SP(#2)), XAR3
        MOV XAR3, AC0
        CMPU AC1 == AC0, TC1 ; |1087| 
        BCC $C$L63,TC1 ; |1087| 
                                        ; branchcc occurs ; |1087| 
	.dwpsn	file "src/csl_sdio.c",line 1089,column 4,is_stmt
        MOV dbl(*SP(#0)), XAR3
        MOV #69, T0 ; |1089| 
        MOV *AR3, AR3 ; |1089| 
        MOV #0, port(*AR3(T0)) ; |1089| 
	.dwpsn	file "src/csl_sdio.c",line 1090,column 13,is_stmt
        MOV dbl(*SP(#0)), XAR3
        MOV #52, T0 ; |1090| 
        MOV *AR3, AR3 ; |1090| 
        MOV port(*AR3(T0)), AR1 ; |1090| 
        MOV dbl(*SP(#0)), XAR3
        MOV *AR3, AR3 ; |1090| 
        MOV #0, port(*AR3(T0)) ; |1090| 
	.dwpsn	file "src/csl_sdio.c",line 1092,column 13,is_stmt
        MOV dbl(*SP(#0)), XAR3
        MOV #53, T0 ; |1092| 
        MOV *AR3, AR3 ; |1092| 
        MOV port(*AR3(T0)), AR1 ; |1092| 
        MOV dbl(*SP(#0)), XAR3
        MOV *AR3, AR3 ; |1092| 
        MOV #0, port(*AR3(T0)) ; |1092| 
	.dwpsn	file "src/csl_sdio.c",line 1094,column 13,is_stmt
        MOV dbl(*SP(#0)), XAR3
        MOV #48, T0 ; |1094| 
        MOV *AR3, AR3 ; |1094| 
        MOV #515, port(*AR3(T0)) ; |1094| 
        MOV #8, T0
$C$L60:    
$C$DW$L$_SDIO_getRca$4$B:
	.dwpsn	file "src/csl_sdio.c",line 1098,column 5,is_stmt
        MOV dbl(*SP(#0)), XAR3
        MOV *AR3, AR3 ; |1098| 
        MOV port(*AR3(T0)), AR1 ; |1098| 
        MOV AR1, *SP(#5) ; |1098| 
        NOP
        NOP
        NOP
	.dwpsn	file "src/csl_sdio.c",line 1099,column 5,is_stmt
        BAND *SP(#5), #144, TC1 ; |1099| 
        BCC $C$L62,!TC1 ; |1099| 
                                        ; branchcc occurs ; |1099| 
$C$DW$L$_SDIO_getRca$4$E:
	.dwpsn	file "src/csl_sdio.c",line 1101,column 6,is_stmt
        BTST #4, *SP(#5), TC1 ; |1101| 
        BCC $C$L61,!TC1 ; |1101| 
                                        ; branchcc occurs ; |1101| 
	.dwpsn	file "src/csl_sdio.c",line 1103,column 7,is_stmt
        MOV #-16, T0 ; |1103| 
        B $C$L65  ; |1103| 
                                        ; branch occurs ; |1103| 
$C$L61:    
	.dwpsn	file "src/csl_sdio.c",line 1107,column 7,is_stmt
        MOV #-17, T0 ; |1107| 
        B $C$L65  ; |1107| 
                                        ; branch occurs ; |1107| 
$C$L62:    
$C$DW$L$_SDIO_getRca$9$B:
	.dwpsn	file "src/csl_sdio.c",line 1110,column 12,is_stmt
        BTST #2, *SP(#5), TC1 ; |1110| 
        BCC $C$L60,!TC1 ; |1110| 
                                        ; branchcc occurs ; |1110| 
$C$DW$L$_SDIO_getRca$9$E:
	.dwpsn	file "src/csl_sdio.c",line 1112,column 4,is_stmt
        MOV dbl(*SP(#0)), XAR3
        MOV #69, T0 ; |1112| 
        MOV *AR3, AR3 ; |1112| 
        MOV port(*AR3(T0)), AR1 ; |1112| 
        MOV dbl(*SP(#2)), XAR3
        MOV AR1, *AR3 ; |1112| 
	.dwpsn	file "src/csl_sdio.c",line 1113,column 4,is_stmt
        MOV dbl(*SP(#0)), XAR2
        MOV dbl(*SP(#2)), XAR3
        MOV dbl(*AR2(short(#2))), XAR2
        MOV *AR3, *AR2 ; |1113| 
	.dwpsn	file "src/csl_sdio.c",line 1114,column 4,is_stmt
        MOV #0, *SP(#4) ; |1114| 
	.dwpsn	file "src/csl_sdio.c",line 1115,column 9,is_stmt
        B $C$L64  ; |1115| 
                                        ; branch occurs ; |1115| 
$C$L63:    
	.dwpsn	file "src/csl_sdio.c",line 1118,column 13,is_stmt
        MOV #-6, *SP(#4) ; |1118| 
$C$L64:    
	.dwpsn	file "src/csl_sdio.c",line 1122,column 5,is_stmt
        MOV *SP(#4), T0 ; |1122| 
$C$L65:    
	.dwpsn	file "src/csl_sdio.c",line 1123,column 1,is_stmt
        AADD #7, SP
	.dwcfi	cfa_offset, 1
$C$DW$113	.dwtag  DW_TAG_TI_branch
	.dwattr $C$DW$113, DW_AT_low_pc(0x00)
	.dwattr $C$DW$113, DW_AT_TI_return
        RET
                                        ; return occurs

$C$DW$114	.dwtag  DW_TAG_TI_loop
	.dwattr $C$DW$114, DW_AT_name("/home/santiago/dspfuzz/on_board/library/csl_sdio.asm:$C$L60:1:1714639451")
	.dwattr $C$DW$114, DW_AT_TI_begin_file("src/csl_sdio.c")
	.dwattr $C$DW$114, DW_AT_TI_begin_line(0x448)
	.dwattr $C$DW$114, DW_AT_TI_end_line(0x456)
$C$DW$115	.dwtag  DW_TAG_TI_loop_range
	.dwattr $C$DW$115, DW_AT_low_pc($C$DW$L$_SDIO_getRca$4$B)
	.dwattr $C$DW$115, DW_AT_high_pc($C$DW$L$_SDIO_getRca$4$E)
$C$DW$116	.dwtag  DW_TAG_TI_loop_range
	.dwattr $C$DW$116, DW_AT_low_pc($C$DW$L$_SDIO_getRca$9$B)
	.dwattr $C$DW$116, DW_AT_high_pc($C$DW$L$_SDIO_getRca$9$E)
	.dwendtag $C$DW$114

	.dwattr $C$DW$106, DW_AT_TI_end_file("src/csl_sdio.c")
	.dwattr $C$DW$106, DW_AT_TI_end_line(0x463)
	.dwattr $C$DW$106, DW_AT_TI_end_column(0x01)
	.dwendentry
	.dwendtag $C$DW$106

	.sect	".text"
	.global	_SDIO_deselectCard

$C$DW$117	.dwtag  DW_TAG_subprogram, DW_AT_name("SDIO_deselectCard")
	.dwattr $C$DW$117, DW_AT_low_pc(_SDIO_deselectCard)
	.dwattr $C$DW$117, DW_AT_high_pc(0x00)
	.dwattr $C$DW$117, DW_AT_TI_symbol_name("_SDIO_deselectCard")
	.dwattr $C$DW$117, DW_AT_external
	.dwattr $C$DW$117, DW_AT_type(*$C$DW$T$57)
	.dwattr $C$DW$117, DW_AT_TI_begin_file("src/csl_sdio.c")
	.dwattr $C$DW$117, DW_AT_TI_begin_line(0x49a)
	.dwattr $C$DW$117, DW_AT_TI_begin_column(0x0c)
	.dwattr $C$DW$117, DW_AT_TI_max_frame_size(0x08)
	.dwpsn	file "src/csl_sdio.c",line 1179,column 1,is_stmt,address _SDIO_deselectCard

	.dwfde $C$DW$CIE, _SDIO_deselectCard
$C$DW$118	.dwtag  DW_TAG_formal_parameter, DW_AT_name("hSdio")
	.dwattr $C$DW$118, DW_AT_TI_symbol_name("_hSdio")
	.dwattr $C$DW$118, DW_AT_type(*$C$DW$T$55)
	.dwattr $C$DW$118, DW_AT_location[DW_OP_reg17]
;*******************************************************************************
;* FUNCTION NAME: SDIO_deselectCard                                            *
;*                                                                             *
;*   Function Uses Regs : AC0,AC0,AC1,AC1,T0,AR0,XAR0,AR1,AR3,XAR3,SP,TC1,M40, *
;*                        SATA,SATD,RDM,FRCT,SMUL                              *
;*   Stack Frame        : Compact (No Frame Pointer, w/ debug)                 *
;*   Total Frame Size   : 8 words                                              *
;*                        (2 return address/alignment)                         *
;*                        (6 local values)                                     *
;*   Min System Stack   : 1 word                                               *
;*******************************************************************************
_SDIO_deselectCard:
	.dwcfi	cfa_offset, 1
	.dwcfi	save_reg_to_mem, 91, -1
        AADD #-7, SP
	.dwcfi	cfa_offset, 8
$C$DW$119	.dwtag  DW_TAG_variable, DW_AT_name("hSdio")
	.dwattr $C$DW$119, DW_AT_TI_symbol_name("_hSdio")
	.dwattr $C$DW$119, DW_AT_type(*$C$DW$T$55)
	.dwattr $C$DW$119, DW_AT_location[DW_OP_bregx 0x24 0]
$C$DW$120	.dwtag  DW_TAG_variable, DW_AT_name("status")
	.dwattr $C$DW$120, DW_AT_TI_symbol_name("_status")
	.dwattr $C$DW$120, DW_AT_type(*$C$DW$T$57)
	.dwattr $C$DW$120, DW_AT_location[DW_OP_bregx 0x24 2]
$C$DW$121	.dwtag  DW_TAG_variable, DW_AT_name("deselectCmd")
	.dwattr $C$DW$121, DW_AT_TI_symbol_name("_deselectCmd")
	.dwattr $C$DW$121, DW_AT_type(*$C$DW$T$19)
	.dwattr $C$DW$121, DW_AT_location[DW_OP_bregx 0x24 3]
$C$DW$122	.dwtag  DW_TAG_variable, DW_AT_name("statusReg")
	.dwattr $C$DW$122, DW_AT_TI_symbol_name("_statusReg")
	.dwattr $C$DW$122, DW_AT_type(*$C$DW$T$20)
	.dwattr $C$DW$122, DW_AT_location[DW_OP_bregx 0x24 4]
$C$DW$123	.dwtag  DW_TAG_variable, DW_AT_name("rca")
	.dwattr $C$DW$123, DW_AT_TI_symbol_name("_rca")
	.dwattr $C$DW$123, DW_AT_type(*$C$DW$T$19)
	.dwattr $C$DW$123, DW_AT_location[DW_OP_bregx 0x24 5]
        MOV XAR0, dbl(*SP(#0))
	.dwpsn	file "src/csl_sdio.c",line 1185,column 5,is_stmt
        MOV #-5, *SP(#2) ; |1185| 
	.dwpsn	file "src/csl_sdio.c",line 1186,column 5,is_stmt
        MOV #0, *SP(#3) ; |1186| 
	.dwpsn	file "src/csl_sdio.c",line 1187,column 5,is_stmt
        MOV #0, *SP(#4) ; |1187| 
	.dwpsn	file "src/csl_sdio.c",line 1188,column 5,is_stmt
        MOV #0, *SP(#5) ; |1188| 
	.dwpsn	file "src/csl_sdio.c",line 1190,column 5,is_stmt
        MOV dbl(*SP(#0)), XAR3

        MOV XAR3, AC0
||      MOV #0, AC1 ; |1190| 

        CMPU AC1 == AC0, TC1 ; |1190| 
        BCC $C$L69,TC1 ; |1190| 
                                        ; branchcc occurs ; |1190| 
	.dwpsn	file "src/csl_sdio.c",line 1192,column 9,is_stmt
        MOV #52, T0 ; |1192| 
        MOV *AR3, AR3 ; |1192| 
        MOV port(*AR3(T0)), AR1 ; |1192| 
        MOV dbl(*SP(#0)), XAR3
        MOV *AR3, AR3 ; |1192| 
        MOV #0, port(*AR3(T0)) ; |1192| 
	.dwpsn	file "src/csl_sdio.c",line 1194,column 9,is_stmt
        MOV dbl(*SP(#0)), XAR3
        MOV #53, T0 ; |1194| 
        MOV *AR3, AR3 ; |1194| 
        MOV port(*AR3(T0)), AR1 ; |1194| 
        MOV dbl(*SP(#0)), XAR3
        MOV *AR3, AR3 ; |1194| 
        MOV *SP(#5), AR1 ; |1194| 
        OR #0x0000, AR1, AR1 ; |1194| 
        MOV AR1, port(*AR3(T0)) ; |1194| 
	.dwpsn	file "src/csl_sdio.c",line 1196,column 9,is_stmt
        AND #0x7fff, *SP(#3) ; |1196| 
	.dwpsn	file "src/csl_sdio.c",line 1197,column 9,is_stmt
        AND #0xbfff, *SP(#3) ; |1197| 
	.dwpsn	file "src/csl_sdio.c",line 1198,column 9,is_stmt
        AND #0xdfff, *SP(#3) ; |1198| 
	.dwpsn	file "src/csl_sdio.c",line 1199,column 9,is_stmt
        AND #0xefff, *SP(#3) ; |1199| 
	.dwpsn	file "src/csl_sdio.c",line 1200,column 9,is_stmt
        AND #0xf7ff, *SP(#3) ; |1200| 
	.dwpsn	file "src/csl_sdio.c",line 1201,column 9,is_stmt
        AND #0xf9ff, *SP(#3) ; |1201| 
	.dwpsn	file "src/csl_sdio.c",line 1202,column 9,is_stmt
        AND #0xfeff, *SP(#3) ; |1202| 
	.dwpsn	file "src/csl_sdio.c",line 1203,column 9,is_stmt
        AND #0xff7f, *SP(#3) ; |1203| 
	.dwpsn	file "src/csl_sdio.c",line 1204,column 9,is_stmt
        MOV *SP(#3), AR1 ; |1204| 
        AND #0xffc0, AR1, AR1 ; |1204| 
        OR #0x0007, AR1, AR1 ; |1204| 
        MOV AR1, *SP(#3) ; |1204| 
	.dwpsn	file "src/csl_sdio.c",line 1206,column 9,is_stmt
        MOV dbl(*SP(#0)), XAR3
        MOV #48, T0 ; |1206| 
        MOV *AR3, AR3 ; |1206| 
        MOV AR1, port(*AR3(T0)) ; |1206| 
        MOV #8, T0
$C$L66:    
$C$DW$L$_SDIO_deselectCard$3$B:
	.dwpsn	file "src/csl_sdio.c",line 1210,column 4,is_stmt
        MOV dbl(*SP(#0)), XAR3
        MOV *AR3, AR3 ; |1210| 
        MOV port(*AR3(T0)), AR1 ; |1210| 
        MOV AR1, *SP(#4) ; |1210| 
        NOP
        NOP
        NOP
	.dwpsn	file "src/csl_sdio.c",line 1211,column 4,is_stmt
        BAND *SP(#4), #144, TC1 ; |1211| 
        BCC $C$L68,!TC1 ; |1211| 
                                        ; branchcc occurs ; |1211| 
$C$DW$L$_SDIO_deselectCard$3$E:
	.dwpsn	file "src/csl_sdio.c",line 1213,column 5,is_stmt
        BTST #4, *SP(#4), TC1 ; |1213| 
        BCC $C$L67,!TC1 ; |1213| 
                                        ; branchcc occurs ; |1213| 
	.dwpsn	file "src/csl_sdio.c",line 1215,column 6,is_stmt
        MOV #-16, T0 ; |1215| 
        B $C$L70  ; |1215| 
                                        ; branch occurs ; |1215| 
$C$L67:    
	.dwpsn	file "src/csl_sdio.c",line 1219,column 6,is_stmt
        MOV #-17, T0 ; |1219| 
        B $C$L70  ; |1219| 
                                        ; branch occurs ; |1219| 
$C$L68:    
$C$DW$L$_SDIO_deselectCard$8$B:
	.dwpsn	file "src/csl_sdio.c",line 1223,column 11,is_stmt
        BTST #2, *SP(#4), TC1 ; |1223| 
        BCC $C$L66,!TC1 ; |1223| 
                                        ; branchcc occurs ; |1223| 
$C$DW$L$_SDIO_deselectCard$8$E:
	.dwpsn	file "src/csl_sdio.c",line 1225,column 3,is_stmt
        MOV dbl(*SP(#0)), XAR3
        MOV dbl(*AR3(short(#2))), XAR3
        MOV #0, *AR3(short(#6)) ; |1225| 
	.dwpsn	file "src/csl_sdio.c",line 1226,column 3,is_stmt
        MOV #0, *SP(#2) ; |1226| 
$C$L69:    
	.dwpsn	file "src/csl_sdio.c",line 1229,column 5,is_stmt
        MOV *SP(#2), T0 ; |1229| 
$C$L70:    
	.dwpsn	file "src/csl_sdio.c",line 1230,column 1,is_stmt
        AADD #7, SP
	.dwcfi	cfa_offset, 1
$C$DW$124	.dwtag  DW_TAG_TI_branch
	.dwattr $C$DW$124, DW_AT_low_pc(0x00)
	.dwattr $C$DW$124, DW_AT_TI_return
        RET
                                        ; return occurs

$C$DW$125	.dwtag  DW_TAG_TI_loop
	.dwattr $C$DW$125, DW_AT_name("/home/santiago/dspfuzz/on_board/library/csl_sdio.asm:$C$L66:1:1714639451")
	.dwattr $C$DW$125, DW_AT_TI_begin_file("src/csl_sdio.c")
	.dwattr $C$DW$125, DW_AT_TI_begin_line(0x4b8)
	.dwattr $C$DW$125, DW_AT_TI_end_line(0x4c7)
$C$DW$126	.dwtag  DW_TAG_TI_loop_range
	.dwattr $C$DW$126, DW_AT_low_pc($C$DW$L$_SDIO_deselectCard$3$B)
	.dwattr $C$DW$126, DW_AT_high_pc($C$DW$L$_SDIO_deselectCard$3$E)
$C$DW$127	.dwtag  DW_TAG_TI_loop_range
	.dwattr $C$DW$127, DW_AT_low_pc($C$DW$L$_SDIO_deselectCard$8$B)
	.dwattr $C$DW$127, DW_AT_high_pc($C$DW$L$_SDIO_deselectCard$8$E)
	.dwendtag $C$DW$125

	.dwattr $C$DW$117, DW_AT_TI_end_file("src/csl_sdio.c")
	.dwattr $C$DW$117, DW_AT_TI_end_line(0x4ce)
	.dwattr $C$DW$117, DW_AT_TI_end_column(0x01)
	.dwendentry
	.dwendtag $C$DW$117

	.sect	".text"
	.global	_SDIO_selectCard

$C$DW$128	.dwtag  DW_TAG_subprogram, DW_AT_name("SDIO_selectCard")
	.dwattr $C$DW$128, DW_AT_low_pc(_SDIO_selectCard)
	.dwattr $C$DW$128, DW_AT_high_pc(0x00)
	.dwattr $C$DW$128, DW_AT_TI_symbol_name("_SDIO_selectCard")
	.dwattr $C$DW$128, DW_AT_external
	.dwattr $C$DW$128, DW_AT_type(*$C$DW$T$57)
	.dwattr $C$DW$128, DW_AT_TI_begin_file("src/csl_sdio.c")
	.dwattr $C$DW$128, DW_AT_TI_begin_line(0x50b)
	.dwattr $C$DW$128, DW_AT_TI_begin_column(0x0c)
	.dwattr $C$DW$128, DW_AT_TI_max_frame_size(0x08)
	.dwpsn	file "src/csl_sdio.c",line 1293,column 1,is_stmt,address _SDIO_selectCard

	.dwfde $C$DW$CIE, _SDIO_selectCard
$C$DW$129	.dwtag  DW_TAG_formal_parameter, DW_AT_name("hSdio")
	.dwattr $C$DW$129, DW_AT_TI_symbol_name("_hSdio")
	.dwattr $C$DW$129, DW_AT_type(*$C$DW$T$55)
	.dwattr $C$DW$129, DW_AT_location[DW_OP_reg17]
$C$DW$130	.dwtag  DW_TAG_formal_parameter, DW_AT_name("rca")
	.dwattr $C$DW$130, DW_AT_TI_symbol_name("_rca")
	.dwattr $C$DW$130, DW_AT_type(*$C$DW$T$19)
	.dwattr $C$DW$130, DW_AT_location[DW_OP_reg12]
;*******************************************************************************
;* FUNCTION NAME: SDIO_selectCard                                              *
;*                                                                             *
;*   Function Uses Regs : AC0,AC0,AC1,AC1,T0,AR0,XAR0,AR1,AR3,XAR3,SP,TC1,M40, *
;*                        SATA,SATD,RDM,FRCT,SMUL                              *
;*   Stack Frame        : Compact (No Frame Pointer, w/ debug)                 *
;*   Total Frame Size   : 8 words                                              *
;*                        (2 return address/alignment)                         *
;*                        (6 local values)                                     *
;*   Min System Stack   : 1 word                                               *
;*******************************************************************************
_SDIO_selectCard:
	.dwcfi	cfa_offset, 1
	.dwcfi	save_reg_to_mem, 91, -1
        AADD #-7, SP
	.dwcfi	cfa_offset, 8
$C$DW$131	.dwtag  DW_TAG_variable, DW_AT_name("hSdio")
	.dwattr $C$DW$131, DW_AT_TI_symbol_name("_hSdio")
	.dwattr $C$DW$131, DW_AT_type(*$C$DW$T$55)
	.dwattr $C$DW$131, DW_AT_location[DW_OP_bregx 0x24 0]
$C$DW$132	.dwtag  DW_TAG_variable, DW_AT_name("rca")
	.dwattr $C$DW$132, DW_AT_TI_symbol_name("_rca")
	.dwattr $C$DW$132, DW_AT_type(*$C$DW$T$19)
	.dwattr $C$DW$132, DW_AT_location[DW_OP_bregx 0x24 2]
$C$DW$133	.dwtag  DW_TAG_variable, DW_AT_name("status")
	.dwattr $C$DW$133, DW_AT_TI_symbol_name("_status")
	.dwattr $C$DW$133, DW_AT_type(*$C$DW$T$57)
	.dwattr $C$DW$133, DW_AT_location[DW_OP_bregx 0x24 3]
$C$DW$134	.dwtag  DW_TAG_variable, DW_AT_name("statusReg")
	.dwattr $C$DW$134, DW_AT_TI_symbol_name("_statusReg")
	.dwattr $C$DW$134, DW_AT_type(*$C$DW$T$20)
	.dwattr $C$DW$134, DW_AT_location[DW_OP_bregx 0x24 4]
$C$DW$135	.dwtag  DW_TAG_variable, DW_AT_name("sdioStatus")
	.dwattr $C$DW$135, DW_AT_TI_symbol_name("_sdioStatus")
	.dwattr $C$DW$135, DW_AT_type(*$C$DW$T$20)
	.dwattr $C$DW$135, DW_AT_location[DW_OP_bregx 0x24 5]
        MOV T0, *SP(#2) ; |1293| 
        MOV XAR0, dbl(*SP(#0))
	.dwpsn	file "src/csl_sdio.c",line 1298,column 5,is_stmt
        MOV #-5, *SP(#3) ; |1298| 
	.dwpsn	file "src/csl_sdio.c",line 1299,column 5,is_stmt
        MOV #0, *SP(#4) ; |1299| 
	.dwpsn	file "src/csl_sdio.c",line 1300,column 5,is_stmt
        MOV #0, *SP(#5) ; |1300| 
	.dwpsn	file "src/csl_sdio.c",line 1302,column 5,is_stmt
        MOV dbl(*SP(#0)), XAR3

        MOV XAR3, AC0
||      MOV #0, AC1 ; |1302| 

        CMPU AC1 == AC0, TC1 ; |1302| 
        BCC $C$L74,TC1 ; |1302| 
                                        ; branchcc occurs ; |1302| 
	.dwpsn	file "src/csl_sdio.c",line 1304,column 9,is_stmt
        MOV #52, T0 ; |1304| 
        MOV *AR3, AR3 ; |1304| 
        MOV port(*AR3(T0)), AR1 ; |1304| 
        MOV dbl(*SP(#0)), XAR3
        MOV *AR3, AR3 ; |1304| 
        MOV #0, port(*AR3(T0)) ; |1304| 
	.dwpsn	file "src/csl_sdio.c",line 1306,column 9,is_stmt
        MOV dbl(*SP(#0)), XAR3
        MOV #53, T0 ; |1306| 
        MOV *AR3, AR3 ; |1306| 
        MOV port(*AR3(T0)), AR1 ; |1306| 
        MOV dbl(*SP(#0)), XAR3
        MOV *AR3, AR3 ; |1306| 
        MOV *SP(#2), AR1 ; |1306| 
        OR #0x0000, AR1, AR1 ; |1306| 
        MOV AR1, port(*AR3(T0)) ; |1306| 
	.dwpsn	file "src/csl_sdio.c",line 1308,column 9,is_stmt
        MOV dbl(*SP(#0)), XAR3
        MOV #48, T0 ; |1308| 
        MOV *AR3, AR3 ; |1308| 
        MOV #775, port(*AR3(T0)) ; |1308| 
	.dwpsn	file "src/csl_sdio.c",line 1310,column 3,is_stmt
        MOV #8, T0
        MOV #0, *SP(#5) ; |1310| 
$C$L71:    
$C$DW$L$_SDIO_selectCard$3$B:
	.dwpsn	file "src/csl_sdio.c",line 1313,column 4,is_stmt
        MOV dbl(*SP(#0)), XAR3
        MOV *AR3, AR3 ; |1313| 
        MOV port(*AR3(T0)), AR1 ; |1313| 
        MOV AR1, *SP(#4) ; |1313| 
        NOP
        NOP
        NOP
	.dwpsn	file "src/csl_sdio.c",line 1315,column 4,is_stmt
        MOV *SP(#4), AR1 ; |1315| 
        AND #0x0004, AR1, AR1 ; |1315| 
        OR *SP(#5), AR1, AR1 ; |1315| 
        MOV AR1, *SP(#5) ; |1315| 
        NOP
        NOP
        NOP
	.dwpsn	file "src/csl_sdio.c",line 1316,column 4,is_stmt
        MOV *SP(#4), AR1 ; |1316| 
        AND #0x0002, AR1, AR1 ; |1316| 
        OR *SP(#5), AR1, AR1 ; |1316| 
        MOV AR1, *SP(#5) ; |1316| 
        NOP
        NOP
        NOP
	.dwpsn	file "src/csl_sdio.c",line 1318,column 4,is_stmt
        BAND *SP(#4), #144, TC1 ; |1318| 
        BCC $C$L73,!TC1 ; |1318| 
                                        ; branchcc occurs ; |1318| 
$C$DW$L$_SDIO_selectCard$3$E:
	.dwpsn	file "src/csl_sdio.c",line 1320,column 5,is_stmt
        BTST #4, *SP(#4), TC1 ; |1320| 
        BCC $C$L72,!TC1 ; |1320| 
                                        ; branchcc occurs ; |1320| 
	.dwpsn	file "src/csl_sdio.c",line 1322,column 6,is_stmt
        MOV #-16, T0 ; |1322| 
        B $C$L75  ; |1322| 
                                        ; branch occurs ; |1322| 
$C$L72:    
	.dwpsn	file "src/csl_sdio.c",line 1326,column 6,is_stmt
        MOV #-17, T0 ; |1326| 
        B $C$L75  ; |1326| 
                                        ; branch occurs ; |1326| 
$C$L73:    
$C$DW$L$_SDIO_selectCard$8$B:
	.dwpsn	file "src/csl_sdio.c",line 1329,column 11,is_stmt
        BTST #2, *SP(#5), TC1 ; |1329| 
        BCC $C$L71,!TC1 ; |1329| 
                                        ; branchcc occurs ; |1329| 
$C$DW$L$_SDIO_selectCard$8$E:
$C$DW$L$_SDIO_selectCard$9$B:
        BTST #1, *SP(#5), TC1 ; |1329| 
        BCC $C$L71,!TC1 ; |1329| 
                                        ; branchcc occurs ; |1329| 
$C$DW$L$_SDIO_selectCard$9$E:
	.dwpsn	file "src/csl_sdio.c",line 1332,column 3,is_stmt
        MOV dbl(*SP(#0)), XAR3
        MOV dbl(*AR3(short(#2))), XAR3
        MOV #1, *AR3(short(#6)) ; |1332| 
	.dwpsn	file "src/csl_sdio.c",line 1333,column 3,is_stmt
        MOV dbl(*SP(#0)), XAR3
        MOV dbl(*AR3(short(#2))), XAR3
        MOV *SP(#2), AR1 ; |1333| 
        MOV AR1, *AR3 ; |1333| 
	.dwpsn	file "src/csl_sdio.c",line 1335,column 3,is_stmt
        MOV #0, *SP(#3) ; |1335| 
$C$L74:    
	.dwpsn	file "src/csl_sdio.c",line 1338,column 5,is_stmt
        MOV *SP(#3), T0 ; |1338| 
$C$L75:    
	.dwpsn	file "src/csl_sdio.c",line 1339,column 1,is_stmt
        AADD #7, SP
	.dwcfi	cfa_offset, 1
$C$DW$136	.dwtag  DW_TAG_TI_branch
	.dwattr $C$DW$136, DW_AT_low_pc(0x00)
	.dwattr $C$DW$136, DW_AT_TI_return
        RET
                                        ; return occurs

$C$DW$137	.dwtag  DW_TAG_TI_loop
	.dwattr $C$DW$137, DW_AT_name("/home/santiago/dspfuzz/on_board/library/csl_sdio.asm:$C$L71:1:1714639451")
	.dwattr $C$DW$137, DW_AT_TI_begin_file("src/csl_sdio.c")
	.dwattr $C$DW$137, DW_AT_TI_begin_line(0x51f)
	.dwattr $C$DW$137, DW_AT_TI_end_line(0x531)
$C$DW$138	.dwtag  DW_TAG_TI_loop_range
	.dwattr $C$DW$138, DW_AT_low_pc($C$DW$L$_SDIO_selectCard$3$B)
	.dwattr $C$DW$138, DW_AT_high_pc($C$DW$L$_SDIO_selectCard$3$E)
$C$DW$139	.dwtag  DW_TAG_TI_loop_range
	.dwattr $C$DW$139, DW_AT_low_pc($C$DW$L$_SDIO_selectCard$9$B)
	.dwattr $C$DW$139, DW_AT_high_pc($C$DW$L$_SDIO_selectCard$9$E)
$C$DW$140	.dwtag  DW_TAG_TI_loop_range
	.dwattr $C$DW$140, DW_AT_low_pc($C$DW$L$_SDIO_selectCard$8$B)
	.dwattr $C$DW$140, DW_AT_high_pc($C$DW$L$_SDIO_selectCard$8$E)
	.dwendtag $C$DW$137

	.dwattr $C$DW$128, DW_AT_TI_end_file("src/csl_sdio.c")
	.dwattr $C$DW$128, DW_AT_TI_end_line(0x53b)
	.dwattr $C$DW$128, DW_AT_TI_end_column(0x01)
	.dwendentry
	.dwendtag $C$DW$128

	.sect	".text"
	.global	_SDIO_sendCommand

$C$DW$141	.dwtag  DW_TAG_subprogram, DW_AT_name("SDIO_sendCommand")
	.dwattr $C$DW$141, DW_AT_low_pc(_SDIO_sendCommand)
	.dwattr $C$DW$141, DW_AT_high_pc(0x00)
	.dwattr $C$DW$141, DW_AT_TI_symbol_name("_SDIO_sendCommand")
	.dwattr $C$DW$141, DW_AT_external
	.dwattr $C$DW$141, DW_AT_type(*$C$DW$T$57)
	.dwattr $C$DW$141, DW_AT_TI_begin_file("src/csl_sdio.c")
	.dwattr $C$DW$141, DW_AT_TI_begin_line(0x57a)
	.dwattr $C$DW$141, DW_AT_TI_begin_column(0x0c)
	.dwattr $C$DW$141, DW_AT_TI_max_frame_size(0x0a)
	.dwpsn	file "src/csl_sdio.c",line 1406,column 1,is_stmt,address _SDIO_sendCommand

	.dwfde $C$DW$CIE, _SDIO_sendCommand
$C$DW$142	.dwtag  DW_TAG_formal_parameter, DW_AT_name("hSdio")
	.dwattr $C$DW$142, DW_AT_TI_symbol_name("_hSdio")
	.dwattr $C$DW$142, DW_AT_type(*$C$DW$T$55)
	.dwattr $C$DW$142, DW_AT_location[DW_OP_reg17]
$C$DW$143	.dwtag  DW_TAG_formal_parameter, DW_AT_name("cmd")
	.dwattr $C$DW$143, DW_AT_TI_symbol_name("_cmd")
	.dwattr $C$DW$143, DW_AT_type(*$C$DW$T$26)
	.dwattr $C$DW$143, DW_AT_location[DW_OP_reg0]
$C$DW$144	.dwtag  DW_TAG_formal_parameter, DW_AT_name("arg")
	.dwattr $C$DW$144, DW_AT_TI_symbol_name("_arg")
	.dwattr $C$DW$144, DW_AT_type(*$C$DW$T$26)
	.dwattr $C$DW$144, DW_AT_location[DW_OP_reg3]
$C$DW$145	.dwtag  DW_TAG_formal_parameter, DW_AT_name("respTimeout")
	.dwattr $C$DW$145, DW_AT_TI_symbol_name("_respTimeout")
	.dwattr $C$DW$145, DW_AT_type(*$C$DW$T$19)
	.dwattr $C$DW$145, DW_AT_location[DW_OP_reg12]
;*******************************************************************************
;* FUNCTION NAME: SDIO_sendCommand                                             *
;*                                                                             *
;*   Function Uses Regs : AC0,AC0,AC1,AC1,T0,AR0,XAR0,AR1,AR3,XAR3,SP,CARRY,   *
;*                        TC1,M40,SATA,SATD,RDM,FRCT,SMUL                      *
;*   Stack Frame        : Compact (No Frame Pointer, w/ debug)                 *
;*   Total Frame Size   : 10 words                                             *
;*                        (1 return address/alignment)                         *
;*                        (9 local values)                                     *
;*   Min System Stack   : 1 word                                               *
;*******************************************************************************
_SDIO_sendCommand:
	.dwcfi	cfa_offset, 1
	.dwcfi	save_reg_to_mem, 91, -1
        AADD #-9, SP
	.dwcfi	cfa_offset, 10
$C$DW$146	.dwtag  DW_TAG_variable, DW_AT_name("hSdio")
	.dwattr $C$DW$146, DW_AT_TI_symbol_name("_hSdio")
	.dwattr $C$DW$146, DW_AT_type(*$C$DW$T$55)
	.dwattr $C$DW$146, DW_AT_location[DW_OP_bregx 0x24 0]
$C$DW$147	.dwtag  DW_TAG_variable, DW_AT_name("cmd")
	.dwattr $C$DW$147, DW_AT_TI_symbol_name("_cmd")
	.dwattr $C$DW$147, DW_AT_type(*$C$DW$T$26)
	.dwattr $C$DW$147, DW_AT_location[DW_OP_bregx 0x24 2]
$C$DW$148	.dwtag  DW_TAG_variable, DW_AT_name("arg")
	.dwattr $C$DW$148, DW_AT_TI_symbol_name("_arg")
	.dwattr $C$DW$148, DW_AT_type(*$C$DW$T$26)
	.dwattr $C$DW$148, DW_AT_location[DW_OP_bregx 0x24 4]
$C$DW$149	.dwtag  DW_TAG_variable, DW_AT_name("respTimeout")
	.dwattr $C$DW$149, DW_AT_TI_symbol_name("_respTimeout")
	.dwattr $C$DW$149, DW_AT_type(*$C$DW$T$19)
	.dwattr $C$DW$149, DW_AT_location[DW_OP_bregx 0x24 6]
$C$DW$150	.dwtag  DW_TAG_variable, DW_AT_name("status")
	.dwattr $C$DW$150, DW_AT_TI_symbol_name("_status")
	.dwattr $C$DW$150, DW_AT_type(*$C$DW$T$57)
	.dwattr $C$DW$150, DW_AT_location[DW_OP_bregx 0x24 7]
$C$DW$151	.dwtag  DW_TAG_variable, DW_AT_name("statusReg")
	.dwattr $C$DW$151, DW_AT_TI_symbol_name("_statusReg")
	.dwattr $C$DW$151, DW_AT_type(*$C$DW$T$20)
	.dwattr $C$DW$151, DW_AT_location[DW_OP_bregx 0x24 8]
        MOV T0, *SP(#6) ; |1406| 
        MOV AC1, dbl(*SP(#4)) ; |1406| 
        MOV AC0, dbl(*SP(#2)) ; |1406| 
        MOV XAR0, dbl(*SP(#0))
	.dwpsn	file "src/csl_sdio.c",line 1410,column 5,is_stmt
        MOV #-5, *SP(#7) ; |1410| 
	.dwpsn	file "src/csl_sdio.c",line 1411,column 5,is_stmt
        MOV #0, *SP(#8) ; |1411| 
	.dwpsn	file "src/csl_sdio.c",line 1413,column 5,is_stmt
        MOV dbl(*SP(#0)), XAR3

        MOV XAR3, AC0
||      MOV #0, AC1 ; |1413| 

        CMPU AC1 == AC0, TC1 ; |1413| 
        BCC $C$L79,TC1 ; |1413| 
                                        ; branchcc occurs ; |1413| 
	.dwpsn	file "src/csl_sdio.c",line 1415,column 3,is_stmt
        MOV #80, T0 ; |1415| 
        MOV *AR3, AR3 ; |1415| 
        MOV port(*AR3(T0)), AR1 ; |1415| 
        MOV dbl(*SP(#0)), XAR3
        MOV *AR3, AR3 ; |1415| 
        AND #0xffc0, AR1, AC0 ; |1415| 
        MOV AC0, port(*AR3(T0)) ; |1415| 
	.dwpsn	file "src/csl_sdio.c",line 1416,column 9,is_stmt
        MOV dbl(*SP(#0)), XAR3
        MOV #52, T0 ; |1416| 
        MOV *AR3, AR3 ; |1416| 
        MOV port(*AR3(T0)), AR1 ; |1416| 
        MOV dbl(*SP(#0)), XAR3
        MOV *AR3, AR3 ; |1416| 
        MOV dbl(*SP(#4)), AC0 ; |1416| 
        AND #0xffff, AC0, AC0 ; |1416| 
        OR #0x0000, AC0, AC0 ; |1416| 
        MOV AC0, port(*AR3(T0)) ; |1416| 
	.dwpsn	file "src/csl_sdio.c",line 1418,column 9,is_stmt
        MOV dbl(*SP(#0)), XAR3
        MOV #53, T0 ; |1418| 
        MOV *AR3, AR3 ; |1418| 
        MOV port(*AR3(T0)), AR1 ; |1418| 
        MOV dbl(*SP(#0)), XAR3
        MOV *AR3, AR3 ; |1418| 
        MOV dbl(*SP(#4)), AC0 ; |1418| 
        SFTL AC0, #-16, AC0 ; |1418| 
        AND #0xffff, AC0, AC0 ; |1418| 
        OR #0x0000, AC0, AC0 ; |1418| 
        MOV AC0, port(*AR3(T0)) ; |1418| 
	.dwpsn	file "src/csl_sdio.c",line 1421,column 9,is_stmt
        MOV dbl(*SP(#0)), XAR3
        MOV #48, T0 ; |1421| 
        MOV *AR3, AR3 ; |1421| 
        MOV dbl(*SP(#2)), AC0 ; |1421| 
        AND #0xffff, AC0, AC0 ; |1421| 
        MOV AC0, port(*AR3(T0)) ; |1421| 
        MOV #8, T0
$C$L76:    
$C$DW$L$_SDIO_sendCommand$3$B:
	.dwpsn	file "src/csl_sdio.c",line 1425,column 4,is_stmt
        MOV dbl(*SP(#0)), XAR3
        MOV *AR3, AR3 ; |1425| 
        MOV port(*AR3(T0)), AR1 ; |1425| 
        MOV AR1, *SP(#8) ; |1425| 
        NOP
        NOP
        NOP
	.dwpsn	file "src/csl_sdio.c",line 1426,column 4,is_stmt
        BAND *SP(#8), #144, TC1 ; |1426| 
        BCC $C$L78,!TC1 ; |1426| 
                                        ; branchcc occurs ; |1426| 
$C$DW$L$_SDIO_sendCommand$3$E:
	.dwpsn	file "src/csl_sdio.c",line 1428,column 5,is_stmt
        BTST #4, *SP(#8), TC1 ; |1428| 
        BCC $C$L77,!TC1 ; |1428| 
                                        ; branchcc occurs ; |1428| 
	.dwpsn	file "src/csl_sdio.c",line 1430,column 6,is_stmt
        MOV #-16, T0 ; |1430| 
        B $C$L80  ; |1430| 
                                        ; branch occurs ; |1430| 
$C$L77:    
	.dwpsn	file "src/csl_sdio.c",line 1434,column 6,is_stmt
        MOV #-17, T0 ; |1434| 
        B $C$L80  ; |1434| 
                                        ; branch occurs ; |1434| 
$C$L78:    
$C$DW$L$_SDIO_sendCommand$8$B:
	.dwpsn	file "src/csl_sdio.c",line 1438,column 11,is_stmt
        BTST #2, *SP(#8), TC1 ; |1438| 
        BCC $C$L76,!TC1 ; |1438| 
                                        ; branchcc occurs ; |1438| 
$C$DW$L$_SDIO_sendCommand$8$E:
	.dwpsn	file "src/csl_sdio.c",line 1445,column 3,is_stmt
        MOV dbl(*SP(#0)), XAR3
        MOV #49, T0 ; |1445| 
        MOV *AR3, AR3 ; |1445| 
        MOV dbl(*SP(#2)), AC0 ; |1445| 
        SFTL AC0, #-16, AC0 ; |1445| 
        AND #0xffff, AC0, AC0 ; |1445| 
        MOV AC0, port(*AR3(T0)) ; |1445| 
	.dwpsn	file "src/csl_sdio.c",line 1448,column 9,is_stmt
        MOV #0, *SP(#7) ; |1448| 
$C$L79:    
	.dwpsn	file "src/csl_sdio.c",line 1451,column 5,is_stmt
        MOV *SP(#7), T0 ; |1451| 
$C$L80:    
	.dwpsn	file "src/csl_sdio.c",line 1452,column 1,is_stmt
        AADD #9, SP
	.dwcfi	cfa_offset, 1
$C$DW$152	.dwtag  DW_TAG_TI_branch
	.dwattr $C$DW$152, DW_AT_low_pc(0x00)
	.dwattr $C$DW$152, DW_AT_TI_return
        RET
                                        ; return occurs

$C$DW$153	.dwtag  DW_TAG_TI_loop
	.dwattr $C$DW$153, DW_AT_name("/home/santiago/dspfuzz/on_board/library/csl_sdio.asm:$C$L76:1:1714639451")
	.dwattr $C$DW$153, DW_AT_TI_begin_file("src/csl_sdio.c")
	.dwattr $C$DW$153, DW_AT_TI_begin_line(0x58f)
	.dwattr $C$DW$153, DW_AT_TI_end_line(0x59e)
$C$DW$154	.dwtag  DW_TAG_TI_loop_range
	.dwattr $C$DW$154, DW_AT_low_pc($C$DW$L$_SDIO_sendCommand$3$B)
	.dwattr $C$DW$154, DW_AT_high_pc($C$DW$L$_SDIO_sendCommand$3$E)
$C$DW$155	.dwtag  DW_TAG_TI_loop_range
	.dwattr $C$DW$155, DW_AT_low_pc($C$DW$L$_SDIO_sendCommand$8$B)
	.dwattr $C$DW$155, DW_AT_high_pc($C$DW$L$_SDIO_sendCommand$8$E)
	.dwendtag $C$DW$153

	.dwattr $C$DW$141, DW_AT_TI_end_file("src/csl_sdio.c")
	.dwattr $C$DW$141, DW_AT_TI_end_line(0x5ac)
	.dwattr $C$DW$141, DW_AT_TI_end_column(0x01)
	.dwendentry
	.dwendtag $C$DW$141

	.sect	".text"
	.global	_SDIO_getResponse

$C$DW$156	.dwtag  DW_TAG_subprogram, DW_AT_name("SDIO_getResponse")
	.dwattr $C$DW$156, DW_AT_low_pc(_SDIO_getResponse)
	.dwattr $C$DW$156, DW_AT_high_pc(0x00)
	.dwattr $C$DW$156, DW_AT_TI_symbol_name("_SDIO_getResponse")
	.dwattr $C$DW$156, DW_AT_external
	.dwattr $C$DW$156, DW_AT_type(*$C$DW$T$57)
	.dwattr $C$DW$156, DW_AT_TI_begin_file("src/csl_sdio.c")
	.dwattr $C$DW$156, DW_AT_TI_begin_line(0x5f8)
	.dwattr $C$DW$156, DW_AT_TI_begin_column(0x0c)
	.dwattr $C$DW$156, DW_AT_TI_max_frame_size(0x08)
	.dwpsn	file "src/csl_sdio.c",line 1531,column 1,is_stmt,address _SDIO_getResponse

	.dwfde $C$DW$CIE, _SDIO_getResponse
$C$DW$157	.dwtag  DW_TAG_formal_parameter, DW_AT_name("hSdio")
	.dwattr $C$DW$157, DW_AT_TI_symbol_name("_hSdio")
	.dwattr $C$DW$157, DW_AT_type(*$C$DW$T$55)
	.dwattr $C$DW$157, DW_AT_location[DW_OP_reg17]
$C$DW$158	.dwtag  DW_TAG_formal_parameter, DW_AT_name("respType")
	.dwattr $C$DW$158, DW_AT_TI_symbol_name("_respType")
	.dwattr $C$DW$158, DW_AT_type(*$C$DW$T$50)
	.dwattr $C$DW$158, DW_AT_location[DW_OP_reg12]
$C$DW$159	.dwtag  DW_TAG_formal_parameter, DW_AT_name("pResponse")
	.dwattr $C$DW$159, DW_AT_TI_symbol_name("_pResponse")
	.dwattr $C$DW$159, DW_AT_type(*$C$DW$T$63)
	.dwattr $C$DW$159, DW_AT_location[DW_OP_reg19]
;*******************************************************************************
;* FUNCTION NAME: SDIO_getResponse                                             *
;*                                                                             *
;*   Function Uses Regs : AC0,AC0,AC1,AC1,T0,AR0,XAR0,AR1,XAR1,AR2,AR3,XAR3,SP,*
;*                        CARRY,TC1,M40,SATA,SATD,RDM,FRCT,SMUL                *
;*   Stack Frame        : Compact (No Frame Pointer, w/ debug)                 *
;*   Total Frame Size   : 8 words                                              *
;*                        (1 return address/alignment)                         *
;*                        (7 local values)                                     *
;*   Min System Stack   : 1 word                                               *
;*******************************************************************************
_SDIO_getResponse:
	.dwcfi	cfa_offset, 1
	.dwcfi	save_reg_to_mem, 91, -1
        AADD #-7, SP
	.dwcfi	cfa_offset, 8
$C$DW$160	.dwtag  DW_TAG_variable, DW_AT_name("hSdio")
	.dwattr $C$DW$160, DW_AT_TI_symbol_name("_hSdio")
	.dwattr $C$DW$160, DW_AT_type(*$C$DW$T$55)
	.dwattr $C$DW$160, DW_AT_location[DW_OP_bregx 0x24 0]
$C$DW$161	.dwtag  DW_TAG_variable, DW_AT_name("respType")
	.dwattr $C$DW$161, DW_AT_TI_symbol_name("_respType")
	.dwattr $C$DW$161, DW_AT_type(*$C$DW$T$50)
	.dwattr $C$DW$161, DW_AT_location[DW_OP_bregx 0x24 2]
$C$DW$162	.dwtag  DW_TAG_variable, DW_AT_name("pResponse")
	.dwattr $C$DW$162, DW_AT_TI_symbol_name("_pResponse")
	.dwattr $C$DW$162, DW_AT_type(*$C$DW$T$63)
	.dwattr $C$DW$162, DW_AT_location[DW_OP_bregx 0x24 4]
$C$DW$163	.dwtag  DW_TAG_variable, DW_AT_name("status")
	.dwattr $C$DW$163, DW_AT_TI_symbol_name("_status")
	.dwattr $C$DW$163, DW_AT_type(*$C$DW$T$57)
	.dwattr $C$DW$163, DW_AT_location[DW_OP_bregx 0x24 6]
        MOV XAR1, dbl(*SP(#4))
        MOV T0, *SP(#2) ; |1531| 
        MOV XAR0, dbl(*SP(#0))
	.dwpsn	file "src/csl_sdio.c",line 1534,column 5,is_stmt
        MOV #0, *SP(#6) ; |1534| 
	.dwpsn	file "src/csl_sdio.c",line 1536,column 5,is_stmt
        MOV dbl(*SP(#0)), XAR3

        MOV XAR3, AC0
||      MOV #0, AC1 ; |1536| 

        CMPU AC1 == AC0, TC1 ; |1536| 
        BCC $C$L86,TC1 ; |1536| 
                                        ; branchcc occurs ; |1536| 
	.dwpsn	file "src/csl_sdio.c",line 1538,column 9,is_stmt
        MOV dbl(*SP(#4)), XAR3
        MOV XAR3, AC0
        CMPU AC1 == AC0, TC1 ; |1538| 
        BCC $C$L85,TC1 ; |1538| 
                                        ; branchcc occurs ; |1538| 
	.dwpsn	file "src/csl_sdio.c",line 1540,column 13,is_stmt
        B $C$L84  ; |1540| 
                                        ; branch occurs ; |1540| 
$C$L81:    
	.dwpsn	file "src/csl_sdio.c",line 1547,column 21,is_stmt
        MOV dbl(*SP(#0)), XAR3
        MOV #68, T0 ; |1547| 
        MOV *AR3, AR3 ; |1547| 
        MOV port(*AR3(T0)), AR1 ; |1547| 
        MOV dbl(*SP(#4)), XAR3
        MOV AR1, *AR3(short(#6)) ; |1547| 
	.dwpsn	file "src/csl_sdio.c",line 1548,column 21,is_stmt
        MOV dbl(*SP(#0)), XAR3
        MOV #69, T0 ; |1548| 
        MOV *AR3, AR3 ; |1548| 
        MOV port(*AR3(T0)), AR1 ; |1548| 
        MOV dbl(*SP(#4)), XAR3
        MOV AR1, *AR3(short(#7)) ; |1548| 
	.dwpsn	file "src/csl_sdio.c",line 1549,column 26,is_stmt
        B $C$L87  ; |1549| 
                                        ; branch occurs ; |1549| 
$C$L82:    
	.dwpsn	file "src/csl_sdio.c",line 1552,column 21,is_stmt
        MOV dbl(*SP(#0)), XAR3
        MOV #56, T0 ; |1552| 
        MOV *AR3, AR3 ; |1552| 
        MOV port(*AR3(T0)), AR1 ; |1552| 
        MOV dbl(*SP(#4)), XAR3
        MOV AR1, *AR3 ; |1552| 
	.dwpsn	file "src/csl_sdio.c",line 1553,column 21,is_stmt
        MOV dbl(*SP(#0)), XAR3
        MOV #57, T0 ; |1553| 
        MOV *AR3, AR3 ; |1553| 
        MOV port(*AR3(T0)), AR1 ; |1553| 
        MOV dbl(*SP(#4)), XAR3
        MOV AR1, *AR3(short(#1)) ; |1553| 
	.dwpsn	file "src/csl_sdio.c",line 1554,column 21,is_stmt
        MOV dbl(*SP(#0)), XAR3
        MOV #60, T0 ; |1554| 
        MOV *AR3, AR3 ; |1554| 
        MOV port(*AR3(T0)), AR1 ; |1554| 
        MOV dbl(*SP(#4)), XAR3
        MOV AR1, *AR3(short(#2)) ; |1554| 
	.dwpsn	file "src/csl_sdio.c",line 1555,column 21,is_stmt
        MOV dbl(*SP(#0)), XAR3
        MOV #61, T0 ; |1555| 
        MOV *AR3, AR3 ; |1555| 
        MOV port(*AR3(T0)), AR1 ; |1555| 
        MOV dbl(*SP(#4)), XAR3
        MOV AR1, *AR3(short(#3)) ; |1555| 
	.dwpsn	file "src/csl_sdio.c",line 1556,column 21,is_stmt
        MOV dbl(*SP(#0)), XAR3
        MOV #64, T0 ; |1556| 
        MOV *AR3, AR3 ; |1556| 
        MOV port(*AR3(T0)), AR1 ; |1556| 
        MOV dbl(*SP(#4)), XAR3
        MOV AR1, *AR3(short(#4)) ; |1556| 
	.dwpsn	file "src/csl_sdio.c",line 1557,column 21,is_stmt
        MOV dbl(*SP(#0)), XAR3
        MOV #65, T0 ; |1557| 
        MOV *AR3, AR3 ; |1557| 
        MOV port(*AR3(T0)), AR1 ; |1557| 
        MOV dbl(*SP(#4)), XAR3
        MOV AR1, *AR3(short(#5)) ; |1557| 
	.dwpsn	file "src/csl_sdio.c",line 1558,column 21,is_stmt
        MOV dbl(*SP(#0)), XAR3
        MOV #68, T0 ; |1558| 
        MOV *AR3, AR3 ; |1558| 
        MOV port(*AR3(T0)), AR1 ; |1558| 
        MOV dbl(*SP(#4)), XAR3
        MOV AR1, *AR3(short(#6)) ; |1558| 
	.dwpsn	file "src/csl_sdio.c",line 1559,column 21,is_stmt
        MOV dbl(*SP(#0)), XAR3
        MOV #69, T0 ; |1559| 
        MOV *AR3, AR3 ; |1559| 
        MOV port(*AR3(T0)), AR1 ; |1559| 
        MOV dbl(*SP(#4)), XAR3
        MOV AR1, *AR3(short(#7)) ; |1559| 
	.dwpsn	file "src/csl_sdio.c",line 1561,column 24,is_stmt
$C$L83:    
	.dwpsn	file "src/csl_sdio.c",line 1562,column 21,is_stmt
        MOV dbl(*SP(#0)), XAR3
        MOV #56, T0 ; |1562| 
        MOV *AR3, AR3 ; |1562| 
        MOV port(*AR3(T0)), AR1 ; |1562| 
        MOV dbl(*SP(#4)), XAR3
        MOV AR1, *AR3 ; |1562| 
	.dwpsn	file "src/csl_sdio.c",line 1563,column 21,is_stmt
        MOV dbl(*SP(#0)), XAR3
        MOV #57, T0 ; |1563| 
        MOV *AR3, AR3 ; |1563| 
        MOV port(*AR3(T0)), AR1 ; |1563| 
        MOV dbl(*SP(#4)), XAR3
        MOV AR1, *AR3(short(#1)) ; |1563| 
	.dwpsn	file "src/csl_sdio.c",line 1564,column 21,is_stmt
        MOV dbl(*SP(#0)), XAR3
        MOV #60, T0 ; |1564| 
        MOV *AR3, AR3 ; |1564| 
        MOV port(*AR3(T0)), AR1 ; |1564| 
        MOV dbl(*SP(#4)), XAR3
        MOV AR1, *AR3(short(#2)) ; |1564| 
	.dwpsn	file "src/csl_sdio.c",line 1565,column 21,is_stmt
        MOV dbl(*SP(#0)), XAR3
        MOV #61, T0 ; |1565| 
        MOV *AR3, AR3 ; |1565| 
        MOV port(*AR3(T0)), AR1 ; |1565| 
        MOV dbl(*SP(#4)), XAR3
        MOV AR1, *AR3(short(#3)) ; |1565| 
	.dwpsn	file "src/csl_sdio.c",line 1566,column 21,is_stmt
        MOV dbl(*SP(#0)), XAR3
        MOV #64, T0 ; |1566| 
        MOV *AR3, AR3 ; |1566| 
        MOV port(*AR3(T0)), AR1 ; |1566| 
        MOV dbl(*SP(#4)), XAR3
        MOV AR1, *AR3(short(#4)) ; |1566| 
	.dwpsn	file "src/csl_sdio.c",line 1567,column 21,is_stmt
        MOV dbl(*SP(#0)), XAR3
        MOV #65, T0 ; |1567| 
        MOV *AR3, AR3 ; |1567| 
        MOV port(*AR3(T0)), AR1 ; |1567| 
        MOV dbl(*SP(#4)), XAR3
        MOV AR1, *AR3(short(#5)) ; |1567| 
	.dwpsn	file "src/csl_sdio.c",line 1568,column 21,is_stmt
        MOV dbl(*SP(#0)), XAR3
        MOV #68, T0 ; |1568| 
        MOV *AR3, AR3 ; |1568| 
        MOV port(*AR3(T0)), AR1 ; |1568| 
        MOV dbl(*SP(#4)), XAR3
        MOV AR1, *AR3(short(#6)) ; |1568| 
	.dwpsn	file "src/csl_sdio.c",line 1569,column 21,is_stmt
        MOV dbl(*SP(#0)), XAR3
        MOV #69, T0 ; |1569| 
        MOV *AR3, AR3 ; |1569| 
        MOV port(*AR3(T0)), AR1 ; |1569| 
        MOV dbl(*SP(#4)), XAR3
        MOV AR1, *AR3(short(#7)) ; |1569| 
	.dwpsn	file "src/csl_sdio.c",line 1570,column 26,is_stmt
        B $C$L87  ; |1570| 
                                        ; branch occurs ; |1570| 
$C$L84:    
	.dwpsn	file "src/csl_sdio.c",line 1540,column 13,is_stmt

        MOV *SP(#2), AR1 ; |1540| 
||      MOV #1, AR2

        CMP AR1 == AR2, TC1 ; |1540| 
        BCC $C$L81,TC1 ; |1540| 
                                        ; branchcc occurs ; |1540| 
        MOV #2, AR2
        CMP AR1 == AR2, TC1 ; |1540| 
        BCC $C$L82,TC1 ; |1540| 
                                        ; branchcc occurs ; |1540| 

        SUB #3, AR1, AR1 ; |1540| 
||      MOV #3, AR2

        CMPU AR1 <= AR2, TC1 ; |1540| 
        BCC $C$L81,TC1 ; |1540| 
                                        ; branchcc occurs ; |1540| 
        B $C$L83  ; |1540| 
                                        ; branch occurs ; |1540| 
$C$L85:    
	.dwpsn	file "src/csl_sdio.c",line 1575,column 13,is_stmt
        MOV #-6, *SP(#6) ; |1575| 
	.dwpsn	file "src/csl_sdio.c",line 1577,column 5,is_stmt
        B $C$L87  ; |1577| 
                                        ; branch occurs ; |1577| 
$C$L86:    
	.dwpsn	file "src/csl_sdio.c",line 1580,column 9,is_stmt
        MOV #-5, *SP(#6) ; |1580| 
$C$L87:    
	.dwpsn	file "src/csl_sdio.c",line 1583,column 5,is_stmt
        MOV *SP(#6), T0 ; |1583| 
	.dwpsn	file "src/csl_sdio.c",line 1584,column 1,is_stmt
        AADD #7, SP
	.dwcfi	cfa_offset, 1
$C$DW$164	.dwtag  DW_TAG_TI_branch
	.dwattr $C$DW$164, DW_AT_low_pc(0x00)
	.dwattr $C$DW$164, DW_AT_TI_return
        RET
                                        ; return occurs
	.dwattr $C$DW$156, DW_AT_TI_end_file("src/csl_sdio.c")
	.dwattr $C$DW$156, DW_AT_TI_end_line(0x630)
	.dwattr $C$DW$156, DW_AT_TI_end_column(0x01)
	.dwendentry
	.dwendtag $C$DW$156

	.sect	".text"
	.global	_SDIO_clearResponse

$C$DW$165	.dwtag  DW_TAG_subprogram, DW_AT_name("SDIO_clearResponse")
	.dwattr $C$DW$165, DW_AT_low_pc(_SDIO_clearResponse)
	.dwattr $C$DW$165, DW_AT_high_pc(0x00)
	.dwattr $C$DW$165, DW_AT_TI_symbol_name("_SDIO_clearResponse")
	.dwattr $C$DW$165, DW_AT_external
	.dwattr $C$DW$165, DW_AT_type(*$C$DW$T$57)
	.dwattr $C$DW$165, DW_AT_TI_begin_file("src/csl_sdio.c")
	.dwattr $C$DW$165, DW_AT_TI_begin_line(0x65c)
	.dwattr $C$DW$165, DW_AT_TI_begin_column(0x0c)
	.dwattr $C$DW$165, DW_AT_TI_max_frame_size(0x04)
	.dwpsn	file "src/csl_sdio.c",line 1629,column 1,is_stmt,address _SDIO_clearResponse

	.dwfde $C$DW$CIE, _SDIO_clearResponse
$C$DW$166	.dwtag  DW_TAG_formal_parameter, DW_AT_name("hSdio")
	.dwattr $C$DW$166, DW_AT_TI_symbol_name("_hSdio")
	.dwattr $C$DW$166, DW_AT_type(*$C$DW$T$55)
	.dwattr $C$DW$166, DW_AT_location[DW_OP_reg17]
;*******************************************************************************
;* FUNCTION NAME: SDIO_clearResponse                                           *
;*                                                                             *
;*   Function Uses Regs : AC0,AC0,AC1,AC1,T0,AR0,XAR0,AR1,AR3,XAR3,SP,TC1,M40, *
;*                        SATA,SATD,RDM,FRCT,SMUL                              *
;*   Stack Frame        : Compact (No Frame Pointer, w/ debug)                 *
;*   Total Frame Size   : 4 words                                              *
;*                        (1 return address/alignment)                         *
;*                        (3 local values)                                     *
;*   Min System Stack   : 1 word                                               *
;*******************************************************************************
_SDIO_clearResponse:
	.dwcfi	cfa_offset, 1
	.dwcfi	save_reg_to_mem, 91, -1
        AADD #-3, SP
	.dwcfi	cfa_offset, 4
$C$DW$167	.dwtag  DW_TAG_variable, DW_AT_name("hSdio")
	.dwattr $C$DW$167, DW_AT_TI_symbol_name("_hSdio")
	.dwattr $C$DW$167, DW_AT_type(*$C$DW$T$55)
	.dwattr $C$DW$167, DW_AT_location[DW_OP_bregx 0x24 0]
$C$DW$168	.dwtag  DW_TAG_variable, DW_AT_name("status")
	.dwattr $C$DW$168, DW_AT_TI_symbol_name("_status")
	.dwattr $C$DW$168, DW_AT_type(*$C$DW$T$57)
	.dwattr $C$DW$168, DW_AT_location[DW_OP_bregx 0x24 2]
        MOV XAR0, dbl(*SP(#0))
	.dwpsn	file "src/csl_sdio.c",line 1632,column 5,is_stmt
        MOV #-5, *SP(#2) ; |1632| 
	.dwpsn	file "src/csl_sdio.c",line 1634,column 5,is_stmt
        MOV dbl(*SP(#0)), XAR3

        MOV XAR3, AC0
||      MOV #0, AC1 ; |1634| 

        CMPU AC1 == AC0, TC1 ; |1634| 
        BCC $C$L88,TC1 ; |1634| 
                                        ; branchcc occurs ; |1634| 
	.dwpsn	file "src/csl_sdio.c",line 1636,column 9,is_stmt
        MOV #56, T0 ; |1636| 
        MOV *AR3, AR3 ; |1636| 
        MOV port(*AR3(T0)), AR1 ; |1636| 
        MOV dbl(*SP(#0)), XAR3
        MOV *AR3, AR3 ; |1636| 
        MOV #0, port(*AR3(T0)) ; |1636| 
	.dwpsn	file "src/csl_sdio.c",line 1639,column 9,is_stmt
        MOV dbl(*SP(#0)), XAR3
        MOV #57, T0 ; |1639| 
        MOV *AR3, AR3 ; |1639| 
        MOV port(*AR3(T0)), AR1 ; |1639| 
        MOV dbl(*SP(#0)), XAR3
        MOV *AR3, AR3 ; |1639| 
        MOV #0, port(*AR3(T0)) ; |1639| 
	.dwpsn	file "src/csl_sdio.c",line 1642,column 9,is_stmt
        MOV dbl(*SP(#0)), XAR3
        MOV #60, T0 ; |1642| 
        MOV *AR3, AR3 ; |1642| 
        MOV port(*AR3(T0)), AR1 ; |1642| 
        MOV dbl(*SP(#0)), XAR3
        MOV *AR3, AR3 ; |1642| 
        MOV #0, port(*AR3(T0)) ; |1642| 
	.dwpsn	file "src/csl_sdio.c",line 1645,column 9,is_stmt
        MOV dbl(*SP(#0)), XAR3
        MOV #61, T0 ; |1645| 
        MOV *AR3, AR3 ; |1645| 
        MOV port(*AR3(T0)), AR1 ; |1645| 
        MOV dbl(*SP(#0)), XAR3
        MOV *AR3, AR3 ; |1645| 
        MOV #0, port(*AR3(T0)) ; |1645| 
	.dwpsn	file "src/csl_sdio.c",line 1648,column 9,is_stmt
        MOV dbl(*SP(#0)), XAR3
        MOV #64, T0 ; |1648| 
        MOV *AR3, AR3 ; |1648| 
        MOV port(*AR3(T0)), AR1 ; |1648| 
        MOV dbl(*SP(#0)), XAR3
        MOV *AR3, AR3 ; |1648| 
        MOV #0, port(*AR3(T0)) ; |1648| 
	.dwpsn	file "src/csl_sdio.c",line 1651,column 9,is_stmt
        MOV dbl(*SP(#0)), XAR3
        MOV #65, T0 ; |1651| 
        MOV *AR3, AR3 ; |1651| 
        MOV port(*AR3(T0)), AR1 ; |1651| 
        MOV dbl(*SP(#0)), XAR3
        MOV *AR3, AR3 ; |1651| 
        MOV #0, port(*AR3(T0)) ; |1651| 
	.dwpsn	file "src/csl_sdio.c",line 1654,column 9,is_stmt
        MOV dbl(*SP(#0)), XAR3
        MOV #68, T0 ; |1654| 
        MOV *AR3, AR3 ; |1654| 
        MOV port(*AR3(T0)), AR1 ; |1654| 
        MOV dbl(*SP(#0)), XAR3
        MOV *AR3, AR3 ; |1654| 
        MOV #0, port(*AR3(T0)) ; |1654| 
	.dwpsn	file "src/csl_sdio.c",line 1657,column 9,is_stmt
        MOV dbl(*SP(#0)), XAR3
        MOV #69, T0 ; |1657| 
        MOV *AR3, AR3 ; |1657| 
        MOV port(*AR3(T0)), AR1 ; |1657| 
        MOV dbl(*SP(#0)), XAR3
        MOV *AR3, AR3 ; |1657| 
        MOV #0, port(*AR3(T0)) ; |1657| 
	.dwpsn	file "src/csl_sdio.c",line 1661,column 9,is_stmt
        MOV dbl(*SP(#0)), XAR3
        MOV #80, T0 ; |1661| 
        MOV *AR3, AR3 ; |1661| 
        MOV port(*AR3(T0)), AR1 ; |1661| 
        MOV dbl(*SP(#0)), XAR3
        MOV *AR3, AR3 ; |1661| 
        AND #0xffc0, AR1, AC0 ; |1661| 
        MOV AC0, port(*AR3(T0)) ; |1661| 
	.dwpsn	file "src/csl_sdio.c",line 1664,column 9,is_stmt
        MOV #0, *SP(#2) ; |1664| 
$C$L88:    
	.dwpsn	file "src/csl_sdio.c",line 1667,column 5,is_stmt
        MOV *SP(#2), T0 ; |1667| 
	.dwpsn	file "src/csl_sdio.c",line 1668,column 1,is_stmt
        AADD #3, SP
	.dwcfi	cfa_offset, 1
$C$DW$169	.dwtag  DW_TAG_TI_branch
	.dwattr $C$DW$169, DW_AT_low_pc(0x00)
	.dwattr $C$DW$169, DW_AT_TI_return
        RET
                                        ; return occurs
	.dwattr $C$DW$165, DW_AT_TI_end_file("src/csl_sdio.c")
	.dwattr $C$DW$165, DW_AT_TI_end_line(0x684)
	.dwattr $C$DW$165, DW_AT_TI_end_column(0x01)
	.dwendentry
	.dwendtag $C$DW$165

	.sect	".text"
	.global	_SDIO_getStatus

$C$DW$170	.dwtag  DW_TAG_subprogram, DW_AT_name("SDIO_getStatus")
	.dwattr $C$DW$170, DW_AT_low_pc(_SDIO_getStatus)
	.dwattr $C$DW$170, DW_AT_high_pc(0x00)
	.dwattr $C$DW$170, DW_AT_TI_symbol_name("_SDIO_getStatus")
	.dwattr $C$DW$170, DW_AT_external
	.dwattr $C$DW$170, DW_AT_type(*$C$DW$T$26)
	.dwattr $C$DW$170, DW_AT_TI_begin_file("src/csl_sdio.c")
	.dwattr $C$DW$170, DW_AT_TI_begin_line(0x6b5)
	.dwattr $C$DW$170, DW_AT_TI_begin_column(0x08)
	.dwattr $C$DW$170, DW_AT_TI_max_frame_size(0x0a)
	.dwpsn	file "src/csl_sdio.c",line 1720,column 1,is_stmt,address _SDIO_getStatus

	.dwfde $C$DW$CIE, _SDIO_getStatus
$C$DW$171	.dwtag  DW_TAG_formal_parameter, DW_AT_name("hSdio")
	.dwattr $C$DW$171, DW_AT_TI_symbol_name("_hSdio")
	.dwattr $C$DW$171, DW_AT_type(*$C$DW$T$55)
	.dwattr $C$DW$171, DW_AT_location[DW_OP_reg17]
$C$DW$172	.dwtag  DW_TAG_formal_parameter, DW_AT_name("maskValue")
	.dwattr $C$DW$172, DW_AT_TI_symbol_name("_maskValue")
	.dwattr $C$DW$172, DW_AT_type(*$C$DW$T$26)
	.dwattr $C$DW$172, DW_AT_location[DW_OP_reg0]
$C$DW$173	.dwtag  DW_TAG_formal_parameter, DW_AT_name("pStatus")
	.dwattr $C$DW$173, DW_AT_TI_symbol_name("_pStatus")
	.dwattr $C$DW$173, DW_AT_type(*$C$DW$T$58)
	.dwattr $C$DW$173, DW_AT_location[DW_OP_reg19]
;*******************************************************************************
;* FUNCTION NAME: SDIO_getStatus                                               *
;*                                                                             *
;*   Function Uses Regs : AC0,AC0,AC1,AC1,T0,AR0,XAR0,AR1,XAR1,AR3,XAR3,SP,    *
;*                        CARRY,TC1,M40,SATA,SATD,RDM,FRCT,SMUL                *
;*   Stack Frame        : Compact (No Frame Pointer, w/ debug)                 *
;*   Total Frame Size   : 10 words                                             *
;*                        (2 return address/alignment)                         *
;*                        (8 local values)                                     *
;*   Min System Stack   : 1 word                                               *
;*******************************************************************************
_SDIO_getStatus:
	.dwcfi	cfa_offset, 1
	.dwcfi	save_reg_to_mem, 91, -1
        AADD #-9, SP
	.dwcfi	cfa_offset, 10
$C$DW$174	.dwtag  DW_TAG_variable, DW_AT_name("hSdio")
	.dwattr $C$DW$174, DW_AT_TI_symbol_name("_hSdio")
	.dwattr $C$DW$174, DW_AT_type(*$C$DW$T$55)
	.dwattr $C$DW$174, DW_AT_location[DW_OP_bregx 0x24 0]
$C$DW$175	.dwtag  DW_TAG_variable, DW_AT_name("maskValue")
	.dwattr $C$DW$175, DW_AT_TI_symbol_name("_maskValue")
	.dwattr $C$DW$175, DW_AT_type(*$C$DW$T$26)
	.dwattr $C$DW$175, DW_AT_location[DW_OP_bregx 0x24 2]
$C$DW$176	.dwtag  DW_TAG_variable, DW_AT_name("pStatus")
	.dwattr $C$DW$176, DW_AT_TI_symbol_name("_pStatus")
	.dwattr $C$DW$176, DW_AT_type(*$C$DW$T$58)
	.dwattr $C$DW$176, DW_AT_location[DW_OP_bregx 0x24 4]
$C$DW$177	.dwtag  DW_TAG_variable, DW_AT_name("statusReg")
	.dwattr $C$DW$177, DW_AT_TI_symbol_name("_statusReg")
	.dwattr $C$DW$177, DW_AT_type(*$C$DW$T$26)
	.dwattr $C$DW$177, DW_AT_location[DW_OP_bregx 0x24 6]
        MOV XAR1, dbl(*SP(#4))
        MOV AC0, dbl(*SP(#2)) ; |1720| 
        MOV XAR0, dbl(*SP(#0))
	.dwpsn	file "src/csl_sdio.c",line 1723,column 5,is_stmt
        MOV #0, AC0 ; |1723| 
        MOV AC0, dbl(*SP(#6)) ; |1723| 
	.dwpsn	file "src/csl_sdio.c",line 1725,column 5,is_stmt
        MOV dbl(*SP(#0)), XAR3

        MOV XAR3, AC0
||      MOV #0, AC1 ; |1725| 

        CMPU AC1 == AC0, TC1 ; |1725| 
        BCC $C$L89,TC1 ; |1725| 
                                        ; branchcc occurs ; |1725| 
	.dwpsn	file "src/csl_sdio.c",line 1727,column 9,is_stmt
        MOV dbl(*SP(#4)), XAR3
        MOV #0, *AR3 ; |1727| 
	.dwpsn	file "src/csl_sdio.c",line 1729,column 9,is_stmt
        MOV dbl(*SP(#0)), XAR3
        MOV *AR3, AR3 ; |1729| 
        AMOV #12, T0
        MOV uns(port(*AR3(T0))), AC0 ; |1729| 
        MOV AC0, dbl(*SP(#6)) ; |1729| 
	.dwpsn	file "src/csl_sdio.c",line 1730,column 9,is_stmt
        MOV dbl(*SP(#6)), AC0 ; |1730| 
        SFTL AC0, #16, AC0 ; |1730| 
        MOV AC0, dbl(*SP(#6)) ; |1730| 
	.dwpsn	file "src/csl_sdio.c",line 1731,column 9,is_stmt
        MOV dbl(*SP(#0)), XAR3
        MOV *AR3, AR3 ; |1731| 

        MOV dbl(*SP(#6)), AC0 ; |1731| 
||      AMOV #8, T0

        OR port(*AR3(T0)), AC0, AC0 ; |1731| 
        MOV AC0, dbl(*SP(#6)) ; |1731| 
	.dwpsn	file "src/csl_sdio.c",line 1732,column 9,is_stmt
        MOV dbl(*SP(#6)), AC1 ; |1732| 
        MOV dbl(*SP(#2)), AC0 ; |1732| 
        AND AC1, AC0 ; |1732| 
        MOV AC0, dbl(*SP(#6)) ; |1732| 
	.dwpsn	file "src/csl_sdio.c",line 1733,column 5,is_stmt
        B $C$L90  ; |1733| 
                                        ; branch occurs ; |1733| 
$C$L89:    
	.dwpsn	file "src/csl_sdio.c",line 1736,column 9,is_stmt
        MOV dbl(*SP(#4)), XAR3
        MOV #-5, *AR3 ; |1736| 
$C$L90:    
	.dwpsn	file "src/csl_sdio.c",line 1739,column 5,is_stmt
        MOV dbl(*SP(#6)), AC0 ; |1739| 
	.dwpsn	file "src/csl_sdio.c",line 1740,column 1,is_stmt
        AADD #9, SP
	.dwcfi	cfa_offset, 1
$C$DW$178	.dwtag  DW_TAG_TI_branch
	.dwattr $C$DW$178, DW_AT_low_pc(0x00)
	.dwattr $C$DW$178, DW_AT_TI_return
        RET
                                        ; return occurs
	.dwattr $C$DW$170, DW_AT_TI_end_file("src/csl_sdio.c")
	.dwattr $C$DW$170, DW_AT_TI_end_line(0x6cc)
	.dwattr $C$DW$170, DW_AT_TI_end_column(0x01)
	.dwendentry
	.dwendtag $C$DW$170

	.sect	".text"
	.global	_SDIO_getSdioStatus

$C$DW$179	.dwtag  DW_TAG_subprogram, DW_AT_name("SDIO_getSdioStatus")
	.dwattr $C$DW$179, DW_AT_low_pc(_SDIO_getSdioStatus)
	.dwattr $C$DW$179, DW_AT_high_pc(0x00)
	.dwattr $C$DW$179, DW_AT_TI_symbol_name("_SDIO_getSdioStatus")
	.dwattr $C$DW$179, DW_AT_external
	.dwattr $C$DW$179, DW_AT_type(*$C$DW$T$26)
	.dwattr $C$DW$179, DW_AT_TI_begin_file("src/csl_sdio.c")
	.dwattr $C$DW$179, DW_AT_TI_begin_line(0x6fd)
	.dwattr $C$DW$179, DW_AT_TI_begin_column(0x08)
	.dwattr $C$DW$179, DW_AT_TI_max_frame_size(0x0a)
	.dwpsn	file "src/csl_sdio.c",line 1792,column 1,is_stmt,address _SDIO_getSdioStatus

	.dwfde $C$DW$CIE, _SDIO_getSdioStatus
$C$DW$180	.dwtag  DW_TAG_formal_parameter, DW_AT_name("hSdio")
	.dwattr $C$DW$180, DW_AT_TI_symbol_name("_hSdio")
	.dwattr $C$DW$180, DW_AT_type(*$C$DW$T$55)
	.dwattr $C$DW$180, DW_AT_location[DW_OP_reg17]
$C$DW$181	.dwtag  DW_TAG_formal_parameter, DW_AT_name("maskValue")
	.dwattr $C$DW$181, DW_AT_TI_symbol_name("_maskValue")
	.dwattr $C$DW$181, DW_AT_type(*$C$DW$T$26)
	.dwattr $C$DW$181, DW_AT_location[DW_OP_reg0]
$C$DW$182	.dwtag  DW_TAG_formal_parameter, DW_AT_name("pStatus")
	.dwattr $C$DW$182, DW_AT_TI_symbol_name("_pStatus")
	.dwattr $C$DW$182, DW_AT_type(*$C$DW$T$58)
	.dwattr $C$DW$182, DW_AT_location[DW_OP_reg19]
;*******************************************************************************
;* FUNCTION NAME: SDIO_getSdioStatus                                           *
;*                                                                             *
;*   Function Uses Regs : AC0,AC0,AC1,AC1,T0,AR0,XAR0,AR1,XAR1,AR3,XAR3,SP,    *
;*                        CARRY,TC1,M40,SATA,SATD,RDM,FRCT,SMUL                *
;*   Stack Frame        : Compact (No Frame Pointer, w/ debug)                 *
;*   Total Frame Size   : 10 words                                             *
;*                        (2 return address/alignment)                         *
;*                        (8 local values)                                     *
;*   Min System Stack   : 1 word                                               *
;*******************************************************************************
_SDIO_getSdioStatus:
	.dwcfi	cfa_offset, 1
	.dwcfi	save_reg_to_mem, 91, -1
        AADD #-9, SP
	.dwcfi	cfa_offset, 10
$C$DW$183	.dwtag  DW_TAG_variable, DW_AT_name("hSdio")
	.dwattr $C$DW$183, DW_AT_TI_symbol_name("_hSdio")
	.dwattr $C$DW$183, DW_AT_type(*$C$DW$T$55)
	.dwattr $C$DW$183, DW_AT_location[DW_OP_bregx 0x24 0]
$C$DW$184	.dwtag  DW_TAG_variable, DW_AT_name("maskValue")
	.dwattr $C$DW$184, DW_AT_TI_symbol_name("_maskValue")
	.dwattr $C$DW$184, DW_AT_type(*$C$DW$T$26)
	.dwattr $C$DW$184, DW_AT_location[DW_OP_bregx 0x24 2]
$C$DW$185	.dwtag  DW_TAG_variable, DW_AT_name("pStatus")
	.dwattr $C$DW$185, DW_AT_TI_symbol_name("_pStatus")
	.dwattr $C$DW$185, DW_AT_type(*$C$DW$T$58)
	.dwattr $C$DW$185, DW_AT_location[DW_OP_bregx 0x24 4]
$C$DW$186	.dwtag  DW_TAG_variable, DW_AT_name("statusReg")
	.dwattr $C$DW$186, DW_AT_TI_symbol_name("_statusReg")
	.dwattr $C$DW$186, DW_AT_type(*$C$DW$T$26)
	.dwattr $C$DW$186, DW_AT_location[DW_OP_bregx 0x24 6]
        MOV XAR1, dbl(*SP(#4))
        MOV AC0, dbl(*SP(#2)) ; |1792| 
        MOV XAR0, dbl(*SP(#0))
	.dwpsn	file "src/csl_sdio.c",line 1795,column 5,is_stmt
        MOV #0, AC0 ; |1795| 
        MOV AC0, dbl(*SP(#6)) ; |1795| 
	.dwpsn	file "src/csl_sdio.c",line 1797,column 5,is_stmt
        MOV dbl(*SP(#0)), XAR3

        MOV XAR3, AC0
||      MOV #0, AC1 ; |1797| 

        CMPU AC1 == AC0, TC1 ; |1797| 
        BCC $C$L91,TC1 ; |1797| 
                                        ; branchcc occurs ; |1797| 
	.dwpsn	file "src/csl_sdio.c",line 1799,column 9,is_stmt
        MOV dbl(*SP(#4)), XAR3
        MOV #0, *AR3 ; |1799| 
	.dwpsn	file "src/csl_sdio.c",line 1801,column 9,is_stmt
        MOV dbl(*SP(#0)), XAR3
        MOV #112, T0 ; |1801| 
        MOV *AR3, AR3 ; |1801| 
        MOV uns(port(*AR3(T0))), AC0 ; |1801| 
        MOV AC0, dbl(*SP(#6)) ; |1801| 
	.dwpsn	file "src/csl_sdio.c",line 1802,column 9,is_stmt
        MOV dbl(*SP(#6)), AC0 ; |1802| 
        SFTL AC0, #16, AC0 ; |1802| 
        MOV AC0, dbl(*SP(#6)) ; |1802| 
	.dwpsn	file "src/csl_sdio.c",line 1803,column 9,is_stmt
        MOV dbl(*SP(#0)), XAR3
        MOV #104, T0 ; |1803| 
        MOV *AR3, AR3 ; |1803| 
        MOV dbl(*SP(#6)), AC0 ; |1803| 
        OR port(*AR3(T0)), AC0, AC0 ; |1803| 
        MOV AC0, dbl(*SP(#6)) ; |1803| 
	.dwpsn	file "src/csl_sdio.c",line 1804,column 9,is_stmt
        MOV dbl(*SP(#6)), AC1 ; |1804| 
        MOV dbl(*SP(#2)), AC0 ; |1804| 
        AND AC1, AC0 ; |1804| 
        MOV AC0, dbl(*SP(#6)) ; |1804| 
	.dwpsn	file "src/csl_sdio.c",line 1805,column 5,is_stmt
        B $C$L92  ; |1805| 
                                        ; branch occurs ; |1805| 
$C$L91:    
	.dwpsn	file "src/csl_sdio.c",line 1808,column 9,is_stmt
        MOV dbl(*SP(#4)), XAR3
        MOV #-5, *AR3 ; |1808| 
$C$L92:    
	.dwpsn	file "src/csl_sdio.c",line 1811,column 5,is_stmt
        MOV dbl(*SP(#6)), AC0 ; |1811| 
	.dwpsn	file "src/csl_sdio.c",line 1812,column 1,is_stmt
        AADD #9, SP
	.dwcfi	cfa_offset, 1
$C$DW$187	.dwtag  DW_TAG_TI_branch
	.dwattr $C$DW$187, DW_AT_low_pc(0x00)
	.dwattr $C$DW$187, DW_AT_TI_return
        RET
                                        ; return occurs
	.dwattr $C$DW$179, DW_AT_TI_end_file("src/csl_sdio.c")
	.dwattr $C$DW$179, DW_AT_TI_end_line(0x714)
	.dwattr $C$DW$179, DW_AT_TI_end_column(0x01)
	.dwendentry
	.dwendtag $C$DW$179

	.sect	".text"
	.global	_SDIO_eventEnable

$C$DW$188	.dwtag  DW_TAG_subprogram, DW_AT_name("SDIO_eventEnable")
	.dwattr $C$DW$188, DW_AT_low_pc(_SDIO_eventEnable)
	.dwattr $C$DW$188, DW_AT_high_pc(0x00)
	.dwattr $C$DW$188, DW_AT_TI_symbol_name("_SDIO_eventEnable")
	.dwattr $C$DW$188, DW_AT_external
	.dwattr $C$DW$188, DW_AT_type(*$C$DW$T$57)
	.dwattr $C$DW$188, DW_AT_TI_begin_file("src/csl_sdio.c")
	.dwattr $C$DW$188, DW_AT_TI_begin_line(0x742)
	.dwattr $C$DW$188, DW_AT_TI_begin_column(0x0c)
	.dwattr $C$DW$188, DW_AT_TI_max_frame_size(0x06)
	.dwpsn	file "src/csl_sdio.c",line 1860,column 1,is_stmt,address _SDIO_eventEnable

	.dwfde $C$DW$CIE, _SDIO_eventEnable
$C$DW$189	.dwtag  DW_TAG_formal_parameter, DW_AT_name("hSdio")
	.dwattr $C$DW$189, DW_AT_TI_symbol_name("_hSdio")
	.dwattr $C$DW$189, DW_AT_type(*$C$DW$T$55)
	.dwattr $C$DW$189, DW_AT_location[DW_OP_reg17]
$C$DW$190	.dwtag  DW_TAG_formal_parameter, DW_AT_name("sdioEvent")
	.dwattr $C$DW$190, DW_AT_TI_symbol_name("_sdioEvent")
	.dwattr $C$DW$190, DW_AT_type(*$C$DW$T$52)
	.dwattr $C$DW$190, DW_AT_location[DW_OP_reg12]
;*******************************************************************************
;* FUNCTION NAME: SDIO_eventEnable                                             *
;*                                                                             *
;*   Function Uses Regs : AC0,AC0,AC1,AC1,T0,AR0,XAR0,AR1,AR2,AR3,XAR3,SP,     *
;*                        CARRY,TC1,M40,SATA,SATD,RDM,FRCT,SMUL                *
;*   Stack Frame        : Compact (No Frame Pointer, w/ debug)                 *
;*   Total Frame Size   : 6 words                                              *
;*                        (2 return address/alignment)                         *
;*                        (4 local values)                                     *
;*   Min System Stack   : 1 word                                               *
;*******************************************************************************
_SDIO_eventEnable:
	.dwcfi	cfa_offset, 1
	.dwcfi	save_reg_to_mem, 91, -1
        AADD #-5, SP
	.dwcfi	cfa_offset, 6
$C$DW$191	.dwtag  DW_TAG_variable, DW_AT_name("hSdio")
	.dwattr $C$DW$191, DW_AT_TI_symbol_name("_hSdio")
	.dwattr $C$DW$191, DW_AT_type(*$C$DW$T$55)
	.dwattr $C$DW$191, DW_AT_location[DW_OP_bregx 0x24 0]
$C$DW$192	.dwtag  DW_TAG_variable, DW_AT_name("sdioEvent")
	.dwattr $C$DW$192, DW_AT_TI_symbol_name("_sdioEvent")
	.dwattr $C$DW$192, DW_AT_type(*$C$DW$T$52)
	.dwattr $C$DW$192, DW_AT_location[DW_OP_bregx 0x24 2]
$C$DW$193	.dwtag  DW_TAG_variable, DW_AT_name("status")
	.dwattr $C$DW$193, DW_AT_TI_symbol_name("_status")
	.dwattr $C$DW$193, DW_AT_type(*$C$DW$T$57)
	.dwattr $C$DW$193, DW_AT_location[DW_OP_bregx 0x24 3]
        MOV T0, *SP(#2) ; |1860| 
        MOV XAR0, dbl(*SP(#0))
	.dwpsn	file "src/csl_sdio.c",line 1863,column 5,is_stmt
        MOV #0, *SP(#3) ; |1863| 
	.dwpsn	file "src/csl_sdio.c",line 1865,column 5,is_stmt
        MOV dbl(*SP(#0)), XAR3

        MOV XAR3, AC0
||      MOV #0, AC1 ; |1865| 

        CMPU AC1 == AC0, TC1 ; |1865| 
        BCC $C$L111,TC1 ; |1865| 
                                        ; branchcc occurs ; |1865| 
	.dwpsn	file "src/csl_sdio.c",line 1867,column 9,is_stmt
        B $C$L110 ; |1867| 
                                        ; branch occurs ; |1867| 
$C$L93:    
	.dwpsn	file "src/csl_sdio.c",line 1870,column 17,is_stmt
        MOV dbl(*SP(#0)), XAR3
        MOV #16, T0 ; |1870| 
        MOV *AR3, AR3 ; |1870| 
        MOV port(*AR3(T0)), AR1 ; |1870| 
        MOV dbl(*SP(#0)), XAR3
        MOV *AR3, AR3 ; |1870| 
        BCLR @#0, AR1 ; |1870| 
        BSET @#0, AR1 ; |1870| 
        MOV AR1, port(*AR3(T0)) ; |1870| 
	.dwpsn	file "src/csl_sdio.c",line 1871,column 22,is_stmt
        B $C$L112 ; |1871| 
                                        ; branch occurs ; |1871| 
$C$L94:    
	.dwpsn	file "src/csl_sdio.c",line 1874,column 17,is_stmt
        MOV dbl(*SP(#0)), XAR3
        MOV #16, T0 ; |1874| 
        MOV *AR3, AR3 ; |1874| 
        MOV port(*AR3(T0)), AR1 ; |1874| 
        MOV dbl(*SP(#0)), XAR3
        MOV *AR3, AR3 ; |1874| 
        BCLR @#1, AR1 ; |1874| 
        BSET @#1, AR1 ; |1874| 
        MOV AR1, port(*AR3(T0)) ; |1874| 
	.dwpsn	file "src/csl_sdio.c",line 1875,column 22,is_stmt
        B $C$L112 ; |1875| 
                                        ; branch occurs ; |1875| 
$C$L95:    
	.dwpsn	file "src/csl_sdio.c",line 1878,column 17,is_stmt
        MOV dbl(*SP(#0)), XAR3
        MOV #16, T0 ; |1878| 
        MOV *AR3, AR3 ; |1878| 
        MOV port(*AR3(T0)), AR1 ; |1878| 
        MOV dbl(*SP(#0)), XAR3
        MOV *AR3, AR3 ; |1878| 
        BCLR @#2, AR1 ; |1878| 
        BSET @#2, AR1 ; |1878| 
        MOV AR1, port(*AR3(T0)) ; |1878| 
	.dwpsn	file "src/csl_sdio.c",line 1879,column 22,is_stmt
        B $C$L112 ; |1879| 
                                        ; branch occurs ; |1879| 
$C$L96:    
	.dwpsn	file "src/csl_sdio.c",line 1882,column 17,is_stmt
        MOV dbl(*SP(#0)), XAR3
        MOV #16, T0 ; |1882| 
        MOV *AR3, AR3 ; |1882| 
        MOV port(*AR3(T0)), AR1 ; |1882| 
        MOV dbl(*SP(#0)), XAR3
        MOV *AR3, AR3 ; |1882| 
        BCLR @#3, AR1 ; |1882| 
        BSET @#3, AR1 ; |1882| 
        MOV AR1, port(*AR3(T0)) ; |1882| 
	.dwpsn	file "src/csl_sdio.c",line 1883,column 22,is_stmt
        B $C$L112 ; |1883| 
                                        ; branch occurs ; |1883| 
$C$L97:    
	.dwpsn	file "src/csl_sdio.c",line 1886,column 17,is_stmt
        MOV dbl(*SP(#0)), XAR3
        MOV #16, T0 ; |1886| 
        MOV *AR3, AR3 ; |1886| 
        MOV port(*AR3(T0)), AR1 ; |1886| 
        MOV dbl(*SP(#0)), XAR3
        MOV *AR3, AR3 ; |1886| 
        BCLR @#4, AR1 ; |1886| 
        BSET @#4, AR1 ; |1886| 
        MOV AR1, port(*AR3(T0)) ; |1886| 
	.dwpsn	file "src/csl_sdio.c",line 1887,column 22,is_stmt
        B $C$L112 ; |1887| 
                                        ; branch occurs ; |1887| 
$C$L98:    
	.dwpsn	file "src/csl_sdio.c",line 1890,column 17,is_stmt
        MOV dbl(*SP(#0)), XAR3
        MOV #16, T0 ; |1890| 
        MOV *AR3, AR3 ; |1890| 
        MOV port(*AR3(T0)), AR1 ; |1890| 
        MOV dbl(*SP(#0)), XAR3
        MOV *AR3, AR3 ; |1890| 
        BCLR @#5, AR1 ; |1890| 
        BSET @#5, AR1 ; |1890| 
        MOV AR1, port(*AR3(T0)) ; |1890| 
	.dwpsn	file "src/csl_sdio.c",line 1891,column 22,is_stmt
        B $C$L112 ; |1891| 
                                        ; branch occurs ; |1891| 
$C$L99:    
	.dwpsn	file "src/csl_sdio.c",line 1894,column 17,is_stmt
        MOV dbl(*SP(#0)), XAR3
        MOV #16, T0 ; |1894| 
        MOV *AR3, AR3 ; |1894| 
        MOV port(*AR3(T0)), AR1 ; |1894| 
        MOV dbl(*SP(#0)), XAR3
        MOV *AR3, AR3 ; |1894| 
        BCLR @#6, AR1 ; |1894| 
        BSET @#6, AR1 ; |1894| 
        MOV AR1, port(*AR3(T0)) ; |1894| 
	.dwpsn	file "src/csl_sdio.c",line 1895,column 22,is_stmt
        B $C$L112 ; |1895| 
                                        ; branch occurs ; |1895| 
$C$L100:    
	.dwpsn	file "src/csl_sdio.c",line 1898,column 17,is_stmt
        MOV dbl(*SP(#0)), XAR3
        MOV #16, T0 ; |1898| 
        MOV *AR3, AR3 ; |1898| 
        MOV port(*AR3(T0)), AR1 ; |1898| 
        MOV dbl(*SP(#0)), XAR3
        MOV *AR3, AR3 ; |1898| 
        BCLR @#7, AR1 ; |1898| 
        BSET @#7, AR1 ; |1898| 
        MOV AR1, port(*AR3(T0)) ; |1898| 
	.dwpsn	file "src/csl_sdio.c",line 1899,column 22,is_stmt
        B $C$L112 ; |1899| 
                                        ; branch occurs ; |1899| 
$C$L101:    
	.dwpsn	file "src/csl_sdio.c",line 1902,column 17,is_stmt
        MOV dbl(*SP(#0)), XAR3
        MOV #16, T0 ; |1902| 
        MOV *AR3, AR3 ; |1902| 
        MOV port(*AR3(T0)), AR1 ; |1902| 
        MOV dbl(*SP(#0)), XAR3
        MOV *AR3, AR3 ; |1902| 
        BCLR @#9, AR1 ; |1902| 
        BSET @#9, AR1 ; |1902| 
        MOV AR1, port(*AR3(T0)) ; |1902| 
	.dwpsn	file "src/csl_sdio.c",line 1903,column 22,is_stmt
        B $C$L112 ; |1903| 
                                        ; branch occurs ; |1903| 
$C$L102:    
	.dwpsn	file "src/csl_sdio.c",line 1906,column 17,is_stmt
        MOV dbl(*SP(#0)), XAR3
        MOV #16, T0 ; |1906| 
        MOV *AR3, AR3 ; |1906| 
        MOV port(*AR3(T0)), AR1 ; |1906| 
        MOV dbl(*SP(#0)), XAR3
        MOV *AR3, AR3 ; |1906| 
        BCLR @#10, AR1 ; |1906| 
        BSET @#10, AR1 ; |1906| 
        MOV AR1, port(*AR3(T0)) ; |1906| 
	.dwpsn	file "src/csl_sdio.c",line 1907,column 22,is_stmt
        B $C$L112 ; |1907| 
                                        ; branch occurs ; |1907| 
$C$L103:    
	.dwpsn	file "src/csl_sdio.c",line 1910,column 17,is_stmt
        MOV dbl(*SP(#0)), XAR3
        MOV #16, T0 ; |1910| 
        MOV *AR3, AR3 ; |1910| 
        MOV port(*AR3(T0)), AR1 ; |1910| 
        MOV dbl(*SP(#0)), XAR3
        MOV *AR3, AR3 ; |1910| 
        BCLR @#11, AR1 ; |1910| 
        BSET @#11, AR1 ; |1910| 
        MOV AR1, port(*AR3(T0)) ; |1910| 
	.dwpsn	file "src/csl_sdio.c",line 1911,column 22,is_stmt
        B $C$L112 ; |1911| 
                                        ; branch occurs ; |1911| 
$C$L104:    
	.dwpsn	file "src/csl_sdio.c",line 1914,column 17,is_stmt
        MOV dbl(*SP(#0)), XAR3
        MOV #16, T0 ; |1914| 
        MOV *AR3, AR3 ; |1914| 
        MOV port(*AR3(T0)), AR1 ; |1914| 
        MOV dbl(*SP(#0)), XAR3
        MOV *AR3, AR3 ; |1914| 
        BCLR @#12, AR1 ; |1914| 
        BSET @#12, AR1 ; |1914| 
        MOV AR1, port(*AR3(T0)) ; |1914| 
	.dwpsn	file "src/csl_sdio.c",line 1915,column 22,is_stmt
        B $C$L112 ; |1915| 
                                        ; branch occurs ; |1915| 
$C$L105:    
	.dwpsn	file "src/csl_sdio.c",line 1918,column 17,is_stmt
        MOV dbl(*SP(#0)), XAR3
        MOV #16, T0 ; |1918| 
        MOV *AR3, AR3 ; |1918| 
        MOV #8191, port(*AR3(T0)) ; |1918| 
	.dwpsn	file "src/csl_sdio.c",line 1919,column 22,is_stmt
        B $C$L112 ; |1919| 
                                        ; branch occurs ; |1919| 
$C$L106:    
	.dwpsn	file "src/csl_sdio.c",line 1922,column 17,is_stmt
        MOV dbl(*SP(#0)), XAR3
        MOV #108, T0 ; |1922| 
        MOV *AR3, AR3 ; |1922| 
        MOV port(*AR3(T0)), AR1 ; |1922| 
        MOV dbl(*SP(#0)), XAR3
        MOV *AR3, AR3 ; |1922| 
        BCLR @#1, AR1 ; |1922| 
        BSET @#1, AR1 ; |1922| 
        MOV AR1, port(*AR3(T0)) ; |1922| 
	.dwpsn	file "src/csl_sdio.c",line 1924,column 22,is_stmt
        B $C$L112 ; |1924| 
                                        ; branch occurs ; |1924| 
$C$L107:    
	.dwpsn	file "src/csl_sdio.c",line 1927,column 17,is_stmt
        MOV dbl(*SP(#0)), XAR3
        MOV #108, T0 ; |1927| 
        MOV *AR3, AR3 ; |1927| 
        MOV port(*AR3(T0)), AR1 ; |1927| 
        MOV dbl(*SP(#0)), XAR3
        MOV *AR3, AR3 ; |1927| 
        BCLR @#0, AR1 ; |1927| 
        BSET @#0, AR1 ; |1927| 
        MOV AR1, port(*AR3(T0)) ; |1927| 
	.dwpsn	file "src/csl_sdio.c",line 1929,column 22,is_stmt
        B $C$L112 ; |1929| 
                                        ; branch occurs ; |1929| 
$C$L108:    
	.dwpsn	file "src/csl_sdio.c",line 1932,column 17,is_stmt
        MOV dbl(*SP(#0)), XAR3
        MOV #108, T0 ; |1932| 
        MOV *AR3, AR3 ; |1932| 
        MOV port(*AR3(T0)), AR1 ; |1932| 
        MOV dbl(*SP(#0)), XAR3
        MOV *AR3, AR3 ; |1932| 
        BCLR @#1, AR1 ; |1932| 
        BSET @#1, AR1 ; |1932| 
        MOV AR1, port(*AR3(T0)) ; |1932| 
	.dwpsn	file "src/csl_sdio.c",line 1934,column 17,is_stmt
        MOV dbl(*SP(#0)), XAR3
        MOV *AR3, AR3 ; |1934| 
        MOV port(*AR3(T0)), AR1 ; |1934| 
        MOV dbl(*SP(#0)), XAR3
        MOV *AR3, AR3 ; |1934| 
        BCLR @#0, AR1 ; |1934| 
        BSET @#0, AR1 ; |1934| 
        MOV AR1, port(*AR3(T0)) ; |1934| 
	.dwpsn	file "src/csl_sdio.c",line 1936,column 22,is_stmt
        B $C$L112 ; |1936| 
                                        ; branch occurs ; |1936| 
$C$L109:    
	.dwpsn	file "src/csl_sdio.c",line 1939,column 17,is_stmt
        MOV #-6, *SP(#3) ; |1939| 
	.dwpsn	file "src/csl_sdio.c",line 1940,column 22,is_stmt
        B $C$L112 ; |1940| 
                                        ; branch occurs ; |1940| 
$C$L110:    
	.dwpsn	file "src/csl_sdio.c",line 1867,column 9,is_stmt
        MOV *SP(#2), AC0 ; |1867| 

        MOV AC0, AR1 ; |1867| 
||      MOV #16, AR2 ; |1867| 

        CMPU AR1 <= AR2, TC1 ; |1867| 
        BCC $C$L109,!TC1 ; |1867| 
                                        ; branchcc occurs ; |1867| 
        SFTS AC0, #1, AC0 ; |1867| 
        MOV mmap(AC0L), AC1 ; |1867| 
        MOV #($C$SW1 >> 16) << #16, AC0 ; |1867| 
        OR #($C$SW1 & 0xffff), AC0, AC0 ; |1867| 
        ADD AC1, AC0 ; |1867| 
        MOV AC0, XAR3
        MOV dbl(*AR3), AC0 ; |1867| 
        B AC0     ; |1867| 
                                        ; branch occurs ; |1867| 
	.sect	".switch:_SDIO_eventEnable"
	.clink
$C$SW1:	.long	$C$L93	; 0
	.long	$C$L94	; 1
	.long	$C$L95	; 2
	.long	$C$L96	; 3
	.long	$C$L97	; 4
	.long	$C$L98	; 5
	.long	$C$L99	; 6
	.long	$C$L100	; 7
	.long	$C$L109	; 0
	.long	$C$L101	; 9
	.long	$C$L102	; 10
	.long	$C$L103	; 11
	.long	$C$L104	; 12
	.long	$C$L105	; 13
	.long	$C$L106	; 14
	.long	$C$L107	; 15
	.long	$C$L108	; 16
	.sect	".text"
$C$L111:    
	.dwpsn	file "src/csl_sdio.c",line 1945,column 9,is_stmt
        MOV #-5, *SP(#3) ; |1945| 
$C$L112:    
	.dwpsn	file "src/csl_sdio.c",line 1948,column 5,is_stmt
        MOV *SP(#3), T0 ; |1948| 
	.dwpsn	file "src/csl_sdio.c",line 1949,column 1,is_stmt
        AADD #5, SP
	.dwcfi	cfa_offset, 1
$C$DW$194	.dwtag  DW_TAG_TI_branch
	.dwattr $C$DW$194, DW_AT_low_pc(0x00)
	.dwattr $C$DW$194, DW_AT_TI_return
        RET
                                        ; return occurs
	.dwattr $C$DW$188, DW_AT_TI_end_file("src/csl_sdio.c")
	.dwattr $C$DW$188, DW_AT_TI_end_line(0x79d)
	.dwattr $C$DW$188, DW_AT_TI_end_column(0x01)
	.dwendentry
	.dwendtag $C$DW$188

	.sect	".text"
	.global	_SDIO_eventDisable

$C$DW$195	.dwtag  DW_TAG_subprogram, DW_AT_name("SDIO_eventDisable")
	.dwattr $C$DW$195, DW_AT_low_pc(_SDIO_eventDisable)
	.dwattr $C$DW$195, DW_AT_high_pc(0x00)
	.dwattr $C$DW$195, DW_AT_TI_symbol_name("_SDIO_eventDisable")
	.dwattr $C$DW$195, DW_AT_external
	.dwattr $C$DW$195, DW_AT_type(*$C$DW$T$57)
	.dwattr $C$DW$195, DW_AT_TI_begin_file("src/csl_sdio.c")
	.dwattr $C$DW$195, DW_AT_TI_begin_line(0x7cb)
	.dwattr $C$DW$195, DW_AT_TI_begin_column(0x0c)
	.dwattr $C$DW$195, DW_AT_TI_max_frame_size(0x06)
	.dwpsn	file "src/csl_sdio.c",line 1997,column 1,is_stmt,address _SDIO_eventDisable

	.dwfde $C$DW$CIE, _SDIO_eventDisable
$C$DW$196	.dwtag  DW_TAG_formal_parameter, DW_AT_name("hSdio")
	.dwattr $C$DW$196, DW_AT_TI_symbol_name("_hSdio")
	.dwattr $C$DW$196, DW_AT_type(*$C$DW$T$55)
	.dwattr $C$DW$196, DW_AT_location[DW_OP_reg17]
$C$DW$197	.dwtag  DW_TAG_formal_parameter, DW_AT_name("sdioEvent")
	.dwattr $C$DW$197, DW_AT_TI_symbol_name("_sdioEvent")
	.dwattr $C$DW$197, DW_AT_type(*$C$DW$T$52)
	.dwattr $C$DW$197, DW_AT_location[DW_OP_reg12]
;*******************************************************************************
;* FUNCTION NAME: SDIO_eventDisable                                            *
;*                                                                             *
;*   Function Uses Regs : AC0,AC0,AC1,AC1,T0,AR0,XAR0,AR1,AR2,AR3,XAR3,SP,     *
;*                        CARRY,TC1,M40,SATA,SATD,RDM,FRCT,SMUL                *
;*   Stack Frame        : Compact (No Frame Pointer, w/ debug)                 *
;*   Total Frame Size   : 6 words                                              *
;*                        (2 return address/alignment)                         *
;*                        (4 local values)                                     *
;*   Min System Stack   : 1 word                                               *
;*******************************************************************************
_SDIO_eventDisable:
	.dwcfi	cfa_offset, 1
	.dwcfi	save_reg_to_mem, 91, -1
        AADD #-5, SP
	.dwcfi	cfa_offset, 6
$C$DW$198	.dwtag  DW_TAG_variable, DW_AT_name("hSdio")
	.dwattr $C$DW$198, DW_AT_TI_symbol_name("_hSdio")
	.dwattr $C$DW$198, DW_AT_type(*$C$DW$T$55)
	.dwattr $C$DW$198, DW_AT_location[DW_OP_bregx 0x24 0]
$C$DW$199	.dwtag  DW_TAG_variable, DW_AT_name("sdioEvent")
	.dwattr $C$DW$199, DW_AT_TI_symbol_name("_sdioEvent")
	.dwattr $C$DW$199, DW_AT_type(*$C$DW$T$52)
	.dwattr $C$DW$199, DW_AT_location[DW_OP_bregx 0x24 2]
$C$DW$200	.dwtag  DW_TAG_variable, DW_AT_name("status")
	.dwattr $C$DW$200, DW_AT_TI_symbol_name("_status")
	.dwattr $C$DW$200, DW_AT_type(*$C$DW$T$57)
	.dwattr $C$DW$200, DW_AT_location[DW_OP_bregx 0x24 3]
        MOV T0, *SP(#2) ; |1997| 
        MOV XAR0, dbl(*SP(#0))
	.dwpsn	file "src/csl_sdio.c",line 2000,column 5,is_stmt
        MOV #0, *SP(#3) ; |2000| 
	.dwpsn	file "src/csl_sdio.c",line 2002,column 5,is_stmt
        MOV dbl(*SP(#0)), XAR3

        MOV XAR3, AC0
||      MOV #0, AC1 ; |2002| 

        CMPU AC1 == AC0, TC1 ; |2002| 
        BCC $C$L131,TC1 ; |2002| 
                                        ; branchcc occurs ; |2002| 
	.dwpsn	file "src/csl_sdio.c",line 2004,column 9,is_stmt
        B $C$L130 ; |2004| 
                                        ; branch occurs ; |2004| 
$C$L113:    
	.dwpsn	file "src/csl_sdio.c",line 2007,column 17,is_stmt
        MOV dbl(*SP(#0)), XAR3
        MOV #16, T0 ; |2007| 
        MOV *AR3, AR3 ; |2007| 
        MOV port(*AR3(T0)), AR1 ; |2007| 
        MOV dbl(*SP(#0)), XAR3
        MOV *AR3, AR3 ; |2007| 
        BCLR @#0, AR1 ; |2007| 
        MOV AR1, port(*AR3(T0)) ; |2007| 
	.dwpsn	file "src/csl_sdio.c",line 2008,column 22,is_stmt
        B $C$L132 ; |2008| 
                                        ; branch occurs ; |2008| 
$C$L114:    
	.dwpsn	file "src/csl_sdio.c",line 2011,column 17,is_stmt
        MOV dbl(*SP(#0)), XAR3
        MOV #16, T0 ; |2011| 
        MOV *AR3, AR3 ; |2011| 
        MOV port(*AR3(T0)), AR1 ; |2011| 
        MOV dbl(*SP(#0)), XAR3
        MOV *AR3, AR3 ; |2011| 
        BCLR @#1, AR1 ; |2011| 
        MOV AR1, port(*AR3(T0)) ; |2011| 
	.dwpsn	file "src/csl_sdio.c",line 2012,column 22,is_stmt
        B $C$L132 ; |2012| 
                                        ; branch occurs ; |2012| 
$C$L115:    
	.dwpsn	file "src/csl_sdio.c",line 2015,column 17,is_stmt
        MOV dbl(*SP(#0)), XAR3
        MOV #16, T0 ; |2015| 
        MOV *AR3, AR3 ; |2015| 
        MOV port(*AR3(T0)), AR1 ; |2015| 
        MOV dbl(*SP(#0)), XAR3
        MOV *AR3, AR3 ; |2015| 
        BCLR @#2, AR1 ; |2015| 
        MOV AR1, port(*AR3(T0)) ; |2015| 
	.dwpsn	file "src/csl_sdio.c",line 2016,column 22,is_stmt
        B $C$L132 ; |2016| 
                                        ; branch occurs ; |2016| 
$C$L116:    
	.dwpsn	file "src/csl_sdio.c",line 2019,column 17,is_stmt
        MOV dbl(*SP(#0)), XAR3
        MOV #16, T0 ; |2019| 
        MOV *AR3, AR3 ; |2019| 
        MOV port(*AR3(T0)), AR1 ; |2019| 
        MOV dbl(*SP(#0)), XAR3
        MOV *AR3, AR3 ; |2019| 
        BCLR @#3, AR1 ; |2019| 
        MOV AR1, port(*AR3(T0)) ; |2019| 
	.dwpsn	file "src/csl_sdio.c",line 2020,column 22,is_stmt
        B $C$L132 ; |2020| 
                                        ; branch occurs ; |2020| 
$C$L117:    
	.dwpsn	file "src/csl_sdio.c",line 2023,column 17,is_stmt
        MOV dbl(*SP(#0)), XAR3
        MOV #16, T0 ; |2023| 
        MOV *AR3, AR3 ; |2023| 
        MOV port(*AR3(T0)), AR1 ; |2023| 
        MOV dbl(*SP(#0)), XAR3
        MOV *AR3, AR3 ; |2023| 
        BCLR @#4, AR1 ; |2023| 
        MOV AR1, port(*AR3(T0)) ; |2023| 
	.dwpsn	file "src/csl_sdio.c",line 2024,column 22,is_stmt
        B $C$L132 ; |2024| 
                                        ; branch occurs ; |2024| 
$C$L118:    
	.dwpsn	file "src/csl_sdio.c",line 2027,column 17,is_stmt
        MOV dbl(*SP(#0)), XAR3
        MOV #16, T0 ; |2027| 
        MOV *AR3, AR3 ; |2027| 
        MOV port(*AR3(T0)), AR1 ; |2027| 
        MOV dbl(*SP(#0)), XAR3
        MOV *AR3, AR3 ; |2027| 
        BCLR @#5, AR1 ; |2027| 
        MOV AR1, port(*AR3(T0)) ; |2027| 
	.dwpsn	file "src/csl_sdio.c",line 2028,column 22,is_stmt
        B $C$L132 ; |2028| 
                                        ; branch occurs ; |2028| 
$C$L119:    
	.dwpsn	file "src/csl_sdio.c",line 2031,column 17,is_stmt
        MOV dbl(*SP(#0)), XAR3
        MOV #16, T0 ; |2031| 
        MOV *AR3, AR3 ; |2031| 
        MOV port(*AR3(T0)), AR1 ; |2031| 
        MOV dbl(*SP(#0)), XAR3
        MOV *AR3, AR3 ; |2031| 
        BCLR @#6, AR1 ; |2031| 
        MOV AR1, port(*AR3(T0)) ; |2031| 
	.dwpsn	file "src/csl_sdio.c",line 2032,column 22,is_stmt
        B $C$L132 ; |2032| 
                                        ; branch occurs ; |2032| 
$C$L120:    
	.dwpsn	file "src/csl_sdio.c",line 2035,column 17,is_stmt
        MOV dbl(*SP(#0)), XAR3
        MOV #16, T0 ; |2035| 
        MOV *AR3, AR3 ; |2035| 
        MOV port(*AR3(T0)), AR1 ; |2035| 
        MOV dbl(*SP(#0)), XAR3
        MOV *AR3, AR3 ; |2035| 
        BCLR @#7, AR1 ; |2035| 
        MOV AR1, port(*AR3(T0)) ; |2035| 
	.dwpsn	file "src/csl_sdio.c",line 2036,column 22,is_stmt
        B $C$L132 ; |2036| 
                                        ; branch occurs ; |2036| 
$C$L121:    
	.dwpsn	file "src/csl_sdio.c",line 2039,column 17,is_stmt
        MOV dbl(*SP(#0)), XAR3
        MOV #16, T0 ; |2039| 
        MOV *AR3, AR3 ; |2039| 
        MOV port(*AR3(T0)), AR1 ; |2039| 
        MOV dbl(*SP(#0)), XAR3
        MOV *AR3, AR3 ; |2039| 
        BCLR @#9, AR1 ; |2039| 
        MOV AR1, port(*AR3(T0)) ; |2039| 
	.dwpsn	file "src/csl_sdio.c",line 2040,column 22,is_stmt
        B $C$L132 ; |2040| 
                                        ; branch occurs ; |2040| 
$C$L122:    
	.dwpsn	file "src/csl_sdio.c",line 2043,column 17,is_stmt
        MOV dbl(*SP(#0)), XAR3
        MOV #16, T0 ; |2043| 
        MOV *AR3, AR3 ; |2043| 
        MOV port(*AR3(T0)), AR1 ; |2043| 
        MOV dbl(*SP(#0)), XAR3
        MOV *AR3, AR3 ; |2043| 
        BCLR @#10, AR1 ; |2043| 
        MOV AR1, port(*AR3(T0)) ; |2043| 
	.dwpsn	file "src/csl_sdio.c",line 2044,column 22,is_stmt
        B $C$L132 ; |2044| 
                                        ; branch occurs ; |2044| 
$C$L123:    
	.dwpsn	file "src/csl_sdio.c",line 2047,column 17,is_stmt
        MOV dbl(*SP(#0)), XAR3
        MOV #16, T0 ; |2047| 
        MOV *AR3, AR3 ; |2047| 
        MOV port(*AR3(T0)), AR1 ; |2047| 
        MOV dbl(*SP(#0)), XAR3
        MOV *AR3, AR3 ; |2047| 
        BCLR @#11, AR1 ; |2047| 
        MOV AR1, port(*AR3(T0)) ; |2047| 
	.dwpsn	file "src/csl_sdio.c",line 2048,column 22,is_stmt
        B $C$L132 ; |2048| 
                                        ; branch occurs ; |2048| 
$C$L124:    
	.dwpsn	file "src/csl_sdio.c",line 2051,column 17,is_stmt
        MOV dbl(*SP(#0)), XAR3
        MOV #16, T0 ; |2051| 
        MOV *AR3, AR3 ; |2051| 
        MOV port(*AR3(T0)), AR1 ; |2051| 
        MOV dbl(*SP(#0)), XAR3
        MOV *AR3, AR3 ; |2051| 
        BCLR @#12, AR1 ; |2051| 
        MOV AR1, port(*AR3(T0)) ; |2051| 
	.dwpsn	file "src/csl_sdio.c",line 2052,column 22,is_stmt
        B $C$L132 ; |2052| 
                                        ; branch occurs ; |2052| 
$C$L125:    
	.dwpsn	file "src/csl_sdio.c",line 2055,column 17,is_stmt
        MOV dbl(*SP(#0)), XAR3
        MOV #16, T0 ; |2055| 
        MOV *AR3, AR3 ; |2055| 
        MOV #57344, port(*AR3(T0)) ; |2055| 
	.dwpsn	file "src/csl_sdio.c",line 2056,column 22,is_stmt
        B $C$L132 ; |2056| 
                                        ; branch occurs ; |2056| 
$C$L126:    
	.dwpsn	file "src/csl_sdio.c",line 2059,column 17,is_stmt
        MOV dbl(*SP(#0)), XAR3
        MOV #108, T0 ; |2059| 
        MOV *AR3, AR3 ; |2059| 
        MOV port(*AR3(T0)), AR1 ; |2059| 
        MOV dbl(*SP(#0)), XAR3
        MOV *AR3, AR3 ; |2059| 
        BCLR @#1, AR1 ; |2059| 
        MOV AR1, port(*AR3(T0)) ; |2059| 
	.dwpsn	file "src/csl_sdio.c",line 2061,column 22,is_stmt
        B $C$L132 ; |2061| 
                                        ; branch occurs ; |2061| 
$C$L127:    
	.dwpsn	file "src/csl_sdio.c",line 2064,column 17,is_stmt
        MOV dbl(*SP(#0)), XAR3
        MOV #108, T0 ; |2064| 
        MOV *AR3, AR3 ; |2064| 
        MOV port(*AR3(T0)), AR1 ; |2064| 
        MOV dbl(*SP(#0)), XAR3
        MOV *AR3, AR3 ; |2064| 
        BCLR @#0, AR1 ; |2064| 
        MOV AR1, port(*AR3(T0)) ; |2064| 
	.dwpsn	file "src/csl_sdio.c",line 2066,column 22,is_stmt
        B $C$L132 ; |2066| 
                                        ; branch occurs ; |2066| 
$C$L128:    
	.dwpsn	file "src/csl_sdio.c",line 2069,column 17,is_stmt
        MOV dbl(*SP(#0)), XAR3
        MOV #108, T0 ; |2069| 
        MOV *AR3, AR3 ; |2069| 
        MOV port(*AR3(T0)), AR1 ; |2069| 
        MOV dbl(*SP(#0)), XAR3
        MOV *AR3, AR3 ; |2069| 
        BCLR @#1, AR1 ; |2069| 
        MOV AR1, port(*AR3(T0)) ; |2069| 
	.dwpsn	file "src/csl_sdio.c",line 2071,column 17,is_stmt
        MOV dbl(*SP(#0)), XAR3
        MOV *AR3, AR3 ; |2071| 
        MOV port(*AR3(T0)), AR1 ; |2071| 
        MOV dbl(*SP(#0)), XAR3
        MOV *AR3, AR3 ; |2071| 
        BCLR @#0, AR1 ; |2071| 
        MOV AR1, port(*AR3(T0)) ; |2071| 
	.dwpsn	file "src/csl_sdio.c",line 2073,column 22,is_stmt
        B $C$L132 ; |2073| 
                                        ; branch occurs ; |2073| 
$C$L129:    
	.dwpsn	file "src/csl_sdio.c",line 2076,column 17,is_stmt
        MOV #-6, *SP(#3) ; |2076| 
	.dwpsn	file "src/csl_sdio.c",line 2077,column 22,is_stmt
        B $C$L132 ; |2077| 
                                        ; branch occurs ; |2077| 
$C$L130:    
	.dwpsn	file "src/csl_sdio.c",line 2004,column 9,is_stmt
        MOV *SP(#2), AC0 ; |2004| 

        MOV AC0, AR1 ; |2004| 
||      MOV #16, AR2 ; |2004| 

        CMPU AR1 <= AR2, TC1 ; |2004| 
        BCC $C$L129,!TC1 ; |2004| 
                                        ; branchcc occurs ; |2004| 
        SFTS AC0, #1, AC0 ; |2004| 
        MOV mmap(AC0L), AC1 ; |2004| 
        MOV #($C$SW3 >> 16) << #16, AC0 ; |2004| 
        OR #($C$SW3 & 0xffff), AC0, AC0 ; |2004| 
        ADD AC1, AC0 ; |2004| 
        MOV AC0, XAR3
        MOV dbl(*AR3), AC0 ; |2004| 
        B AC0     ; |2004| 
                                        ; branch occurs ; |2004| 
	.sect	".switch:_SDIO_eventDisable"
	.clink
$C$SW3:	.long	$C$L113	; 0
	.long	$C$L114	; 1
	.long	$C$L115	; 2
	.long	$C$L116	; 3
	.long	$C$L117	; 4
	.long	$C$L118	; 5
	.long	$C$L119	; 6
	.long	$C$L120	; 7
	.long	$C$L129	; 0
	.long	$C$L121	; 9
	.long	$C$L122	; 10
	.long	$C$L123	; 11
	.long	$C$L124	; 12
	.long	$C$L125	; 13
	.long	$C$L126	; 14
	.long	$C$L127	; 15
	.long	$C$L128	; 16
	.sect	".text"
$C$L131:    
	.dwpsn	file "src/csl_sdio.c",line 2082,column 9,is_stmt
        MOV #-5, *SP(#3) ; |2082| 
$C$L132:    
	.dwpsn	file "src/csl_sdio.c",line 2085,column 5,is_stmt
        MOV *SP(#3), T0 ; |2085| 
	.dwpsn	file "src/csl_sdio.c",line 2086,column 1,is_stmt
        AADD #5, SP
	.dwcfi	cfa_offset, 1
$C$DW$201	.dwtag  DW_TAG_TI_branch
	.dwattr $C$DW$201, DW_AT_low_pc(0x00)
	.dwattr $C$DW$201, DW_AT_TI_return
        RET
                                        ; return occurs
	.dwattr $C$DW$195, DW_AT_TI_end_file("src/csl_sdio.c")
	.dwattr $C$DW$195, DW_AT_TI_end_line(0x826)
	.dwattr $C$DW$195, DW_AT_TI_end_column(0x01)
	.dwendentry
	.dwendtag $C$DW$195

	.sect	".text"
	.global	_SDIO_readWaitEnable

$C$DW$202	.dwtag  DW_TAG_subprogram, DW_AT_name("SDIO_readWaitEnable")
	.dwattr $C$DW$202, DW_AT_low_pc(_SDIO_readWaitEnable)
	.dwattr $C$DW$202, DW_AT_high_pc(0x00)
	.dwattr $C$DW$202, DW_AT_TI_symbol_name("_SDIO_readWaitEnable")
	.dwattr $C$DW$202, DW_AT_external
	.dwattr $C$DW$202, DW_AT_type(*$C$DW$T$57)
	.dwattr $C$DW$202, DW_AT_TI_begin_file("src/csl_sdio.c")
	.dwattr $C$DW$202, DW_AT_TI_begin_line(0x852)
	.dwattr $C$DW$202, DW_AT_TI_begin_column(0x0c)
	.dwattr $C$DW$202, DW_AT_TI_max_frame_size(0x04)
	.dwpsn	file "src/csl_sdio.c",line 2131,column 1,is_stmt,address _SDIO_readWaitEnable

	.dwfde $C$DW$CIE, _SDIO_readWaitEnable
$C$DW$203	.dwtag  DW_TAG_formal_parameter, DW_AT_name("hSdio")
	.dwattr $C$DW$203, DW_AT_TI_symbol_name("_hSdio")
	.dwattr $C$DW$203, DW_AT_type(*$C$DW$T$55)
	.dwattr $C$DW$203, DW_AT_location[DW_OP_reg17]
;*******************************************************************************
;* FUNCTION NAME: SDIO_readWaitEnable                                          *
;*                                                                             *
;*   Function Uses Regs : AC0,AC0,AC1,AC1,T0,AR0,XAR0,AR1,AR3,XAR3,SP,TC1,M40, *
;*                        SATA,SATD,RDM,FRCT,SMUL                              *
;*   Stack Frame        : Compact (No Frame Pointer, w/ debug)                 *
;*   Total Frame Size   : 4 words                                              *
;*                        (1 return address/alignment)                         *
;*                        (3 local values)                                     *
;*   Min System Stack   : 1 word                                               *
;*******************************************************************************
_SDIO_readWaitEnable:
	.dwcfi	cfa_offset, 1
	.dwcfi	save_reg_to_mem, 91, -1
        AADD #-3, SP
	.dwcfi	cfa_offset, 4
$C$DW$204	.dwtag  DW_TAG_variable, DW_AT_name("hSdio")
	.dwattr $C$DW$204, DW_AT_TI_symbol_name("_hSdio")
	.dwattr $C$DW$204, DW_AT_type(*$C$DW$T$55)
	.dwattr $C$DW$204, DW_AT_location[DW_OP_bregx 0x24 0]
$C$DW$205	.dwtag  DW_TAG_variable, DW_AT_name("status")
	.dwattr $C$DW$205, DW_AT_TI_symbol_name("_status")
	.dwattr $C$DW$205, DW_AT_type(*$C$DW$T$57)
	.dwattr $C$DW$205, DW_AT_location[DW_OP_bregx 0x24 2]
        MOV XAR0, dbl(*SP(#0))
	.dwpsn	file "src/csl_sdio.c",line 2134,column 5,is_stmt
        MOV #-5, *SP(#2) ; |2134| 
	.dwpsn	file "src/csl_sdio.c",line 2136,column 5,is_stmt
        MOV dbl(*SP(#0)), XAR3

        MOV XAR3, AC0
||      MOV #0, AC1 ; |2136| 

        CMPU AC1 == AC0, TC1 ; |2136| 
        BCC $C$L133,TC1 ; |2136| 
                                        ; branchcc occurs ; |2136| 
	.dwpsn	file "src/csl_sdio.c",line 2138,column 9,is_stmt
        MOV #0, *SP(#2) ; |2138| 
	.dwpsn	file "src/csl_sdio.c",line 2140,column 9,is_stmt
        MOV dbl(*SP(#0)), XAR3
        MOV #100, T0 ; |2140| 
        MOV *AR3, AR3 ; |2140| 
        MOV port(*AR3(T0)), AR1 ; |2140| 
        MOV dbl(*SP(#0)), XAR3
        MOV *AR3, AR3 ; |2140| 
        BCLR @#0, AR1 ; |2140| 
        BSET @#0, AR1 ; |2140| 
        MOV AR1, port(*AR3(T0)) ; |2140| 
$C$L133:    
	.dwpsn	file "src/csl_sdio.c",line 2143,column 5,is_stmt
        MOV *SP(#2), T0 ; |2143| 
	.dwpsn	file "src/csl_sdio.c",line 2144,column 1,is_stmt
        AADD #3, SP
	.dwcfi	cfa_offset, 1
$C$DW$206	.dwtag  DW_TAG_TI_branch
	.dwattr $C$DW$206, DW_AT_low_pc(0x00)
	.dwattr $C$DW$206, DW_AT_TI_return
        RET
                                        ; return occurs
	.dwattr $C$DW$202, DW_AT_TI_end_file("src/csl_sdio.c")
	.dwattr $C$DW$202, DW_AT_TI_end_line(0x860)
	.dwattr $C$DW$202, DW_AT_TI_end_column(0x01)
	.dwendentry
	.dwendtag $C$DW$202

	.sect	".text"
	.global	_SDIO_readWaitDisable

$C$DW$207	.dwtag  DW_TAG_subprogram, DW_AT_name("SDIO_readWaitDisable")
	.dwattr $C$DW$207, DW_AT_low_pc(_SDIO_readWaitDisable)
	.dwattr $C$DW$207, DW_AT_high_pc(0x00)
	.dwattr $C$DW$207, DW_AT_TI_symbol_name("_SDIO_readWaitDisable")
	.dwattr $C$DW$207, DW_AT_external
	.dwattr $C$DW$207, DW_AT_type(*$C$DW$T$57)
	.dwattr $C$DW$207, DW_AT_TI_begin_file("src/csl_sdio.c")
	.dwattr $C$DW$207, DW_AT_TI_begin_line(0x88c)
	.dwattr $C$DW$207, DW_AT_TI_begin_column(0x0c)
	.dwattr $C$DW$207, DW_AT_TI_max_frame_size(0x04)
	.dwpsn	file "src/csl_sdio.c",line 2189,column 1,is_stmt,address _SDIO_readWaitDisable

	.dwfde $C$DW$CIE, _SDIO_readWaitDisable
$C$DW$208	.dwtag  DW_TAG_formal_parameter, DW_AT_name("hSdio")
	.dwattr $C$DW$208, DW_AT_TI_symbol_name("_hSdio")
	.dwattr $C$DW$208, DW_AT_type(*$C$DW$T$55)
	.dwattr $C$DW$208, DW_AT_location[DW_OP_reg17]
;*******************************************************************************
;* FUNCTION NAME: SDIO_readWaitDisable                                         *
;*                                                                             *
;*   Function Uses Regs : AC0,AC0,AC1,AC1,T0,AR0,XAR0,AR1,AR3,XAR3,SP,TC1,M40, *
;*                        SATA,SATD,RDM,FRCT,SMUL                              *
;*   Stack Frame        : Compact (No Frame Pointer, w/ debug)                 *
;*   Total Frame Size   : 4 words                                              *
;*                        (1 return address/alignment)                         *
;*                        (3 local values)                                     *
;*   Min System Stack   : 1 word                                               *
;*******************************************************************************
_SDIO_readWaitDisable:
	.dwcfi	cfa_offset, 1
	.dwcfi	save_reg_to_mem, 91, -1
        AADD #-3, SP
	.dwcfi	cfa_offset, 4
$C$DW$209	.dwtag  DW_TAG_variable, DW_AT_name("hSdio")
	.dwattr $C$DW$209, DW_AT_TI_symbol_name("_hSdio")
	.dwattr $C$DW$209, DW_AT_type(*$C$DW$T$55)
	.dwattr $C$DW$209, DW_AT_location[DW_OP_bregx 0x24 0]
$C$DW$210	.dwtag  DW_TAG_variable, DW_AT_name("status")
	.dwattr $C$DW$210, DW_AT_TI_symbol_name("_status")
	.dwattr $C$DW$210, DW_AT_type(*$C$DW$T$57)
	.dwattr $C$DW$210, DW_AT_location[DW_OP_bregx 0x24 2]
        MOV XAR0, dbl(*SP(#0))
	.dwpsn	file "src/csl_sdio.c",line 2192,column 5,is_stmt
        MOV #-5, *SP(#2) ; |2192| 
	.dwpsn	file "src/csl_sdio.c",line 2194,column 5,is_stmt
        MOV dbl(*SP(#0)), XAR3

        MOV XAR3, AC0
||      MOV #0, AC1 ; |2194| 

        CMPU AC1 == AC0, TC1 ; |2194| 
        BCC $C$L134,TC1 ; |2194| 
                                        ; branchcc occurs ; |2194| 
	.dwpsn	file "src/csl_sdio.c",line 2196,column 9,is_stmt
        MOV #0, *SP(#2) ; |2196| 
	.dwpsn	file "src/csl_sdio.c",line 2198,column 9,is_stmt
        MOV dbl(*SP(#0)), XAR3
        MOV #100, T0 ; |2198| 
        MOV *AR3, AR3 ; |2198| 
        MOV port(*AR3(T0)), AR1 ; |2198| 
        MOV dbl(*SP(#0)), XAR3
        MOV *AR3, AR3 ; |2198| 
        BCLR @#0, AR1 ; |2198| 
        MOV AR1, port(*AR3(T0)) ; |2198| 
$C$L134:    
	.dwpsn	file "src/csl_sdio.c",line 2201,column 5,is_stmt
        MOV *SP(#2), T0 ; |2201| 
	.dwpsn	file "src/csl_sdio.c",line 2202,column 1,is_stmt
        AADD #3, SP
	.dwcfi	cfa_offset, 1
$C$DW$211	.dwtag  DW_TAG_TI_branch
	.dwattr $C$DW$211, DW_AT_low_pc(0x00)
	.dwattr $C$DW$211, DW_AT_TI_return
        RET
                                        ; return occurs
	.dwattr $C$DW$207, DW_AT_TI_end_file("src/csl_sdio.c")
	.dwattr $C$DW$207, DW_AT_TI_end_line(0x89a)
	.dwattr $C$DW$207, DW_AT_TI_end_column(0x01)
	.dwendentry
	.dwendtag $C$DW$207

	.sect	".text"
	.global	_SDIO_readSingleByte

$C$DW$212	.dwtag  DW_TAG_subprogram, DW_AT_name("SDIO_readSingleByte")
	.dwattr $C$DW$212, DW_AT_low_pc(_SDIO_readSingleByte)
	.dwattr $C$DW$212, DW_AT_high_pc(0x00)
	.dwattr $C$DW$212, DW_AT_TI_symbol_name("_SDIO_readSingleByte")
	.dwattr $C$DW$212, DW_AT_external
	.dwattr $C$DW$212, DW_AT_type(*$C$DW$T$57)
	.dwattr $C$DW$212, DW_AT_TI_begin_file("src/csl_sdio.c")
	.dwattr $C$DW$212, DW_AT_TI_begin_line(0x8da)
	.dwattr $C$DW$212, DW_AT_TI_begin_column(0x0c)
	.dwattr $C$DW$212, DW_AT_TI_max_frame_size(0x12)
	.dwpsn	file "src/csl_sdio.c",line 2270,column 1,is_stmt,address _SDIO_readSingleByte

	.dwfde $C$DW$CIE, _SDIO_readSingleByte
$C$DW$213	.dwtag  DW_TAG_formal_parameter, DW_AT_name("hSdio")
	.dwattr $C$DW$213, DW_AT_TI_symbol_name("_hSdio")
	.dwattr $C$DW$213, DW_AT_type(*$C$DW$T$55)
	.dwattr $C$DW$213, DW_AT_location[DW_OP_reg17]
$C$DW$214	.dwtag  DW_TAG_formal_parameter, DW_AT_name("readAddr")
	.dwattr $C$DW$214, DW_AT_TI_symbol_name("_readAddr")
	.dwattr $C$DW$214, DW_AT_type(*$C$DW$T$26)
	.dwattr $C$DW$214, DW_AT_location[DW_OP_reg0]
$C$DW$215	.dwtag  DW_TAG_formal_parameter, DW_AT_name("funNum")
	.dwattr $C$DW$215, DW_AT_TI_symbol_name("_funNum")
	.dwattr $C$DW$215, DW_AT_type(*$C$DW$T$27)
	.dwattr $C$DW$215, DW_AT_location[DW_OP_reg12]
$C$DW$216	.dwtag  DW_TAG_formal_parameter, DW_AT_name("pReadData")
	.dwattr $C$DW$216, DW_AT_TI_symbol_name("_pReadData")
	.dwattr $C$DW$216, DW_AT_type(*$C$DW$T$68)
	.dwattr $C$DW$216, DW_AT_location[DW_OP_reg19]
;*******************************************************************************
;* FUNCTION NAME: SDIO_readSingleByte                                          *
;*                                                                             *
;*   Function Uses Regs : AC0,AC0,AC1,AC1,T0,AR0,XAR0,AR1,XAR1,AR2,AR3,XAR3,SP,*
;*                        CARRY,TC1,M40,SATA,SATD,RDM,FRCT,SMUL                *
;*   Stack Frame        : Compact (No Frame Pointer, w/ debug)                 *
;*   Total Frame Size   : 18 words                                             *
;*                        (1 return address/alignment)                         *
;*                        (17 local values)                                    *
;*   Min System Stack   : 1 word                                               *
;*******************************************************************************
_SDIO_readSingleByte:
	.dwcfi	cfa_offset, 1
	.dwcfi	save_reg_to_mem, 91, -1
        AADD #-17, SP
	.dwcfi	cfa_offset, 18
$C$DW$217	.dwtag  DW_TAG_variable, DW_AT_name("hSdio")
	.dwattr $C$DW$217, DW_AT_TI_symbol_name("_hSdio")
	.dwattr $C$DW$217, DW_AT_type(*$C$DW$T$55)
	.dwattr $C$DW$217, DW_AT_location[DW_OP_bregx 0x24 0]
$C$DW$218	.dwtag  DW_TAG_variable, DW_AT_name("readAddr")
	.dwattr $C$DW$218, DW_AT_TI_symbol_name("_readAddr")
	.dwattr $C$DW$218, DW_AT_type(*$C$DW$T$26)
	.dwattr $C$DW$218, DW_AT_location[DW_OP_bregx 0x24 2]
$C$DW$219	.dwtag  DW_TAG_variable, DW_AT_name("funNum")
	.dwattr $C$DW$219, DW_AT_TI_symbol_name("_funNum")
	.dwattr $C$DW$219, DW_AT_type(*$C$DW$T$27)
	.dwattr $C$DW$219, DW_AT_location[DW_OP_bregx 0x24 4]
$C$DW$220	.dwtag  DW_TAG_variable, DW_AT_name("pReadData")
	.dwattr $C$DW$220, DW_AT_TI_symbol_name("_pReadData")
	.dwattr $C$DW$220, DW_AT_type(*$C$DW$T$68)
	.dwattr $C$DW$220, DW_AT_location[DW_OP_bregx 0x24 6]
$C$DW$221	.dwtag  DW_TAG_variable, DW_AT_name("argument")
	.dwattr $C$DW$221, DW_AT_TI_symbol_name("_argument")
	.dwattr $C$DW$221, DW_AT_type(*$C$DW$T$26)
	.dwattr $C$DW$221, DW_AT_location[DW_OP_bregx 0x24 8]
$C$DW$222	.dwtag  DW_TAG_variable, DW_AT_name("rawFlag")
	.dwattr $C$DW$222, DW_AT_TI_symbol_name("_rawFlag")
	.dwattr $C$DW$222, DW_AT_type(*$C$DW$T$26)
	.dwattr $C$DW$222, DW_AT_location[DW_OP_bregx 0x24 10]
$C$DW$223	.dwtag  DW_TAG_variable, DW_AT_name("rwFlag")
	.dwattr $C$DW$223, DW_AT_TI_symbol_name("_rwFlag")
	.dwattr $C$DW$223, DW_AT_type(*$C$DW$T$26)
	.dwattr $C$DW$223, DW_AT_location[DW_OP_bregx 0x24 12]
$C$DW$224	.dwtag  DW_TAG_variable, DW_AT_name("status")
	.dwattr $C$DW$224, DW_AT_TI_symbol_name("_status")
	.dwattr $C$DW$224, DW_AT_type(*$C$DW$T$57)
	.dwattr $C$DW$224, DW_AT_location[DW_OP_bregx 0x24 14]
$C$DW$225	.dwtag  DW_TAG_variable, DW_AT_name("response")
	.dwattr $C$DW$225, DW_AT_TI_symbol_name("_response")
	.dwattr $C$DW$225, DW_AT_type(*$C$DW$T$19)
	.dwattr $C$DW$225, DW_AT_location[DW_OP_bregx 0x24 15]
$C$DW$226	.dwtag  DW_TAG_variable, DW_AT_name("statusReg")
	.dwattr $C$DW$226, DW_AT_TI_symbol_name("_statusReg")
	.dwattr $C$DW$226, DW_AT_type(*$C$DW$T$20)
	.dwattr $C$DW$226, DW_AT_location[DW_OP_bregx 0x24 16]
        MOV XAR1, dbl(*SP(#6))
        MOV T0, *SP(#4) ; |2270| 
        MOV AC0, dbl(*SP(#2)) ; |2270| 
        MOV XAR0, dbl(*SP(#0))
	.dwpsn	file "src/csl_sdio.c",line 2278,column 5,is_stmt
        MOV #0, AC0 ; |2278| 
        MOV AC0, dbl(*SP(#8)) ; |2278| 
	.dwpsn	file "src/csl_sdio.c",line 2279,column 5,is_stmt
        MOV AC0, dbl(*SP(#10)) ; |2279| 
	.dwpsn	file "src/csl_sdio.c",line 2280,column 5,is_stmt
        MOV AC0, dbl(*SP(#12)) ; |2280| 
	.dwpsn	file "src/csl_sdio.c",line 2281,column 5,is_stmt
        MOV #-5, *SP(#14) ; |2281| 
	.dwpsn	file "src/csl_sdio.c",line 2282,column 5,is_stmt
        MOV #0, *SP(#15) ; |2282| 
	.dwpsn	file "src/csl_sdio.c",line 2283,column 5,is_stmt
        MOV #0, *SP(#16) ; |2283| 
	.dwpsn	file "src/csl_sdio.c",line 2285,column 5,is_stmt
        MOV dbl(*SP(#0)), XAR3

        MOV XAR3, AC0
||      MOV #0, AC1 ; |2285| 

        CMPU AC1 == AC0, TC1 ; |2285| 
        BCC $C$L139,TC1 ; |2285| 
                                        ; branchcc occurs ; |2285| 
	.dwpsn	file "src/csl_sdio.c",line 2287,column 9,is_stmt

        MOV *SP(#4), AR1 ; |2287| 
||      MOV #7, AR2

        CMPU AR1 > AR2, TC1 ; |2287| 
        BCC $C$L138,TC1 ; |2287| 
                                        ; branchcc occurs ; |2287| 
        MOV dbl(*SP(#6)), XAR3
        MOV XAR3, AC0
        CMPU AC1 == AC0, TC1 ; |2287| 
        BCC $C$L138,TC1 ; |2287| 
                                        ; branchcc occurs ; |2287| 
	.dwpsn	file "src/csl_sdio.c",line 2289,column 13,is_stmt
        MOV #0, AC0 ; |2289| 
        MOV AC0, dbl(*SP(#8)) ; |2289| 
	.dwpsn	file "src/csl_sdio.c",line 2290,column 13,is_stmt
        MOV dbl(*SP(#10)), AC0 ; |2290| 

        SFTL AC0, #27, AC0 ; |2290| 
||      MOV dbl(*SP(#2)), AC1 ; |2290| 

        MOV uns(*SP(#4)), AC1 ; |2290| 
||      OR AC1 << #9, AC0 ; |2290| 

        MOV dbl(*SP(#12)), AC1 ; |2290| 
||      OR AC1 << #28, AC0 ; |2290| 

        OR AC1 << #31, AC0 ; |2290| 
        MOV AC0, dbl(*SP(#8)) ; |2290| 
	.dwpsn	file "src/csl_sdio.c",line 2293,column 13,is_stmt
        MOV dbl(*SP(#0)), XAR3
        MOV #80, T0 ; |2293| 
        MOV *AR3, AR3 ; |2293| 
        MOV port(*AR3(T0)), AR1 ; |2293| 
        MOV dbl(*SP(#0)), XAR3
        MOV *AR3, AR3 ; |2293| 
        AND #0xffc0, AR1, AC0 ; |2293| 
        MOV AC0, port(*AR3(T0)) ; |2293| 
	.dwpsn	file "src/csl_sdio.c",line 2294,column 13,is_stmt
        MOV dbl(*SP(#0)), XAR3
        MOV #68, T0 ; |2294| 
        MOV *AR3, AR3 ; |2294| 
        MOV #0, port(*AR3(T0)) ; |2294| 
	.dwpsn	file "src/csl_sdio.c",line 2296,column 13,is_stmt
        MOV dbl(*SP(#0)), XAR3
        MOV #52, T0 ; |2296| 
        MOV *AR3, AR3 ; |2296| 
        MOV port(*AR3(T0)), AR1 ; |2296| 
        MOV dbl(*SP(#0)), XAR3
        MOV *AR3, AR3 ; |2296| 
        MOV dbl(*SP(#8)), AC0 ; |2296| 
        MOV #0 << #16, AC1 ; |2296| 
        AND #0xffff, AC0, AC0 ; |2296| 
        OR AC1, AC0 ; |2296| 
        MOV AC0, port(*AR3(T0)) ; |2296| 
	.dwpsn	file "src/csl_sdio.c",line 2298,column 13,is_stmt
        MOV dbl(*SP(#0)), XAR3
        MOV #53, T0 ; |2298| 
        MOV *AR3, AR3 ; |2298| 
        MOV port(*AR3(T0)), AR1 ; |2298| 
        MOV dbl(*SP(#0)), XAR3
        MOV *AR3, AR3 ; |2298| 
        MOV dbl(*SP(#8)), AC0 ; |2298| 
        SFTL AC0, #-16, AC0 ; |2298| 
        AND #0xffff, AC0, AC0 ; |2298| 
        OR AC1, AC0 ; |2298| 
        MOV AC0, port(*AR3(T0)) ; |2298| 
	.dwpsn	file "src/csl_sdio.c",line 2301,column 13,is_stmt
        MOV dbl(*SP(#0)), XAR3
        MOV #48, T0 ; |2301| 
        MOV *AR3, AR3 ; |2301| 
        MOV #564, port(*AR3(T0)) ; |2301| 
        MOV #8, T0
$C$L135:    
$C$DW$L$_SDIO_readSingleByte$5$B:
	.dwpsn	file "src/csl_sdio.c",line 2305,column 5,is_stmt
        MOV dbl(*SP(#0)), XAR3
        MOV *AR3, AR3 ; |2305| 
        MOV port(*AR3(T0)), AR1 ; |2305| 
        MOV AR1, *SP(#16) ; |2305| 
        NOP
        NOP
        NOP
	.dwpsn	file "src/csl_sdio.c",line 2306,column 5,is_stmt
        BAND *SP(#16), #144, TC1 ; |2306| 
        BCC $C$L137,!TC1 ; |2306| 
                                        ; branchcc occurs ; |2306| 
$C$DW$L$_SDIO_readSingleByte$5$E:
	.dwpsn	file "src/csl_sdio.c",line 2308,column 6,is_stmt
        BTST #4, *SP(#16), TC1 ; |2308| 
        BCC $C$L136,!TC1 ; |2308| 
                                        ; branchcc occurs ; |2308| 
	.dwpsn	file "src/csl_sdio.c",line 2310,column 7,is_stmt
        MOV #-16, T0 ; |2310| 
        B $C$L140 ; |2310| 
                                        ; branch occurs ; |2310| 
$C$L136:    
	.dwpsn	file "src/csl_sdio.c",line 2314,column 7,is_stmt
        MOV #-17, T0 ; |2314| 
        B $C$L140 ; |2314| 
                                        ; branch occurs ; |2314| 
$C$L137:    
$C$DW$L$_SDIO_readSingleByte$10$B:
	.dwpsn	file "src/csl_sdio.c",line 2318,column 12,is_stmt
        BTST #2, *SP(#16), TC1 ; |2318| 
        BCC $C$L135,!TC1 ; |2318| 
                                        ; branchcc occurs ; |2318| 
$C$DW$L$_SDIO_readSingleByte$10$E:
	.dwpsn	file "src/csl_sdio.c",line 2320,column 13,is_stmt
        MOV dbl(*SP(#0)), XAR3
        MOV #68, T0 ; |2320| 
        MOV *AR3, AR3 ; |2320| 
        MOV port(*AR3(T0)), AR1 ; |2320| 
        MOV AR1, *SP(#15) ; |2320| 
	.dwpsn	file "src/csl_sdio.c",line 2321,column 13,is_stmt
        MOV dbl(*SP(#6)), XAR3
        MOV uns(low_byte(*SP(#15))), AR1 ; |2321| 
        MOV AR1, *AR3 ; |2321| 
	.dwpsn	file "src/csl_sdio.c",line 2323,column 13,is_stmt
        MOV #0, *SP(#14) ; |2323| 
	.dwpsn	file "src/csl_sdio.c",line 2324,column 9,is_stmt
        B $C$L139 ; |2324| 
                                        ; branch occurs ; |2324| 
$C$L138:    
	.dwpsn	file "src/csl_sdio.c",line 2327,column 13,is_stmt
        MOV #-6, *SP(#14) ; |2327| 
$C$L139:    
	.dwpsn	file "src/csl_sdio.c",line 2331,column 5,is_stmt
        MOV *SP(#14), T0 ; |2331| 
$C$L140:    
	.dwpsn	file "src/csl_sdio.c",line 2332,column 1,is_stmt
        AADD #17, SP
	.dwcfi	cfa_offset, 1
$C$DW$227	.dwtag  DW_TAG_TI_branch
	.dwattr $C$DW$227, DW_AT_low_pc(0x00)
	.dwattr $C$DW$227, DW_AT_TI_return
        RET
                                        ; return occurs

$C$DW$228	.dwtag  DW_TAG_TI_loop
	.dwattr $C$DW$228, DW_AT_name("/home/santiago/dspfuzz/on_board/library/csl_sdio.asm:$C$L135:1:1714639451")
	.dwattr $C$DW$228, DW_AT_TI_begin_file("src/csl_sdio.c")
	.dwattr $C$DW$228, DW_AT_TI_begin_line(0x8ff)
	.dwattr $C$DW$228, DW_AT_TI_end_line(0x90e)
$C$DW$229	.dwtag  DW_TAG_TI_loop_range
	.dwattr $C$DW$229, DW_AT_low_pc($C$DW$L$_SDIO_readSingleByte$5$B)
	.dwattr $C$DW$229, DW_AT_high_pc($C$DW$L$_SDIO_readSingleByte$5$E)
$C$DW$230	.dwtag  DW_TAG_TI_loop_range
	.dwattr $C$DW$230, DW_AT_low_pc($C$DW$L$_SDIO_readSingleByte$10$B)
	.dwattr $C$DW$230, DW_AT_high_pc($C$DW$L$_SDIO_readSingleByte$10$E)
	.dwendtag $C$DW$228

	.dwattr $C$DW$212, DW_AT_TI_end_file("src/csl_sdio.c")
	.dwattr $C$DW$212, DW_AT_TI_end_line(0x91c)
	.dwattr $C$DW$212, DW_AT_TI_end_column(0x01)
	.dwendentry
	.dwendtag $C$DW$212

	.sect	".text"
	.global	_SDIO_writeSingleByte

$C$DW$231	.dwtag  DW_TAG_subprogram, DW_AT_name("SDIO_writeSingleByte")
	.dwattr $C$DW$231, DW_AT_low_pc(_SDIO_writeSingleByte)
	.dwattr $C$DW$231, DW_AT_high_pc(0x00)
	.dwattr $C$DW$231, DW_AT_TI_symbol_name("_SDIO_writeSingleByte")
	.dwattr $C$DW$231, DW_AT_external
	.dwattr $C$DW$231, DW_AT_type(*$C$DW$T$57)
	.dwattr $C$DW$231, DW_AT_TI_begin_file("src/csl_sdio.c")
	.dwattr $C$DW$231, DW_AT_TI_begin_line(0x95d)
	.dwattr $C$DW$231, DW_AT_TI_begin_column(0x0c)
	.dwattr $C$DW$231, DW_AT_TI_max_frame_size(0x10)
	.dwpsn	file "src/csl_sdio.c",line 2401,column 1,is_stmt,address _SDIO_writeSingleByte

	.dwfde $C$DW$CIE, _SDIO_writeSingleByte
$C$DW$232	.dwtag  DW_TAG_formal_parameter, DW_AT_name("hSdio")
	.dwattr $C$DW$232, DW_AT_TI_symbol_name("_hSdio")
	.dwattr $C$DW$232, DW_AT_type(*$C$DW$T$55)
	.dwattr $C$DW$232, DW_AT_location[DW_OP_reg17]
$C$DW$233	.dwtag  DW_TAG_formal_parameter, DW_AT_name("writeAddr")
	.dwattr $C$DW$233, DW_AT_TI_symbol_name("_writeAddr")
	.dwattr $C$DW$233, DW_AT_type(*$C$DW$T$26)
	.dwattr $C$DW$233, DW_AT_location[DW_OP_reg0]
$C$DW$234	.dwtag  DW_TAG_formal_parameter, DW_AT_name("funNum")
	.dwattr $C$DW$234, DW_AT_TI_symbol_name("_funNum")
	.dwattr $C$DW$234, DW_AT_type(*$C$DW$T$27)
	.dwattr $C$DW$234, DW_AT_location[DW_OP_reg12]
$C$DW$235	.dwtag  DW_TAG_formal_parameter, DW_AT_name("writeData")
	.dwattr $C$DW$235, DW_AT_TI_symbol_name("_writeData")
	.dwattr $C$DW$235, DW_AT_type(*$C$DW$T$27)
	.dwattr $C$DW$235, DW_AT_location[DW_OP_reg13]
;*******************************************************************************
;* FUNCTION NAME: SDIO_writeSingleByte                                         *
;*                                                                             *
;*   Function Uses Regs : AC0,AC0,AC1,AC1,T0,T1,AR0,XAR0,AR1,AR2,AR3,XAR3,SP,  *
;*                        CARRY,TC1,M40,SATA,SATD,RDM,FRCT,SMUL                *
;*   Stack Frame        : Compact (No Frame Pointer, w/ debug)                 *
;*   Total Frame Size   : 16 words                                             *
;*                        (2 return address/alignment)                         *
;*                        (14 local values)                                    *
;*   Min System Stack   : 1 word                                               *
;*******************************************************************************
_SDIO_writeSingleByte:
	.dwcfi	cfa_offset, 1
	.dwcfi	save_reg_to_mem, 91, -1
        AADD #-15, SP
	.dwcfi	cfa_offset, 16
$C$DW$236	.dwtag  DW_TAG_variable, DW_AT_name("hSdio")
	.dwattr $C$DW$236, DW_AT_TI_symbol_name("_hSdio")
	.dwattr $C$DW$236, DW_AT_type(*$C$DW$T$55)
	.dwattr $C$DW$236, DW_AT_location[DW_OP_bregx 0x24 0]
$C$DW$237	.dwtag  DW_TAG_variable, DW_AT_name("writeAddr")
	.dwattr $C$DW$237, DW_AT_TI_symbol_name("_writeAddr")
	.dwattr $C$DW$237, DW_AT_type(*$C$DW$T$26)
	.dwattr $C$DW$237, DW_AT_location[DW_OP_bregx 0x24 2]
$C$DW$238	.dwtag  DW_TAG_variable, DW_AT_name("funNum")
	.dwattr $C$DW$238, DW_AT_TI_symbol_name("_funNum")
	.dwattr $C$DW$238, DW_AT_type(*$C$DW$T$27)
	.dwattr $C$DW$238, DW_AT_location[DW_OP_bregx 0x24 4]
$C$DW$239	.dwtag  DW_TAG_variable, DW_AT_name("writeData")
	.dwattr $C$DW$239, DW_AT_TI_symbol_name("_writeData")
	.dwattr $C$DW$239, DW_AT_type(*$C$DW$T$27)
	.dwattr $C$DW$239, DW_AT_location[DW_OP_bregx 0x24 5]
$C$DW$240	.dwtag  DW_TAG_variable, DW_AT_name("argument")
	.dwattr $C$DW$240, DW_AT_TI_symbol_name("_argument")
	.dwattr $C$DW$240, DW_AT_type(*$C$DW$T$26)
	.dwattr $C$DW$240, DW_AT_location[DW_OP_bregx 0x24 6]
$C$DW$241	.dwtag  DW_TAG_variable, DW_AT_name("rawFlag")
	.dwattr $C$DW$241, DW_AT_TI_symbol_name("_rawFlag")
	.dwattr $C$DW$241, DW_AT_type(*$C$DW$T$26)
	.dwattr $C$DW$241, DW_AT_location[DW_OP_bregx 0x24 8]
$C$DW$242	.dwtag  DW_TAG_variable, DW_AT_name("rwFlag")
	.dwattr $C$DW$242, DW_AT_TI_symbol_name("_rwFlag")
	.dwattr $C$DW$242, DW_AT_type(*$C$DW$T$26)
	.dwattr $C$DW$242, DW_AT_location[DW_OP_bregx 0x24 10]
$C$DW$243	.dwtag  DW_TAG_variable, DW_AT_name("status")
	.dwattr $C$DW$243, DW_AT_TI_symbol_name("_status")
	.dwattr $C$DW$243, DW_AT_type(*$C$DW$T$57)
	.dwattr $C$DW$243, DW_AT_location[DW_OP_bregx 0x24 12]
$C$DW$244	.dwtag  DW_TAG_variable, DW_AT_name("statusReg")
	.dwattr $C$DW$244, DW_AT_TI_symbol_name("_statusReg")
	.dwattr $C$DW$244, DW_AT_type(*$C$DW$T$20)
	.dwattr $C$DW$244, DW_AT_location[DW_OP_bregx 0x24 13]
        MOV T1, *SP(#5) ; |2401| 
        MOV T0, *SP(#4) ; |2401| 
        MOV AC0, dbl(*SP(#2)) ; |2401| 
        MOV XAR0, dbl(*SP(#0))
	.dwpsn	file "src/csl_sdio.c",line 2408,column 5,is_stmt
        MOV #0, AC0 ; |2408| 
        MOV AC0, dbl(*SP(#6)) ; |2408| 
	.dwpsn	file "src/csl_sdio.c",line 2409,column 5,is_stmt
        MOV AC0, dbl(*SP(#8)) ; |2409| 
	.dwpsn	file "src/csl_sdio.c",line 2410,column 5,is_stmt
        MOV #1, AC0 ; |2410| 
        MOV AC0, dbl(*SP(#10)) ; |2410| 
	.dwpsn	file "src/csl_sdio.c",line 2411,column 5,is_stmt
        MOV #-5, *SP(#12) ; |2411| 
	.dwpsn	file "src/csl_sdio.c",line 2412,column 5,is_stmt
        MOV #0, *SP(#13) ; |2412| 
	.dwpsn	file "src/csl_sdio.c",line 2414,column 5,is_stmt
        MOV dbl(*SP(#0)), XAR3

        MOV XAR3, AC0
||      MOV #0, AC1 ; |2414| 

        CMPU AC1 == AC0, TC1 ; |2414| 
        BCC $C$L145,TC1 ; |2414| 
                                        ; branchcc occurs ; |2414| 
	.dwpsn	file "src/csl_sdio.c",line 2416,column 9,is_stmt

        MOV *SP(#4), AR1 ; |2416| 
||      MOV #7, AR2

        CMPU AR1 > AR2, TC1 ; |2416| 
        BCC $C$L144,TC1 ; |2416| 
                                        ; branchcc occurs ; |2416| 
	.dwpsn	file "src/csl_sdio.c",line 2418,column 13,is_stmt
        MOV #0, AC0 ; |2418| 
        MOV AC0, dbl(*SP(#6)) ; |2418| 
	.dwpsn	file "src/csl_sdio.c",line 2419,column 13,is_stmt
        MOV dbl(*SP(#2)), AC1 ; |2419| 
        MOV uns(*SP(#5)), AC0 ; |2419| 

        MOV dbl(*SP(#8)), AC1 ; |2419| 
||      OR AC1 << #9, AC0 ; |2419| 

        MOV uns(*SP(#4)), AC1 ; |2419| 
||      OR AC1 << #27, AC0 ; |2419| 

        MOV dbl(*SP(#10)), AC1 ; |2419| 
||      OR AC1 << #28, AC0 ; |2419| 

        OR AC1 << #31, AC0 ; |2419| 
        MOV AC0, dbl(*SP(#6)) ; |2419| 
	.dwpsn	file "src/csl_sdio.c",line 2422,column 13,is_stmt
        MOV dbl(*SP(#0)), XAR3
        MOV #80, T0 ; |2422| 
        MOV *AR3, AR3 ; |2422| 
        MOV port(*AR3(T0)), AR1 ; |2422| 
        MOV dbl(*SP(#0)), XAR3
        MOV *AR3, AR3 ; |2422| 
        AND #0xffc0, AR1, AC0 ; |2422| 
        MOV AC0, port(*AR3(T0)) ; |2422| 
	.dwpsn	file "src/csl_sdio.c",line 2424,column 13,is_stmt
        MOV dbl(*SP(#0)), XAR3
        MOV #52, T0 ; |2424| 
        MOV *AR3, AR3 ; |2424| 
        MOV port(*AR3(T0)), AR1 ; |2424| 
        MOV dbl(*SP(#0)), XAR3
        MOV *AR3, AR3 ; |2424| 
        MOV dbl(*SP(#6)), AC0 ; |2424| 
        MOV #0 << #16, AC1 ; |2424| 
        AND #0xffff, AC0, AC0 ; |2424| 
        OR AC1, AC0 ; |2424| 
        MOV AC0, port(*AR3(T0)) ; |2424| 
	.dwpsn	file "src/csl_sdio.c",line 2426,column 13,is_stmt
        MOV dbl(*SP(#0)), XAR3
        MOV #53, T0 ; |2426| 
        MOV *AR3, AR3 ; |2426| 
        MOV port(*AR3(T0)), AR1 ; |2426| 
        MOV dbl(*SP(#0)), XAR3
        MOV *AR3, AR3 ; |2426| 
        MOV dbl(*SP(#6)), AC0 ; |2426| 
        SFTL AC0, #-16, AC0 ; |2426| 
        AND #0xffff, AC0, AC0 ; |2426| 
        OR AC1, AC0 ; |2426| 
        MOV AC0, port(*AR3(T0)) ; |2426| 
	.dwpsn	file "src/csl_sdio.c",line 2429,column 13,is_stmt
        MOV dbl(*SP(#0)), XAR3
        MOV #48, T0 ; |2429| 
        MOV *AR3, AR3 ; |2429| 
        MOV #564, port(*AR3(T0)) ; |2429| 
        MOV #8, T0
$C$L141:    
$C$DW$L$_SDIO_writeSingleByte$4$B:
	.dwpsn	file "src/csl_sdio.c",line 2433,column 5,is_stmt
        MOV dbl(*SP(#0)), XAR3
        MOV *AR3, AR3 ; |2433| 
        MOV port(*AR3(T0)), AR1 ; |2433| 
        MOV AR1, *SP(#13) ; |2433| 
        NOP
        NOP
        NOP
	.dwpsn	file "src/csl_sdio.c",line 2434,column 5,is_stmt
        BAND *SP(#13), #144, TC1 ; |2434| 
        BCC $C$L143,!TC1 ; |2434| 
                                        ; branchcc occurs ; |2434| 
$C$DW$L$_SDIO_writeSingleByte$4$E:
	.dwpsn	file "src/csl_sdio.c",line 2436,column 6,is_stmt
        BTST #4, *SP(#13), TC1 ; |2436| 
        BCC $C$L142,!TC1 ; |2436| 
                                        ; branchcc occurs ; |2436| 
	.dwpsn	file "src/csl_sdio.c",line 2438,column 7,is_stmt
        MOV #-16, T0 ; |2438| 
        B $C$L146 ; |2438| 
                                        ; branch occurs ; |2438| 
$C$L142:    
	.dwpsn	file "src/csl_sdio.c",line 2442,column 7,is_stmt
        MOV #-17, T0 ; |2442| 
        B $C$L146 ; |2442| 
                                        ; branch occurs ; |2442| 
$C$L143:    
$C$DW$L$_SDIO_writeSingleByte$9$B:
	.dwpsn	file "src/csl_sdio.c",line 2446,column 12,is_stmt
        BTST #2, *SP(#13), TC1 ; |2446| 
        BCC $C$L141,!TC1 ; |2446| 
                                        ; branchcc occurs ; |2446| 
$C$DW$L$_SDIO_writeSingleByte$9$E:
	.dwpsn	file "src/csl_sdio.c",line 2448,column 13,is_stmt
        MOV #0, *SP(#12) ; |2448| 
	.dwpsn	file "src/csl_sdio.c",line 2449,column 9,is_stmt
        B $C$L145 ; |2449| 
                                        ; branch occurs ; |2449| 
$C$L144:    
	.dwpsn	file "src/csl_sdio.c",line 2452,column 13,is_stmt
        MOV #-6, *SP(#12) ; |2452| 
$C$L145:    
	.dwpsn	file "src/csl_sdio.c",line 2456,column 5,is_stmt
        MOV *SP(#12), T0 ; |2456| 
$C$L146:    
	.dwpsn	file "src/csl_sdio.c",line 2457,column 1,is_stmt
        AADD #15, SP
	.dwcfi	cfa_offset, 1
$C$DW$245	.dwtag  DW_TAG_TI_branch
	.dwattr $C$DW$245, DW_AT_low_pc(0x00)
	.dwattr $C$DW$245, DW_AT_TI_return
        RET
                                        ; return occurs

$C$DW$246	.dwtag  DW_TAG_TI_loop
	.dwattr $C$DW$246, DW_AT_name("/home/santiago/dspfuzz/on_board/library/csl_sdio.asm:$C$L141:1:1714639451")
	.dwattr $C$DW$246, DW_AT_TI_begin_file("src/csl_sdio.c")
	.dwattr $C$DW$246, DW_AT_TI_begin_line(0x97f)
	.dwattr $C$DW$246, DW_AT_TI_end_line(0x98e)
$C$DW$247	.dwtag  DW_TAG_TI_loop_range
	.dwattr $C$DW$247, DW_AT_low_pc($C$DW$L$_SDIO_writeSingleByte$4$B)
	.dwattr $C$DW$247, DW_AT_high_pc($C$DW$L$_SDIO_writeSingleByte$4$E)
$C$DW$248	.dwtag  DW_TAG_TI_loop_range
	.dwattr $C$DW$248, DW_AT_low_pc($C$DW$L$_SDIO_writeSingleByte$9$B)
	.dwattr $C$DW$248, DW_AT_high_pc($C$DW$L$_SDIO_writeSingleByte$9$E)
	.dwendtag $C$DW$246

	.dwattr $C$DW$231, DW_AT_TI_end_file("src/csl_sdio.c")
	.dwattr $C$DW$231, DW_AT_TI_end_line(0x999)
	.dwattr $C$DW$231, DW_AT_TI_end_column(0x01)
	.dwendentry
	.dwendtag $C$DW$231

	.sect	".text"
	.global	_SDIO_readBytes

$C$DW$249	.dwtag  DW_TAG_subprogram, DW_AT_name("SDIO_readBytes")
	.dwattr $C$DW$249, DW_AT_low_pc(_SDIO_readBytes)
	.dwattr $C$DW$249, DW_AT_high_pc(0x00)
	.dwattr $C$DW$249, DW_AT_TI_symbol_name("_SDIO_readBytes")
	.dwattr $C$DW$249, DW_AT_external
	.dwattr $C$DW$249, DW_AT_type(*$C$DW$T$57)
	.dwattr $C$DW$249, DW_AT_TI_begin_file("src/csl_sdio.c")
	.dwattr $C$DW$249, DW_AT_TI_begin_line(0x9ee)
	.dwattr $C$DW$249, DW_AT_TI_begin_column(0x0c)
	.dwattr $C$DW$249, DW_AT_TI_max_frame_size(0x18)
	.dwpsn	file "src/csl_sdio.c",line 2548,column 1,is_stmt,address _SDIO_readBytes

	.dwfde $C$DW$CIE, _SDIO_readBytes
$C$DW$250	.dwtag  DW_TAG_formal_parameter, DW_AT_name("hSdio")
	.dwattr $C$DW$250, DW_AT_TI_symbol_name("_hSdio")
	.dwattr $C$DW$250, DW_AT_type(*$C$DW$T$55)
	.dwattr $C$DW$250, DW_AT_location[DW_OP_reg17]
$C$DW$251	.dwtag  DW_TAG_formal_parameter, DW_AT_name("readAddr")
	.dwattr $C$DW$251, DW_AT_TI_symbol_name("_readAddr")
	.dwattr $C$DW$251, DW_AT_type(*$C$DW$T$26)
	.dwattr $C$DW$251, DW_AT_location[DW_OP_reg0]
$C$DW$252	.dwtag  DW_TAG_formal_parameter, DW_AT_name("funNum")
	.dwattr $C$DW$252, DW_AT_TI_symbol_name("_funNum")
	.dwattr $C$DW$252, DW_AT_type(*$C$DW$T$27)
	.dwattr $C$DW$252, DW_AT_location[DW_OP_reg12]
$C$DW$253	.dwtag  DW_TAG_formal_parameter, DW_AT_name("opCode")
	.dwattr $C$DW$253, DW_AT_TI_symbol_name("_opCode")
	.dwattr $C$DW$253, DW_AT_type(*$C$DW$T$28)
	.dwattr $C$DW$253, DW_AT_location[DW_OP_reg13]
$C$DW$254	.dwtag  DW_TAG_formal_parameter, DW_AT_name("noOfBytes")
	.dwattr $C$DW$254, DW_AT_TI_symbol_name("_noOfBytes")
	.dwattr $C$DW$254, DW_AT_type(*$C$DW$T$19)
	.dwattr $C$DW$254, DW_AT_location[DW_OP_reg18]
$C$DW$255	.dwtag  DW_TAG_formal_parameter, DW_AT_name("pReadBuf")
	.dwattr $C$DW$255, DW_AT_TI_symbol_name("_pReadBuf")
	.dwattr $C$DW$255, DW_AT_type(*$C$DW$T$74)
	.dwattr $C$DW$255, DW_AT_location[DW_OP_reg21]
;*******************************************************************************
;* FUNCTION NAME: SDIO_readBytes                                               *
;*                                                                             *
;*   Function Uses Regs : AC0,AC0,AC1,AC1,T0,T1,AR0,XAR0,AR1,AR2,XAR2,AR3,XAR3,*
;*                        SP,CARRY,TC1,M40,SATA,SATD,RDM,FRCT,SMUL             *
;*   Stack Frame        : Compact (No Frame Pointer, w/ debug)                 *
;*   Total Frame Size   : 24 words                                             *
;*                        (2 return address/alignment)                         *
;*                        (22 local values)                                    *
;*   Min System Stack   : 1 word                                               *
;*******************************************************************************
_SDIO_readBytes:
	.dwcfi	cfa_offset, 1
	.dwcfi	save_reg_to_mem, 91, -1
        AADD #-23, SP
	.dwcfi	cfa_offset, 24
$C$DW$256	.dwtag  DW_TAG_variable, DW_AT_name("hSdio")
	.dwattr $C$DW$256, DW_AT_TI_symbol_name("_hSdio")
	.dwattr $C$DW$256, DW_AT_type(*$C$DW$T$55)
	.dwattr $C$DW$256, DW_AT_location[DW_OP_bregx 0x24 0]
$C$DW$257	.dwtag  DW_TAG_variable, DW_AT_name("readAddr")
	.dwattr $C$DW$257, DW_AT_TI_symbol_name("_readAddr")
	.dwattr $C$DW$257, DW_AT_type(*$C$DW$T$26)
	.dwattr $C$DW$257, DW_AT_location[DW_OP_bregx 0x24 2]
$C$DW$258	.dwtag  DW_TAG_variable, DW_AT_name("funNum")
	.dwattr $C$DW$258, DW_AT_TI_symbol_name("_funNum")
	.dwattr $C$DW$258, DW_AT_type(*$C$DW$T$27)
	.dwattr $C$DW$258, DW_AT_location[DW_OP_bregx 0x24 4]
$C$DW$259	.dwtag  DW_TAG_variable, DW_AT_name("opCode")
	.dwattr $C$DW$259, DW_AT_TI_symbol_name("_opCode")
	.dwattr $C$DW$259, DW_AT_type(*$C$DW$T$28)
	.dwattr $C$DW$259, DW_AT_location[DW_OP_bregx 0x24 5]
$C$DW$260	.dwtag  DW_TAG_variable, DW_AT_name("noOfBytes")
	.dwattr $C$DW$260, DW_AT_TI_symbol_name("_noOfBytes")
	.dwattr $C$DW$260, DW_AT_type(*$C$DW$T$19)
	.dwattr $C$DW$260, DW_AT_location[DW_OP_bregx 0x24 6]
$C$DW$261	.dwtag  DW_TAG_variable, DW_AT_name("pReadBuf")
	.dwattr $C$DW$261, DW_AT_TI_symbol_name("_pReadBuf")
	.dwattr $C$DW$261, DW_AT_type(*$C$DW$T$74)
	.dwattr $C$DW$261, DW_AT_location[DW_OP_bregx 0x24 8]
$C$DW$262	.dwtag  DW_TAG_variable, DW_AT_name("argument")
	.dwattr $C$DW$262, DW_AT_TI_symbol_name("_argument")
	.dwattr $C$DW$262, DW_AT_type(*$C$DW$T$26)
	.dwattr $C$DW$262, DW_AT_location[DW_OP_bregx 0x24 10]
$C$DW$263	.dwtag  DW_TAG_variable, DW_AT_name("status")
	.dwattr $C$DW$263, DW_AT_TI_symbol_name("_status")
	.dwattr $C$DW$263, DW_AT_type(*$C$DW$T$57)
	.dwattr $C$DW$263, DW_AT_location[DW_OP_bregx 0x24 12]
$C$DW$264	.dwtag  DW_TAG_variable, DW_AT_name("byteCount")
	.dwattr $C$DW$264, DW_AT_TI_symbol_name("_byteCount")
	.dwattr $C$DW$264, DW_AT_type(*$C$DW$T$19)
	.dwattr $C$DW$264, DW_AT_location[DW_OP_bregx 0x24 13]
$C$DW$265	.dwtag  DW_TAG_variable, DW_AT_name("count")
	.dwattr $C$DW$265, DW_AT_TI_symbol_name("_count")
	.dwattr $C$DW$265, DW_AT_type(*$C$DW$T$19)
	.dwattr $C$DW$265, DW_AT_location[DW_OP_bregx 0x24 14]
$C$DW$266	.dwtag  DW_TAG_variable, DW_AT_name("bytesRemaining")
	.dwattr $C$DW$266, DW_AT_TI_symbol_name("_bytesRemaining")
	.dwattr $C$DW$266, DW_AT_type(*$C$DW$T$19)
	.dwattr $C$DW$266, DW_AT_location[DW_OP_bregx 0x24 15]
$C$DW$267	.dwtag  DW_TAG_variable, DW_AT_name("dataByte")
	.dwattr $C$DW$267, DW_AT_TI_symbol_name("_dataByte")
	.dwattr $C$DW$267, DW_AT_type(*$C$DW$T$19)
	.dwattr $C$DW$267, DW_AT_location[DW_OP_bregx 0x24 16]
$C$DW$268	.dwtag  DW_TAG_variable, DW_AT_name("pReadReg")
	.dwattr $C$DW$268, DW_AT_TI_symbol_name("_pReadReg")
	.dwattr $C$DW$268, DW_AT_type(*$C$DW$T$86)
	.dwattr $C$DW$268, DW_AT_location[DW_OP_bregx 0x24 17]
$C$DW$269	.dwtag  DW_TAG_variable, DW_AT_name("statusReg")
	.dwattr $C$DW$269, DW_AT_TI_symbol_name("_statusReg")
	.dwattr $C$DW$269, DW_AT_type(*$C$DW$T$20)
	.dwattr $C$DW$269, DW_AT_location[DW_OP_bregx 0x24 18]
$C$DW$270	.dwtag  DW_TAG_variable, DW_AT_name("blkMode")
	.dwattr $C$DW$270, DW_AT_TI_symbol_name("_blkMode")
	.dwattr $C$DW$270, DW_AT_type(*$C$DW$T$28)
	.dwattr $C$DW$270, DW_AT_location[DW_OP_bregx 0x24 19]
$C$DW$271	.dwtag  DW_TAG_variable, DW_AT_name("rwFlag")
	.dwattr $C$DW$271, DW_AT_TI_symbol_name("_rwFlag")
	.dwattr $C$DW$271, DW_AT_type(*$C$DW$T$28)
	.dwattr $C$DW$271, DW_AT_location[DW_OP_bregx 0x24 20]
$C$DW$272	.dwtag  DW_TAG_variable, DW_AT_name("byteMode")
	.dwattr $C$DW$272, DW_AT_TI_symbol_name("_byteMode")
	.dwattr $C$DW$272, DW_AT_type(*$C$DW$T$28)
	.dwattr $C$DW$272, DW_AT_location[DW_OP_bregx 0x24 21]
        MOV XAR2, dbl(*SP(#8))
        MOV AR1, *SP(#6) ; |2548| 
        MOV T1, *SP(#5) ; |2548| 
        MOV T0, *SP(#4) ; |2548| 
        MOV AC0, dbl(*SP(#2)) ; |2548| 
        MOV XAR0, dbl(*SP(#0))
	.dwpsn	file "src/csl_sdio.c",line 2561,column 5,is_stmt
        MOV #0, AC0 ; |2561| 
        MOV AC0, dbl(*SP(#10)) ; |2561| 
	.dwpsn	file "src/csl_sdio.c",line 2562,column 5,is_stmt
        MOV #-5, *SP(#12) ; |2562| 
	.dwpsn	file "src/csl_sdio.c",line 2563,column 5,is_stmt
        MOV #0, *SP(#13) ; |2563| 
	.dwpsn	file "src/csl_sdio.c",line 2564,column 5,is_stmt
        MOV #0, *SP(#14) ; |2564| 
	.dwpsn	file "src/csl_sdio.c",line 2565,column 5,is_stmt
        MOV #0, *SP(#15) ; |2565| 
	.dwpsn	file "src/csl_sdio.c",line 2566,column 5,is_stmt
        MOV #0, *SP(#16) ; |2566| 
	.dwpsn	file "src/csl_sdio.c",line 2567,column 5,is_stmt
        MOV #0, *SP(#17) ; |2567| 
	.dwpsn	file "src/csl_sdio.c",line 2568,column 5,is_stmt
        MOV #0, *SP(#18) ; |2568| 
	.dwpsn	file "src/csl_sdio.c",line 2569,column 5,is_stmt
        MOV #0, *SP(#19) ; |2569| 
	.dwpsn	file "src/csl_sdio.c",line 2570,column 5,is_stmt
        MOV #0, *SP(#20) ; |2570| 
	.dwpsn	file "src/csl_sdio.c",line 2571,column 5,is_stmt
        MOV #0, *SP(#21) ; |2571| 
	.dwpsn	file "src/csl_sdio.c",line 2573,column 5,is_stmt
        MOV dbl(*SP(#0)), XAR3

        MOV XAR3, AC0
||      MOV #0, AC1 ; |2573| 

        CMPU AC1 == AC0, TC1 ; |2573| 
        BCC $C$L177,TC1 ; |2573| 
                                        ; branchcc occurs ; |2573| 
	.dwpsn	file "src/csl_sdio.c",line 2575,column 9,is_stmt
        MOV dbl(*SP(#8)), XAR3
        MOV XAR3, AC0
        CMPU AC1 == AC0, TC1 ; |2575| 
        BCC $C$L176,TC1 ; |2575| 
                                        ; branchcc occurs ; |2575| 
        MOV *SP(#6), AR1 ; |2575| 
        BCC $C$L176,AR1 == #0 ; |2575| 
                                        ; branchcc occurs ; |2575| 
        MOV #512, AR2 ; |2575| 
        CMPU AR1 > AR2, TC1 ; |2575| 
        BCC $C$L176,TC1 ; |2575| 
                                        ; branchcc occurs ; |2575| 

        MOV *SP(#4), AR1 ; |2575| 
||      MOV #7, AR2

        CMPU AR1 > AR2, TC1 ; |2575| 
        BCC $C$L176,TC1 ; |2575| 
                                        ; branchcc occurs ; |2575| 
	.dwpsn	file "src/csl_sdio.c",line 2579,column 13,is_stmt
        MOV *SP(#6), AR1 ; |2579| 
        MOV AR1, *SP(#15) ; |2579| 
	.dwpsn	file "src/csl_sdio.c",line 2582,column 13,is_stmt
        MOV dbl(*SP(#0)), XAR3
        MOV *AR3, AR3 ; |2582| 
        MOV port(*AR3), AR1 ; |2582| 
        MOV dbl(*SP(#0)), XAR3
        MOV *AR3(short(#4)) << #9, AC0 ; |2582| 
        MOV *AR3, AR3 ; |2582| 
        BCLR @#9, AR1 ; |2582| 
        AND #0x0200, AC0, AR2 ; |2582| 
        OR AR1, AR2 ; |2582| 
        MOV AR2, port(*AR3) ; |2582| 
	.dwpsn	file "src/csl_sdio.c",line 2586,column 13,is_stmt
        MOV dbl(*SP(#0)), XAR3
        MOV #32, T0 ; |2586| 
        MOV *AR3, AR3 ; |2586| 
        MOV port(*AR3(T0)), AR1 ; |2586| 
        MOV dbl(*SP(#0)), XAR3
        MOV *AR3, AR3 ; |2586| 
        MOV #0, AC0 ; |2586| 
        BSET @#0, AC0 ; |2586| 
        MOV AC0, port(*AR3(T0)) ; |2586| 
	.dwpsn	file "src/csl_sdio.c",line 2588,column 13,is_stmt
        MOV #32, AR2 ; |2588| 
        MOV *SP(#6), AR1 ; |2588| 
        CMPU AR1 <= AR2, TC1 ; |2588| 
        BCC $C$L147,TC1 ; |2588| 
                                        ; branchcc occurs ; |2588| 
	.dwpsn	file "src/csl_sdio.c",line 2590,column 17,is_stmt
        MOV dbl(*SP(#0)), XAR3
        MOV #28, T0 ; |2590| 
        MOV *AR3, AR3 ; |2590| 
        MOV port(*AR3(T0)), AR1 ; |2590| 
        MOV dbl(*SP(#0)), XAR3
        MOV *AR3, AR3 ; |2590| 
        AND #0xf000, AR1, AR2 ; |2590| 
        MOV *SP(#6), AR1 ; |2590| 
        AND #0x0fff, AR1, AR1 ; |2590| 
        OR AR2, AR1 ; |2590| 
        MOV AR1, port(*AR3(T0)) ; |2590| 
	.dwpsn	file "src/csl_sdio.c",line 2591,column 13,is_stmt
        B $C$L148 ; |2591| 
                                        ; branch occurs ; |2591| 
$C$L147:    
	.dwpsn	file "src/csl_sdio.c",line 2594,column 17,is_stmt
        MOV dbl(*SP(#0)), XAR3
        MOV #28, T0 ; |2594| 
        MOV *AR3, AR3 ; |2594| 
        MOV port(*AR3(T0)), AR1 ; |2594| 
        MOV dbl(*SP(#0)), XAR3
        MOV *AR3, AR3 ; |2594| 
        AND #0xf000, AR1, AC0 ; |2594| 
        BSET @#5, AC0 ; |2594| 
        MOV AC0, port(*AR3(T0)) ; |2594| 
$C$L148:    
	.dwpsn	file "src/csl_sdio.c",line 2599,column 13,is_stmt
        MOV dbl(*SP(#0)), XAR3
        MOV #116, T0 ; |2599| 
        MOV *AR3, AR3 ; |2599| 
        MOV port(*AR3(T0)), AR1 ; |2599| 
        MOV dbl(*SP(#0)), XAR3
        MOV *AR3, AR3 ; |2599| 
        BCLR @#0, AR1 ; |2599| 
        BSET @#0, AR1 ; |2599| 
        MOV AR1, port(*AR3(T0)) ; |2599| 
	.dwpsn	file "src/csl_sdio.c",line 2602,column 13,is_stmt
        MOV dbl(*SP(#0)), XAR3
        MOV *AR3, AR3 ; |2602| 
        MOV port(*AR3(T0)), AR1 ; |2602| 
        MOV dbl(*SP(#0)), XAR3
        MOV *AR3, AR3 ; |2602| 
        BCLR @#1, AR1 ; |2602| 
        MOV AR1, port(*AR3(T0)) ; |2602| 
	.dwpsn	file "src/csl_sdio.c",line 2605,column 13,is_stmt
        MOV *SP(#6), AR1 ; |2605| 

        AND #0x0001, AR1, AR1 ; |2605| 
||      MOV #0, AR2

        CMPU AR2 != AR1, TC1 ; |2605| 
        BCC $C$L149,TC1 ; |2605| 
                                        ; branchcc occurs ; |2605| 
	.dwpsn	file "src/csl_sdio.c",line 2607,column 17,is_stmt
        MOV dbl(*SP(#0)), XAR3
        MOV *AR3, AR3 ; |2607| 
        MOV port(*AR3(T0)), AR1 ; |2607| 
        MOV dbl(*SP(#0)), XAR3
        MOV *AR3, AR3 ; |2607| 
        AND #0xffe7, AR1, AC0 ; |2607| 
        BSET @#4, AC0 ; |2607| 
        MOV AC0, port(*AR3(T0)) ; |2607| 
	.dwpsn	file "src/csl_sdio.c",line 2608,column 17,is_stmt
        MOV #0, *SP(#21) ; |2608| 
	.dwpsn	file "src/csl_sdio.c",line 2609,column 13,is_stmt
        B $C$L150 ; |2609| 
                                        ; branch occurs ; |2609| 
$C$L149:    
	.dwpsn	file "src/csl_sdio.c",line 2612,column 17,is_stmt
        MOV dbl(*SP(#0)), XAR3
        MOV *AR3, AR3 ; |2612| 
        MOV port(*AR3(T0)), AR1 ; |2612| 
        MOV dbl(*SP(#0)), XAR3
        MOV *AR3, AR3 ; |2612| 
        AND #0xffe7, AR1, AR1 ; |2612| 
        OR #0x0018, AR1, AR1 ; |2612| 
        MOV AR1, port(*AR3(T0)) ; |2612| 
	.dwpsn	file "src/csl_sdio.c",line 2613,column 17,is_stmt
        MOV #1, *SP(#21) ; |2613| 
$C$L150:    
	.dwpsn	file "src/csl_sdio.c",line 2617,column 13,is_stmt
        MOV dbl(*SP(#0)), XAR3
        MOV *AR3, AR3 ; |2617| 
        MOV port(*AR3(T0)), AR1 ; |2617| 
        MOV dbl(*SP(#0)), XAR3
        MOV *AR3, AR3 ; |2617| 
        BCLR @#2, AR1 ; |2617| 
        BSET @#2, AR1 ; |2617| 
        MOV AR1, port(*AR3(T0)) ; |2617| 
	.dwpsn	file "src/csl_sdio.c",line 2619,column 13,is_stmt
        MOV dbl(*SP(#0)), XAR3
        MOV *AR3(short(#4)), AR1 ; |2619| 
        BCC $C$L151,AR1 != #0 ; |2619| 
                                        ; branchcc occurs ; |2619| 
	.dwpsn	file "src/csl_sdio.c",line 2621,column 17,is_stmt
        MOV *AR3, AR3 ; |2621| 

        MOV AR3, *SP(#17) ; |2621| 
||      AADD #40, AR3 ; |2621| 

	.dwpsn	file "src/csl_sdio.c",line 2622,column 13,is_stmt
        B $C$L152 ; |2622| 
                                        ; branch occurs ; |2622| 
$C$L151:    
	.dwpsn	file "src/csl_sdio.c",line 2625,column 17,is_stmt
        MOV *AR3, AR3 ; |2625| 

        MOV AR3, *SP(#17) ; |2625| 
||      AADD #41, AR3 ; |2625| 

$C$L152:    
	.dwpsn	file "src/csl_sdio.c",line 2629,column 13,is_stmt
        MOV #0, *SP(#19) ; |2629| 
	.dwpsn	file "src/csl_sdio.c",line 2630,column 13,is_stmt
        MOV #0, *SP(#20) ; |2630| 
	.dwpsn	file "src/csl_sdio.c",line 2632,column 13,is_stmt
        CMP *SP(#6) == #512, TC1 ; |2632| 
        BCC $C$L153,!TC1 ; |2632| 
                                        ; branchcc occurs ; |2632| 
	.dwpsn	file "src/csl_sdio.c",line 2634,column 17,is_stmt
        MOV #0, *SP(#13) ; |2634| 
	.dwpsn	file "src/csl_sdio.c",line 2635,column 13,is_stmt
        B $C$L154 ; |2635| 
                                        ; branch occurs ; |2635| 
$C$L153:    
	.dwpsn	file "src/csl_sdio.c",line 2638,column 17,is_stmt
        MOV *SP(#6), AR1 ; |2638| 
        MOV AR1, *SP(#13) ; |2638| 
$C$L154:    
	.dwpsn	file "src/csl_sdio.c",line 2641,column 13,is_stmt
        MOV #0, AC0 ; |2641| 
        MOV AC0, dbl(*SP(#10)) ; |2641| 
	.dwpsn	file "src/csl_sdio.c",line 2642,column 13,is_stmt
        MOV dbl(*SP(#2)), AC1 ; |2642| 
        MOV uns(*SP(#13)), AC0 ; |2642| 

        MOV uns(*SP(#5)), AC1 ; |2642| 
||      OR AC1 << #9, AC0 ; |2642| 

        MOV uns(*SP(#19)), AC1 ; |2642| 
||      OR AC1 << #26, AC0 ; |2642| 

        MOV uns(*SP(#4)), AC1 ; |2642| 
||      OR AC1 << #27, AC0 ; |2642| 

        MOV uns(*SP(#20)), AC1 ; |2642| 
||      OR AC1 << #28, AC0 ; |2642| 

        OR AC1 << #31, AC0 ; |2642| 
        MOV AC0, dbl(*SP(#10)) ; |2642| 
	.dwpsn	file "src/csl_sdio.c",line 2645,column 13,is_stmt
        MOV dbl(*SP(#0)), XAR3
        MOV #80, T0 ; |2645| 
        MOV *AR3, AR3 ; |2645| 
        MOV port(*AR3(T0)), AR1 ; |2645| 
        MOV dbl(*SP(#0)), XAR3
        MOV *AR3, AR3 ; |2645| 
        AND #0xffc0, AR1, AC0 ; |2645| 
        MOV AC0, port(*AR3(T0)) ; |2645| 
	.dwpsn	file "src/csl_sdio.c",line 2647,column 13,is_stmt
        MOV dbl(*SP(#0)), XAR3
        MOV #52, T0 ; |2647| 
        MOV *AR3, AR3 ; |2647| 
        MOV port(*AR3(T0)), AR1 ; |2647| 
        MOV dbl(*SP(#0)), XAR3
        MOV *AR3, AR3 ; |2647| 
        MOV dbl(*SP(#10)), AC0 ; |2647| 
        MOV #0 << #16, AC1 ; |2647| 
        AND #0xffff, AC0, AC0 ; |2647| 
        OR AC1, AC0 ; |2647| 
        MOV AC0, port(*AR3(T0)) ; |2647| 
	.dwpsn	file "src/csl_sdio.c",line 2649,column 13,is_stmt
        MOV dbl(*SP(#0)), XAR3
        MOV #53, T0 ; |2649| 
        MOV *AR3, AR3 ; |2649| 
        MOV port(*AR3(T0)), AR1 ; |2649| 
        MOV dbl(*SP(#0)), XAR3
        MOV *AR3, AR3 ; |2649| 
        MOV dbl(*SP(#10)), AC0 ; |2649| 
        SFTL AC0, #-16, AC0 ; |2649| 
        AND #0xffff, AC0, AC0 ; |2649| 
        OR AC1, AC0 ; |2649| 
        MOV AC0, port(*AR3(T0)) ; |2649| 
	.dwpsn	file "src/csl_sdio.c",line 2652,column 13,is_stmt
        MOV dbl(*SP(#0)), XAR3
        MOV #48, T0 ; |2652| 
        MOV *AR3, AR3 ; |2652| 
        MOV #8757, port(*AR3(T0)) ; |2652| 
        MOV #8, T0
$C$L155:    
$C$DW$L$_SDIO_readBytes$19$B:
	.dwpsn	file "src/csl_sdio.c",line 2656,column 5,is_stmt
        MOV dbl(*SP(#0)), XAR3
        MOV *AR3, AR3 ; |2656| 
        MOV port(*AR3(T0)), AR1 ; |2656| 
        MOV AR1, *SP(#18) ; |2656| 
        NOP
        NOP
        NOP
	.dwpsn	file "src/csl_sdio.c",line 2657,column 5,is_stmt
        BAND *SP(#18), #144, TC1 ; |2657| 
        BCC $C$L157,!TC1 ; |2657| 
                                        ; branchcc occurs ; |2657| 
$C$DW$L$_SDIO_readBytes$19$E:
	.dwpsn	file "src/csl_sdio.c",line 2659,column 6,is_stmt
        BTST #4, *SP(#18), TC1 ; |2659| 
        BCC $C$L156,!TC1 ; |2659| 
                                        ; branchcc occurs ; |2659| 
	.dwpsn	file "src/csl_sdio.c",line 2661,column 7,is_stmt
        MOV #-16, T0 ; |2661| 
        B $C$L178 ; |2661| 
                                        ; branch occurs ; |2661| 
$C$L156:    
	.dwpsn	file "src/csl_sdio.c",line 2665,column 7,is_stmt
        MOV #-17, T0 ; |2665| 
        B $C$L178 ; |2665| 
                                        ; branch occurs ; |2665| 
$C$L157:    
$C$DW$L$_SDIO_readBytes$24$B:
	.dwpsn	file "src/csl_sdio.c",line 2669,column 12,is_stmt
        BTST #2, *SP(#18), TC1 ; |2669| 
        BCC $C$L155,!TC1 ; |2669| 
                                        ; branchcc occurs ; |2669| 
$C$DW$L$_SDIO_readBytes$24$E:
	.dwpsn	file "src/csl_sdio.c",line 2671,column 13,is_stmt
        MOV #32, AR2 ; |2671| 
        MOV *SP(#6), AR1 ; |2671| 
        CMPU AR1 < AR2, TC1 ; |2671| 
        BCC $C$L165,TC1 ; |2671| 
                                        ; branchcc occurs ; |2671| 
$C$L158:    
$C$DW$L$_SDIO_readBytes$26$B:
	.dwpsn	file "src/csl_sdio.c",line 2683,column 7,is_stmt
        MOV dbl(*SP(#0)), XAR3
        MOV *AR3, AR3 ; |2683| 
        MOV port(*AR3(T0)), AR1 ; |2683| 
        MOV AR1, *SP(#18) ; |2683| 
        NOP
        NOP
        NOP
	.dwpsn	file "src/csl_sdio.c",line 2684,column 7,is_stmt
        BAND *SP(#18), #104, TC1 ; |2684| 
        BCC $C$L160,!TC1 ; |2684| 
                                        ; branchcc occurs ; |2684| 
$C$DW$L$_SDIO_readBytes$26$E:
	.dwpsn	file "src/csl_sdio.c",line 2686,column 8,is_stmt
        BTST #3, *SP(#18), TC1 ; |2686| 
        BCC $C$L159,!TC1 ; |2686| 
                                        ; branchcc occurs ; |2686| 
	.dwpsn	file "src/csl_sdio.c",line 2688,column 9,is_stmt
        MOV #-16, T0 ; |2688| 
        B $C$L178 ; |2688| 
                                        ; branch occurs ; |2688| 
$C$L159:    
	.dwpsn	file "src/csl_sdio.c",line 2692,column 9,is_stmt
        MOV #-17, T0 ; |2692| 
        B $C$L178 ; |2692| 
                                        ; branch occurs ; |2692| 
$C$L160:    
$C$DW$L$_SDIO_readBytes$31$B:
	.dwpsn	file "src/csl_sdio.c",line 2696,column 14,is_stmt
        MOV *SP(#18), AR1 ; |2696| 
        MOV #1024, AR2 ; |2696| 
        AND #0x0400, AR1, AR1 ; |2696| 
        CMPU AR1 != AR2, TC1 ; |2696| 
        BCC $C$L158,TC1 ; |2696| 
                                        ; branchcc occurs ; |2696| 
$C$DW$L$_SDIO_readBytes$31$E:
$C$DW$L$_SDIO_readBytes$32$B:
	.dwpsn	file "src/csl_sdio.c",line 2699,column 21,is_stmt

        MOV #1, AR2
||      MOV *SP(#21), AR1 ; |2699| 

        CMPU AR2 != AR1, TC1 ; |2699| 
        BCC $C$L162,TC1 ; |2699| 
                                        ; branchcc occurs ; |2699| 
$C$DW$L$_SDIO_readBytes$32$E:
$C$DW$L$_SDIO_readBytes$33$B:
	.dwpsn	file "src/csl_sdio.c",line 2701,column 30,is_stmt
        MOV #0, *SP(#14) ; |2701| 
	.dwpsn	file "src/csl_sdio.c",line 2701,column 41,is_stmt
        MOV #16, AR2 ; |2701| 
        MOV *SP(#14), AR1 ; |2701| 
        CMPU AR1 >= AR2, TC1 ; |2701| 
        BCC $C$L164,TC1 ; |2701| 
                                        ; branchcc occurs ; |2701| 
$C$DW$L$_SDIO_readBytes$33$E:
$C$L161:    
$C$DW$L$_SDIO_readBytes$34$B:
	.dwpsn	file "src/csl_sdio.c",line 2703,column 29,is_stmt
        MOV *SP(#17), AR3 ; |2703| 
        MOV dbl(*SP(#8)), XAR2
        MOV uns(low_byte(port(*AR3))), AR1 ; |2703| 
        MOV AR1, *AR2 ; |2703| 
	.dwpsn	file "src/csl_sdio.c",line 2706,column 29,is_stmt
        MOV *SP(#17), AR3 ; |2706| 
        MOV uns(low_byte(port(*AR3))), AR1 ; |2706| 
        MOV AR1, *SP(#16) ; |2706| 
	.dwpsn	file "src/csl_sdio.c",line 2709,column 29,is_stmt
        MOV dbl(*SP(#8)), XAR3

        MOV *AR3, AC0 ; |2709| 
||      MOV AR1, AC1 ; |2709| 

        OR AC1 << #8, AC0 ; |2709| 
        MOV AC0, *AR3 ; |2709| 
	.dwpsn	file "src/csl_sdio.c",line 2711,column 29,is_stmt
        SUB #2, *SP(#15) ; |2711| 
	.dwpsn	file "src/csl_sdio.c",line 2712,column 29,is_stmt
        MOV dbl(*SP(#8)), XAR3
        AMAR *AR3+
        MOV XAR3, dbl(*SP(#8))
	.dwpsn	file "src/csl_sdio.c",line 2701,column 77,is_stmt
        ADD #1, *SP(#14) ; |2701| 
	.dwpsn	file "src/csl_sdio.c",line 2701,column 41,is_stmt
        MOV #16, AR2 ; |2701| 
        MOV *SP(#14), AR1 ; |2701| 
        CMPU AR1 < AR2, TC1 ; |2701| 
        BCC $C$L161,TC1 ; |2701| 
                                        ; branchcc occurs ; |2701| 
$C$DW$L$_SDIO_readBytes$34$E:
$C$DW$L$_SDIO_readBytes$35$B:
	.dwpsn	file "src/csl_sdio.c",line 2714,column 21,is_stmt
        B $C$L164 ; |2714| 
                                        ; branch occurs ; |2714| 
$C$DW$L$_SDIO_readBytes$35$E:
$C$L162:    
$C$DW$L$_SDIO_readBytes$36$B:
	.dwpsn	file "src/csl_sdio.c",line 2717,column 30,is_stmt
        MOV #0, *SP(#14) ; |2717| 
	.dwpsn	file "src/csl_sdio.c",line 2717,column 41,is_stmt
        MOV #16, AR2 ; |2717| 
        MOV *SP(#14), AR1 ; |2717| 
        CMPU AR1 >= AR2, TC1 ; |2717| 
        BCC $C$L164,TC1 ; |2717| 
                                        ; branchcc occurs ; |2717| 
$C$DW$L$_SDIO_readBytes$36$E:
$C$L163:    
$C$DW$L$_SDIO_readBytes$37$B:
	.dwpsn	file "src/csl_sdio.c",line 2719,column 29,is_stmt
        MOV dbl(*SP(#8)), XAR2
        AMAR *AR2, XAR3
        AMAR *AR3+
        MOV XAR3, dbl(*SP(#8))
        MOV *SP(#17), AR3 ; |2719| 
        MOV port(*AR3), AR1 ; |2719| 
        MOV AR1, *AR2 ; |2719| 
	.dwpsn	file "src/csl_sdio.c",line 2721,column 29,is_stmt
        SUB #2, *SP(#15) ; |2721| 
	.dwpsn	file "src/csl_sdio.c",line 2717,column 77,is_stmt
        ADD #1, *SP(#14) ; |2717| 
	.dwpsn	file "src/csl_sdio.c",line 2717,column 41,is_stmt
        MOV #16, AR2 ; |2717| 
        MOV *SP(#14), AR1 ; |2717| 
        CMPU AR1 < AR2, TC1 ; |2717| 
        BCC $C$L163,TC1 ; |2717| 
                                        ; branchcc occurs ; |2717| 
$C$DW$L$_SDIO_readBytes$37$E:
$C$L164:    
$C$DW$L$_SDIO_readBytes$38$B:
	.dwpsn	file "src/csl_sdio.c",line 2725,column 21,is_stmt
        MOV #32, AR2 ; |2725| 
        MOV *SP(#15), AR1 ; |2725| 
        CMPU AR1 >= AR2, TC1 ; |2725| 
        BCC $C$L165,!TC1 ; |2725| 
                                        ; branchcc occurs ; |2725| 
$C$DW$L$_SDIO_readBytes$38$E:
$C$DW$L$_SDIO_readBytes$39$B:
	.dwpsn	file "src/csl_sdio.c",line 2727,column 25,is_stmt
	.dwpsn	file "src/csl_sdio.c",line 2730,column 26,is_stmt
        MOV #0, AR2
        CMPU AR2 != AR1, TC1 ; |2730| 
        BCC $C$L158,TC1 ; |2730| 
                                        ; branchcc occurs ; |2730| 
$C$DW$L$_SDIO_readBytes$39$E:
$C$L165:    
	.dwpsn	file "src/csl_sdio.c",line 2739,column 13,is_stmt

        MOV #0, AR2
||      MOV *SP(#15), AR1 ; |2739| 

        CMPU AR2 == AR1, TC1 ; |2739| 
        BCC $C$L175,TC1 ; |2739| 
                                        ; branchcc occurs ; |2739| 
	.dwpsn	file "src/csl_sdio.c",line 2745,column 17,is_stmt
        MOV *SP(#6), AR1 ; |2745| 
        MOV *SP(#15), AR2 ; |2745| 
        CMPU AR2 != AR1, TC1 ; |2745| 
        BCC $C$L169,TC1 ; |2745| 
                                        ; branchcc occurs ; |2745| 
$C$L166:    
$C$DW$L$_SDIO_readBytes$42$B:
	.dwpsn	file "src/csl_sdio.c",line 2749,column 7,is_stmt
        MOV dbl(*SP(#0)), XAR3
        MOV *AR3, AR3 ; |2749| 
        MOV port(*AR3(T0)), AR1 ; |2749| 
        MOV AR1, *SP(#18) ; |2749| 
        NOP
        NOP
        NOP
	.dwpsn	file "src/csl_sdio.c",line 2750,column 7,is_stmt
        BAND *SP(#18), #104, TC1 ; |2750| 
        BCC $C$L168,!TC1 ; |2750| 
                                        ; branchcc occurs ; |2750| 
$C$DW$L$_SDIO_readBytes$42$E:
	.dwpsn	file "src/csl_sdio.c",line 2752,column 8,is_stmt
        BTST #3, *SP(#18), TC1 ; |2752| 
        BCC $C$L167,!TC1 ; |2752| 
                                        ; branchcc occurs ; |2752| 
	.dwpsn	file "src/csl_sdio.c",line 2754,column 9,is_stmt
        MOV #-16, T0 ; |2754| 
        B $C$L178 ; |2754| 
                                        ; branch occurs ; |2754| 
$C$L167:    
	.dwpsn	file "src/csl_sdio.c",line 2758,column 9,is_stmt
        MOV #-17, T0 ; |2758| 
        B $C$L178 ; |2758| 
                                        ; branch occurs ; |2758| 
$C$L168:    
$C$DW$L$_SDIO_readBytes$47$B:
	.dwpsn	file "src/csl_sdio.c",line 2762,column 14,is_stmt
        MOV *SP(#18), AR1 ; |2762| 
        MOV #1024, AR2 ; |2762| 
        AND #0x0400, AR1, AR1 ; |2762| 
        CMPU AR1 != AR2, TC1 ; |2762| 
        BCC $C$L166,TC1 ; |2762| 
                                        ; branchcc occurs ; |2762| 
$C$DW$L$_SDIO_readBytes$47$E:
$C$L169:    
	.dwpsn	file "src/csl_sdio.c",line 2766,column 17,is_stmt

        MOV #1, AR2
||      MOV *SP(#21), AR1 ; |2766| 

        CMPU AR2 != AR1, TC1 ; |2766| 
        BCC $C$L172,TC1 ; |2766| 
                                        ; branchcc occurs ; |2766| 
	.dwpsn	file "src/csl_sdio.c",line 2769,column 26,is_stmt
        MOV #0, *SP(#14) ; |2769| 
	.dwpsn	file "src/csl_sdio.c",line 2769,column 37,is_stmt
        MOV *SP(#15), AR1 ; |2769| 

        SFTL AR1, #-1 ; |2769| 
||      MOV *SP(#14), AR2 ; |2769| 

        CMPU AR2 >= AR1, TC1 ; |2769| 
        BCC $C$L171,TC1 ; |2769| 
                                        ; branchcc occurs ; |2769| 
$C$L170:    
$C$DW$L$_SDIO_readBytes$50$B:
	.dwpsn	file "src/csl_sdio.c",line 2771,column 25,is_stmt
        MOV *SP(#17), AR3 ; |2771| 
        MOV dbl(*SP(#8)), XAR2
        MOV uns(low_byte(port(*AR3))), AR1 ; |2771| 
        MOV AR1, *AR2 ; |2771| 
	.dwpsn	file "src/csl_sdio.c",line 2774,column 25,is_stmt
        MOV *SP(#17), AR3 ; |2774| 
        MOV uns(low_byte(port(*AR3))), AR1 ; |2774| 
        MOV AR1, *SP(#16) ; |2774| 
	.dwpsn	file "src/csl_sdio.c",line 2777,column 25,is_stmt
        MOV dbl(*SP(#8)), XAR3

        MOV *AR3, AC0 ; |2777| 
||      MOV AR1, AC1 ; |2777| 

        OR AC1 << #8, AC0 ; |2777| 
        MOV AC0, *AR3 ; |2777| 
	.dwpsn	file "src/csl_sdio.c",line 2779,column 25,is_stmt
        MOV dbl(*SP(#8)), XAR3
        AMAR *AR3+
        MOV XAR3, dbl(*SP(#8))
	.dwpsn	file "src/csl_sdio.c",line 2769,column 63,is_stmt
        ADD #1, *SP(#14) ; |2769| 
	.dwpsn	file "src/csl_sdio.c",line 2769,column 37,is_stmt
        MOV *SP(#15), AR1 ; |2769| 

        SFTL AR1, #-1 ; |2769| 
||      MOV *SP(#14), AR2 ; |2769| 

        CMPU AR2 < AR1, TC1 ; |2769| 
        BCC $C$L170,TC1 ; |2769| 
                                        ; branchcc occurs ; |2769| 
$C$DW$L$_SDIO_readBytes$50$E:
$C$L171:    
	.dwpsn	file "src/csl_sdio.c",line 2783,column 21,is_stmt
        MOV *SP(#17), AR3 ; |2783| 
        MOV dbl(*SP(#8)), XAR2
        MOV uns(low_byte(port(*AR3))), AR1 ; |2783| 
        MOV AR1, *AR2 ; |2783| 
	.dwpsn	file "src/csl_sdio.c",line 2785,column 17,is_stmt
        B $C$L174 ; |2785| 
                                        ; branch occurs ; |2785| 
$C$L172:    
	.dwpsn	file "src/csl_sdio.c",line 2788,column 26,is_stmt
        MOV #0, *SP(#14) ; |2788| 
	.dwpsn	file "src/csl_sdio.c",line 2788,column 37,is_stmt
        MOV *SP(#15), AR1 ; |2788| 
        MOV *SP(#14), AR2 ; |2788| 
        SFTL AR1, #-1 ; |2788| 
        CMPU AR2 >= AR1, TC1 ; |2788| 
        BCC $C$L174,TC1 ; |2788| 
                                        ; branchcc occurs ; |2788| 
$C$L173:    
$C$DW$L$_SDIO_readBytes$53$B:
	.dwpsn	file "src/csl_sdio.c",line 2790,column 25,is_stmt
        MOV dbl(*SP(#8)), XAR2
        AMAR *AR2, XAR3
        AMAR *AR3+
        MOV XAR3, dbl(*SP(#8))
        MOV *SP(#17), AR3 ; |2790| 
        MOV port(*AR3), AR1 ; |2790| 
        MOV AR1, *AR2 ; |2790| 
	.dwpsn	file "src/csl_sdio.c",line 2788,column 63,is_stmt
        ADD #1, *SP(#14) ; |2788| 
	.dwpsn	file "src/csl_sdio.c",line 2788,column 37,is_stmt
        MOV *SP(#15), AR1 ; |2788| 

        SFTL AR1, #-1 ; |2788| 
||      MOV *SP(#14), AR2 ; |2788| 

        CMPU AR2 < AR1, TC1 ; |2788| 
        BCC $C$L173,TC1 ; |2788| 
                                        ; branchcc occurs ; |2788| 
$C$DW$L$_SDIO_readBytes$53$E:
$C$L174:    
	.dwpsn	file "src/csl_sdio.c",line 2794,column 17,is_stmt
        MOV #0, *SP(#15) ; |2794| 
$C$L175:    
	.dwpsn	file "src/csl_sdio.c",line 2797,column 4,is_stmt
        MOV dbl(*SP(#0)), XAR3
        MOV #116, T0 ; |2797| 
        MOV *AR3, AR3 ; |2797| 
        MOV port(*AR3(T0)), AR1 ; |2797| 
        MOV dbl(*SP(#0)), XAR3
        MOV *AR3, AR3 ; |2797| 
        BCLR @#0, AR1 ; |2797| 
        BSET @#0, AR1 ; |2797| 
        MOV AR1, port(*AR3(T0)) ; |2797| 
	.dwpsn	file "src/csl_sdio.c",line 2798,column 13,is_stmt
        MOV #0, *SP(#12) ; |2798| 
	.dwpsn	file "src/csl_sdio.c",line 2799,column 9,is_stmt
        B $C$L177 ; |2799| 
                                        ; branch occurs ; |2799| 
$C$L176:    
	.dwpsn	file "src/csl_sdio.c",line 2802,column 13,is_stmt
        MOV #-6, *SP(#12) ; |2802| 
$C$L177:    
	.dwpsn	file "src/csl_sdio.c",line 2806,column 5,is_stmt
        MOV *SP(#12), T0 ; |2806| 
$C$L178:    
	.dwpsn	file "src/csl_sdio.c",line 2807,column 1,is_stmt
        AADD #23, SP
	.dwcfi	cfa_offset, 1
$C$DW$273	.dwtag  DW_TAG_TI_branch
	.dwattr $C$DW$273, DW_AT_low_pc(0x00)
	.dwattr $C$DW$273, DW_AT_TI_return
        RET
                                        ; return occurs

$C$DW$274	.dwtag  DW_TAG_TI_loop
	.dwattr $C$DW$274, DW_AT_name("/home/santiago/dspfuzz/on_board/library/csl_sdio.asm:$C$L173:1:1714639451")
	.dwattr $C$DW$274, DW_AT_TI_begin_file("src/csl_sdio.c")
	.dwattr $C$DW$274, DW_AT_TI_begin_line(0xae4)
	.dwattr $C$DW$274, DW_AT_TI_end_line(0xae7)
$C$DW$275	.dwtag  DW_TAG_TI_loop_range
	.dwattr $C$DW$275, DW_AT_low_pc($C$DW$L$_SDIO_readBytes$53$B)
	.dwattr $C$DW$275, DW_AT_high_pc($C$DW$L$_SDIO_readBytes$53$E)
	.dwendtag $C$DW$274


$C$DW$276	.dwtag  DW_TAG_TI_loop
	.dwattr $C$DW$276, DW_AT_name("/home/santiago/dspfuzz/on_board/library/csl_sdio.asm:$C$L170:1:1714639451")
	.dwattr $C$DW$276, DW_AT_TI_begin_file("src/csl_sdio.c")
	.dwattr $C$DW$276, DW_AT_TI_begin_line(0xad1)
	.dwattr $C$DW$276, DW_AT_TI_end_line(0xadc)
$C$DW$277	.dwtag  DW_TAG_TI_loop_range
	.dwattr $C$DW$277, DW_AT_low_pc($C$DW$L$_SDIO_readBytes$50$B)
	.dwattr $C$DW$277, DW_AT_high_pc($C$DW$L$_SDIO_readBytes$50$E)
	.dwendtag $C$DW$276


$C$DW$278	.dwtag  DW_TAG_TI_loop
	.dwattr $C$DW$278, DW_AT_name("/home/santiago/dspfuzz/on_board/library/csl_sdio.asm:$C$L166:1:1714639451")
	.dwattr $C$DW$278, DW_AT_TI_begin_file("src/csl_sdio.c")
	.dwattr $C$DW$278, DW_AT_TI_begin_line(0xabb)
	.dwattr $C$DW$278, DW_AT_TI_end_line(0xaca)
$C$DW$279	.dwtag  DW_TAG_TI_loop_range
	.dwattr $C$DW$279, DW_AT_low_pc($C$DW$L$_SDIO_readBytes$42$B)
	.dwattr $C$DW$279, DW_AT_high_pc($C$DW$L$_SDIO_readBytes$42$E)
$C$DW$280	.dwtag  DW_TAG_TI_loop_range
	.dwattr $C$DW$280, DW_AT_low_pc($C$DW$L$_SDIO_readBytes$47$B)
	.dwattr $C$DW$280, DW_AT_high_pc($C$DW$L$_SDIO_readBytes$47$E)
	.dwendtag $C$DW$278


$C$DW$281	.dwtag  DW_TAG_TI_loop
	.dwattr $C$DW$281, DW_AT_name("/home/santiago/dspfuzz/on_board/library/csl_sdio.asm:$C$L158:1:1714639451")
	.dwattr $C$DW$281, DW_AT_TI_begin_file("src/csl_sdio.c")
	.dwattr $C$DW$281, DW_AT_TI_begin_line(0xa79)
	.dwattr $C$DW$281, DW_AT_TI_end_line(0xaaa)
$C$DW$282	.dwtag  DW_TAG_TI_loop_range
	.dwattr $C$DW$282, DW_AT_low_pc($C$DW$L$_SDIO_readBytes$26$B)
	.dwattr $C$DW$282, DW_AT_high_pc($C$DW$L$_SDIO_readBytes$26$E)
$C$DW$283	.dwtag  DW_TAG_TI_loop_range
	.dwattr $C$DW$283, DW_AT_low_pc($C$DW$L$_SDIO_readBytes$32$B)
	.dwattr $C$DW$283, DW_AT_high_pc($C$DW$L$_SDIO_readBytes$32$E)
$C$DW$284	.dwtag  DW_TAG_TI_loop_range
	.dwattr $C$DW$284, DW_AT_low_pc($C$DW$L$_SDIO_readBytes$33$B)
	.dwattr $C$DW$284, DW_AT_high_pc($C$DW$L$_SDIO_readBytes$33$E)
$C$DW$285	.dwtag  DW_TAG_TI_loop_range
	.dwattr $C$DW$285, DW_AT_low_pc($C$DW$L$_SDIO_readBytes$35$B)
	.dwattr $C$DW$285, DW_AT_high_pc($C$DW$L$_SDIO_readBytes$35$E)
$C$DW$286	.dwtag  DW_TAG_TI_loop_range
	.dwattr $C$DW$286, DW_AT_low_pc($C$DW$L$_SDIO_readBytes$36$B)
	.dwattr $C$DW$286, DW_AT_high_pc($C$DW$L$_SDIO_readBytes$36$E)
$C$DW$287	.dwtag  DW_TAG_TI_loop_range
	.dwattr $C$DW$287, DW_AT_low_pc($C$DW$L$_SDIO_readBytes$38$B)
	.dwattr $C$DW$287, DW_AT_high_pc($C$DW$L$_SDIO_readBytes$38$E)
$C$DW$288	.dwtag  DW_TAG_TI_loop_range
	.dwattr $C$DW$288, DW_AT_low_pc($C$DW$L$_SDIO_readBytes$39$B)
	.dwattr $C$DW$288, DW_AT_high_pc($C$DW$L$_SDIO_readBytes$39$E)
$C$DW$289	.dwtag  DW_TAG_TI_loop_range
	.dwattr $C$DW$289, DW_AT_low_pc($C$DW$L$_SDIO_readBytes$31$B)
	.dwattr $C$DW$289, DW_AT_high_pc($C$DW$L$_SDIO_readBytes$31$E)

$C$DW$290	.dwtag  DW_TAG_TI_loop
	.dwattr $C$DW$290, DW_AT_name("/home/santiago/dspfuzz/on_board/library/csl_sdio.asm:$C$L161:2:1714639451")
	.dwattr $C$DW$290, DW_AT_TI_begin_file("src/csl_sdio.c")
	.dwattr $C$DW$290, DW_AT_TI_begin_line(0xa8d)
	.dwattr $C$DW$290, DW_AT_TI_end_line(0xa99)
$C$DW$291	.dwtag  DW_TAG_TI_loop_range
	.dwattr $C$DW$291, DW_AT_low_pc($C$DW$L$_SDIO_readBytes$34$B)
	.dwattr $C$DW$291, DW_AT_high_pc($C$DW$L$_SDIO_readBytes$34$E)
	.dwendtag $C$DW$290


$C$DW$292	.dwtag  DW_TAG_TI_loop
	.dwattr $C$DW$292, DW_AT_name("/home/santiago/dspfuzz/on_board/library/csl_sdio.asm:$C$L163:2:1714639451")
	.dwattr $C$DW$292, DW_AT_TI_begin_file("src/csl_sdio.c")
	.dwattr $C$DW$292, DW_AT_TI_begin_line(0xa9d)
	.dwattr $C$DW$292, DW_AT_TI_end_line(0xaa2)
$C$DW$293	.dwtag  DW_TAG_TI_loop_range
	.dwattr $C$DW$293, DW_AT_low_pc($C$DW$L$_SDIO_readBytes$37$B)
	.dwattr $C$DW$293, DW_AT_high_pc($C$DW$L$_SDIO_readBytes$37$E)
	.dwendtag $C$DW$292

	.dwendtag $C$DW$281


$C$DW$294	.dwtag  DW_TAG_TI_loop
	.dwattr $C$DW$294, DW_AT_name("/home/santiago/dspfuzz/on_board/library/csl_sdio.asm:$C$L155:1:1714639451")
	.dwattr $C$DW$294, DW_AT_TI_begin_file("src/csl_sdio.c")
	.dwattr $C$DW$294, DW_AT_TI_begin_line(0xa5e)
	.dwattr $C$DW$294, DW_AT_TI_end_line(0xa6d)
$C$DW$295	.dwtag  DW_TAG_TI_loop_range
	.dwattr $C$DW$295, DW_AT_low_pc($C$DW$L$_SDIO_readBytes$19$B)
	.dwattr $C$DW$295, DW_AT_high_pc($C$DW$L$_SDIO_readBytes$19$E)
$C$DW$296	.dwtag  DW_TAG_TI_loop_range
	.dwattr $C$DW$296, DW_AT_low_pc($C$DW$L$_SDIO_readBytes$24$B)
	.dwattr $C$DW$296, DW_AT_high_pc($C$DW$L$_SDIO_readBytes$24$E)
	.dwendtag $C$DW$294

	.dwattr $C$DW$249, DW_AT_TI_end_file("src/csl_sdio.c")
	.dwattr $C$DW$249, DW_AT_TI_end_line(0xaf7)
	.dwattr $C$DW$249, DW_AT_TI_end_column(0x01)
	.dwendentry
	.dwendtag $C$DW$249

	.sect	".text"
	.global	_SDIO_writeBytes

$C$DW$297	.dwtag  DW_TAG_subprogram, DW_AT_name("SDIO_writeBytes")
	.dwattr $C$DW$297, DW_AT_low_pc(_SDIO_writeBytes)
	.dwattr $C$DW$297, DW_AT_high_pc(0x00)
	.dwattr $C$DW$297, DW_AT_TI_symbol_name("_SDIO_writeBytes")
	.dwattr $C$DW$297, DW_AT_external
	.dwattr $C$DW$297, DW_AT_type(*$C$DW$T$57)
	.dwattr $C$DW$297, DW_AT_TI_begin_file("src/csl_sdio.c")
	.dwattr $C$DW$297, DW_AT_TI_begin_line(0xb4a)
	.dwattr $C$DW$297, DW_AT_TI_begin_column(0x0c)
	.dwattr $C$DW$297, DW_AT_TI_max_frame_size(0x16)
	.dwpsn	file "src/csl_sdio.c",line 2896,column 1,is_stmt,address _SDIO_writeBytes

	.dwfde $C$DW$CIE, _SDIO_writeBytes
$C$DW$298	.dwtag  DW_TAG_formal_parameter, DW_AT_name("hSdio")
	.dwattr $C$DW$298, DW_AT_TI_symbol_name("_hSdio")
	.dwattr $C$DW$298, DW_AT_type(*$C$DW$T$55)
	.dwattr $C$DW$298, DW_AT_location[DW_OP_reg17]
$C$DW$299	.dwtag  DW_TAG_formal_parameter, DW_AT_name("writeAddr")
	.dwattr $C$DW$299, DW_AT_TI_symbol_name("_writeAddr")
	.dwattr $C$DW$299, DW_AT_type(*$C$DW$T$26)
	.dwattr $C$DW$299, DW_AT_location[DW_OP_reg0]
$C$DW$300	.dwtag  DW_TAG_formal_parameter, DW_AT_name("funNum")
	.dwattr $C$DW$300, DW_AT_TI_symbol_name("_funNum")
	.dwattr $C$DW$300, DW_AT_type(*$C$DW$T$27)
	.dwattr $C$DW$300, DW_AT_location[DW_OP_reg12]
$C$DW$301	.dwtag  DW_TAG_formal_parameter, DW_AT_name("opCode")
	.dwattr $C$DW$301, DW_AT_TI_symbol_name("_opCode")
	.dwattr $C$DW$301, DW_AT_type(*$C$DW$T$28)
	.dwattr $C$DW$301, DW_AT_location[DW_OP_reg13]
$C$DW$302	.dwtag  DW_TAG_formal_parameter, DW_AT_name("noOfBytes")
	.dwattr $C$DW$302, DW_AT_TI_symbol_name("_noOfBytes")
	.dwattr $C$DW$302, DW_AT_type(*$C$DW$T$19)
	.dwattr $C$DW$302, DW_AT_location[DW_OP_reg18]
$C$DW$303	.dwtag  DW_TAG_formal_parameter, DW_AT_name("pWriteBuf")
	.dwattr $C$DW$303, DW_AT_TI_symbol_name("_pWriteBuf")
	.dwattr $C$DW$303, DW_AT_type(*$C$DW$T$74)
	.dwattr $C$DW$303, DW_AT_location[DW_OP_reg21]
;*******************************************************************************
;* FUNCTION NAME: SDIO_writeBytes                                              *
;*                                                                             *
;*   Function Uses Regs : AC0,AC0,AC1,AC1,T0,T1,AR0,XAR0,AR1,AR2,XAR2,AR3,XAR3,*
;*                        SP,CARRY,TC1,M40,SATA,SATD,RDM,FRCT,SMUL             *
;*   Stack Frame        : Compact (No Frame Pointer, w/ debug)                 *
;*   Total Frame Size   : 22 words                                             *
;*                        (1 return address/alignment)                         *
;*                        (21 local values)                                    *
;*   Min System Stack   : 1 word                                               *
;*******************************************************************************
_SDIO_writeBytes:
	.dwcfi	cfa_offset, 1
	.dwcfi	save_reg_to_mem, 91, -1
        AADD #-21, SP
	.dwcfi	cfa_offset, 22
$C$DW$304	.dwtag  DW_TAG_variable, DW_AT_name("hSdio")
	.dwattr $C$DW$304, DW_AT_TI_symbol_name("_hSdio")
	.dwattr $C$DW$304, DW_AT_type(*$C$DW$T$55)
	.dwattr $C$DW$304, DW_AT_location[DW_OP_bregx 0x24 0]
$C$DW$305	.dwtag  DW_TAG_variable, DW_AT_name("writeAddr")
	.dwattr $C$DW$305, DW_AT_TI_symbol_name("_writeAddr")
	.dwattr $C$DW$305, DW_AT_type(*$C$DW$T$26)
	.dwattr $C$DW$305, DW_AT_location[DW_OP_bregx 0x24 2]
$C$DW$306	.dwtag  DW_TAG_variable, DW_AT_name("funNum")
	.dwattr $C$DW$306, DW_AT_TI_symbol_name("_funNum")
	.dwattr $C$DW$306, DW_AT_type(*$C$DW$T$27)
	.dwattr $C$DW$306, DW_AT_location[DW_OP_bregx 0x24 4]
$C$DW$307	.dwtag  DW_TAG_variable, DW_AT_name("opCode")
	.dwattr $C$DW$307, DW_AT_TI_symbol_name("_opCode")
	.dwattr $C$DW$307, DW_AT_type(*$C$DW$T$28)
	.dwattr $C$DW$307, DW_AT_location[DW_OP_bregx 0x24 5]
$C$DW$308	.dwtag  DW_TAG_variable, DW_AT_name("noOfBytes")
	.dwattr $C$DW$308, DW_AT_TI_symbol_name("_noOfBytes")
	.dwattr $C$DW$308, DW_AT_type(*$C$DW$T$19)
	.dwattr $C$DW$308, DW_AT_location[DW_OP_bregx 0x24 6]
$C$DW$309	.dwtag  DW_TAG_variable, DW_AT_name("pWriteBuf")
	.dwattr $C$DW$309, DW_AT_TI_symbol_name("_pWriteBuf")
	.dwattr $C$DW$309, DW_AT_type(*$C$DW$T$74)
	.dwattr $C$DW$309, DW_AT_location[DW_OP_bregx 0x24 8]
$C$DW$310	.dwtag  DW_TAG_variable, DW_AT_name("argument")
	.dwattr $C$DW$310, DW_AT_TI_symbol_name("_argument")
	.dwattr $C$DW$310, DW_AT_type(*$C$DW$T$26)
	.dwattr $C$DW$310, DW_AT_location[DW_OP_bregx 0x24 10]
$C$DW$311	.dwtag  DW_TAG_variable, DW_AT_name("status")
	.dwattr $C$DW$311, DW_AT_TI_symbol_name("_status")
	.dwattr $C$DW$311, DW_AT_type(*$C$DW$T$57)
	.dwattr $C$DW$311, DW_AT_location[DW_OP_bregx 0x24 12]
$C$DW$312	.dwtag  DW_TAG_variable, DW_AT_name("byteCount")
	.dwattr $C$DW$312, DW_AT_TI_symbol_name("_byteCount")
	.dwattr $C$DW$312, DW_AT_type(*$C$DW$T$19)
	.dwattr $C$DW$312, DW_AT_location[DW_OP_bregx 0x24 13]
$C$DW$313	.dwtag  DW_TAG_variable, DW_AT_name("count")
	.dwattr $C$DW$313, DW_AT_TI_symbol_name("_count")
	.dwattr $C$DW$313, DW_AT_type(*$C$DW$T$19)
	.dwattr $C$DW$313, DW_AT_location[DW_OP_bregx 0x24 14]
$C$DW$314	.dwtag  DW_TAG_variable, DW_AT_name("bytesRemaining")
	.dwattr $C$DW$314, DW_AT_TI_symbol_name("_bytesRemaining")
	.dwattr $C$DW$314, DW_AT_type(*$C$DW$T$19)
	.dwattr $C$DW$314, DW_AT_location[DW_OP_bregx 0x24 15]
$C$DW$315	.dwtag  DW_TAG_variable, DW_AT_name("pWriteReg")
	.dwattr $C$DW$315, DW_AT_TI_symbol_name("_pWriteReg")
	.dwattr $C$DW$315, DW_AT_type(*$C$DW$T$86)
	.dwattr $C$DW$315, DW_AT_location[DW_OP_bregx 0x24 16]
$C$DW$316	.dwtag  DW_TAG_variable, DW_AT_name("statusReg")
	.dwattr $C$DW$316, DW_AT_TI_symbol_name("_statusReg")
	.dwattr $C$DW$316, DW_AT_type(*$C$DW$T$20)
	.dwattr $C$DW$316, DW_AT_location[DW_OP_bregx 0x24 17]
$C$DW$317	.dwtag  DW_TAG_variable, DW_AT_name("blkMode")
	.dwattr $C$DW$317, DW_AT_TI_symbol_name("_blkMode")
	.dwattr $C$DW$317, DW_AT_type(*$C$DW$T$28)
	.dwattr $C$DW$317, DW_AT_location[DW_OP_bregx 0x24 18]
$C$DW$318	.dwtag  DW_TAG_variable, DW_AT_name("rwFlag")
	.dwattr $C$DW$318, DW_AT_TI_symbol_name("_rwFlag")
	.dwattr $C$DW$318, DW_AT_type(*$C$DW$T$28)
	.dwattr $C$DW$318, DW_AT_location[DW_OP_bregx 0x24 19]
$C$DW$319	.dwtag  DW_TAG_variable, DW_AT_name("byteMode")
	.dwattr $C$DW$319, DW_AT_TI_symbol_name("_byteMode")
	.dwattr $C$DW$319, DW_AT_type(*$C$DW$T$28)
	.dwattr $C$DW$319, DW_AT_location[DW_OP_bregx 0x24 20]
        MOV XAR2, dbl(*SP(#8))
        MOV AR1, *SP(#6) ; |2896| 
        MOV T1, *SP(#5) ; |2896| 
        MOV T0, *SP(#4) ; |2896| 
        MOV AC0, dbl(*SP(#2)) ; |2896| 
        MOV XAR0, dbl(*SP(#0))
	.dwpsn	file "src/csl_sdio.c",line 2908,column 5,is_stmt
        MOV #0, AC0 ; |2908| 
        MOV AC0, dbl(*SP(#10)) ; |2908| 
	.dwpsn	file "src/csl_sdio.c",line 2909,column 5,is_stmt
        MOV #-5, *SP(#12) ; |2909| 
	.dwpsn	file "src/csl_sdio.c",line 2910,column 5,is_stmt
