
Disassembly of ./on_board/DSPFuzz.out:

DATA section .cinit, 0xDF words load/run at 0xB4D5
00b4d5:               ___cinit__:
00b4d5:               cinit:
00b4d5:               .cinit:
00b4d5: 0001             .word 0x0001
00b4d6: 0133             .word 0x0133
00b4d7: 8800             .word 0x8800
00b4d8: 0000             .word 0x0000
00b4d9: 0001             .word 0x0001
00b4da: 0133             .word 0x0133
00b4db: 8900             .word 0x8900
00b4dc: 0000             .word 0x0000
00b4dd: 0002             .word 0x0002
00b4de: 0133             .word 0x0133
00b4df: 8c00             .word 0x8c00
00b4e0: 0000             .word 0x0000
00b4e1: 0000             .word 0x0000
00b4e2: 0001             .word 0x0001
00b4e3: 0135             .word 0x0135
00b4e4: 1e00             .word 0x1e00
00b4e5: 0000             .word 0x0000
00b4e6: 0002             .word 0x0002
00b4e7: 0135             .word 0x0135
00b4e8: 2000             .word 0x2000
00b4e9: 0000             .word 0x0000
00b4ea: 0000             .word 0x0000
00b4eb: 0001             .word 0x0001
00b4ec: 0135             .word 0x0135
00b4ed: 1f00             .word 0x1f00
00b4ee: 0000             .word 0x0000
00b4ef: 0001             .word 0x0001
00b4f0: 0135             .word 0x0135
00b4f1: 2200             .word 0x2200
00b4f2: 0009             .word 0x0009
00b4f3: 0001             .word 0x0001
00b4f4: 0135             .word 0x0135
00b4f5: 2300             .word 0x2300
00b4f6: 0000             .word 0x0000
00b4f7: 0001             .word 0x0001
00b4f8: 0135             .word 0x0135
00b4f9: 3400             .word 0x3400
00b4fa: 0000             .word 0x0000
00b4fb: 0001             .word 0x0001
00b4fc: 0135             .word 0x0135
00b4fd: 3500             .word 0x3500
00b4fe: 0000             .word 0x0000
00b4ff: 0001             .word 0x0001
00b500: 0135             .word 0x0135
00b501: 3600             .word 0x3600
00b502: 0000             .word 0x0000
00b503: 0001             .word 0x0001
00b504: 0135             .word 0x0135
00b505: 3700             .word 0x3700
00b506: 0000             .word 0x0000
00b507: 0001             .word 0x0001
00b508: 0135             .word 0x0135
00b509: 3800             .word 0x3800
00b50a: 0001             .word 0x0001
00b50b: 0001             .word 0x0001
00b50c: 0135             .word 0x0135
00b50d: 3900             .word 0x3900
00b50e: 01f4             .word 0x01f4
00b50f: 0002             .word 0x0002
00b510: 0135             .word 0x0135
00b511: 3a00             .word 0x3a00
00b512: 0000             .word 0x0000
00b513: 0000             .word 0x0000
00b514: 0002             .word 0x0002
00b515: 0135             .word 0x0135
00b516: 3e00             .word 0x3e00
00b517: 0000             .word 0x0000
00b518: 0000             .word 0x0000
00b519:               .cinit:
00b519: 0002             .word 0x0002
00b51a: 013a             .word 0x013a
00b51b: c400             .word 0xc400
00b51c: 0001             .word 0x0001
00b51d: 3680             .word 0x3680
00b51e: 0001             .word 0x0001
00b51f: 0143             .word 0x0143
00b520: 3600             .word 0x3600
00b521: 7e7e             .word 0x7e7e
00b522: 0002             .word 0x0002
00b523: 0143             .word 0x0143
00b524: 3800             .word 0x3800
00b525: 0000             .word 0x0000
00b526: 0000             .word 0x0000
00b527: 0002             .word 0x0002
00b528: 0143             .word 0x0143
00b529: 3a00             .word 0x3a00
00b52a: 0000             .word 0x0000
00b52b: 0000             .word 0x0000
00b52c: 0002             .word 0x0002
00b52d: 0143             .word 0x0143
00b52e: 3e00             .word 0x3e00
00b52f: 0001             .word 0x0001
00b530: 433c             .word 0x433c
00b531: 0002             .word 0x0002
00b532: 0143             .word 0x0143
00b533: 4000             .word 0x4000
00b534: 0000             .word 0x0000
00b535: 0000             .word 0x0000
00b536: 0001             .word 0x0001
00b537: 0143             .word 0x0143
00b538: 3700             .word 0x3700
00b539: 7fff             .word 0x7fff
00b53a: 0001             .word 0x0001
00b53b: 0143             .word 0x0143
00b53c: 4200             .word 0x4200
00b53d: 7fff             .word 0x7fff
00b53e: 0001             .word 0x0001
00b53f: 0143             .word 0x0143
00b540: 4300             .word 0x4300
00b541: 7fff             .word 0x7fff
00b542: 0002             .word 0x0002
00b543: 0144             .word 0x0144
00b544: 4800             .word 0x4800
00b545: 0000             .word 0x0000
00b546: 0000             .word 0x0000
00b547: 0002             .word 0x0002
00b548: 0145             .word 0x0145
00b549: 4e00             .word 0x4e00
00b54a: 0000             .word 0x0000
00b54b: 0000             .word 0x0000
00b54c: 0002             .word 0x0002
00b54d: 0145             .word 0x0145
00b54e: 5000             .word 0x5000
00b54f: 0000             .word 0x0000
00b550: 0000             .word 0x0000
00b551: 0002             .word 0x0002
00b552: 0145             .word 0x0145
00b553: 5200             .word 0x5200
00b554: 0000             .word 0x0000
00b555: 0000             .word 0x0000
00b556:               .cinit:
00b556: 002a             .word 0x002a
00b557: 0152             .word 0x0152
00b558: ba00             .word 0xba00
00b559: 0001             .word 0x0001
00b55a: 0001             .word 0x0001
00b55b: 0000             .word 0x0000
00b55c: 0000             .word 0x0000
00b55d: 0000             .word 0x0000
00b55e: 0000             .word 0x0000
00b55f: 0001             .word 0x0001
00b560: 0001             .word 0x0001
00b561: 0000             .word 0x0000
00b562: 0001             .word 0x0001
00b563: 0000             .word 0x0000
00b564: 0000             .word 0x0000
00b565: 0001             .word 0x0001
00b566: 0001             .word 0x0001
00b567: 0000             .word 0x0000
00b568: 0001             .word 0x0001
00b569: 0000             .word 0x0000
00b56a: 0000             .word 0x0000
00b56b: 0001             .word 0x0001
00b56c: 0001             .word 0x0001
00b56d: 0000             .word 0x0000
00b56e: 0001             .word 0x0001
00b56f: 0000             .word 0x0000
00b570: 0000             .word 0x0000
00b571: 0001             .word 0x0001
00b572: 0001             .word 0x0001
00b573: 0000             .word 0x0000
00b574: 0000             .word 0x0000
00b575: 0000             .word 0x0000
00b576: 0000             .word 0x0000
00b577: 0001             .word 0x0001
00b578: 0001             .word 0x0001
00b579: 0000             .word 0x0000
00b57a: 0000             .word 0x0000
00b57b: 0000             .word 0x0000
00b57c: 0000             .word 0x0000
00b57d: 0001             .word 0x0001
00b57e: 0001             .word 0x0001
00b57f: 0000             .word 0x0000
00b580: 0000             .word 0x0000
00b581: 0000             .word 0x0000
00b582: 0000             .word 0x0000
00b583:               .cinit:
00b583: 0010             .word 0x0010
00b584: 0152             .word 0x0152
00b585: e400             .word 0xe400
00b586: 0001             .word 0x0001
00b587: 83e3             .word 0x83e3
00b588: 0001             .word 0x0001
00b589: 83a9             .word 0x83a9
00b58a: 0001             .word 0x0001
00b58b: 8381             .word 0x8381
00b58c: 0001             .word 0x0001
00b58d: 8321             .word 0x8321
00b58e: 0001             .word 0x0001
00b58f: 82f1             .word 0x82f1
00b590: 0001             .word 0x0001
00b591: 82b1             .word 0x82b1
00b592: 0001             .word 0x0001
00b593: 81ce             .word 0x81ce
00b594: 0001             .word 0x0001
00b595: 80bc             .word 0x80bc
00b596:               .cinit:
00b596: 0002             .word 0x0002
00b597: 0152             .word 0x0152
00b598: fa00             .word 0xfa00
00b599: 0001             .word 0x0001
00b59a: 698d             .word 0x698d
00b59b: 0002             .word 0x0002
00b59c: 0152             .word 0x0152
00b59d: fc00             .word 0xfc00
00b59e: 0001             .word 0x0001
00b59f: 698d             .word 0x698d
00b5a0:               .cinit:
00b5a0: 0002             .word 0x0002
00b5a1: 0152             .word 0x0152
00b5a2: fe00             .word 0xfe00
00b5a3: 0000             .word 0x0000
00b5a4: 0000             .word 0x0000
00b5a5: 0002             .word 0x0002
00b5a6: 0153             .word 0x0153
00b5a7: 0000             .word 0x0000
00b5a8: 0000             .word 0x0000
00b5a9: 0000             .word 0x0000
00b5aa:               .cinit:
00b5aa: 0002             .word 0x0002
00b5ab: 0153             .word 0x0153
00b5ac: 0200             .word 0x0200
00b5ad: 0000             .word 0x0000
00b5ae: 0001             .word 0x0001
00b5af:               .cinit:
00b5af: 0001             .word 0x0001
00b5b0: 0152             .word 0x0152
00b5b1: f900             .word 0xf900
00b5b2: 0001             .word 0x0001
00b5b3: 0000             .word 0x0000

TEXT section .text, 0x69AA bytes load/run at 0x10000
010000:               _telecom_test:
010000: 6c016056         CALL _coverage_log
010004: 4ef1             AADD #-15,SP
010006: c404             MOV T0,@#02h
010008: eb0085           MOV XAR0,dbl(@#00h)
01000b: ec31be013ac6     AMAR *(#013ac6h),XAR3
010011: eb08b5           MOV XAR3,dbl(@#04h)
010014: 20               NOP
010015: 20               NOP
010016: 20               NOP
010017: ec31be013d46     AMAR *(#013d46h),XAR3
01001d: eb0cb5           MOV XAR3,dbl(@#06h)
010020: ed008f           MOV dbl(@#00h),XAR0
010023: 08037c           CALL _vpe_sim_init
010026: ed008f           MOV dbl(@#00h),XAR0
010029: 0804b4           CALL _vpe_sim_read_cfg
01002c: ed31bf013ac4     MOV dbl(*(#013ac4h)),XAR3
010032: a961             MOV *AR3,AR1
010034: 6499             BCC $C$L1,AR1 != #0
010036: 6c016056         CALL _coverage_log
01003a: 3c14             MOV #1,T0
01003c: 06035b           B $C$L17
01003f:               $C$L1:
01003f: 6c016056         CALL _coverage_log
010043: ed008f           MOV dbl(@#00h),XAR0
010046: 08058a           CALL _vpe_init
010049: c41a             MOV T0,@#0dh
01004b: 2249             MOV T0,AR1
01004d: 6d490349         BCC $C$L17,AR1 > #0
010051: 6c016056         CALL _coverage_log
010055: ed31bf013ac4     MOV dbl(*(#013ac4h)),XAR3
01005b: e66d010340       MOV #1,*AR3(#0340h)
010060: e61400           MOV #0,@#0ah
010063: e61600           MOV #0,@#0bh
010066: 080ccd           CALL _vpe_sim_flush_cache
010069: ed31bf013ac4     MOV dbl(*(#013ac4h)),XAR3
01006f: a96d0010         MOV *AR3(#0010h),AR1
010073: 04094a           BCC $C$L3,AR1 == #0
010076: 6c016056         CALL _coverage_log
01007a: a96d0011         MOV *AR3(#0011h),AR1
01007e: 040925           BCC $C$L2,AR1 == #0
010081: 6c016056         CALL _coverage_log
010085: e66d000011       MOV #0,*AR3(#0011h)
01008a: ed319f013ac4     MOV dbl(*(#013ac4h)),XAR1
010090: ed31bf013ac4     MOV dbl(*(#013ac4h)),XAR3
010096: ed318f014552     MOV dbl(*(#014552h)),XAR0
01009c: 142494           AADD #36,AR1
01009f: a46d0015         MOV *AR3(#0015h),T0
0100a3: 080b25           CALL _vpe_sim_set_sgn
0100a6:               $C$L2:
0100a6: 6c016056         CALL _coverage_log
0100aa: ed31bf013ac4     MOV dbl(*(#013ac4h)),XAR3
0100b0: ed089f           MOV dbl(@#04h),XAR1
0100b3: ed318f014552     MOV dbl(*(#014552h)),XAR0
0100b9: a46d0342         MOV *AR3(#0342h),T0
0100bd: 080c35           CALL _vpe_sim_gen_frame
0100c0:               $C$L3:
0100c0: 6c016056         CALL _coverage_log
0100c4: e61800           MOV #0,@#0ch
0100c7: ed31bf013ac4     MOV dbl(*(#013ac4h)),XAR3
0100cd: aa18             MOV @#0ch,AR2
0100cf: a96d0342         MOV *AR3(#0342h),AR1
0100d3: 12a894_21        CMPU AR2 >= AR1, TC1 || NOP
0100d7: 046436           BCC $C$DW$L$_telecom_test$9$E,TC1
0100da: 6c016056         CALL _coverage_log
0100de:               $C$L4:
0100de: 6c016056         CALL _coverage_log
0100e2:               $C$DW$L$_telecom_test$9$B:
0100e2: ed08bf           MOV dbl(@#04h),XAR3
0100e5: a418             MOV @#0ch,T0
0100e7: 2249             MOV T0,AR1
0100e9: ec31ae013540     AMAR *(#013540h),XAR2
0100ef: 1490b0           AADD AR1,AR3
0100f2: 805d84           MOV *AR2(AR0),*AR3
0100f5: f7180001         ADD #1,@#0ch
0100f9: ed31bf013ac4     MOV dbl(*(#013ac4h)),XAR3
0100ff: aa18             MOV @#0ch,AR2
010101: a96d0342         MOV *AR3(#0342h),AR1
010105: 12a494_21        CMPU AR2 < AR1, TC1 || NOP
010109: 0464d2           BCC $C$L4,TC1
01010c: 6c016056         CALL _coverage_log
010110:               $C$DW$L$_telecom_test$9$E:
010110:               $C$L5:
010110: 6c016056         CALL _coverage_log
010114: a97b             MOV *-AR3,AR1
010116: 040920           BCC $C$L6,AR1 == #0
010119: 6c016056         CALL _coverage_log
01011d: ed089f           MOV dbl(@#04h),XAR1
010120: ed08af           MOV dbl(@#04h),XAR2
010123: ed318f01454e     MOV dbl(*(#01454eh)),XAR0
010129: 6c012964         CALL _asnrProcess
01012d: c41a             MOV T0,@#0dh
01012f: 2249             MOV T0,AR1
010131: 6d190265         BCC $C$L17,AR1 != #0
010135: 6c016056         CALL _coverage_log
010139:               $C$L6:
010139: 6c016056         CALL _coverage_log
01013d: ed31bf013ac4     MOV dbl(*(#013ac4h)),XAR3
010143: a973             MOV *(AR3+T1),AR1
010145: 6d090080         BCC $C$L8,AR1 == #0
010149: 6c016056         CALL _coverage_log
01014d: a96d0012         MOV *AR3(#0012h),AR1
010151: 040940           BCC $C$L7,AR1 == #0
010154: 6c016056         CALL _coverage_log
010158: e66d000012       MOV #0,*AR3(#0012h)
01015d: ed319f013ac4     MOV dbl(*(#013ac4h)),XAR1
010163: ed318f01433a     MOV dbl(*(#01433ah)),XAR0
010169: 141694           AADD #22,AR1
01016c: 6c015777         CALL _hlcControl
010170: c41a             MOV T0,@#0dh
010172: 2249             MOV T0,AR1
010174: 04091d           BCC $C$L7,AR1 == #0
010177: 6c016056         CALL _coverage_log
01017b: ed31bf013ac4     MOV dbl(*(#013ac4h)),XAR3
010181: e66d060341       MOV #6,*AR3(#0341h)
010186: ed31bf013ac4     MOV dbl(*(#013ac4h)),XAR3
01018c: e66100           MOV #0,*AR3
01018f: 3c64             MOV #6,T0
010191: 060206           B $C$L17
010194:               $C$L7:
010194: 6c016056         CALL _coverage_log
010198: ed089f           MOV dbl(@#04h),XAR1
01019b: ed318f01433a     MOV dbl(*(#01433ah)),XAR0
0101a1: 6c0156f8         CALL _hlcProcess
0101a5: c41a             MOV T0,@#0dh
0101a7: 2249             MOV T0,AR1
0101a9: 04091d           BCC $C$L8,AR1 == #0
0101ac: 6c016056         CALL _coverage_log
0101b0: ed31bf013ac4     MOV dbl(*(#013ac4h)),XAR3
0101b6: e66d010341       MOV #1,*AR3(#0341h)
0101bb: ed31bf013ac4     MOV dbl(*(#013ac4h)),XAR3
0101c1: e66100           MOV #0,*AR3
0101c4: 3c14             MOV #1,T0
0101c6: 0601d1           B $C$L17
0101c9:               $C$L8:
0101c9: 6c016056         CALL _coverage_log
0101cd: ed31bf013ac4     MOV dbl(*(#013ac4h)),XAR3
0101d3: a977             MOV *AR3(T1),AR1
0101d5: 040935           BCC $C$L9,AR1 == #0
0101d8: 6c016056         CALL _coverage_log
0101dc: a46d0343         MOV *AR3(#0343h),T0
0101e0: ed089f           MOV dbl(@#04h),XAR1
0101e3: ed318f014340     MOV dbl(*(#014340h)),XAR0
0101e9: 6c014b7d         CALL _snlProcess
0101ed: c41a             MOV T0,@#0dh
0101ef: ec31ae014342     AMAR *(#014342h),XAR2
0101f5: ec31be014343     AMAR *(#014343h),XAR3
0101fb: ec319e014337     AMAR *(#014337h),XAR1
010201: ed318f014340     MOV dbl(*(#014340h)),XAR0
010207: 6c014ed1         CALL _snlGetLevels
01020b: c41a             MOV T0,@#0dh
01020d:               $C$L9:
01020d: 6c016056         CALL _coverage_log
010211: ed31bf013ac4     MOV dbl(*(#013ac4h)),XAR3
010217: a979             MOV *+AR3,AR1
010219: 040947           BCC $C$L10,AR1 == #0
01021c: 6c016056         CALL _coverage_log
010220: a46d0343         MOV *AR3(#0343h),T0
010224: ed089f           MOV dbl(@#04h),XAR1
010227: ed318f014448     MOV dbl(*(#014448h)),XAR0
01022d: 6c015e6d         CALL _svdProcess
010231: c41a             MOV T0,@#0dh
010233: 9049             MOV XSP,XAR1
010235: ed318f014448     MOV dbl(*(#014448h)),XAR0
01023b: b42f0008         AMAR *+AR1(#0008h)
01023f: 6c015eac         CALL _svdGetDecision
010243: c41c             MOV T0,@#0eh
010245: ec319e014337     AMAR *(#014337h),XAR1
01024b: ed318f014448     MOV dbl(*(#014448h)),XAR0
010251: ec31ae014342     AMAR *(#014342h),XAR2
010257: ec31be014343     AMAR *(#014343h),XAR3
01025d: 6c015e9a         CALL _svdGetLevels
010261: c41a             MOV T0,@#0dh
010263:               $C$L10:
010263: 6c016056         CALL _coverage_log
010267: e61800           MOV #0,@#0ch
01026a: ed31bf013ac4     MOV dbl(*(#013ac4h)),XAR3
010270: aa18             MOV @#0ch,AR2
010272: a96d0343         MOV *AR3(#0343h),AR1
010276: 12a894_21        CMPU AR2 >= AR1, TC1 || NOP
01027a: 046433           BCC $C$DW$L$_telecom_test$24$E,TC1
01027d: 6c016056         CALL _coverage_log
010281:               $C$L11:
010281: 6c016056         CALL _coverage_log
010285:               $C$DW$L$_telecom_test$24$B:
010285: ed0cbf           MOV dbl(@#06h),XAR3
010288: a418             MOV @#0ch,T0
01028a: 2249             MOV T0,AR1
01028c: ed08af           MOV dbl(@#04h),XAR2
01028f: 1490b0           AADD AR1,AR3
010292: 805d84           MOV *AR2(AR0),*AR3
010295: f7180001         ADD #1,@#0ch
010299: ed31bf013ac4     MOV dbl(*(#013ac4h)),XAR3
01029f: aa18             MOV @#0ch,AR2
0102a1: a96d0343         MOV *AR3(#0343h),AR1
0102a5: 12a494_21        CMPU AR2 < AR1, TC1 || NOP
0102a9: 0464d5           BCC $C$L11,TC1
0102ac: 6c016056         CALL _coverage_log
0102b0:               $C$DW$L$_telecom_test$24$E:
0102b0:               $C$L12:
0102b0: 6c016056         CALL _coverage_log
0102b4: a975             MOV *(AR3-T1),AR1
0102b6: 6d09008b         BCC $C$L14,AR1 == #0
0102ba: 6c016056         CALL _coverage_log
0102be: a96d0013         MOV *AR3(#0013h),AR1
0102c2: 040941           BCC $C$L13,AR1 == #0
0102c5: 6c016056         CALL _coverage_log
0102c9: e66d000013       MOV #0,*AR3(#0013h)
0102ce: ed31bf013ac4     MOV dbl(*(#013ac4h)),XAR3
0102d4: ed318f014338     MOV dbl(*(#014338h)),XAR0
0102da: a46d0014         MOV *AR3(#0014h),T0
0102de: 6c015e04         CALL _slmControl
0102e2: c41a             MOV T0,@#0dh
0102e4: 2249             MOV T0,AR1
0102e6: 04091d           BCC $C$L13,AR1 == #0
0102e9: 6c016056         CALL _coverage_log
0102ed: ed31bf013ac4     MOV dbl(*(#013ac4h)),XAR3
0102f3: e66d090341       MOV #9,*AR3(#0341h)
0102f8: ed31bf013ac4     MOV dbl(*(#013ac4h)),XAR3
0102fe: e66100           MOV #0,*AR3
010301: 3c94             MOV #9,T0
010303: 060094           B $C$L17
010306:               $C$L13:
010306: 6c016056         CALL _coverage_log
01030a: ed31bf013ac4     MOV dbl(*(#013ac4h)),XAR3
010310: ed0c9f           MOV dbl(@#06h),XAR1
010313: ed318f014338     MOV dbl(*(#014338h)),XAR0
010319: a46d0343         MOV *AR3(#0343h),T0
01031d: 6c015d81         CALL _slmProcess
010321: c41a             MOV T0,@#0dh
010323: 2249             MOV T0,AR1
010325: 04091d           BCC $C$L14,AR1 == #0
010328: 6c016056         CALL _coverage_log
01032c: ed31bf013ac4     MOV dbl(*(#013ac4h)),XAR3
010332: e66d020341       MOV #2,*AR3(#0341h)
010337: ed31bf013ac4     MOV dbl(*(#013ac4h)),XAR3
01033d: e66100           MOV #0,*AR3
010340: 3c24             MOV #2,T0
010342: 060055           B $C$L17
010345:               $C$L14:
010345: 6c016056         CALL _coverage_log
010349: ed31bf013ac4     MOV dbl(*(#013ac4h)),XAR3
01034f: a96d0342         MOV *AR3(#0342h),AR1
010353: d61699           ADD @#0bh,AR1,AR1
010356: c916             MOV AR1,@#0bh
010358: aa16             MOV @#0bh,AR2
01035a: a96d0015         MOV *AR3(#0015h),AR1
01035e: 12a494_21        CMPU AR2 < AR1, TC1 || NOP
010362: 046411           BCC $C$L15,TC1
010365: 6c016056         CALL _coverage_log
010369: 22a0             MOV AR2,AC0
01036b: df6d0f0015       SUB uns(*AR3(#0015h)),AC0,AC0
010370: c016             MOV AC0,@#0bh
010372: f7140001         ADD #1,@#0ah
010376:               $C$L15:
010376: 6c016056         CALL _coverage_log
01037a: a97b             MOV *-AR3,AR1
01037c: 040915           BCC $C$L16,AR1 == #0
01037f: 6c016056         CALL _coverage_log
010383: 080ba4           CALL _vpe_deinstantiate_nr
010386: c41a             MOV T0,@#0dh
010388: 2249             MOV T0,AR1
01038a: 6409             BCC $C$L16,AR1 == #0
01038c: 6c016056         CALL _coverage_log
010390: 3c14             MOV #1,T0
010392: 4a06             B $C$L17
010394:               $C$L16:
010394: 6c016056         CALL _coverage_log
010398: 3c04             MOV #0,T0
01039a:               $C$L17:
01039a: 6c016056         CALL _coverage_log
01039e: 4e0f             AADD #15,SP
0103a0: 4804             RET
0103a2:               _vpe_sim_init:
0103a2: 6c016056         CALL _coverage_log
0103a6: 4efd             AADD #-3,SP
0103a8: eb0085           MOV XAR0,dbl(@#00h)
0103ab: ed31af013ac4     MOV dbl(*(#013ac4h)),XAR2
0103b1: ed00bf           MOV dbl(@#00h),XAR3
0103b4: 806104           MOV *AR3,*AR2
0103b7: ed00bf           MOV dbl(@#00h),XAR3
0103ba: a973             MOV *(AR3+T1),AR1
0103bc: ed31bf013ac4     MOV dbl(*(#013ac4h)),XAR3
0103c2: c973             MOV AR1,*(AR3+T1)
0103c4: ed00bf           MOV dbl(@#00h),XAR3
0103c7: a975             MOV *(AR3-T1),AR1
0103c9: ed31bf013ac4     MOV dbl(*(#013ac4h)),XAR3
0103cf: c975             MOV AR1,*(AR3-T1)
0103d1: ed00bf           MOV dbl(@#00h),XAR3
0103d4: a977             MOV *AR3(T1),AR1
0103d6: ed31bf013ac4     MOV dbl(*(#013ac4h)),XAR3
0103dc: c977             MOV AR1,*AR3(T1)
0103de: ed00bf           MOV dbl(@#00h),XAR3
0103e1: a979             MOV *+AR3,AR1
0103e3: ed31bf013ac4     MOV dbl(*(#013ac4h)),XAR3
0103e9: c979             MOV AR1,*+AR3
0103eb: ed00bf           MOV dbl(@#00h),XAR3
0103ee: a97b             MOV *-AR3,AR1
0103f0: ed31bf013ac4     MOV dbl(*(#013ac4h)),XAR3
0103f6: c97b             MOV AR1,*-AR3
0103f8: ed00bf           MOV dbl(@#00h),XAR3
0103fb: a97d             MOV *(AR3+AR0B),AR1
0103fd: ed31bf013ac4     MOV dbl(*(#013ac4h)),XAR3
010403: c97d             MOV AR1,*(AR3+AR0B)
010405: ed00bf           MOV dbl(@#00h),XAR3
010408: a97f             MOV *(AR3-AR0B),AR1
01040a: ed31bf013ac4     MOV dbl(*(#013ac4h)),XAR3
010410: c97f             MOV AR1,*(AR3-AR0B)
010412: ed00bf           MOV dbl(@#00h),XAR3
010415: a96d0008         MOV *AR3(#0008h),AR1
010419: ed31bf013ac4     MOV dbl(*(#013ac4h)),XAR3
01041f: c96d0008         MOV AR1,*AR3(#0008h)
010423: ed00bf           MOV dbl(@#00h),XAR3
010426: a96d0009         MOV *AR3(#0009h),AR1
01042a: ed31bf013ac4     MOV dbl(*(#013ac4h)),XAR3
010430: c96d000a         MOV AR1,*AR3(#000ah)
010434: ed31bf013ac4     MOV dbl(*(#013ac4h)),XAR3
01043a: e66d010010       MOV #1,*AR3(#0010h)
01043f: ed31bf013ac4     MOV dbl(*(#013ac4h)),XAR3
010445: e66d010011       MOV #1,*AR3(#0011h)
01044a: ed00bf           MOV dbl(@#00h),XAR3
01044d: a96d000a         MOV *AR3(#000ah),AR1
010451: ed31bf013ac4     MOV dbl(*(#013ac4h)),XAR3
010457: c96d0012         MOV AR1,*AR3(#0012h)
01045b: ed00bf           MOV dbl(@#00h),XAR3
01045e: a96d000b         MOV *AR3(#000bh),AR1
010462: ed31bf013ac4     MOV dbl(*(#013ac4h)),XAR3
010468: c96d0013         MOV AR1,*AR3(#0013h)
01046c: ed31bf013ac4     MOV dbl(*(#013ac4h)),XAR3
010472: e66d050014       MOV #5,*AR3(#0014h)
010477: ed31bf013ac4     MOV dbl(*(#013ac4h)),XAR3
01047d: 3c00             MOV #0,AC0
01047f: eb6d08000c       MOV AC0,dbl(*AR3(#000ch))
010484: ed31bf013ac4     MOV dbl(*(#013ac4h)),XAR3
01048a: e66d000341       MOV #0,*AR3(#0341h)
01048f: ed31bf013ac4     MOV dbl(*(#013ac4h)),XAR3
010495: eb6d08000e       MOV AC0,dbl(*AR3(#000eh))
01049a: ed31bf013ac4     MOV dbl(*(#013ac4h)),XAR3
0104a0: e66d02033e       MOV #2,*AR3(#033eh)
0104a5: ed31bf013ac4     MOV dbl(*(#013ac4h)),XAR3
0104ab: e66d02033f       MOV #2,*AR3(#033fh)
0104b0: ed31bf013ac4     MOV dbl(*(#013ac4h)),XAR3
0104b6: e66d000032       MOV #0,*AR3(#0032h)
0104bb: ed31bf013ac4     MOV dbl(*(#013ac4h)),XAR3
0104c1: e66d000136       MOV #0,*AR3(#0136h)
0104c6: ed31bf013ac4     MOV dbl(*(#013ac4h)),XAR3
0104cc: eb6d080034       MOV AC0,dbl(*AR3(#0034h))
0104d1: ed31bf013ac4     MOV dbl(*(#013ac4h)),XAR3
0104d7: eb6d080138       MOV AC0,dbl(*AR3(#0138h))
0104dc: 4e03             AADD #3,SP
0104de: 4804             RET
0104e0:               _vpe_sim_read_cfg:
0104e0: 6c016056         CALL _coverage_log
0104e4: 4efd             AADD #-3,SP
0104e6: eb0085           MOV XAR0,dbl(@#00h)
0104e9: ed00bf           MOV dbl(@#00h),XAR3
0104ec: a961             MOV *AR3,AR1
0104ee: c904             MOV AR1,@#02h
0104f0: ed31bf013ac4     MOV dbl(*(#013ac4h)),XAR3
0104f6: c96d0015         MOV AR1,*AR3(#0015h)
0104fa: f0043e80         CMP @#02h == #16000, TC1
0104fe: 047411           BCC $C$L18,!TC1
010501: 6c016056         CALL _coverage_log
010505: ed31bf013ac4     MOV dbl(*(#013ac4h)),XAR3
01050b: e66d010018       MOV #1,*AR3(#0018h)
010510: 4a0f             B $C$L19
010512:               $C$L18:
010512: 6c016056         CALL _coverage_log
010516: ed31bf013ac4     MOV dbl(*(#013ac4h)),XAR3
01051c: e66d000018       MOV #0,*AR3(#0018h)
010521:               $C$L19:
010521: 6c016056         CALL _coverage_log
010525: ed00bf           MOV dbl(@#00h),XAR3
010528: a96d000c         MOV *AR3(#000ch),AR1
01052c: ed31bf013ac4     MOV dbl(*(#013ac4h)),XAR3
010532: c96d0019         MOV AR1,*AR3(#0019h)
010536: ed00bf           MOV dbl(@#00h),XAR3
010539: a96d000d         MOV *AR3(#000dh),AR1
01053d: ed31bf013ac4     MOV dbl(*(#013ac4h)),XAR3
010543: c96d001a         MOV AR1,*AR3(#001ah)
010547: ed00bf           MOV dbl(@#00h),XAR3
01054a: a96d000e         MOV *AR3(#000eh),AR1
01054e: ed31bf013ac4     MOV dbl(*(#013ac4h)),XAR3
010554: c96d001b         MOV AR1,*AR3(#001bh)
010558: ed00bf           MOV dbl(@#00h),XAR3
01055b: a96d000f         MOV *AR3(#000fh),AR1
01055f: ed31bf013ac4     MOV dbl(*(#013ac4h)),XAR3
010565: c96d001c         MOV AR1,*AR3(#001ch)
010569: ed00bf           MOV dbl(@#00h),XAR3
01056c: a96d0010         MOV *AR3(#0010h),AR1
010570: ed31bf013ac4     MOV dbl(*(#013ac4h)),XAR3
010576: c96d001d         MOV AR1,*AR3(#001dh)
01057a: ed00bf           MOV dbl(@#00h),XAR3
01057d: a96d0011         MOV *AR3(#0011h),AR1
010581: ed31bf013ac4     MOV dbl(*(#013ac4h)),XAR3
010587: c96d001e         MOV AR1,*AR3(#001eh)
01058b: ed00bf           MOV dbl(@#00h),XAR3
01058e: a96d0012         MOV *AR3(#0012h),AR1
010592: ed31bf013ac4     MOV dbl(*(#013ac4h)),XAR3
010598: c96d001f         MOV AR1,*AR3(#001fh)
01059c: ed00bf           MOV dbl(@#00h),XAR3
01059f: a96d0013         MOV *AR3(#0013h),AR1
0105a3: ed31bf013ac4     MOV dbl(*(#013ac4h)),XAR3
0105a9: c96d0020         MOV AR1,*AR3(#0020h)
0105ad: ed00bf           MOV dbl(@#00h),XAR3
0105b0: a96d0014         MOV *AR3(#0014h),AR1
0105b4: ed31bf013ac4     MOV dbl(*(#013ac4h)),XAR3
0105ba: c96d0021         MOV AR1,*AR3(#0021h)
0105be: ed00bf           MOV dbl(@#00h),XAR3
0105c1: a96d0015         MOV *AR3(#0015h),AR1
0105c5: ed31bf013ac4     MOV dbl(*(#013ac4h)),XAR3
0105cb: c96d0022         MOV AR1,*AR3(#0022h)
0105cf: 4e03             AADD #3,SP
0105d1: 4804             RET
0105d3:               _vpe_init:
0105d3: 6c016056         CALL _coverage_log
0105d7: 4eed             AADD #-19,SP
0105d9: eb0085           MOV XAR0,dbl(@#00h)
0105dc: ed31bf013ac4     MOV dbl(*(#013ac4h)),XAR3
0105e2: f06d3e800015     CMP *AR3(#0015h) == #16000, TC1
0105e8: 6574             BCC $C$L20,!TC1
0105ea: 6c016056         CALL _coverage_log
0105ee: fb2000a0         MOV #160,@#10h
0105f2: 4a07             B $C$L21
0105f4:               $C$L20:
0105f4: 6c016056         CALL _coverage_log
0105f8: e62050           MOV #80,@#10h
0105fb:               $C$L21:
0105fb: 6c016056         CALL _coverage_log
0105ff: a920             MOV @#10h,AR1
010601: c96d0342         MOV AR1,*AR3(#0342h)
010605: ed31bf013ac4     MOV dbl(*(#013ac4h)),XAR3
01060b: a920             MOV @#10h,AR1
01060d: c96d0343         MOV AR1,*AR3(#0343h)
010611: ed31bf013ac4     MOV dbl(*(#013ac4h)),XAR3
010617: a97d             MOV *(AR3+AR0B),AR1
010619: 040922           BCC $C$L22,AR1 == #0
01061c: 6c016056         CALL _coverage_log
010620: a020             MOV @#10h,AC0
010622: 76800090         BFXTR #32768,AC0,AR1
010626: 2409             ADD AC0,AR1
010628: 4449             SFTS AR1,#-1
01062a: c96d0343         MOV AR1,*AR3(#0343h)
01062e: ec318e013fc6     AMAR *(#013fc6h),XAR0
010634: 76002058         MOV #32,T1
010638: 3c04             MOV #0,T0
01063a: 6c01698f         CALL _memset
01063e:               $C$L22:
01063e: 6c016056         CALL _coverage_log
010642: ed31bf013ac4     MOV dbl(*(#013ac4h)),XAR3
010648: a97f             MOV *(AR3-AR0B),AR1
01064a: 04091c           BCC $C$L23,AR1 == #0
01064d: 6c016056         CALL _coverage_log
010651: a920             MOV @#10h,AR1
010653: 5090             SFTL AR1,#1
010655: c96d0343         MOV AR1,*AR3(#0343h)
010659: ec318e014086     AMAR *(#014086h),XAR0
01065f: 76001058         MOV #16,T1
010663: 3c04             MOV #0,T0
010665: 6c01698f         CALL _memset
010669:               $C$L23:
010669: 6c016056         CALL _coverage_log
01066d: ed31bf013ac4     MOV dbl(*(#013ac4h)),XAR3
010673: a973             MOV *(AR3+T1),AR1
010675: 6d090114         BCC $C$L30,AR1 == #0
010679: 6c016056         CALL _coverage_log
01067d: 9048             MOV XSP,XAR0
01067f: b40f000a         AMAR *+AR0(#000ah)
010683: 6c015cae         CALL _hlcGetSizes
010687: c422             MOV T0,@#11h
010689: 2249             MOV T0,AR1
01068b: 04091d           BCC $C$L24,AR1 == #0
01068e: 6c016056         CALL _coverage_log
010692: ed31bf013ac4     MOV dbl(*(#013ac4h)),XAR3
010698: e66d040341       MOV #4,*AR3(#0341h)
01069d: ed31bf013ac4     MOV dbl(*(#013ac4h)),XAR3
0106a3: e66100           MOV #0,*AR3
0106a6: 3c44             MOV #4,T0
0106a8: 060459           B $C$L48
0106ab:               $C$L24:
0106ab: 6c016056         CALL _coverage_log
0106af: a414             MOV @#0ah,T0
0106b1: 6c013fb0         CALL _malloc
0106b5: eb318501433a     MOV XAR0,dbl(*(#01433ah))
0106bb: e60400           MOV #0,@#02h
0106be: f5040010         OR #16,@#02h
0106c2: ed31bf013ac4     MOV dbl(*(#013ac4h)),XAR3
0106c8: f06d1f400015     CMP *AR3(#0015h) == #8000, TC1
0106ce: 64f4             BCC $C$L25,!TC1
0106d0: 6c016056         CALL _coverage_log
0106d4: e60c01           MOV #1,@#06h
0106d7: 4a07             B $C$L26
0106d9:               $C$L25:
0106d9: 6c016056         CALL _coverage_log
0106dd: e60c02           MOV #2,@#06h
0106e0:               $C$L26:
0106e0: 6c016056         CALL _coverage_log
0106e4: 760140a8         MOV #320,AR2
0106e8: a96d0343         MOV *AR3(#0343h),AR1
0106ec: 12a494_21        CMPU AR2 < AR1, TC1 || NOP
0106f0: 046410           BCC $C$L27,TC1
0106f3: 6c016056         CALL _coverage_log
0106f7: f5040008         OR #8,@#02h
0106fb: a96d0343         MOV *AR3(#0343h),AR1
0106ff: c90e             MOV AR1,@#07h
010701: 4a17             B $C$L28
010703:               $C$L27:
010703: 6c016056         CALL _coverage_log
010707: e66d050341       MOV #5,*AR3(#0341h)
01070c: ed31bf013ac4     MOV dbl(*(#013ac4h)),XAR3
010712: e66100           MOV #0,*AR3
010715: 3c54             MOV #5,T0
010717: 0603ea           B $C$L48
01071a:               $C$L28:
01071a: 6c016056         CALL _coverage_log
01071e: 9049             MOV XSP,XAR1
010720: b42f0002         AMAR *+AR1(#0002h)
010724: 6c015bf2         CALL _hlcInit
010728: c422             MOV T0,@#11h
01072a: 2249             MOV T0,AR1
01072c: 04091d           BCC $C$L29,AR1 == #0
01072f: 6c016056         CALL _coverage_log
010733: ed31bf013ac4     MOV dbl(*(#013ac4h)),XAR3
010739: e66d050341       MOV #5,*AR3(#0341h)
01073e: ed31bf013ac4     MOV dbl(*(#013ac4h)),XAR3
010744: e66100           MOV #0,*AR3
010747: 3c54             MOV #5,T0
010749: 0603b8           B $C$L48
01074c:               $C$L29:
01074c: 6c016056         CALL _coverage_log
010750: ed31bf01433e     MOV dbl(*(#01433eh)),XAR3
010756: e66101           MOV #1,*AR3
010759: ed318f01433a     MOV dbl(*(#01433ah)),XAR0
01075f: ed319f01433e     MOV dbl(*(#01433eh)),XAR1
010765: 6c015777         CALL _hlcControl
010769: c422             MOV T0,@#11h
01076b: 2249             MOV T0,AR1
01076d: 04091d           BCC $C$L30,AR1 == #0
010770: 6c016056         CALL _coverage_log
010774: ed31bf013ac4     MOV dbl(*(#013ac4h)),XAR3
01077a: e66d070341       MOV #7,*AR3(#0341h)
01077f: ed31bf013ac4     MOV dbl(*(#013ac4h)),XAR3
010785: e66100           MOV #0,*AR3
010788: 3c74             MOV #7,T0
01078a: 060377           B $C$L48
01078d:               $C$L30:
01078d: 6c016056         CALL _coverage_log
010791: ed31bf013ac4     MOV dbl(*(#013ac4h)),XAR3
010797: a975             MOV *(AR3-T1),AR1
010799: 6d090099         BCC $C$L34,AR1 == #0
01079d: 6c016056         CALL _coverage_log
0107a1: 9048             MOV XSP,XAR0
0107a3: b40f000b         AMAR *+AR0(#000bh)
0107a7: 6c01674c         CALL _slmGetSizes
0107ab: c422             MOV T0,@#11h
0107ad: 2249             MOV T0,AR1
0107af: 04091d           BCC $C$L31,AR1 == #0
0107b2: 6c016056         CALL _coverage_log
0107b6: ed31bf013ac4     MOV dbl(*(#013ac4h)),XAR3
0107bc: e66d0a0341       MOV #10,*AR3(#0341h)
0107c1: ed31bf013ac4     MOV dbl(*(#013ac4h)),XAR3
0107c7: e66100           MOV #0,*AR3
0107ca: 3ca4             MOV #10,T0
0107cc: 060335           B $C$L48
0107cf:               $C$L31:
0107cf: 6c016056         CALL _coverage_log
0107d3: a416             MOV @#0bh,T0
0107d5: 6c013fb0         CALL _malloc
0107d9: eb3185014338     MOV XAR0,dbl(*(#014338h))
0107df: e61000           MOV #0,@#08h
0107e2: f5100001         OR #1,@#08h
0107e6: ed31bf013ac4     MOV dbl(*(#013ac4h)),XAR3
0107ec: f06d1f400015     CMP *AR3(#0015h) == #8000, TC1
0107f2: 64f4             BCC $C$L32,!TC1
0107f4: 6c016056         CALL _coverage_log
0107f8: e61202           MOV #2,@#09h
0107fb: 4a07             B $C$L33
0107fd:               $C$L32:
0107fd: 6c016056         CALL _coverage_log
010801: e61201           MOV #1,@#09h
010804:               $C$L33:
010804: 6c016056         CALL _coverage_log
010808: 9049             MOV XSP,XAR1
01080a: b42f0008         AMAR *+AR1(#0008h)
01080e: 6c016714         CALL _slmInit
010812: c422             MOV T0,@#11h
010814: 2249             MOV T0,AR1
010816: 04091d           BCC $C$L34,AR1 == #0
010819: 6c016056         CALL _coverage_log
01081d: ed31bf013ac4     MOV dbl(*(#013ac4h)),XAR3
010823: e66d080341       MOV #8,*AR3(#0341h)
010828: ed31bf013ac4     MOV dbl(*(#013ac4h)),XAR3
01082e: e66100           MOV #0,*AR3
010831: 3c84             MOV #8,T0
010833: 0602ce           B $C$L48
010836:               $C$L34:
010836: 6c016056         CALL _coverage_log
01083a: ed31bf013ac4     MOV dbl(*(#013ac4h)),XAR3
010840: a977             MOV *AR3(T1),AR1
010842: 6d0900b0         BCC $C$L39,AR1 == #0
010846: 6c016056         CALL _coverage_log
01084a: 9048             MOV XSP,XAR0
01084c: b40f000c         AMAR *+AR0(#000ch)
010850: 6c0163bc         CALL _snlGetSizes
010854: c422             MOV T0,@#11h
010856: 2249             MOV T0,AR1
010858: 04091d           BCC $C$L35,AR1 == #0
01085b: 6c016056         CALL _coverage_log
01085f: ed31bf013ac4     MOV dbl(*(#013ac4h)),XAR3
010865: e66d0b0341       MOV #11,*AR3(#0341h)
01086a: ed31bf013ac4     MOV dbl(*(#013ac4h)),XAR3
010870: e66100           MOV #0,*AR3
010873: 3cb4             MOV #11,T0
010875: 06028c           B $C$L48
010878:               $C$L35:
010878: 6c016056         CALL _coverage_log
01087c: a418             MOV @#0ch,T0
01087e: 6c013fb0         CALL _malloc
010882: eb3185014340     MOV XAR0,dbl(*(#014340h))
010888: ed31bf013ac4     MOV dbl(*(#013ac4h)),XAR3
01088e: f06d1f400015     CMP *AR3(#0015h) == #8000, TC1
010894: 64f4             BCC $C$L36,!TC1
010896: 6c016056         CALL _coverage_log
01089a: e61e01           MOV #1,@#0fh
01089d: 4a07             B $C$L37
01089f:               $C$L36:
01089f: 6c016056         CALL _coverage_log
0108a3: e61e02           MOV #2,@#0fh
0108a6:               $C$L37:
0108a6: 6c016056         CALL _coverage_log
0108aa: a41e             MOV @#0fh,T0
0108ac: 6c01635f         CALL _snlInit
0108b0: c422             MOV T0,@#11h
0108b2: 2249             MOV T0,AR1
0108b4: 04091d           BCC $C$L38,AR1 == #0
0108b7: 6c016056         CALL _coverage_log
0108bb: ed31bf013ac4     MOV dbl(*(#013ac4h)),XAR3
0108c1: e66d0c0341       MOV #12,*AR3(#0341h)
0108c6: ed31bf013ac4     MOV dbl(*(#013ac4h)),XAR3
0108cc: e66100           MOV #0,*AR3
0108cf: 3cc4             MOV #12,T0
0108d1: 060230           B $C$L48
0108d4:               $C$L38:
0108d4: 6c016056         CALL _coverage_log
0108d8: ec319e0183ca     AMAR *(#0183cah),XAR1
0108de: ec318e014348     AMAR *(#014348h),XAR0
0108e4: 6c016956         CALL _strcpy
0108e8: e63100014344     MOV #0,*(#014344h)
0108ee: 3c00             MOV #0,AC0
0108f0: eb3108014346     MOV AC0,dbl(*(#014346h))
0108f6:               $C$L39:
0108f6: 6c016056         CALL _coverage_log
0108fa: ed31bf013ac4     MOV dbl(*(#013ac4h)),XAR3
010900: a979             MOV *+AR3,AR1
010902: 6d0900b4         BCC $C$L44,AR1 == #0
010906: 6c016056         CALL _coverage_log
01090a: 9048             MOV XSP,XAR0
01090c: b40f000d         AMAR *+AR0(#000dh)
010910: 6c0164e6         CALL _svdGetSizes
010914: c422             MOV T0,@#11h
010916: 2249             MOV T0,AR1
010918: 04091f           BCC $C$L40,AR1 == #0
01091b: 6c016056         CALL _coverage_log
01091f: ed31bf013ac4     MOV dbl(*(#013ac4h)),XAR3
010925: e66d120341       MOV #18,*AR3(#0341h)
01092a: ed31bf013ac4     MOV dbl(*(#013ac4h)),XAR3
010930: e66100           MOV #0,*AR3
010933: 76001248         MOV #18,T0
010937: 0601ca           B $C$L48
01093a:               $C$L40:
01093a: 6c016056         CALL _coverage_log
01093e: a41a             MOV @#0dh,T0
010940: 6c013fb0         CALL _malloc
010944: eb3185014448     MOV XAR0,dbl(*(#014448h))
01094a: ed31bf013ac4     MOV dbl(*(#013ac4h)),XAR3
010950: f06d1f400015     CMP *AR3(#0015h) == #8000, TC1
010956: 64f4             BCC $C$L41,!TC1
010958: 6c016056         CALL _coverage_log
01095c: e61e01           MOV #1,@#0fh
01095f: 4a07             B $C$L42
010961:               $C$L41:
010961: 6c016056         CALL _coverage_log
010965: e61e02           MOV #2,@#0fh
010968:               $C$L42:
010968: 6c016056         CALL _coverage_log
01096c: a41e             MOV @#0fh,T0
01096e: 6c016495         CALL _svdInit
010972: c422             MOV T0,@#11h
010974: 2249             MOV T0,AR1
010976: 04091f           BCC $C$L43,AR1 == #0
010979: 6c016056         CALL _coverage_log
01097d: ed31bf013ac4     MOV dbl(*(#013ac4h)),XAR3
010983: e66d130341       MOV #19,*AR3(#0341h)
010988: ed31bf013ac4     MOV dbl(*(#013ac4h)),XAR3
01098e: e66100           MOV #0,*AR3
010991: 76001348         MOV #19,T0
010995: 06016c           B $C$L48
010998:               $C$L43:
010998: 6c016056         CALL _coverage_log
01099c: ec319e0183d8     AMAR *(#0183d8h),XAR1
0109a2: ec318e01444e     AMAR *(#01444eh),XAR0
0109a8: 6c016956         CALL _strcpy
0109ac: e6310001444a     MOV #0,*(#01444ah)
0109b2: 3c00             MOV #0,AC0
0109b4: eb310801444c     MOV AC0,dbl(*(#01444ch))
0109ba:               $C$L44:
0109ba: 6c016056         CALL _coverage_log
0109be: ed31bf013ac4     MOV dbl(*(#013ac4h)),XAR3
0109c4: a97b             MOV *-AR3,AR1
0109c6: 040949           BCC $C$L47,AR1 == #0
0109c9: 6c016056         CALL _coverage_log
0109cd: f06d1f400015     CMP *AR3(#0015h) == #8000, TC1
0109d3: 64f4             BCC $C$L45,!TC1
0109d5: 6c016056         CALL _coverage_log
0109d9: e61e00           MOV #0,@#0fh
0109dc: 4a07             B $C$L46
0109de:               $C$L45:
0109de: 6c016056         CALL _coverage_log
0109e2: e61e01           MOV #1,@#0fh
0109e5:               $C$L46:
0109e5: 6c016056         CALL _coverage_log
0109e9: a41e             MOV @#0fh,T0
0109eb: 08034e           CALL _vpe_instantiate_nr
0109ee: c422             MOV T0,@#11h
0109f0: 2249             MOV T0,AR1
0109f2: 6d19010e         BCC $C$L48,AR1 != #0
0109f6: 6c016056         CALL _coverage_log
0109fa: ed318f013ac4     MOV dbl(*(#013ac4h)),XAR0
010a00: 141884           AADD #24,AR0
010a03: 080495           CALL _vpe_config_nr
010a06: c422             MOV T0,@#11h
010a08: 2249             MOV T0,AR1
010a0a: 6d1900f6         BCC $C$L48,AR1 != #0
010a0e: 6c016056         CALL _coverage_log
010a12:               $C$L47:
010a12: 6c016056         CALL _coverage_log
010a16: ed00bf           MOV dbl(@#00h),XAR3
010a19: a96d0016         MOV *AR3(#0016h),AR1
010a1d: ed31bf013ac4     MOV dbl(*(#013ac4h)),XAR3
010a23: c96d0024         MOV AR1,*AR3(#0024h)
010a27: ed00bf           MOV dbl(@#00h),XAR3
010a2a: a96d0017         MOV *AR3(#0017h),AR1
010a2e: ed31bf013ac4     MOV dbl(*(#013ac4h)),XAR3
010a34: c96d0025         MOV AR1,*AR3(#0025h)
010a38: ed00bf           MOV dbl(@#00h),XAR3
010a3b: a96d0018         MOV *AR3(#0018h),AR1
010a3f: ed31bf013ac4     MOV dbl(*(#013ac4h)),XAR3
010a45: c96d0026         MOV AR1,*AR3(#0026h)
010a49: ed00bf           MOV dbl(@#00h),XAR3
010a4c: a96d0019         MOV *AR3(#0019h),AR1
010a50: ed31bf013ac4     MOV dbl(*(#013ac4h)),XAR3
010a56: c96d0027         MOV AR1,*AR3(#0027h)
010a5a: ed00bf           MOV dbl(@#00h),XAR3
010a5d: a96d001a         MOV *AR3(#001ah),AR1
010a61: ed31bf013ac4     MOV dbl(*(#013ac4h)),XAR3
010a67: c96d0028         MOV AR1,*AR3(#0028h)
010a6b: ed00bf           MOV dbl(@#00h),XAR3
010a6e: a96d001b         MOV *AR3(#001bh),AR1
010a72: ed31bf013ac4     MOV dbl(*(#013ac4h)),XAR3
010a78: c96d0029         MOV AR1,*AR3(#0029h)
010a7c: ed00bf           MOV dbl(@#00h),XAR3
010a7f: a96d001c         MOV *AR3(#001ch),AR1
010a83: ed31bf013ac4     MOV dbl(*(#013ac4h)),XAR3
010a89: c96d002a         MOV AR1,*AR3(#002ah)
010a8d: ed00bf           MOV dbl(@#00h),XAR3
010a90: a96d001d         MOV *AR3(#001dh),AR1
010a94: ed31bf013ac4     MOV dbl(*(#013ac4h)),XAR3
010a9a: c96d002b         MOV AR1,*AR3(#002bh)
010a9e: ed00bf           MOV dbl(@#00h),XAR3
010aa1: a06d001e         MOV *AR3(#001eh),AC0
010aa5: ed31bf013ac4     MOV dbl(*(#013ac4h)),XAR3
010aab: eb6d08002c       MOV AC0,dbl(*AR3(#002ch))
010ab0: ed00bf           MOV dbl(@#00h),XAR3
010ab3: a96d001f         MOV *AR3(#001fh),AR1
010ab7: ed31bf013ac4     MOV dbl(*(#013ac4h)),XAR3
010abd: c96d002e         MOV AR1,*AR3(#002eh)
010ac1: ed00bf           MOV dbl(@#00h),XAR3
010ac4: a96d0020         MOV *AR3(#0020h),AR1
010ac8: ed31bf013ac4     MOV dbl(*(#013ac4h)),XAR3
010ace: c96d002f         MOV AR1,*AR3(#002fh)
010ad2: ed00bf           MOV dbl(@#00h),XAR3
010ad5: a06d0021         MOV *AR3(#0021h),AC0
010ad9: ed31bf013ac4     MOV dbl(*(#013ac4h)),XAR3
010adf: eb6d080030       MOV AC0,dbl(*AR3(#0030h))
010ae4: 9048             MOV XSP,XAR0
010ae6: b40f000e         AMAR *+AR0(#000eh)
010aea: 6c0114e2         CALL _sgnGetSizes
010aee: c422             MOV T0,@#11h
010af0: a41c             MOV @#0eh,T0
010af2: 6c013fb0         CALL _malloc
010af6: eb3185014552     MOV XAR0,dbl(*(#014552h))
010afc: ed009f           MOV dbl(@#00h),XAR1
010aff: 08000a           CALL _vpe_sim_open_sgn
010b02: 3c04             MOV #0,T0
010b04:               $C$L48:
010b04: 6c016056         CALL _coverage_log
010b08: 4e13             AADD #19,SP
010b0a: 4804             RET
010b0c:               _vpe_sim_open_sgn:
010b0c: 6c016056         CALL _coverage_log
010b10: 4edb             AADD #-37,SP
010b12: eb0495           MOV XAR1,dbl(@#02h)
010b15: eb0085           MOV XAR0,dbl(@#00h)
010b18: ed04bf           MOV dbl(@#02h),XAR3
010b1b: a96d0017         MOV *AR3(#0017h),AR1
010b1f: c90a             MOV AR1,@#05h
010b21: ed04bf           MOV dbl(@#02h),XAR3
010b24: a96d0018         MOV *AR3(#0018h),AR1
010b28: c90c             MOV AR1,@#06h
010b2a: ed04bf           MOV dbl(@#02h),XAR3
010b2d: a96d0019         MOV *AR3(#0019h),AR1
010b31: c90e             MOV AR1,@#07h
010b33: ed04bf           MOV dbl(@#02h),XAR3
010b36: a96d001a         MOV *AR3(#001ah),AR1
010b3a: c910             MOV AR1,@#08h
010b3c: ed31bf013ac4     MOV dbl(*(#013ac4h)),XAR3
010b42: a96d0015         MOV *AR3(#0015h),AR1
010b46: c912             MOV AR1,@#09h
010b48: ed04bf           MOV dbl(@#02h),XAR3
010b4b: a96d001b         MOV *AR3(#001bh),AR1
010b4f: c914             MOV AR1,@#0ah
010b51: ed04bf           MOV dbl(@#02h),XAR3
010b54: a96d001c         MOV *AR3(#001ch),AR1
010b58: c916             MOV AR1,@#0bh
010b5a: ed04bf           MOV dbl(@#02h),XAR3
010b5d: a96d0022         MOV *AR3(#0022h),AR1
010b61: c918             MOV AR1,@#0ch
010b63: ed04bf           MOV dbl(@#02h),XAR3
010b66: a96d0023         MOV *AR3(#0023h),AR1
010b6a: c91a             MOV AR1,@#0dh
010b6c: ed04bf           MOV dbl(@#02h),XAR3
010b6f: a96d001d         MOV *AR3(#001dh),AR1
010b73: c926             MOV AR1,@#13h
010b75: ed04bf           MOV dbl(@#02h),XAR3
010b78: a96d001e         MOV *AR3(#001eh),AR1
010b7c: c928             MOV AR1,@#14h
010b7e: ed04bf           MOV dbl(@#02h),XAR3
010b81: a96d001f         MOV *AR3(#001fh),AR1
010b85: c92a             MOV AR1,@#15h
010b87: ed04bf           MOV dbl(@#02h),XAR3
010b8a: a06d0024         MOV *AR3(#0024h),AC0
010b8e: eb1c08           MOV AC0,dbl(@#0eh)
010b91: ec31be014337     AMAR *(#014337h),XAR3
010b97: eb20b5           MOV XAR3,dbl(@#10h)
010b9a: e62401           MOV #1,@#12h
010b9d: ed04bf           MOV dbl(@#02h),XAR3
010ba0: a96d0020         MOV *AR3(#0020h),AR1
010ba4: c92c             MOV AR1,@#16h
010ba6: ed04bf           MOV dbl(@#02h),XAR3
010ba9: a96d0021         MOV *AR3(#0021h),AR1
010bad: c92e             MOV AR1,@#17h
010baf: 7a00010a         MOV #1 << #16,AC0
010bb3: 7e0d1000         OR #3344,AC0,AC0
010bb7: eb3008           MOV AC0,dbl(@#18h)
010bba: 9049             MOV XSP,XAR1
010bbc: b42f0004         AMAR *+AR1(#0004h)
010bc0: ed008f           MOV dbl(@#00h),XAR0
010bc3: 6c011198         CALL _sgnInit
010bc7: 4e25             AADD #37,SP
010bc9: 4804             RET
010bcb:               _vpe_sim_set_sgn:
010bcb: 6c016056         CALL _coverage_log
010bcf: 4ef1             AADD #-15,SP
010bd1: c408             MOV T0,@#04h
010bd3: eb0495           MOV XAR1,dbl(@#02h)
010bd6: eb0085           MOV XAR0,dbl(@#00h)
010bd9: ed04bf           MOV dbl(@#02h),XAR3
010bdc: a961             MOV *AR3,AR1
010bde: 6d090091         BCC $C$L53,AR1 == #0
010be2: 6c016056         CALL _coverage_log
010be6: a908             MOV @#04h,AR1
010be8: c90e             MOV AR1,@#07h
010bea: ed04bf           MOV dbl(@#02h),XAR3
010bed: f0750004         CMP *(AR3-T1) == #4, TC1
010bf1: 67e4             BCC $C$L49,TC1
010bf3: 6c016056         CALL _coverage_log
010bf7: f0750005         CMP *(AR3-T1) == #5, TC1
010bfb: 047417           BCC $C$L50,!TC1
010bfe: 6c016056         CALL _coverage_log
010c02:               $C$L49:
010c02: 6c016056         CALL _coverage_log
010c06: e60c06           MOV #6,@#06h
010c09: ed04bf           MOV dbl(@#02h),XAR3
010c0c: a96d000b         MOV *AR3(#000bh),AR1
010c10: c910             MOV AR1,@#08h
010c12: 060040           B $C$L52
010c15:               $C$L50:
010c15: 6c016056         CALL _coverage_log
010c19: f0750007         CMP *(AR3-T1) == #7, TC1
010c1d: 047412           BCC $C$L51,!TC1
010c20: 6c016056         CALL _coverage_log
010c24: e60c08           MOV #8,@#06h
010c27: ed04bf           MOV dbl(@#02h),XAR3
010c2a: a96d000b         MOV *AR3(#000bh),AR1
010c2e: c910             MOV AR1,@#08h
010c30: 4a23             B $C$L52
010c32:               $C$L51:
010c32: 6c016056         CALL _coverage_log
010c36: e60c01           MOV #1,@#06h
010c39: ed04bf           MOV dbl(@#02h),XAR3
010c3c: a977             MOV *AR3(T1),AR1
010c3e: c910             MOV AR1,@#08h
010c40: ed04bf           MOV dbl(@#02h),XAR3
010c43: a979             MOV *+AR3,AR1
010c45: c912             MOV AR1,@#09h
010c47: ed04bf           MOV dbl(@#02h),XAR3
010c4a: a97b             MOV *-AR3,AR1
010c4c: c914             MOV AR1,@#0ah
010c4e: ed04bf           MOV dbl(@#02h),XAR3
010c51: a97d             MOV *(AR3+AR0B),AR1
010c53: c916             MOV AR1,@#0bh
010c55:               $C$L52:
010c55: 6c016056         CALL _coverage_log
010c59: 9049             MOV XSP,XAR1
010c5b: ed008f           MOV dbl(@#00h),XAR0
010c5e: b42f0006         AMAR *+AR1(#0006h)
010c62: 6c011b9b         CALL _sgnControl
010c66: e60c02           MOV #2,@#06h
010c69: ed04bf           MOV dbl(@#02h),XAR3
010c6c: a97f             MOV *(AR3-AR0B),AR1
010c6e: c910             MOV AR1,@#08h
010c70: 06006d           B $C$L58
010c73:               $C$L53:
010c73: 6c016056         CALL _coverage_log
010c77: f0750004         CMP *(AR3-T1) == #4, TC1
010c7b: 67e4             BCC $C$L54,TC1
010c7d: 6c016056         CALL _coverage_log
010c81: f0750005         CMP *(AR3-T1) == #5, TC1
010c85: 047410           BCC $C$L55,!TC1
010c88: 6c016056         CALL _coverage_log
010c8c:               $C$L54:
010c8c: 6c016056         CALL _coverage_log
010c90: e60c06           MOV #6,@#06h
010c93: e610b0           MOV #-80,@#08h
010c96: 4a31             B $C$L57
010c98:               $C$L55:
010c98: 6c016056         CALL _coverage_log
010c9c: f0750007         CMP *(AR3-T1) == #7, TC1
010ca0: 6674             BCC $C$L56,!TC1
010ca2: 6c016056         CALL _coverage_log
010ca6: e60c08           MOV #8,@#06h
010ca9: e610b0           MOV #-80,@#08h
010cac: 4a1b             B $C$L57
010cae:               $C$L56:
010cae: 6c016056         CALL _coverage_log
010cb2: e60c01           MOV #1,@#06h
010cb5: ed04bf           MOV dbl(@#02h),XAR3
010cb8: a977             MOV *AR3(T1),AR1
010cba: c910             MOV AR1,@#08h
010cbc: ed04bf           MOV dbl(@#02h),XAR3
010cbf: a979             MOV *+AR3,AR1
010cc1: c912             MOV AR1,@#09h
010cc3: e61400           MOV #0,@#0ah
010cc6: e61600           MOV #0,@#0bh
010cc9:               $C$L57:
010cc9: 6c016056         CALL _coverage_log
010ccd: 9049             MOV XSP,XAR1
010ccf: ed008f           MOV dbl(@#00h),XAR0
010cd2: b42f0006         AMAR *+AR1(#0006h)
010cd6: 6c011b9b         CALL _sgnControl
010cda: e60c02           MOV #2,@#06h
010cdd: e610b0           MOV #-80,@#08h
010ce0:               $C$L58:
010ce0: 6c016056         CALL _coverage_log
010ce4: 9049             MOV XSP,XAR1
010ce6: ed008f           MOV dbl(@#00h),XAR0
010ce9: b42f0006         AMAR *+AR1(#0006h)
010ced: 6c011b9b         CALL _sgnControl
010cf1: 4e0f             AADD #15,SP
010cf3: 4804             RET
010cf5:               _vpe_sim_gen_frame:
010cf5: 6c016056         CALL _coverage_log
010cf9: 4ef9             AADD #-7,SP
010cfb: eb0895           MOV XAR1,dbl(@#04h)
010cfe: c404             MOV T0,@#02h
010d00: eb0085           MOV XAR0,dbl(@#00h)
010d03: a404             MOV @#02h,T0
010d05: ed089f           MOV dbl(@#04h),XAR1
010d08: 6c0114f1         CALL _sgnGenerateFrame
010d0c: 4e07             AADD #7,SP
010d0e: 4804             RET
010d10:               _vpe_sim_in_file:
010d10: 6c016056         CALL _coverage_log
010d14: 4efd             AADD #-3,SP
010d16: eb0085           MOV XAR0,dbl(@#00h)
010d19: ed00bf           MOV dbl(@#00h),XAR3
010d1c: ed61bf           MOV dbl(*AR3),XAR3
010d1f: eb31b50147d4     MOV XAR3,dbl(*(#0147d4h))
010d25: ed00bf           MOV dbl(@#00h),XAR3
010d28: a975             MOV *(AR3-T1),AR1
010d2a: c9310147d8       MOV AR1,*(#0147d8h)
010d2f: 20               NOP
010d30: 20               NOP
010d31: 20               NOP
010d32: 4e03             AADD #3,SP
010d34: 4804             RET
010d36:               _vpe_sim_flush_cache:
010d36: 6c016056         CALL _coverage_log
010d3a: 4804             RET
010d3c:               _vpe_instantiate_nr:
010d3c: 6c016056         CALL _coverage_log
010d40: 4ec7             AADD #-57,SP
010d42: c400             MOV T0,@#00h
010d44: 2249             MOV T0,AR1
010d46: c95c             MOV AR1,@#2eh
010d48: 904a             MOV XSP,XAR2
010d4a: 9048             MOV XSP,XAR0
010d4c: 9049             MOV XSP,XAR1
010d4e: b44f002e         AMAR *+AR2(#002eh)
010d52: b40f0035         AMAR *+AR0(#0035h)
010d56: b42f0002         AMAR *+AR1(#0002h)
010d5a: 6c012ce8         CALL _asnrGetSizes
010d5e: c46c             MOV T0,@#36h
010d60: 2249             MOV T0,AR1
010d62: 6d19012d         BCC $C$L62,AR1 != #0
010d66: 6c016056         CALL _coverage_log
010d6a: f06a0007         CMP @#35h == #7, TC1
010d6e: 64e4             BCC $C$L59,TC1
010d70: 6c016056         CALL _coverage_log
010d74: 3c34             MOV #3,T0
010d76: 06011a           B $C$L62
010d79:               $C$L59:
010d79: 6c016056         CALL _coverage_log
010d7d: e66e00           MOV #0,@#37h
010d80: a96a             MOV @#35h,AR1
010d82: aa6e             MOV @#37h,AR2
010d84: 12a890_21        CMP AR2 >= AR1, TC1 || NOP
010d88: 046439           BCC $C$DW$L$_vpe_instantiate_nr$5$E,TC1
010d8b: 6c016056         CALL _coverage_log
010d8f:               $C$L60:
010d8f: 6c016056         CALL _coverage_log
010d93:               $C$DW$L$_vpe_instantiate_nr$5$B:
010d93: 904b             MOV XSP,XAR3
010d95: f86e0600         MPYMK @#37h,#6,AC0
010d99: 2204             MOV AC0,T0
010d9b: b46f0004         AMAR *+AR3(#0004h)
010d9f: e66b01           MOV #1,*AR3(AR0)
010da2: 904b             MOV XSP,XAR3
010da4: f86e0600         MPYMK @#37h,#6,AC0
010da8: 2204             MOV AC0,T0
010daa: b46f0007         AMAR *+AR3(#0007h)
010dae: e66b00           MOV #0,*AR3(AR0)
010db1: f76e0001         ADD #1,@#37h
010db5: a96a             MOV @#35h,AR1
010db7: aa6e             MOV @#37h,AR2
010db9: 12a490_21        CMP AR2 < AR1, TC1 || NOP
010dbd: 0464cf           BCC $C$L60,TC1
010dc0: 6c016056         CALL _coverage_log
010dc4:               $C$DW$L$_vpe_instantiate_nr$5$E:
010dc4:               $C$L61:
010dc4: 6c016056         CALL _coverage_log
010dc8: ec31be0147da     AMAR *(#0147dah),XAR3
010dce: eb10b5           MOV XAR3,dbl(@#08h)
010dd1: 20               NOP
010dd2: e60c2c           MOV #44,@#06h
010dd5: e60a01           MOV #1,@#05h
010dd8: ec31be014806     AMAR *(#014806h),XAR3
010dde: eb1cb5           MOV XAR3,dbl(@#0eh)
010de1: fb180306         MOV #774,@#0ch
010de5: e61601           MOV #1,@#0bh
010de8: e61a01           MOV #1,@#0dh
010deb: ec31be014b0c     AMAR *(#014b0ch),XAR3
010df1: eb28b5           MOV XAR3,dbl(@#14h)
010df4: fb240204         MOV #516,@#12h
010df8: e62201           MOV #1,@#11h
010dfb: e62601           MOV #1,@#13h
010dfe: ec31be014d10     AMAR *(#014d10h),XAR3
010e04: eb34b5           MOV XAR3,dbl(@#1ah)
010e07: fb300183         MOV #387,@#18h
010e0b: e62e01           MOV #1,@#17h
010e0e: e63201           MOV #1,@#19h
010e11: ec31be014e94     AMAR *(#014e94h),XAR3
010e17: eb40b5           MOV XAR3,dbl(@#20h)
010e1a: 20               NOP
010e1b: fb3c00c0         MOV #192,@#1eh
010e1f: e63a01           MOV #1,@#1dh
010e22: ec31be014f54     AMAR *(#014f54h),XAR3
010e28: eb4cb5           MOV XAR3,dbl(@#26h)
010e2b: 20               NOP
010e2c: fb480204         MOV #516,@#24h
010e30: e64601           MOV #1,@#23h
010e33: ec31be015158     AMAR *(#015158h),XAR3
010e39: eb58b5           MOV XAR3,dbl(@#2ch)
010e3c: 20               NOP
010e3d: e6540e           MOV #14,@#2ah
010e40: e65201           MOV #1,@#29h
010e43: ec31be014550     AMAR *(#014550h),XAR3
010e49: eb60b5           MOV XAR3,dbl(@#30h)
010e4c: a95c             MOV @#2eh,AR1
010e4e: c964             MOV AR1,@#32h
010e50: 904a             MOV XSP,XAR2
010e52: 9049             MOV XSP,XAR1
010e54: ec318e01454e     AMAR *(#01454eh),XAR0
010e5a: b44f0030         AMAR *+AR2(#0030h)
010e5e: a46a             MOV @#35h,T0
010e60: b42f0004         AMAR *+AR1(#0004h)
010e64: 6c012a00         CALL _asnrNew
010e68: c46c             MOV T0,@#36h
010e6a: 2249             MOV T0,AR1
010e6c: 041924           BCC $C$L62,AR1 != #0
010e6f: 6c016056         CALL _coverage_log
010e73: a900             MOV @#00h,AR1
010e75: c968             MOV AR1,@#34h
010e77: 9049             MOV XSP,XAR1
010e79: ed318f01454e     MOV dbl(*(#01454eh)),XAR0
010e7f: b42f0034         AMAR *+AR1(#0034h)
010e83: 6c0129cf         CALL _asnrOpen
010e87: c46c             MOV T0,@#36h
010e89: 2249             MOV T0,AR1
010e8b: 6319             BCC $C$L62,AR1 != #0
010e8d: 6c016056         CALL _coverage_log
010e91: 3c04             MOV #0,T0
010e93:               $C$L62:
010e93: 6c016056         CALL _coverage_log
010e97: 4e39             AADD #57,SP
010e99: 4804             RET
010e9b:               _vpe_config_nr:
010e9b: 6c016056         CALL _coverage_log
010e9f: 4eef             AADD #-17,SP
010ea1: eb0085           MOV XAR0,dbl(@#00h)
010ea4: fb040fff         MOV #4095,@#02h
010ea8: e60601           MOV #1,@#03h
010eab: ed00bf           MOV dbl(@#00h),XAR3
010eae: a961             MOV *AR3,AR1
010eb0: c908             MOV AR1,@#04h
010eb2: ed00bf           MOV dbl(@#00h),XAR3
010eb5: a973             MOV *(AR3+T1),AR1
010eb7: c90a             MOV AR1,@#05h
010eb9: ed00bf           MOV dbl(@#00h),XAR3
010ebc: a975             MOV *(AR3-T1),AR1
010ebe: c90c             MOV AR1,@#06h
010ec0: ed00bf           MOV dbl(@#00h),XAR3
010ec3: a977             MOV *AR3(T1),AR1
010ec5: c90e             MOV AR1,@#07h
010ec7: ed00bf           MOV dbl(@#00h),XAR3
010eca: a979             MOV *+AR3,AR1
010ecc: c910             MOV AR1,@#08h
010ece: ed00bf           MOV dbl(@#00h),XAR3
010ed1: a97b             MOV *-AR3,AR1
010ed3: c912             MOV AR1,@#09h
010ed5: ed00bf           MOV dbl(@#00h),XAR3
010ed8: a97d             MOV *(AR3+AR0B),AR1
010eda: c914             MOV AR1,@#0ah
010edc: ed00bf           MOV dbl(@#00h),XAR3
010edf: a97f             MOV *(AR3-AR0B),AR1
010ee1: c916             MOV AR1,@#0bh
010ee3: ed00bf           MOV dbl(@#00h),XAR3
010ee6: a96d0008         MOV *AR3(#0008h),AR1
010eea: c918             MOV AR1,@#0ch
010eec: ed00bf           MOV dbl(@#00h),XAR3
010eef: a96d0009         MOV *AR3(#0009h),AR1
010ef3: c91a             MOV AR1,@#0dh
010ef5: ed00bf           MOV dbl(@#00h),XAR3
010ef8: a96d000a         MOV *AR3(#000ah),AR1
010efc: c91c             MOV AR1,@#0eh
010efe: 9049             MOV XSP,XAR1
010f00: ed318f01454e     MOV dbl(*(#01454eh)),XAR0
010f06: b42f0002         AMAR *+AR1(#0002h)
010f0a: 6c012db4         CALL _asnrControl
010f0e: c41e             MOV T0,@#0fh
010f10: 2249             MOV T0,AR1
010f12: 6409             BCC $C$L63,AR1 == #0
010f14: 6c016056         CALL _coverage_log
010f18: 3c14             MOV #1,T0
010f1a: 4a06             B $C$L64
010f1c:               $C$L63:
010f1c: 6c016056         CALL _coverage_log
010f20: 3c04             MOV #0,T0
010f22:               $C$L64:
010f22: 6c016056         CALL _coverage_log
010f26: 4e11             AADD #17,SP
010f28: 4804             RET
010f2a:               _vpe_deinstantiate_nr:
010f2a: 6c016056         CALL _coverage_log
010f2e: 4ed3             AADD #-45,SP
010f30: ed318f01454e     MOV dbl(*(#01454eh)),XAR0
010f36: 6c012f3d         CALL _asnrClose
010f3a: c454             MOV T0,@#2ah
010f3c: 2249             MOV T0,AR1
010f3e: 6d1900ee         BCC $C$L72,AR1 != #0
010f42: 6c016056         CALL _coverage_log
010f46: 9049             MOV XSP,XAR1
010f48: ec318e01454e     AMAR *(#01454eh),XAR0
010f4e: 3c74             MOV #7,T0
010f50: 6c012d62         CALL _asnrDelete
010f54: c454             MOV T0,@#2ah
010f56: 2249             MOV T0,AR1
010f58: 6d1900d4         BCC $C$L72,AR1 != #0
010f5c: 6c016056         CALL _coverage_log
010f60: ec31be0147da     AMAR *(#0147dah),XAR3
010f66: 90b0             MOV XAR3,AC0
010f68: ed08bf           MOV dbl(@#04h),XAR3
010f6b: 90b1             MOV XAR3,AC1
010f6d: 121004           CMPU AC1 == AC0, TC1
010f70: 3c0a             MOV #0,AR2
010f72: 6364             BCC $C$L65,TC1
010f74: 6c016056         CALL _coverage_log
010f78: 3c1a             MOV #1,AR2
010f7a:               $C$L65:
010f7a: 6c016056         CALL _coverage_log
010f7e: ec31be014806     AMAR *(#014806h),XAR3
010f84: 90b0             MOV XAR3,AC0
010f86: ed14bf           MOV dbl(@#0ah),XAR3
010f89: 90b1             MOV XAR3,AC1
010f8b: 121004           CMPU AC1 == AC0, TC1
010f8e: 3c09             MOV #0,AR1
010f90: 6364             BCC $C$L66,TC1
010f92: 6c016056         CALL _coverage_log
010f96: 3c19             MOV #1,AR1
010f98:               $C$L66:
010f98: 6c016056         CALL _coverage_log
010f9c: ec31be014b0c     AMAR *(#014b0ch),XAR3
010fa2: 90b0             MOV XAR3,AC0
010fa4: ed20bf           MOV dbl(@#10h),XAR3
010fa7: 90b1             MOV XAR3,AC1
010fa9: 121004           CMPU AC1 == AC0, TC1
010fac: 3c0a_2ba9        MOV #0,AR2 || OR AR2,AR1
010fb0: 6364             BCC $C$L67,TC1
010fb2: 6c016056         CALL _coverage_log
010fb6: 3c1a             MOV #1,AR2
010fb8:               $C$L67:
010fb8: 6c016056         CALL _coverage_log
010fbc: ec31be014d10     AMAR *(#014d10h),XAR3
010fc2: 90b0             MOV XAR3,AC0
010fc4: ed2cbf           MOV dbl(@#16h),XAR3
010fc7: 90b1             MOV XAR3,AC1
010fc9: 121004           CMPU AC1 == AC0, TC1
010fcc: 3c0a_2ba9        MOV #0,AR2 || OR AR2,AR1
010fd0: 6364             BCC $C$L68,TC1
010fd2: 6c016056         CALL _coverage_log
010fd6: 3c1a             MOV #1,AR2
010fd8:               $C$L68:
010fd8: 6c016056         CALL _coverage_log
010fdc: ec31be014e94     AMAR *(#014e94h),XAR3
010fe2: 90b0             MOV XAR3,AC0
010fe4: ed38bf           MOV dbl(@#1ch),XAR3
010fe7: 90b1             MOV XAR3,AC1
010fe9: 121004           CMPU AC1 == AC0, TC1
010fec: 3c0a_2ba9        MOV #0,AR2 || OR AR2,AR1
010ff0: 6364             BCC $C$L69,TC1
010ff2: 6c016056         CALL _coverage_log
010ff6: 3c1a             MOV #1,AR2
010ff8:               $C$L69:
010ff8: 6c016056         CALL _coverage_log
010ffc: ec31be014f54     AMAR *(#014f54h),XAR3
011002: 90b0             MOV XAR3,AC0
011004: ed44bf           MOV dbl(@#22h),XAR3
011007: 90b1             MOV XAR3,AC1
011009: 121004           CMPU AC1 == AC0, TC1
01100c: 3c0a_2ba9        MOV #0,AR2 || OR AR2,AR1
011010: 6364             BCC $C$L70,TC1
011012: 6c016056         CALL _coverage_log
011016: 3c1a             MOV #1,AR2
011018:               $C$L70:
011018: 6c016056         CALL _coverage_log
01101c: 2aa9             OR AR2,AR1
01101e: c956             MOV AR1,@#2bh
011020: 6409             BCC $C$L71,AR1 == #0
011022: 6c016056         CALL _coverage_log
011026: 3c34             MOV #3,T0
011028: 4a06             B $C$L72
01102a:               $C$L71:
01102a: 6c016056         CALL _coverage_log
01102e: 3c04             MOV #0,T0
011030:               $C$L72:
011030: 6c016056         CALL _coverage_log
011034: 4e2d             AADD #45,SP
011036: 4804             RET
011038:               _sgn_css_gen_samples:
011038: 5066             PSH T2
01103a: 6d340156         BCC $C$DW$L$_sgn_css_gen_samples$21$E,T0 <= #0
01103e: 7c0001b4         SUB #1,T0,AR3
011042: 52be             MOV AR3,BRC0
011044: 3c16             MOV #1,T2
011046: 3c0a             MOV #0,AR2
011048: 0e0145_3d2c      RPTB $C$DW$L$_sgn_css_gen_samples$21$B || MOV #2,AR4
01104d:               $C$L1:
01104d:               $C$DW$L$_sgn_css_gen_samples$3$B:
01104d: ab0d0028            MOV *AR0(#0028h),AR3
011051: 6d0b0096            BCC $C$DW$L$_sgn_css_gen_samples$12$B,AR3 == #0
011055:               $C$DW$L$_sgn_css_gen_samples$3$E:
011055:               $C$DW$L$_sgn_css_gen_samples$4$B:
011055: 12b060              CMP AR3 == T2, TC1
011058: 046423              BCC $C$DW$L$_sgn_css_gen_samples$7$B,TC1
01105b:               $C$DW$L$_sgn_css_gen_samples$4$E:
01105b:               $C$DW$L$_sgn_css_gen_samples$5$B:
01105b: 12b0c0              CMP AR3 == AR4, TC1
01105e: 6d740107            BCC $C$DW$L$_sgn_css_gen_samples$18$B,!TC1
011062:               $C$DW$L$_sgn_css_gen_samples$5$E:
011062:               $C$DW$L$_sgn_css_gen_samples$6$B:
011062: 22a4                MOV AR2,T0
011064: e62b00              MOV #0,*AR1(AR0)
011067: ab0d0026            MOV *AR0(#0026h),AR3
01106b: a50d0025            MOV *AR0(#0025h),T1
01106f: 401b                ADD #1,AR3
011071: 12b450              CMP AR3 < T1, TC1
011074: 96f4                XCCPART !TC1
011076: e60d000028          MOV #0,*AR0(#0028h)
01107b: 0600d7              B $C$DW$L$_sgn_css_gen_samples$16$E
01107e:               $C$DW$L$_sgn_css_gen_samples$7$B:
01107e:               $C$DW$L$_sgn_css_gen_samples$6$E:
01107e:               $C$L2:
01107e: a40d0027            MOV *AR0(#0027h),T0
011082: 7b0001b4            ADD #1,T0,AR3
011086: cb0d0027            MOV AR3,*AR0(#0027h)
01108a: ed0dbf002e          MOV dbl(*AR0(#002eh)),XAR3
01108f: 3c01                MOV #0,AC1
011091: a50d0022            MOV *AR0(#0022h),T1
011095: 7e800011            OR #32768,AC1,AC1
011099: d36b05              MPYM *AR3(AR0),T1,AC0
01109c: a50d000a            MOV *AR0(#000ah),T1
0110a0: 100532              SFTS AC0,#-14,AC0
0110a3: 3400_9ea5           XCCPART T1 < #0 || NEG AC0,AC0
0110a7: 3202                ABS AC0,AC2
0110a9: ec21be_132410       AMAR *AR1,XAR3 || CMP AC2 < AC1, TC1
0110af: 14a0b0              AADD AR2,AR3
0110b2: 6664                BCC $C$DW$L$_sgn_css_gen_samples$10$E,TC1
0110b4:               $C$DW$L$_sgn_css_gen_samples$7$E:
0110b4:               $C$DW$L$_sgn_css_gen_samples$8$B:
0110b4: 6340                BCC $C$DW$L$_sgn_css_gen_samples$9$E,AC0 > #0
0110b6:               $C$DW$L$_sgn_css_gen_samples$8$E:
0110b6:               $C$DW$L$_sgn_css_gen_samples$9$B:
0110b6: 76800008            MOV #-32768,AC0
0110ba: 4a04                B $C$DW$L$_sgn_css_gen_samples$10$E
0110bc:               $C$DW$L$_sgn_css_gen_samples$9$E:
0110bc:               $C$L3:
0110bc:               $C$DW$L$_sgn_css_gen_samples$10$B:
0110bc: 767fff08            MOV #32767,AC0
0110c0:               $C$DW$L$_sgn_css_gen_samples$10$E:
0110c0:               $C$L4:
0110c0:               $C$DW$L$_sgn_css_gen_samples$11$B:
0110c0: c061                MOV AC0,*AR3
0110c2: a50d0027            MOV *AR0(#0027h),T1
0110c6: ab0d0030            MOV *AR0(#0030h),AR3
0110ca: 1254b0              CMP T1 < AR3, TC1
0110cd: ab0d0026            MOV *AR0(#0026h),AR3
0110d1: 96f4                XCCPART !TC1
0110d3: e60d000027          MOV #0,*AR0(#0027h)
0110d8: a50d0024            MOV *AR0(#0024h),T1
0110dc: 401b                ADD #1,AR3
0110de: 12b450              CMP AR3 < T1, TC1
0110e1: 96f4                XCCPART !TC1
0110e3: e60d020028          MOV #2,*AR0(#0028h)
0110e8: 06006a              B $C$DW$L$_sgn_css_gen_samples$16$E
0110eb:               $C$DW$L$_sgn_css_gen_samples$12$B:
0110eb:               $C$DW$L$_sgn_css_gen_samples$11$E:
0110eb:               $C$L5:
0110eb: a40d0027            MOV *AR0(#0027h),T0
0110ef: 7b0001b4            ADD #1,T0,AR3
0110f3: cb0d0027            MOV AR3,*AR0(#0027h)
0110f7: ed0dbf002a          MOV dbl(*AR0(#002ah)),XAR3
0110fc: 3c01                MOV #0,AC1
0110fe: a50d0022            MOV *AR0(#0022h),T1
011102: 7e800011            OR #32768,AC1,AC1
011106: d36b05              MPYM *AR3(AR0),T1,AC0
011109: a50d000a            MOV *AR0(#000ah),T1
01110d: 100532              SFTS AC0,#-14,AC0
011110: 3400_9ea5           XCCPART T1 < #0 || NEG AC0,AC0
011114: 3202                ABS AC0,AC2
011116: ec21be_132410       AMAR *AR1,XAR3 || CMP AC2 < AC1, TC1
01111c: 14a0b0              AADD AR2,AR3
01111f: 6664                BCC $C$DW$L$_sgn_css_gen_samples$15$E,TC1
011121:               $C$DW$L$_sgn_css_gen_samples$12$E:
011121:               $C$DW$L$_sgn_css_gen_samples$13$B:
011121: 6340                BCC $C$DW$L$_sgn_css_gen_samples$14$E,AC0 > #0
011123:               $C$DW$L$_sgn_css_gen_samples$13$E:
011123:               $C$DW$L$_sgn_css_gen_samples$14$B:
011123: 76800008            MOV #-32768,AC0
011127: 4a04                B $C$DW$L$_sgn_css_gen_samples$15$E
011129:               $C$DW$L$_sgn_css_gen_samples$14$E:
011129:               $C$L6:
011129:               $C$DW$L$_sgn_css_gen_samples$15$B:
011129: 767fff08            MOV #32767,AC0
01112d:               $C$DW$L$_sgn_css_gen_samples$15$E:
01112d:               $C$L7:
01112d:               $C$DW$L$_sgn_css_gen_samples$16$B:
01112d: c061                MOV AC0,*AR3
01112f: a50d0027            MOV *AR0(#0027h),T1
011133: ab0d002c            MOV *AR0(#002ch),AR3
011137: 1254b0              CMP T1 < AR3, TC1
01113a: ab0d0026            MOV *AR0(#0026h),AR3
01113e: 96f4                XCCPART !TC1
011140: e60d000027          MOV #0,*AR0(#0027h)
011145: a50d0023            MOV *AR0(#0023h),T1
011149: 401b                ADD #1,AR3
01114b: 12b450              CMP AR3 < T1, TC1
01114e: 96f4                XCCPART !TC1
011150: e60d010028          MOV #1,*AR0(#0028h)
011155:               $C$DW$L$_sgn_css_gen_samples$16$E:
011155:               $C$L8:
011155:               $C$DW$L$_sgn_css_gen_samples$17$B:
011155: cb0d0026            MOV AR3,*AR0(#0026h)
011159: 20                  NOP
01115a: 96f4                XCCPART !TC1
01115c: e60d000026          MOV #0,*AR0(#0026h)
011161: 20                  NOP
011162: 96f4                XCCPART !TC1
011164: e60d000027          MOV #0,*AR0(#0027h)
011169:               $C$DW$L$_sgn_css_gen_samples$18$B:
011169:               $C$DW$L$_sgn_css_gen_samples$17$E:
011169:               $C$L9:
011169: ab0d000c            MOV *AR0(#000ch),AR3
01116d: 040b22              BCC $C$DW$L$_sgn_css_gen_samples$21$B,AR3 == #0
011170:               $C$DW$L$_sgn_css_gen_samples$18$E:
011170:               $C$DW$L$_sgn_css_gen_samples$19$B:
011170: f70d0001000b        ADD #1,*AR0(#000bh)
011176: ab0d0009            MOV *AR0(#0009h),AR3
01117a: a50d000b            MOV *AR0(#000bh),T1
01117e: 1254b0              CMP T1 < AR3, TC1
011181: 67e4                BCC $C$DW$L$_sgn_css_gen_samples$21$B,TC1
011183:               $C$DW$L$_sgn_css_gen_samples$19$E:
011183:               $C$DW$L$_sgn_css_gen_samples$20$B:
011183: ab0d000a            MOV *AR0(#000ah),AR3
011187: e60d00000b          MOV #0,*AR0(#000bh)
01118c: 34bb                NEG AR3,AR3
01118e: cb0d000a            MOV AR3,*AR0(#000ah)
011192:               $C$DW$L$_sgn_css_gen_samples$21$B:
011192:               $C$DW$L$_sgn_css_gen_samples$20$E:
011192:               $C$L10:
011192: 401a                ADD #1,AR2
011194:               $C$DW$L$_sgn_css_gen_samples$21$E:
011194:               $C$L11:
011194: 5062             POP T2
011196: 4804             RET
011198:               _sgnInit:
011198: 50d5             PSHBOTH XAR5
01119a: 50f5             PSHBOTH XAR7
01119c: 4eff             AADD #-1,SP
01119e: ec21fe           AMAR *AR1,XAR7
0111a1: ec01de           AMAR *AR0,XAR5
0111a4: 80e284           MOV *AR7,*AR5
0111a7: eded08001c       MOV dbl(*AR7(#001ch)),AC0
0111ac: ebad080044       MOV AC0,dbl(*AR5(#0044h))
0111b1: eded08001e       MOV dbl(*AR7(#001eh)),AC0
0111b6: ebad080046       MOV AC0,dbl(*AR5(#0046h))
0111bb: a9f3             MOV *(AR7+T1),AR1
0111bd: c9b3             MOV AR1,*(AR5+T1)
0111bf: a9f5             MOV *(AR7-T1),AR1
0111c1: c9b5             MOV AR1,*(AR5-T1)
0111c3: a9fd             MOV *(AR7+AR0B),AR1
0111c5: c9bf             MOV AR1,*(AR5-AR0B)
0111c7: a9ff             MOV *(AR7-AR0B),AR1
0111c9: e6bb00           MOV #0,*-AR5
0111cc: e6bd00           MOV #0,*(AR5+AR0B)
0111cf: c9ad0008         MOV AR1,*AR5(#0008h)
0111d3: a9fb             MOV *-AR7,AR1
0111d5: c9ad001c         MOV AR1,*AR5(#001ch)
0111d9: a1ad001c         MOV *AR5(#001ch),AC1
0111dd: a0f7             MOV *AR7(T1),AC0
0111df: 10050e           SFTS AC0,#14,AC0
0111e2: 6c016684         CALL __divli
0111e6: c0b7             MOV AC0,*AR5(T1)
0111e8: a1ad001c         MOV *AR5(#001ch),AC1
0111ec: a0f9             MOV *+AR7,AC0
0111ee: 10050e           SFTS AC0,#14,AC0
0111f1: 6c016684         CALL __divli
0111f5: c0b9             MOV AC0,*+AR5
0111f7: a9f5_3d1a        MOV *(AR7-T1),AR1 || MOV #1,AR2
0111fb: 1290a0           CMP AR1 == AR2, TC1
0111fe: 67e4             BCC $C$L12,TC1
011200: 3c2a             MOV #2,AR2
011202: 1290a0           CMP AR1 == AR2, TC1
011205: 96f4             XCCPART !TC1
011207: e6ad00000c       MOV #0,*AR5(#000ch)
01120c: 047427           BCC $C$L13,!TC1
01120f:               $C$L12:
01120f: a9ed0009         MOV *AR7(#0009h),AR1
011213: c9ad000c         MOV AR1,*AR5(#000ch)
011217: a9ad000c         MOV *AR5(#000ch),AR1
01121b: 040918           BCC $C$L13,AR1 == #0
01121e: a9ed0008         MOV *AR7(#0008h),AR1
011222: 044911           BCC $C$L13,AR1 > #0
011225: edad080044       MOV dbl(*AR5(#0044h)),AC0
01122a: ec318e018352     AMAR *(#018352h),XAR0
011230: 76ffff48         MOV #-1,T0
011234: 9200             CALL AC0
011236:               $C$L13:
011236: a9ed0008         MOV *AR7(#0008h),AR1
01123a: e6ad01000a       MOV #1,*AR5(#000ah)
01123f: e6ad00000b       MOV #0,*AR5(#000bh)
011244: c9ad0009         MOV AR1,*AR5(#0009h)
011248: eded08000a       MOV dbl(*AR7(#000ah)),AC0
01124d: ebad08000e       MOV AC0,dbl(*AR5(#000eh))
011252: a9ed000e         MOV *AR7(#000eh),AR1
011256: c9ad0010         MOV AR1,*AR5(#0010h)
01125a: ededbf000c       MOV dbl(*AR7(#000ch)),XAR3
01125f: ebadb50012       MOV XAR3,dbl(*AR5(#0012h))
011264: eded08000a       MOV dbl(*AR7(#000ah)),AC0
011269: ebad080014       MOV AC0,dbl(*AR5(#0014h))
01126e: ededbf000c       MOV dbl(*AR7(#000ch)),XAR3
011273: eca18e           AMAR *AR5,XAR0
011276: a961             MOV *AR3,AR1
011278: c9ad0019         MOV AR1,*AR5(#0019h)
01127c: 8ab7891c1e       MOV *AR5(T1),AR1 || AADD #30,AR0
011281: e6ad000018       MOV #0,*AR5(#0018h)
011286: c9ad001a         MOV AR1,*AR5(#001ah)
01128a: e6ad000017       MOV #0,*AR5(#0017h)
01128f: e6ad000016       MOV #0,*AR5(#0016h)
011294: e6ad00001b       MOV #0,*AR5(#001bh)
011299: eca19e           AMAR *AR5,XAR1
01129c: 141f94           AADD #31,AR1
01129f: a4ed000f         MOV *AR7(#000fh),T0
0112a3: a5ed0010         MOV *AR7(#0010h),T1
0112a7: 6c0163cb         CALL _wngInit
0112ab: a9ed000f         MOV *AR7(#000fh),AR1
0112af: c9ad001d         MOV AR1,*AR5(#001dh)
0112b3: a9ed0011         MOV *AR7(#0011h),AR1
0112b7: c9ad0020         MOV AR1,*AR5(#0020h)
0112bb: a9ed0012         MOV *AR7(#0012h),AR1
0112bf: c9ad0021         MOV AR1,*AR5(#0021h)
0112c3: f9ed04080012     MOV *AR7(#0012h) << #4,AC0
0112c9: 7b00c040         ADD #192,AC0,T0
0112cd: 4444             SFTS T0,#-1
0112cf: 6c0167e7         CALL _utldB2LinPower
0112d3: 100531_3d01      SFTS AC0,#-15,AC0 || MOV #0,AC1
0112d8: 7e800011         OR #32768,AC1,AC1
0112dc: 3202             ABS AC0,AC2
0112de: 122410           CMP AC2 < AC1, TC1
0112e1: 6664             BCC $C$L15,TC1
0112e3: 6340             BCC $C$L14,AC0 > #0
0112e5: 76800008         MOV #-32768,AC0
0112e9: 4a04             B $C$L15
0112eb:               $C$L14:
0112eb: 767fff08         MOV #32767,AC0
0112ef:               $C$L15:
0112ef: e6ad000027       MOV #0,*AR5(#0027h)
0112f4: e6ad000026       MOV #0,*AR5(#0026h)
0112f9: e6ad000028       MOV #0,*AR5(#0028h)
0112fe: c0ad0022         MOV AC0,*AR5(#0022h)
011302: a9f5_3d4a        MOV *(AR7-T1),AR1 || MOV #4,AR2
011306: 1290a0           CMP AR1 == AR2, TC1
011309: 04645d           BCC $C$L17,TC1
01130c: 3c5a             MOV #5,AR2
01130e: 129ca0           CMP AR1 != AR2, TC1
011311: 6d6400c1         BCC $C$L22,TC1
011315: f0ad1f40001c     CMP *AR5(#001ch) == #8000, TC1
01131b: 046426           BCC $C$L16,TC1
01131e: ec31be0177a6     AMAR *(#0177a6h),XAR3
011324: ebadb5002a       MOV XAR3,dbl(*AR5(#002ah))
011329: fbad048b002c     MOV #1163,*AR5(#002ch)
01132f: fbad07f50025     MOV #2037,*AR5(#0025h)
011335: fbad048b0023     MOV #1163,*AR5(#0023h)
01133b: ec31be015f84     AMAR *(#015f84h),XAR3
011341: 060051           B $C$L18
011344:               $C$L16:
011344: ec31be01817b     AMAR *(#01817bh),XAR3
01134a: ebadb5002a       MOV XAR3,dbl(*AR5(#002ah))
01134f: e6ad53002c       MOV #83,*AR5(#002ch)
011354: fbad03fa0025     MOV #1018,*AR5(#0025h)
01135a: fbad02460023     MOV #582,*AR5(#0023h)
011360: ec31be0171d5     AMAR *(#0171d5h),XAR3
011366: 06005c           B $C$L20
011369:               $C$L17:
011369: f0ad1f40001c     CMP *AR5(#001ch) == #8000, TC1
01136f: 046431           BCC $C$L19,TC1
011372: ec31be017c31     AMAR *(#017c31h),XAR3
011378: ebadb5002a       MOV XAR3,dbl(*AR5(#002ah))
01137d: fbad030a002c     MOV #778,*AR5(#002ch)
011383: fbad06560025     MOV #1622,*AR5(#0025h)
011389: fbad030a0023     MOV #778,*AR5(#0023h)
01138f: ec31be015304     AMAR *(#015304h),XAR3
011395:               $C$L18:
011395: fbad0c800024     MOV #3200,*AR5(#0024h)
01139b: fbad0c800030     MOV #3200,*AR5(#0030h)
0113a1: 4a2e             B $C$L21
0113a3:               $C$L19:
0113a3: ec31be018268     AMAR *(#018268h),XAR3
0113a9: ebadb5002a       MOV XAR3,dbl(*AR5(#002ah))
0113ae: e6ad49002c       MOV #73,*AR5(#002ch)
0113b3: fbad032b0025     MOV #811,*AR5(#0025h)
0113b9: fbad01850023     MOV #389,*AR5(#0023h)
0113bf: ec31be016c04     AMAR *(#016c04h),XAR3
0113c5:               $C$L20:
0113c5: fbad06400024     MOV #1600,*AR5(#0024h)
0113cb: fbad05d10030     MOV #1489,*AR5(#0030h)
0113d1:               $C$L21:
0113d1: ebadb5002e       MOV XAR3,dbl(*AR5(#002eh))
0113d6:               $C$L22:
0113d6: 3c4a             MOV #4,AR2
0113d8: 1290a0           CMP AR1 == AR2, TC1
0113db: 6464             BCC $C$L23,TC1
0113dd: 3c5a             MOV #5,AR2
0113df: 129ca0           CMP AR1 != AR2, TC1
0113e2: 046421           BCC $C$L24,TC1
0113e5:               $C$L23:
0113e5: aaad0024         MOV *AR5(#0024h),AR2
0113e9: d6adaa0023       ADD *AR5(#0023h),AR2,AR2
0113ee: e6ad00000b       MOV #0,*AR5(#000bh)
0113f3: e6ad01000a       MOV #1,*AR5(#000ah)
0113f8: e6ad01000c       MOV #1,*AR5(#000ch)
0113fd: d6adaa0025       ADD *AR5(#0025h),AR2,AR2
011402: caad0009         MOV AR2,*AR5(#0009h)
011406:               $C$L24:
011406: 3c7a             MOV #7,AR2
011408: 129ca0           CMP AR1 != AR2, TC1
01140b: 046458           BCC $C$L31,TC1
01140e: eca19e           AMAR *AR5,XAR1
011411: eca18e           AMAR *AR5,XAR0
011414: a5ed0013         MOV *AR7(#0013h),T1
011418: 76ffec48         MOV #-20,T0
01141c: 143794           AADD #55,AR1
01141f: 143684           AADD #54,AR0
011422: 6c0163cb         CALL _wngInit
011426: 3c4a             MOV #4,AR2
011428: a9ed0012         MOV *AR7(#0012h),AR1
01142c: 1298a0           CMP AR1 >= AR2, TC1
01142f: 04641e           BCC $C$L26,TC1
011432: 76ffbaa8         MOV #-70,AR2
011436: 1294a0           CMP AR1 < AR2, TC1
011439: 6764             BCC $C$L25,TC1
01143b: 7b004649         ADD #70,AR1,T0
01143f: ec31be01821e     AMAR *(#01821eh),XAR3
011445: a96b             MOV *AR3(AR0),AR1
011447: 4a0c             B $C$L27
011449:               $C$L25:
011449: e6ad000031       MOV #0,*AR5(#0031h)
01144e: 4a09             B $C$L28
011450:               $C$L26:
011450: a931018267       MOV *(#018267h),AR1
011455:               $C$L27:
011455: c9ad0031         MOV AR1,*AR5(#0031h)
011459:               $C$L28:
011459: eca1be           AMAR *AR5,XAR3
01145c: 1432b4           AADD #50,AR3
01145f: 4c03             RPT #3
011461:               $C$L29:
011461:               $C$DW$L$_sgnInit$32$B:
011461: e66300              MOV #0,*AR3+
011464:               $C$DW$L$_sgnInit$32$E:
011464:               $C$L30:
011464: a9f5             MOV *(AR7-T1),AR1
011466:               $C$L31:
011466: 3c6a             MOV #6,AR2
011468: 129ca0           CMP AR1 != AR2, TC1
01146b: 04641b           BCC $C$L32,TC1
01146e: eded080014       MOV dbl(*AR7(#0014h)),AC0
011473: 041013           BCC $C$L32,AC0 != #0
011476: edad080044       MOV dbl(*AR5(#0044h)),AC0
01147b: ec318e018362     AMAR *(#018362h),XAR0
011481: 76ffff48         MOV #-1,T0
011485: 9200             CALL AC0
011487: a9f5             MOV *(AR7-T1),AR1
011489:               $C$L32:
011489: 3c9a             MOV #9,AR2
01148b: eded080014       MOV dbl(*AR7(#0014h)),AC0
011490: 129ca0           CMP AR1 != AR2, TC1
011493: ebad080038       MOV AC0,dbl(*AR5(#0038h))
011498: 04643f           BCC $C$L33,TC1
01149b: a9ed0017         MOV *AR7(#0017h),AR1
01149f: c9ad003a         MOV AR1,*AR5(#003ah)
0114a3: eded080016       MOV dbl(*AR7(#0016h)),AC0
0114a8: a9ad003a         MOV *AR5(#003ah),AR1
0114ac: bcad003b         MOV HI(AC0),*AR5(#003bh)
0114b0: c9ad003c         MOV AR1,*AR5(#003ch)
0114b4: a9ad003b         MOV *AR5(#003bh),AR1
0114b8: c9ad003d         MOV AR1,*AR5(#003dh)
0114bc: eded080018       MOV dbl(*AR7(#0018h)),AC0
0114c1: ebad08003e       MOV AC0,dbl(*AR5(#003eh))
0114c6: eded080018       MOV dbl(*AR7(#0018h)),AC0
0114cb: ebad080040       MOV AC0,dbl(*AR5(#0040h))
0114d0: ededbf001a       MOV dbl(*AR7(#001ah)),XAR3
0114d5: ebadb50042       MOV XAR3,dbl(*AR5(#0042h))
0114da:               $C$L33:
0114da: 4e01             AADD #1,SP
0114dc: 50f4             POPBOTH XAR7
0114de: 50d4             POPBOTH XAR5
0114e0: 4804             RET
0114e2:               _sgnGetSizes:
0114e2: 9080             MOV XAR0,AC0
0114e4: 3c04             MOV #0,T0
0114e6: 3c14_9e80        XCCPART AC0 == #0 || MOV #1,T0
0114ea: e60148_9e90      XCCPART AC0 != #0 || MOV #72,*AR0
0114ef: 4804             RET
0114f1:               _sgnGenerateFrame:
0114f1: 5066             PSH T2
0114f3: 5076             PSH T3
0114f5: 50d5             PSHBOTH XAR5
0114f7: 50e5             PSHBOTH XAR6
0114f9: 50f5             PSHBOTH XAR7
0114fb: 4ef6             AADD #-10,SP
0114fd: ec01de           AMAR *AR0,XAR5
011500: aca1             MOV *AR5,AR4
011502: eb0c95_2346      MOV XAR1,dbl(@#06h) || MOV T0,T2
011507: 043c21           BCC $C$L36,AR4 <= #0
01150a: 22c9             MOV AR4,AR1
01150c: 2669             SUB T2,AR1
01150e: 226c_9ed9        XCCPART AR1 >= #0 || MOV T2,AR4
011512: 3c09_9ea9        XCCPART AR1 < #0 || MOV #0,AR1
011516: c9a1             MOV AR1,*AR5
011518: 043c12           BCC $C$L37,AR4 <= #0
01151b: 7c00019c         SUB #1,AR4,AR1
01151f: 529c             MOV AR1,CSR
011521: ed0cbf           MOV dbl(@#06h),XAR3
011524: 4800             RPT CSR
011526:               $C$L34:
011526:               $C$DW$L$_sgnGenerateFrame$4$B:
011526: e66300              MOV #0,*AR3+
011529:               $C$DW$L$_sgnGenerateFrame$4$E:
011529:               $C$L35:
011529: 4a02             B $C$L37
01152b:               $C$L36:
01152b: 3c0c             MOV #0,AR4
01152d:               $C$L37:
01152d: a9b5_3d6a        MOV *(AR5-T1),AR1 || MOV #6,AR2
011531: 12a490           CMP AR2 < AR1, TC1
011534: 04642f           BCC $C$L38,TC1
011537: 1290a0           CMP AR1 == AR2, TC1
01153a: 6d64023d         BCC $C$L60,TC1
01153e: 3c1a             MOV #1,AR2
011540: 1290a0           CMP AR1 == AR2, TC1
011543: 6d640424         BCC $C$L80,TC1
011547: 3c2a             MOV #2,AR2
011549: 1290a0           CMP AR1 == AR2, TC1
01154c: 6d640399         BCC $C$L75,TC1
011550: 3c3a             MOV #3,AR2
011552: 1290a0           CMP AR1 == AR2, TC1
011555: 6d640245         BCC $C$L61,TC1
011559: 3c1a             MOV #1,AR2
01155b: 4249             SUB #4,AR1
01155d: 12a894           CMPU AR2 >= AR1, TC1
011560: 6d640513         BCC $C$L92,TC1
011564: 4a1a             B $C$L39
011566:               $C$L38:
011566: 3c7a             MOV #7,AR2
011568: 1290a0           CMP AR1 == AR2, TC1
01156b: 6d6404fa         BCC $C$L91,TC1
01156f: 3c8a             MOV #8,AR2
011571: 1290a0           CMP AR1 == AR2, TC1
011574: 6d640104         BCC $C$L49,TC1
011578: 3c9a             MOV #9,AR2
01157a: 1290a0           CMP AR1 == AR2, TC1
01157d: 046448           BCC $C$L43,TC1
011580:               $C$L39:
011580: 12c860           CMP AR4 >= T2, TC1
011583: 6d6404fb         BCC $C$L93,TC1
011587: ed0cbf           MOV dbl(@#06h),XAR3
01158a: 2269             MOV T2,AR1
01158c: 26c9             SUB AR4,AR1
01158e: 4219             SUB #1,AR1
011590: 529e             MOV AR1,BRC0
011592: 14c0b0_4bac      AADD AR4,AR3 || RPTBLOCAL $C$DW$L$_sgnGenerateFrame$22$B
011597:               $C$L40:
011597:               $C$DW$L$_sgnGenerateFrame$19$B:
011597: e66100              MOV #0,*AR3
01159a: a9ad000c            MOV *AR5(#000ch),AR1
01159e: 040922              BCC $C$DW$L$_sgnGenerateFrame$22$B,AR1 == #0
0115a1:               $C$DW$L$_sgnGenerateFrame$19$E:
0115a1:               $C$DW$L$_sgnGenerateFrame$20$B:
0115a1: f7ad0001000b        ADD #1,*AR5(#000bh)
0115a7: a9ad0009            MOV *AR5(#0009h),AR1
0115ab: aaad000b            MOV *AR5(#000bh),AR2
0115af: 12a490              CMP AR2 < AR1, TC1
0115b2: 67e4                BCC $C$DW$L$_sgnGenerateFrame$22$B,TC1
0115b4:               $C$DW$L$_sgnGenerateFrame$20$E:
0115b4:               $C$DW$L$_sgnGenerateFrame$21$B:
0115b4: a9ad000a            MOV *AR5(#000ah),AR1
0115b8: e6ad00000b          MOV #0,*AR5(#000bh)
0115bd: 3499                NEG AR1,AR1
0115bf: c9ad000a            MOV AR1,*AR5(#000ah)
0115c3:               $C$DW$L$_sgnGenerateFrame$22$B:
0115c3:               $C$DW$L$_sgnGenerateFrame$21$E:
0115c3:               $C$L41:
0115c3: b463                AMAR *AR3+
0115c5:               $C$DW$L$_sgnGenerateFrame$22$E:
0115c5:               $C$L42:
0115c5: 0604ba           B $C$L93
0115c8:               $C$L43:
0115c8: 2269             MOV T2,AR1
0115ca: edad08003e       MOV dbl(*AR5(#003eh)),AC0
0115cf: 2291             MOV AR1,AC1
0115d1: a5ad003c         MOV *AR5(#003ch),T1
0115d5: 120814_23c7      CMPU AC0 >= AC1, TC1 || MOV AR4,T3
0115da: 2209_9ef4        XCCPART !TC1 || MOV AC0,AR1
0115de: aaad003d         MOV *AR5(#003dh),AR2
0115e2: 2290_137890      MOV AR1,AC0 || CMP T3 >= AR1, TC1
0115e7: edad04003e       SUB AC0,dbl(*AR5(#003eh)),AC0
0115ec: ebad08003e       MOV AC0,dbl(*AR5(#003eh))
0115f1: 52a0             MOV AR2,HI(AC0)
0115f3: 046462           BCC $C$DW$L$_sgnGenerateFrame$28$E,TC1
0115f6: ed0cbf           MOV dbl(@#06h),XAR3
0115f9: 7b000147         ADD #1,T3,T0
0115fd: ed0caf           MOV dbl(@#06h),XAR2
011600: b467_2394        AMAR *(AR3+AR0) || MOV AR1,T0
011604: 2674             SUB T3,T0
011606: 26c9             SUB AR4,AR1
011608: 4014             ADD #1,T0
01160a: ec0042           BCLR @#00h,T0
01160d: 1470a0_2547      AADD T3,AR2 || ADD T0,T3
011612: 4019             ADD #1,AR1
011614: 4449             SFTS AR1,#-1
011616: 4219             SUB #1,AR1
011618: 529e             MOV AR1,BRC0
01161a: 76ffff98_4bb5    MOV #-1,AR1 || RPTBLOCAL #0x011655
011620:               $C$L44:
011620:               $C$DW$L$_sgnGenerateFrame$26$B:
011620: 2254                MOV T1,T0
011622: 900c                MOV AC0,XAR4
011624: a18b                MOV *AR4(AR0),AC1
011626: 76ff0041            BFXTR #65280,AC1,T0
01162a: edadcf0042          MOV dbl(*AR5(#0042h)),XAR4
01162f: 809d04_19ff41       MOV *AR4(AR0),*AR2 || AND #255,AC1,T0
011635: edadcf0042          MOV dbl(*AR5(#0042h)),XAR4
01163a: 125094              CMPU T1 == AR1, TC1
01163d: 4015_9ef4           XCCPART !TC1 || ADD #1,T1
011641: 809d84              MOV *AR4(AR0),*AR3
011644: 6674                BCC $C$DW$L$_sgnGenerateFrame$28$B,!TC1
011646:               $C$DW$L$_sgnGenerateFrame$27$B:
011646:               $C$DW$L$_sgnGenerateFrame$26$E:
011646: ec31ce010000        AMAR *(#010000h),XAR4
01164c: 90c1                MOV XAR4,AC1
01164e: 2410_3d05           ADD AC1,AC0 || MOV #0,T1
011652:               $C$DW$L$_sgnGenerateFrame$28$B:
011652:               $C$DW$L$_sgnGenerateFrame$27$E:
011652:               $C$L45:
011652: 1402a4              AADD #2,AR2
011655: 1402b4              AADD #2,AR3
011658:               $C$DW$L$_sgnGenerateFrame$28$E:
011658:               $C$L46:
011658: 127860           CMP T3 >= T2, TC1
01165b: 046413           BCC $C$DW$L$_sgnGenerateFrame$31$E,TC1
01165e: ed0cbf           MOV dbl(@#06h),XAR3
011661: 2269             MOV T2,AR1
011663: 2679             SUB T3,AR1
011665: 4219             SUB #1,AR1
011667: 529c             MOV AR1,CSR
011669: 1470b0_4900      AADD T3,AR3 || RPT CSR
01166e:               $C$L47:
01166e:               $C$DW$L$_sgnGenerateFrame$31$B:
01166e: e66300              MOV #0,*AR3+
011671:               $C$DW$L$_sgnGenerateFrame$31$E:
011671:               $C$L48:
011671: c5ad003c         MOV T1,*AR5(#003ch)
011675: bcad003d         MOV HI(AC0),*AR5(#003dh)
011679: 060406           B $C$L93
01167c:               $C$L49:
01167c: 6d360402         BCC $C$L93,T2 <= #0
011680: ed0cff           MOV dbl(@#06h),XAR7
011683: 762000e8_2367    MOV #8192,AR6 || MOV T2,T3
011689:               $C$L50:
011689:               $C$DW$L$_sgnGenerateFrame$35$B:
011689: b0bf             MOV *(AR5-AR0B) << #16,AC0
01168b: bc08             MOV HI(AC0),@#04h
01168d: f9bb0208         MOV *-AR5 << #2,AC0
011691: 2204             MOV AC0,T0
011693: 6c0160f1         CALL _utlSin
011697: b008             MOV @#04h << #16,AC0
011699: 5800             MPY T0,AC0,AC0
01169b: 100532           SFTS AC0,#-14,AC0
01169e: eb1008           MOV AC0,dbl(@#08h)
0116a1: b0ad0008         MOV *AR5(#0008h) << #16,AC0
0116a5: bc08             MOV HI(AC0),@#04h
0116a7: f9bd0208         MOV *(AR5+AR0B) << #2,AC0
0116ab: 2204             MOV AC0,T0
0116ad: 6c0160f1         CALL _utlSin
0116b1: b008             MOV @#04h << #16,AC0
0116b3: a9ad000a         MOV *AR5(#000ah),AR1
0116b7: 5800             MPY T0,AC0,AC0
0116b9: 100532           SFTS AC0,#-14,AC0
0116bc: 7b400000         ADD #16384,AC0,AC0
0116c0: 2205             MOV AC0,T1
0116c2: b012             MOV @#09h << #16,AC0
0116c4: 5804             MPY T1,AC0,AC0
0116c6: 100532           SFTS AC0,#-14,AC0
0116c9: eb1008           MOV AC0,dbl(@#08h)
0116cc: 04291c           BCC $C$DW$L$_sgnGenerateFrame$40$B,AR1 < #0
0116cf:               $C$DW$L$_sgnGenerateFrame$35$E:
0116cf:               $C$DW$L$_sgnGenerateFrame$36$B:
0116cf: ed1008_3d01      MOV dbl(@#08h),AC0 || MOV #0,AC1
0116d4: 7e800011         OR #32768,AC1,AC1
0116d8: 3200             ABS AC0,AC0
0116da: 120410           CMP AC0 < AC1, TC1
0116dd: 6464             BCC $C$DW$L$_sgnGenerateFrame$38$E,TC1
0116df:               $C$DW$L$_sgnGenerateFrame$36$E:
0116df:               $C$DW$L$_sgnGenerateFrame$37$B:
0116df: ed1008           MOV dbl(@#08h),AC0
0116e2: 04402c           BCC $C$DW$L$_sgnGenerateFrame$45$E,AC0 > #0
0116e5:               $C$DW$L$_sgnGenerateFrame$37$E:
0116e5:               $C$DW$L$_sgnGenerateFrame$38$B:
0116e5: 4a24             B $C$DW$L$_sgnGenerateFrame$44$E
0116e7:               $C$DW$L$_sgnGenerateFrame$38$E:
0116e7:               $C$L51:
0116e7:               $C$DW$L$_sgnGenerateFrame$39$B:
0116e7: a012             MOV @#09h,AC0
0116e9: 4a31             B $C$DW$L$_sgnGenerateFrame$48$B
0116eb:               $C$DW$L$_sgnGenerateFrame$40$B:
0116eb:               $C$DW$L$_sgnGenerateFrame$39$E:
0116eb:               $C$L52:
0116eb: ed1008           MOV dbl(@#08h),AC0
0116ee: 62b0             BCC $C$DW$L$_sgnGenerateFrame$41$E,AC0 <= #0
0116f0:               $C$DW$L$_sgnGenerateFrame$40$E:
0116f0:               $C$DW$L$_sgnGenerateFrame$41$B:
0116f0: ed1008           MOV dbl(@#08h),AC0
0116f3: 4a05             B $C$DW$L$_sgnGenerateFrame$42$E
0116f5:               $C$DW$L$_sgnGenerateFrame$41$E:
0116f5:               $C$L53:
0116f5:               $C$DW$L$_sgnGenerateFrame$42$B:
0116f5: ed1008           MOV dbl(@#08h),AC0
0116f8: 3400             NEG AC0,AC0
0116fa:               $C$DW$L$_sgnGenerateFrame$42$E:
0116fa:               $C$L54:
0116fa:               $C$DW$L$_sgnGenerateFrame$43$B:
0116fa: 3c01             MOV #0,AC1
0116fc: 7e800011         OR #32768,AC1,AC1
011700: 120410           CMP AC0 < AC1, TC1
011703: 046411           BCC $C$DW$L$_sgnGenerateFrame$46$E,TC1
011706:               $C$DW$L$_sgnGenerateFrame$43$E:
011706:               $C$DW$L$_sgnGenerateFrame$44$B:
011706: ed1008           MOV dbl(@#08h),AC0
011709: 6320             BCC $C$DW$L$_sgnGenerateFrame$45$E,AC0 < #0
01170b:               $C$DW$L$_sgnGenerateFrame$44$E:
01170b:               $C$L55:
01170b:               $C$DW$L$_sgnGenerateFrame$45$B:
01170b: 76800008         MOV #-32768,AC0
01170f: 4a0b             B $C$DW$L$_sgnGenerateFrame$48$B
011711:               $C$DW$L$_sgnGenerateFrame$45$E:
011711:               $C$L56:
011711:               $C$DW$L$_sgnGenerateFrame$46$B:
011711: 767fff08         MOV #32767,AC0
011715: 4a05             B $C$DW$L$_sgnGenerateFrame$48$B
011717:               $C$DW$L$_sgnGenerateFrame$46$E:
011717:               $C$L57:
011717:               $C$DW$L$_sgnGenerateFrame$47$B:
011717: ed1008           MOV dbl(@#08h),AC0
01171a: 3400             NEG AC0,AC0
01171c:               $C$DW$L$_sgnGenerateFrame$48$B:
01171c:               $C$DW$L$_sgnGenerateFrame$47$E:
01171c:               $C$L58:
01171c: aab7             MOV *AR5(T1),AR2
01171e: d6bbaa           ADD *-AR5,AR2,AR2
011721: 762000b8         MOV #8192,AR3
011725: cabb             MOV AR2,*-AR5
011727: aabb             MOV *-AR5,AR2
011729: 12a4b0           CMP AR2 < AR3, TC1
01172c: 7c4000aa         SUB #16384,AR2,AR2
011730: cabb_9ef4        XCCPART !TC1 || MOV AR2,*-AR5
011734: aab9             MOV *+AR5,AR2
011736: d6bdaa           ADD *(AR5+AR0B),AR2,AR2
011739: cabd             MOV AR2,*(AR5+AR0B)
01173b: aabd             MOV *(AR5+AR0B),AR2
01173d: 12a4e0           CMP AR2 < AR6, TC1
011740: 7c4000aa         SUB #16384,AR2,AR2
011744: cabd_9ef4        XCCPART !TC1 || MOV AR2,*(AR5+AR0B)
011748: aaad000c         MOV *AR5(#000ch),AR2
01174c: 040a21           BCC $C$DW$L$_sgnGenerateFrame$50$B,AR2 == #0
01174f:               $C$DW$L$_sgnGenerateFrame$48$E:
01174f:               $C$DW$L$_sgnGenerateFrame$49$B:
01174f: f7ad0001000b     ADD #1,*AR5(#000bh)
011755: aaad0009         MOV *AR5(#0009h),AR2
011759: abad000b         MOV *AR5(#000bh),AR3
01175d: 12b4a0           CMP AR3 < AR2, TC1
011760: 3499             NEG AR1,AR1
011762: 96f4             XCCPART !TC1
011764: e6ad00000b       MOV #0,*AR5(#000bh)
011769: 20               NOP
01176a: 96f4             XCCPART !TC1
01176c: c9ad000a         MOV AR1,*AR5(#000ah)
011770:               $C$DW$L$_sgnGenerateFrame$50$B:
011770:               $C$DW$L$_sgnGenerateFrame$49$E:
011770:               $C$L59:
011770: 4217             SUB #1,T3
011772: c0e3             MOV AC0,*AR7+
011774: 6d17ff11         BCC $C$L50,T3 != #0
011778:               $C$DW$L$_sgnGenerateFrame$50$E:
011778: 060307           B $C$L93
01177b:               $C$L60:
01177b: 12c060           CMP AR4 == T2, TC1
01177e: 6d640300         BCC $C$L93,TC1
011782: ed0cbf           MOV dbl(@#06h),XAR3
011785: 2269             MOV T2,AR1
011787: ec008e_27c9      AMAR @#00h,XAR0 || SUB AR4,AR1
01178c: edad080038       MOV dbl(*AR5(#0038h)),AC0
011791: c904             MOV AR1,@#02h
011793: 8e00bb10b5c0     MOV XAR3,dbl(@#00h) || AADD AR4,AR3
011799: 9200             CALL AC0
01179b: 0602e4           B $C$L93
01179e:               $C$L61:
01179e: 12c860           CMP AR4 >= T2, TC1
0117a1: 6d6402dd         BCC $C$L93,TC1
0117a5: ed0cff           MOV dbl(@#06h),XAR7
0117a8: 762000e8_2367    MOV #8192,AR6 || MOV T2,T3
0117ae: 14c0f0_27c7      AADD AR4,AR7 || SUB AR4,T3
0117b3:               $C$L62:
0117b3:               $C$DW$L$_sgnGenerateFrame$56$B:
0117b3: edad080014       MOV dbl(*AR5(#0014h)),AC0
0117b8: 66d0             BCC $C$DW$L$_sgnGenerateFrame$59$B,AC0 >= #0
0117ba:               $C$DW$L$_sgnGenerateFrame$56$E:
0117ba:               $C$DW$L$_sgnGenerateFrame$57$B:
0117ba: a9ad000c         MOV *AR5(#000ch),AR1
0117be: 3c00             MOV #0,AC0
0117c0: 6d1900f8         BCC $C$DW$L$_sgnGenerateFrame$74$E,AR1 != #0
0117c4:               $C$DW$L$_sgnGenerateFrame$57$E:
0117c4:               $C$DW$L$_sgnGenerateFrame$58$B:
0117c4: 060117           B $C$DW$L$_sgnGenerateFrame$77$B
0117c7:               $C$DW$L$_sgnGenerateFrame$59$B:
0117c7:               $C$DW$L$_sgnGenerateFrame$58$E:
0117c7:               $C$L63:
0117c7: a9ad0018         MOV *AR5(#0018h),AR1
0117cb: 6d49009c         BCC $C$DW$L$_sgnGenerateFrame$70$B,AR1 > #0
0117cf:               $C$DW$L$_sgnGenerateFrame$59$E:
0117cf:               $C$DW$L$_sgnGenerateFrame$60$B:
0117cf: a9ad001b         MOV *AR5(#001bh),AR1
0117d3: 043914           BCC $C$DW$L$_sgnGenerateFrame$63$B,AR1 <= #0
0117d6:               $C$DW$L$_sgnGenerateFrame$60$E:
0117d6:               $C$DW$L$_sgnGenerateFrame$61$B:
0117d6: 4219             SUB #1,AR1
0117d8: c9ad001b         MOV AR1,*AR5(#001bh)
0117dc: a9ad0019         MOV *AR5(#0019h),AR1
0117e0: e6ad1b0018       MOV #27,*AR5(#0018h)
0117e5: 045913           BCC $C$DW$L$_sgnGenerateFrame$63$E,AR1 >= #0
0117e8:               $C$DW$L$_sgnGenerateFrame$61$E:
0117e8:               $C$DW$L$_sgnGenerateFrame$62$B:
0117e8: 4a27             B $C$DW$L$_sgnGenerateFrame$66$B
0117ea:               $C$DW$L$_sgnGenerateFrame$63$B:
0117ea:               $C$DW$L$_sgnGenerateFrame$62$E:
0117ea:               $C$L64:
0117ea: a9ad0019         MOV *AR5(#0019h),AR1
0117ee: e6ad1a0018       MOV #26,*AR5(#0018h)
0117f3: e6ad02001b       MOV #2,*AR5(#001bh)
0117f8: 042916           BCC $C$DW$L$_sgnGenerateFrame$66$B,AR1 < #0
0117fb:               $C$DW$L$_sgnGenerateFrame$63$E:
0117fb:               $C$L65:
0117fb:               $C$DW$L$_sgnGenerateFrame$64$B:
0117fb: a9b7             MOV *AR5(T1),AR1
0117fd: 760010a8         MOV #16,AR2
011801: c9ad001a         MOV AR1,*AR5(#001ah)
011805: a9ad0016         MOV *AR5(#0016h),AR1
011809: 1298a0           CMP AR1 >= AR2, TC1
01180c: 046416           BCC $C$DW$L$_sgnGenerateFrame$66$E,TC1
01180f:               $C$DW$L$_sgnGenerateFrame$64$E:
01180f:               $C$DW$L$_sgnGenerateFrame$65$B:
01180f: 4a3e             B $C$DW$L$_sgnGenerateFrame$68$B
011811:               $C$DW$L$_sgnGenerateFrame$66$B:
011811:               $C$DW$L$_sgnGenerateFrame$65$E:
011811:               $C$L66:
011811: a9b9             MOV *+AR5,AR1
011813: 760010a8         MOV #16,AR2
011817: c9ad001a         MOV AR1,*AR5(#001ah)
01181b: a9ad0016         MOV *AR5(#0016h),AR1
01181f: 1294a0           CMP AR1 < AR2, TC1
011822: 04642a           BCC $C$DW$L$_sgnGenerateFrame$68$B,TC1
011825:               $C$DW$L$_sgnGenerateFrame$66$E:
011825:               $C$L67:
011825:               $C$DW$L$_sgnGenerateFrame$67$B:
011825: a9ad0017         MOV *AR5(#0017h),AR1
011829: aaad0010         MOV *AR5(#0010h),AR2
01182d: 4019             ADD #1,AR1
01182f: edadbf0012       MOV dbl(*AR5(#0012h)),XAR3
011834: c9ad0017         MOV AR1,*AR5(#0017h)
011838: 1294a0           CMP AR1 < AR2, TC1
01183b: 96f4             XCCPART !TC1
01183d: e6ad000017       MOV #0,*AR5(#0017h)
011842: a4ad0017         MOV *AR5(#0017h),T0
011846: a96b             MOV *AR3(AR0),AR1
011848: e6ad000016       MOV #0,*AR5(#0016h)
01184d: 4a0c             B $C$DW$L$_sgnGenerateFrame$68$E
01184f:               $C$DW$L$_sgnGenerateFrame$68$B:
01184f:               $C$DW$L$_sgnGenerateFrame$67$E:
01184f:               $C$L68:
01184f: a9ad0019         MOV *AR5(#0019h),AR1
011853: 5090             SFTL AR1,#1
011855: f7ad00010016     ADD #1,*AR5(#0016h)
01185b:               $C$DW$L$_sgnGenerateFrame$68$E:
01185b:               $C$L69:
01185b:               $C$DW$L$_sgnGenerateFrame$69$B:
01185b: c9ad0019         MOV AR1,*AR5(#0019h)
01185f: edad080014       MOV dbl(*AR5(#0014h)),AC0
011864: 4210             SUB #1,AC0
011866: ebad080014       MOV AC0,dbl(*AR5(#0014h))
01186b:               $C$DW$L$_sgnGenerateFrame$70$B:
01186b:               $C$DW$L$_sgnGenerateFrame$69$E:
01186b:               $C$L70:
01186b: b0bf             MOV *(AR5-AR0B) << #16,AC0
01186d: bc08             MOV HI(AC0),@#04h
01186f: f9bb0208         MOV *-AR5 << #2,AC0
011873: 2204             MOV AC0,T0
011875: 6c0160f1         CALL _utlSin
011879: 3c01             MOV #0,AC1
01187b: 7e800011         OR #32768,AC1,AC1
01187f: b008             MOV @#04h << #16,AC0
011881: 5800             MPY T0,AC0,AC0
011883: 100532           SFTS AC0,#-14,AC0
011886: 3202             ABS AC0,AC2
011888: 122410           CMP AC2 < AC1, TC1
01188b: 6664             BCC $C$DW$L$_sgnGenerateFrame$73$E,TC1
01188d:               $C$DW$L$_sgnGenerateFrame$70$E:
01188d:               $C$DW$L$_sgnGenerateFrame$71$B:
01188d: 6340             BCC $C$DW$L$_sgnGenerateFrame$72$E,AC0 > #0
01188f:               $C$DW$L$_sgnGenerateFrame$71$E:
01188f:               $C$DW$L$_sgnGenerateFrame$72$B:
01188f: 76800008         MOV #-32768,AC0
011893: 4a04             B $C$DW$L$_sgnGenerateFrame$73$E
011895:               $C$DW$L$_sgnGenerateFrame$72$E:
011895:               $C$L71:
011895:               $C$DW$L$_sgnGenerateFrame$73$B:
011895: 767fff08         MOV #32767,AC0
011899:               $C$DW$L$_sgnGenerateFrame$73$E:
011899:               $C$L72:
011899:               $C$DW$L$_sgnGenerateFrame$74$B:
011899: f7adffff0018     ADD #-1,*AR5(#0018h)
01189f: a9ad001a         MOV *AR5(#001ah),AR1
0118a3: d6bb99           ADD *-AR5,AR1,AR1
0118a6: c9bb             MOV AR1,*-AR5
0118a8: a9bb             MOV *-AR5,AR1
0118aa: 1294e0           CMP AR1 < AR6, TC1
0118ad: 7c400099         SUB #16384,AR1,AR1
0118b1: c9bb_9ef4        XCCPART !TC1 || MOV AR1,*-AR5
0118b5: a9ad000c         MOV *AR5(#000ch),AR1
0118b9: 040922           BCC $C$DW$L$_sgnGenerateFrame$77$B,AR1 == #0
0118bc:               $C$DW$L$_sgnGenerateFrame$74$E:
0118bc:               $C$L73:
0118bc:               $C$DW$L$_sgnGenerateFrame$75$B:
0118bc: f7ad0001000b     ADD #1,*AR5(#000bh)
0118c2: a9ad0009         MOV *AR5(#0009h),AR1
0118c6: aaad000b         MOV *AR5(#000bh),AR2
0118ca: 12a490           CMP AR2 < AR1, TC1
0118cd: 67e4             BCC $C$DW$L$_sgnGenerateFrame$77$B,TC1
0118cf:               $C$DW$L$_sgnGenerateFrame$75$E:
0118cf:               $C$DW$L$_sgnGenerateFrame$76$B:
0118cf: a9ad000a         MOV *AR5(#000ah),AR1
0118d3: e6ad00000b       MOV #0,*AR5(#000bh)
0118d8: 3499             NEG AR1,AR1
0118da: c9ad000a         MOV AR1,*AR5(#000ah)
0118de:               $C$DW$L$_sgnGenerateFrame$77$B:
0118de:               $C$DW$L$_sgnGenerateFrame$76$E:
0118de:               $C$L74:
0118de: 4217             SUB #1,T3
0118e0: c0e3             MOV AC0,*AR7+
0118e2: 6d17fecd         BCC $C$L62,T3 != #0
0118e6:               $C$DW$L$_sgnGenerateFrame$77$E:
0118e6: 060199           B $C$L93
0118e9:               $C$L75:
0118e9: 12c860           CMP AR4 >= T2, TC1
0118ec: 6d640192         BCC $C$L93,TC1
0118f0: 2269             MOV T2,AR1
0118f2: 26c9             SUB AR4,AR1
0118f4: 4219             SUB #1,AR1
0118f6: 529e             MOV AR1,BRC0
0118f8: 764000a8         MOV #16384,AR2
0118fc: ed0cbf           MOV dbl(@#06h),XAR3
0118ff: 14c0b0           AADD AR4,AR3
011902: 768000c8         MOV #-32768,AR4
011906: 0e005d           RPTB $C$DW$L$_sgnGenerateFrame$85$B
011909:               $C$L76:
011909:               $C$DW$L$_sgnGenerateFrame$81$B:
011909: a9bb                MOV *-AR5,AR1
01190b: 5090                SFTL AR1,#1
01190d: 7c400059            SUB #16384,AR1,T1
011911: d3bf05              MPYM *(AR5-AR0B),T1,AC0
011914: 100532              SFTS AC0,#-14,AC0
011917: a5ad000a            MOV *AR5(#000ah),T1
01191b: 2209                MOV AC0,AR1
01191d: 65d5                BCC $C$DW$L$_sgnGenerateFrame$83$B,T1 >= #0
01191f:               $C$DW$L$_sgnGenerateFrame$81$E:
01191f:               $C$DW$L$_sgnGenerateFrame$82$B:
01191f: 12c490              CMP AR4 < AR1, TC1
011922: 76800198_9ef4       XCCPART !TC1 || MOV #-32767,AR1
011928: 3499                NEG AR1,AR1
01192a:               $C$DW$L$_sgnGenerateFrame$83$B:
01192a:               $C$DW$L$_sgnGenerateFrame$82$E:
01192a:               $C$L77:
01192a: a7b7                MOV *AR5(T1),T3
01192c: d6bb77              ADD *-AR5,T3,T3
01192f: c7bb                MOV T3,*-AR5
011931: a7bb                MOV *-AR5,T3
011933: 1274a0              CMP T3 < AR2, TC1
011936: 7c400077            SUB #16384,T3,T3
01193a: c7bb_9ef4           XCCPART !TC1 || MOV T3,*-AR5
01193e: a7ad000c            MOV *AR5(#000ch),T3
011942: 040721              BCC $C$DW$L$_sgnGenerateFrame$85$B,T3 == #0
011945:               $C$DW$L$_sgnGenerateFrame$83$E:
011945:               $C$DW$L$_sgnGenerateFrame$84$B:
011945: f7ad0001000b        ADD #1,*AR5(#000bh)
01194b: a7ad0009            MOV *AR5(#0009h),T3
01194f: a4ad000b            MOV *AR5(#000bh),T0
011953: 124470              CMP T0 < T3, TC1
011956: 3455                NEG T1,T1
011958: 96f4                XCCPART !TC1
01195a: e6ad00000b          MOV #0,*AR5(#000bh)
01195f: 20                  NOP
011960: 96f4                XCCPART !TC1
011962: c5ad000a            MOV T1,*AR5(#000ah)
011966:               $C$DW$L$_sgnGenerateFrame$85$B:
011966:               $C$DW$L$_sgnGenerateFrame$84$E:
011966:               $C$L78:
011966: c963                MOV AR1,*AR3+
011968:               $C$DW$L$_sgnGenerateFrame$85$E:
011968:               $C$L79:
011968: 060117           B $C$L93
01196b:               $C$L80:
01196b: 12c860           CMP AR4 >= T2, TC1
01196e: 6d640110         BCC $C$L93,TC1
011972: ed0cff           MOV dbl(@#06h),XAR7
011975: 762000e8_2367    MOV #8192,AR6 || MOV T2,T3
01197b: 14c0f0_27c7      AADD AR4,AR7 || SUB AR4,T3
011980:               $C$L81:
011980:               $C$DW$L$_sgnGenerateFrame$89$B:
011980: b0bf             MOV *(AR5-AR0B) << #16,AC0
011982: bc08             MOV HI(AC0),@#04h
011984: f9bb0208         MOV *-AR5 << #2,AC0
011988: 2204             MOV AC0,T0
01198a: 6c0160f1         CALL _utlSin
01198e: b008             MOV @#04h << #16,AC0
011990: 5800             MPY T0,AC0,AC0
011992: 100532           SFTS AC0,#-14,AC0
011995: eb1008           MOV AC0,dbl(@#08h)
011998: b0ad0008         MOV *AR5(#0008h) << #16,AC0
01199c: bc08             MOV HI(AC0),@#04h
01199e: f9bd0208         MOV *(AR5+AR0B) << #2,AC0
0119a2: 2204             MOV AC0,T0
0119a4: 6c0160f1         CALL _utlSin
0119a8: a9ad000a         MOV *AR5(#000ah),AR1
0119ac: b008             MOV @#04h << #16,AC0
0119ae: 5800             MPY T0,AC0,AC0
0119b0: ed1008_114532    MOV dbl(@#08h),AC0 || SFTS AC0,#-14,AC1
0119b6: 2410             ADD AC1,AC0
0119b8: eb1008           MOV AC0,dbl(@#08h)
0119bb: 04291c           BCC $C$DW$L$_sgnGenerateFrame$94$B,AR1 < #0
0119be:               $C$DW$L$_sgnGenerateFrame$89$E:
0119be:               $C$DW$L$_sgnGenerateFrame$90$B:
0119be: ed1008_3d01      MOV dbl(@#08h),AC0 || MOV #0,AC1
0119c3: 7e800011         OR #32768,AC1,AC1
0119c7: 3200             ABS AC0,AC0
0119c9: 120410           CMP AC0 < AC1, TC1
0119cc: 6464             BCC $C$DW$L$_sgnGenerateFrame$92$E,TC1
0119ce:               $C$DW$L$_sgnGenerateFrame$90$E:
0119ce:               $C$DW$L$_sgnGenerateFrame$91$B:
0119ce: ed1008           MOV dbl(@#08h),AC0
0119d1: 04402c           BCC $C$DW$L$_sgnGenerateFrame$99$E,AC0 > #0
0119d4:               $C$DW$L$_sgnGenerateFrame$91$E:
0119d4:               $C$DW$L$_sgnGenerateFrame$92$B:
0119d4: 4a24             B $C$DW$L$_sgnGenerateFrame$98$E
0119d6:               $C$DW$L$_sgnGenerateFrame$92$E:
0119d6:               $C$L82:
0119d6:               $C$DW$L$_sgnGenerateFrame$93$B:
0119d6: a012             MOV @#09h,AC0
0119d8: 4a31             B $C$DW$L$_sgnGenerateFrame$102$B
0119da:               $C$DW$L$_sgnGenerateFrame$94$B:
0119da:               $C$DW$L$_sgnGenerateFrame$93$E:
0119da:               $C$L83:
0119da: ed1008           MOV dbl(@#08h),AC0
0119dd: 62b0             BCC $C$DW$L$_sgnGenerateFrame$95$E,AC0 <= #0
0119df:               $C$DW$L$_sgnGenerateFrame$94$E:
0119df:               $C$DW$L$_sgnGenerateFrame$95$B:
0119df: ed1008           MOV dbl(@#08h),AC0
0119e2: 4a05             B $C$DW$L$_sgnGenerateFrame$96$E
0119e4:               $C$DW$L$_sgnGenerateFrame$95$E:
0119e4:               $C$L84:
0119e4:               $C$DW$L$_sgnGenerateFrame$96$B:
0119e4: ed1008           MOV dbl(@#08h),AC0
0119e7: 3400             NEG AC0,AC0
0119e9:               $C$DW$L$_sgnGenerateFrame$96$E:
0119e9:               $C$L85:
0119e9:               $C$DW$L$_sgnGenerateFrame$97$B:
0119e9: 3c01             MOV #0,AC1
0119eb: 7e800011         OR #32768,AC1,AC1
0119ef: 120410           CMP AC0 < AC1, TC1
0119f2: 046411           BCC $C$DW$L$_sgnGenerateFrame$100$E,TC1
0119f5:               $C$DW$L$_sgnGenerateFrame$97$E:
0119f5:               $C$DW$L$_sgnGenerateFrame$98$B:
0119f5: ed1008           MOV dbl(@#08h),AC0
0119f8: 6320             BCC $C$DW$L$_sgnGenerateFrame$99$E,AC0 < #0
0119fa:               $C$DW$L$_sgnGenerateFrame$98$E:
0119fa:               $C$L86:
0119fa:               $C$DW$L$_sgnGenerateFrame$99$B:
0119fa: 76800008         MOV #-32768,AC0
0119fe: 4a0b             B $C$DW$L$_sgnGenerateFrame$102$B
011a00:               $C$DW$L$_sgnGenerateFrame$99$E:
011a00:               $C$L87:
011a00:               $C$DW$L$_sgnGenerateFrame$100$B:
011a00: 767fff08         MOV #32767,AC0
011a04: 4a05             B $C$DW$L$_sgnGenerateFrame$102$B
011a06:               $C$DW$L$_sgnGenerateFrame$100$E:
011a06:               $C$L88:
011a06:               $C$DW$L$_sgnGenerateFrame$101$B:
011a06: ed1008           MOV dbl(@#08h),AC0
011a09: 3400             NEG AC0,AC0
011a0b:               $C$DW$L$_sgnGenerateFrame$102$B:
011a0b:               $C$DW$L$_sgnGenerateFrame$101$E:
011a0b:               $C$L89:
011a0b: aab7             MOV *AR5(T1),AR2
011a0d: d6bbaa           ADD *-AR5,AR2,AR2
011a10: 762000b8         MOV #8192,AR3
011a14: cabb             MOV AR2,*-AR5
011a16: aabb             MOV *-AR5,AR2
011a18: 12a4b0           CMP AR2 < AR3, TC1
011a1b: 7c4000aa         SUB #16384,AR2,AR2
011a1f: cabb_9ef4        XCCPART !TC1 || MOV AR2,*-AR5
011a23: aab9             MOV *+AR5,AR2
011a25: d6bdaa           ADD *(AR5+AR0B),AR2,AR2
011a28: cabd             MOV AR2,*(AR5+AR0B)
011a2a: aabd             MOV *(AR5+AR0B),AR2
011a2c: 12a4e0           CMP AR2 < AR6, TC1
011a2f: 7c4000aa         SUB #16384,AR2,AR2
011a33: cabd_9ef4        XCCPART !TC1 || MOV AR2,*(AR5+AR0B)
011a37: aaad000c         MOV *AR5(#000ch),AR2
011a3b: 040a21           BCC $C$DW$L$_sgnGenerateFrame$104$B,AR2 == #0
011a3e:               $C$DW$L$_sgnGenerateFrame$102$E:
011a3e:               $C$DW$L$_sgnGenerateFrame$103$B:
011a3e: f7ad0001000b     ADD #1,*AR5(#000bh)
011a44: aaad0009         MOV *AR5(#0009h),AR2
011a48: abad000b         MOV *AR5(#000bh),AR3
011a4c: 12b4a0           CMP AR3 < AR2, TC1
011a4f: 3499             NEG AR1,AR1
011a51: 96f4             XCCPART !TC1
011a53: e6ad00000b       MOV #0,*AR5(#000bh)
011a58: 20               NOP
011a59: 96f4             XCCPART !TC1
011a5b: c9ad000a         MOV AR1,*AR5(#000ah)
011a5f:               $C$DW$L$_sgnGenerateFrame$104$B:
011a5f:               $C$DW$L$_sgnGenerateFrame$103$E:
011a5f:               $C$L90:
011a5f: 4217             SUB #1,T3
011a61: c0e3             MOV AC0,*AR7+
011a63: 6d17ff19         BCC $C$L81,T3 != #0
011a67:               $C$DW$L$_sgnGenerateFrame$104$E:
011a67: 4a19             B $C$L93
011a69:               $C$L91:
011a69: ed0c9f           MOV dbl(@#06h),XAR1
011a6c: 14c090_27c4      AADD AR4,AR1 || SUB AR4,T0
011a71: 6c015b27         CALL _sgn_hoth_gen_samples
011a75: 4a0b             B $C$L93
011a77:               $C$L92:
011a77: ed0c9f           MOV dbl(@#06h),XAR1
011a7a: 14c090_27c4      AADD AR4,AR1 || SUB AR4,T0
011a7f: 08f5b6           CALL _sgn_css_gen_samples
011a82:               $C$L93:
011a82: aab3             MOV *(AR5+T1),AR2
011a84: 6d360105         BCC $C$DW$L$_sgnGenerateFrame$132$E,T2 <= #0
011a88: 7c000196         SUB #1,T2,AR1
011a8c: 529e             MOV AR1,BRC0
011a8e: ed0cbf           MOV dbl(@#06h),XAR3
011a91: 0e0023_23a3      RPTB $C$DW$L$_sgnGenerateFrame$112$E || MOV AR2,AC3
011a96:               $C$L94:
011a96:               $C$DW$L$_sgnGenerateFrame$110$B:
011a96: ac61                MOV *AR3,AR4
011a98: 22c0_3d01           MOV AR4,AC0 || MOV #0,AC1
011a9c: 7e800011            OR #32768,AC1,AC1
011aa0: 2430                ADD AC3,AC0
011aa2: 3202                ABS AC0,AC2
011aa4: 122410              CMP AC2 < AC1, TC1
011aa7: 6664                BCC $C$DW$L$_sgnGenerateFrame$111$E,TC1
011aa9:               $C$DW$L$_sgnGenerateFrame$110$E:
011aa9:               $C$DW$L$_sgnGenerateFrame$111$B:
011aa9: 76800098            MOV #-32768,AR1
011aad: 767fff98_9ec0       XCCPART AC0 > #0 || MOV #32767,AR1
011ab3: 4a04                B $C$DW$L$_sgnGenerateFrame$112$E
011ab5:               $C$DW$L$_sgnGenerateFrame$111$E:
011ab5:               $C$L95:
011ab5:               $C$DW$L$_sgnGenerateFrame$112$B:
011ab5: 22a9                MOV AR2,AR1
011ab7: 24c9                ADD AR4,AR1
011ab9:               $C$DW$L$_sgnGenerateFrame$112$E:
011ab9:               $C$L96:
011ab9:               $C$DW$L$_sgnGenerateFrame$113$B:
011ab9: c963                MOV AR1,*AR3+
011abb:               $C$DW$L$_sgnGenerateFrame$113$E:
011abb:               $C$L97:
011abb: 6d3600ce         BCC $C$DW$L$_sgnGenerateFrame$132$E,T2 <= #0
011abf: 3c09             MOV #0,AR1
011ac1: c908             MOV AR1,@#04h
011ac3:               $C$L98:
011ac3:               $C$DW$L$_sgnGenerateFrame$116$B:
011ac3: 76ffbaa8         MOV #-70,AR2
011ac7: a9ad001d         MOV *AR5(#001dh),AR1
011acb: 1294a0           CMP AR1 < AR2, TC1
011ace: 6d6400b1         BCC $C$DW$L$_sgnGenerateFrame$132$B,TC1
011ad2:               $C$DW$L$_sgnGenerateFrame$116$E:
011ad2:               $C$DW$L$_sgnGenerateFrame$117$B:
011ad2: a908             MOV @#04h,AR1
011ad4: ed0cef           MOV dbl(@#06h),XAR6
011ad7: eca1fe           AMAR *AR5,XAR7
011ada: 1490e0           AADD AR1,AR6
011add: a9ad0020         MOV *AR5(#0020h),AR1
011ae1: 141ff4           AADD #31,AR7
011ae4: 6719             BCC $C$DW$L$_sgnGenerateFrame$119$B,AR1 != #0
011ae6:               $C$DW$L$_sgnGenerateFrame$117$E:
011ae6:               $C$DW$L$_sgnGenerateFrame$118$B:
011ae6: a4ad001e         MOV *AR5(#001eh),T0
011aea: ece18e           AMAR *AR7,XAR0
011aed: 6c0166fe         CALL _wngGenNoiseSample
011af1: 06006a           B $C$DW$L$_sgnGenerateFrame$128$B
011af4:               $C$DW$L$_sgnGenerateFrame$119$B:
011af4:               $C$DW$L$_sgnGenerateFrame$118$E:
011af4:               $C$L99:
011af4: 3c00             MOV #0,AC0
011af6: 76001078         MOV #16,T3
011afa: eb1008           MOV AC0,dbl(@#08h)
011afd:               $C$DW$L$_sgnGenerateFrame$119$E:
011afd:               $C$L100:
011afd:               $C$DW$L$_sgnGenerateFrame$120$B:
011afd: a4ad001e         MOV *AR5(#001eh),T0
011b01: ece18e           AMAR *AR7,XAR0
011b04: 6c0166fe         CALL _wngGenNoiseSample
011b08: ed1008_2341      MOV dbl(@#08h),AC0 || MOV T0,AC1
011b0d: 2410             ADD AC1,AC0
011b0f: 4217             SUB #1,T3
011b11: eb1008           MOV AC0,dbl(@#08h)
011b14: 0417e6           BCC $C$DW$L$_sgnGenerateFrame$119$E,T3 != #0
011b17:               $C$DW$L$_sgnGenerateFrame$121$B:
011b17:               $C$DW$L$_sgnGenerateFrame$120$E:
011b17: ed1008           MOV dbl(@#08h),AC0
011b1a: 042013           BCC $C$DW$L$_sgnGenerateFrame$123$E,AC0 < #0
011b1d:               $C$DW$L$_sgnGenerateFrame$121$E:
011b1d:               $C$DW$L$_sgnGenerateFrame$122$B:
011b1d: ec31be020000     AMAR *(#020000h),XAR3
011b23: ed1008           MOV dbl(@#08h),AC0
011b26: 90b1             MOV XAR3,AC1
011b28: 120810           CMP AC0 >= AC1, TC1
011b2b: 046422           BCC $C$DW$L$_sgnGenerateFrame$125$E,TC1
011b2e:               $C$DW$L$_sgnGenerateFrame$122$E:
011b2e:               $C$DW$L$_sgnGenerateFrame$123$B:
011b2e: 4a26             B $C$DW$L$_sgnGenerateFrame$126$E
011b30:               $C$DW$L$_sgnGenerateFrame$123$E:
011b30:               $C$L101:
011b30:               $C$DW$L$_sgnGenerateFrame$124$B:
011b30: ed1008           MOV dbl(@#08h),AC0
011b33: 76800018         MOV #-32768,AC1
011b37: 10053e           SFTS AC0,#-2,AC0
011b3a: 121400           CMP AC1 < AC0, TC1
011b3d: 046416           BCC $C$DW$L$_sgnGenerateFrame$126$E,TC1
011b40:               $C$DW$L$_sgnGenerateFrame$124$E:
011b40:               $C$DW$L$_sgnGenerateFrame$125$B:
011b40: ed1008_3d41      MOV dbl(@#08h),AC0 || MOV #4,AC1
011b45: 120810           CMP AC0 >= AC1, TC1
011b48: 76800048_9ef4    XCCPART !TC1 || MOV #-32768,T0
011b4e: 6774             BCC $C$DW$L$_sgnGenerateFrame$128$B,!TC1
011b50:               $C$DW$L$_sgnGenerateFrame$125$E:
011b50:               $C$L102:
011b50:               $C$DW$L$_sgnGenerateFrame$126$B:
011b50: 767fff48         MOV #32767,T0
011b54: 4a08             B $C$DW$L$_sgnGenerateFrame$128$B
011b56:               $C$DW$L$_sgnGenerateFrame$126$E:
011b56:               $C$L103:
011b56:               $C$DW$L$_sgnGenerateFrame$127$B:
011b56: ed1008           MOV dbl(@#08h),AC0
011b59: 10053e           SFTS AC0,#-2,AC0
011b5c: 2204             MOV AC0,T0
011b5e:               $C$DW$L$_sgnGenerateFrame$128$B:
011b5e:               $C$DW$L$_sgnGenerateFrame$127$E:
011b5e:               $C$L104:
011b5e: a9c1             MOV *AR6,AR1
011b60: 2240             MOV T0,AC0
011b62: 2291             MOV AR1,AC1
011b64: 2410             ADD AC1,AC0
011b66: 3202_3d01        ABS AC0,AC2 || MOV #0,AC1
011b6a: 7e800011         OR #32768,AC1,AC1
011b6e: 122410           CMP AC2 < AC1, TC1
011b71: 6664             BCC $C$DW$L$_sgnGenerateFrame$129$E,TC1
011b73:               $C$DW$L$_sgnGenerateFrame$128$E:
011b73:               $C$DW$L$_sgnGenerateFrame$129$B:
011b73: 76800048         MOV #-32768,T0
011b77: 767fff48_9ec0    XCCPART AC0 > #0 || MOV #32767,T0
011b7d: 4a02             B $C$DW$L$_sgnGenerateFrame$130$E
011b7f:               $C$DW$L$_sgnGenerateFrame$129$E:
011b7f:               $C$L105:
011b7f:               $C$DW$L$_sgnGenerateFrame$130$B:
011b7f: 2494             ADD AR1,T0
011b81:               $C$DW$L$_sgnGenerateFrame$130$E:
011b81:               $C$L106:
011b81:               $C$DW$L$_sgnGenerateFrame$131$B:
011b81: c4c1             MOV T0,*AR6
011b83:               $C$DW$L$_sgnGenerateFrame$132$B:
011b83:               $C$DW$L$_sgnGenerateFrame$131$E:
011b83:               $C$L107:
011b83: f7080001         ADD #1,@#04h
011b87: 4216             SUB #1,T2
011b89: 6d16ff36         BCC $C$L98,T2 != #0
011b8d:               $C$DW$L$_sgnGenerateFrame$132$E:
011b8d:               $C$L108:
011b8d: 4e0a             AADD #10,SP
011b8f: 50f4             POPBOTH XAR7
011b91: 50e4             POPBOTH XAR6
011b93: 50d4             POPBOTH XAR5
011b95: 5072             POP T3
011b97: 5062             POP T2
011b99: 4804             RET
011b9b:               _sgnControl:
011b9b: 50d5             PSHBOTH XAR5
011b9d: 50f5             PSHBOTH XAR7
011b9f: 4eff             AADD #-1,SP
011ba1: ec21fe           AMAR *AR1,XAR7
011ba4: a0e1             MOV *AR7,AC0
011ba6: 2209_3d9a        MOV AC0,AR1 || MOV #9,AR2
011baa: 12a894           CMPU AR2 >= AR1, TC1
011bad: ec01de           AMAR *AR0,XAR5
011bb0: 6d7401c8         BCC $C$L128,!TC1
011bb4: 4450             SFTS AC0,#1
011bb6: a110_98          MOV mmap(@AC0L),AC1
011bb9: 7a00010a         MOV #1 << #16,AC0
011bbd: 7e844e00         OR #33870,AC0,AC0
011bc1: 2410             ADD AC1,AC0
011bc3: 900b             MOV AC0,XAR3
011bc5: ed6108           MOV dbl(*AR3),AC0
011bc8: 9100             B AC0
011bca:               $C$L109:
011bca: a9f5_3d4a        MOV *(AR7-T1),AR1 || MOV #4,AR2
011bce: 1298a0           CMP AR1 >= AR2, TC1
011bd1: 046425           BCC $C$L112,TC1
011bd4: 76ffbaa8         MOV #-70,AR2
011bd8: 1294a0           CMP AR1 < AR2, TC1
011bdb: 046413           BCC $C$L111,TC1
011bde: 7b004649         ADD #70,AR1,T0
011be2: ec31be01821e     AMAR *(#01821eh),XAR3
011be8: a96b             MOV *AR3(AR0),AR1
011bea:               $C$L110:
011bea: c9ad0031         MOV AR1,*AR5(#0031h)
011bee: 06018b           B $C$L128
011bf1:               $C$L111:
011bf1: e6ad000031       MOV #0,*AR5(#0031h)
011bf6: 060183           B $C$L128
011bf9:               $C$L112:
011bf9: a931018267       MOV *(#018267h),AR1
011bfe: 4a6a             B $C$L110
011c00:               $C$L113:
011c00: a9b5_3d4a        MOV *(AR5-T1),AR1 || MOV #4,AR2
011c04: e6ad000027       MOV #0,*AR5(#0027h)
011c09: e6ad000026       MOV #0,*AR5(#0026h)
011c0e: 1290a0           CMP AR1 == AR2, TC1
011c11: e6ad000028       MOV #0,*AR5(#0028h)
011c16: 64e4             BCC $C$L114,TC1
011c18: 3c5a             MOV #5,AR2
011c1a: 129ca0           CMP AR1 != AR2, TC1
011c1d: 6d64015b         BCC $C$L128,TC1
011c21:               $C$L114:
011c21: a9ad0024         MOV *AR5(#0024h),AR1
011c25: e6ad00000b       MOV #0,*AR5(#000bh)
011c2a: e6ad01000a       MOV #1,*AR5(#000ah)
011c2f: e6ad01000c       MOV #1,*AR5(#000ch)
011c34: d6ad990023       ADD *AR5(#0023h),AR1,AR1
011c39: d6ad990025       ADD *AR5(#0025h),AR1,AR1
011c3e:               $C$L115:
011c3e: c9ad0009         MOV AR1,*AR5(#0009h)
011c42: 060137           B $C$L128
011c45:               $C$L116:
011c45: a9f5             MOV *(AR7-T1),AR1
011c47: c9ad0021         MOV AR1,*AR5(#0021h)
011c4b: f9f50408         MOV *(AR7-T1) << #4,AC0
011c4f: 7b00c040         ADD #192,AC0,T0
011c53: 4444             SFTS T0,#-1
011c55: 6c0167e7         CALL _utldB2LinPower
011c59: 3c01             MOV #0,AC1
011c5b: 7e800011         OR #32768,AC1,AC1
011c5f: 100531           SFTS AC0,#-15,AC0
011c62: 3202             ABS AC0,AC2
011c64: 122410           CMP AC2 < AC1, TC1
011c67: 6664             BCC $C$L118,TC1
011c69: 6340             BCC $C$L117,AC0 > #0
011c6b: 76800008         MOV #-32768,AC0
011c6f: 4a04             B $C$L118
011c71:               $C$L117:
011c71: 767fff08         MOV #32767,AC0
011c75:               $C$L118:
011c75: c0ad0022         MOV AC0,*AR5(#0022h)
011c79: 060100           B $C$L128
011c7c:               $C$L119:
011c7c: a9b5_3d1a        MOV *(AR5-T1),AR1 || MOV #1,AR2
011c80: 1290a0           CMP AR1 == AR2, TC1
011c83: 046410           BCC $C$L120,TC1
011c86: 3c2a             MOV #2,AR2
011c88: 1290a0           CMP AR1 == AR2, TC1
011c8b: 64e4             BCC $C$L120,TC1
011c8d: 3c8a             MOV #8,AR2
011c8f: 129ca0           CMP AR1 != AR2, TC1
011c92: 6d6400e6         BCC $C$L128,TC1
011c96:               $C$L120:
011c96: a9f5             MOV *(AR7-T1),AR1
011c98: 044913           BCC $C$L121,AR1 > #0
011c9b: edad080044       MOV dbl(*AR5(#0044h)),AC0
011ca0: ec318e018372     AMAR *(#018372h),XAR0
011ca6: 76ffff48         MOV #-1,T0
011caa: 9200             CALL AC0
011cac: a9f5             MOV *(AR7-T1),AR1
011cae:               $C$L121:
011cae: aaad000c         MOV *AR5(#000ch),AR2
011cb2: 968a             XCCPART AR2 == #0
011cb4: e6ad00000b       MOV #0,*AR5(#000bh)
011cb9: 20               NOP
011cba: 968a             XCCPART AR2 == #0
011cbc: e6ad01000c       MOV #1,*AR5(#000ch)
011cc1: 06ff7a           B $C$L115
011cc4:               $C$L122:
011cc4: a9ad003a         MOV *AR5(#003ah),AR1
011cc8: edad080040       MOV dbl(*AR5(#0040h)),AC0
011ccd: c9ad003c         MOV AR1,*AR5(#003ch)
011cd1: a9ad003b         MOV *AR5(#003bh),AR1
011cd5: ebad08003e       MOV AC0,dbl(*AR5(#003eh))
011cda: c9ad003d         MOV AR1,*AR5(#003dh)
011cde: 06009b           B $C$L128
011ce1:               $C$L123:
011ce1: e6ad00000c       MOV #0,*AR5(#000ch)
011ce6: 060093           B $C$L128
011ce9:               $C$L124:
011ce9: edf508           MOV dbl(*(AR7-T1)),AC0
011cec: ebad08000e       MOV AC0,dbl(*AR5(#000eh))
011cf1: a9fd             MOV *(AR7+AR0B),AR1
011cf3: c9ad0010         MOV AR1,*AR5(#0010h)
011cf7: edf9bf           MOV dbl(*+AR7),XAR3
011cfa: ebadb50012       MOV XAR3,dbl(*AR5(#0012h))
011cff: edf508           MOV dbl(*(AR7-T1)),AC0
011d02: ebad080014       MOV AC0,dbl(*AR5(#0014h))
011d07: edf9bf           MOV dbl(*+AR7),XAR3
011d0a: a961             MOV *AR3,AR1
011d0c: c9ad0019         MOV AR1,*AR5(#0019h)
011d10: e6ad00001b       MOV #0,*AR5(#001bh)
011d15: e6ad000016       MOV #0,*AR5(#0016h)
011d1a: e6ad000017       MOV #0,*AR5(#0017h)
011d1f: e6ad000018       MOV #0,*AR5(#0018h)
011d24: a9b7             MOV *AR5(T1),AR1
011d26: c9ad001a         MOV AR1,*AR5(#001ah)
011d2a: 06004f           B $C$L128
011d2d:               $C$L125:
011d2d: eca19e           AMAR *AR5,XAR1
011d30: a5ad001f         MOV *AR5(#001fh),T1
011d34: 141e84           AADD #30,AR0
011d37: 8af5941c1f       MOV *(AR7-T1),T0 || AADD #31,AR1
011d3c: 6c0163cb         CALL _wngInit
011d40: a9f5             MOV *(AR7-T1),AR1
011d42: c9ad001d         MOV AR1,*AR5(#001dh)
011d46: 4a34             B $C$L128
011d48:               $C$L126:
011d48: a9f9             MOV *+AR7,AR1
011d4a: c9bf             MOV AR1,*(AR5-AR0B)
011d4c: a9fb             MOV *-AR7,AR1
011d4e: c9ad0008         MOV AR1,*AR5(#0008h)
011d52: a9f3             MOV *(AR7+T1),AR1
011d54: c9ad001c         MOV AR1,*AR5(#001ch)
011d58: a1ad001c         MOV *AR5(#001ch),AC1
011d5c: a0f5             MOV *(AR7-T1),AC0
011d5e: 10050e           SFTS AC0,#14,AC0
011d61: 6c016684         CALL __divli
011d65: c0b7             MOV AC0,*AR5(T1)
011d67: a1ad001c         MOV *AR5(#001ch),AC1
011d6b: a0f7             MOV *AR7(T1),AC0
011d6d: 10050e           SFTS AC0,#14,AC0
011d70: 6c016684         CALL __divli
011d74: c0b9             MOV AC0,*+AR5
011d76: 4a04             B $C$L128
011d78:               $C$L127:
011d78: a9f5             MOV *(AR7-T1),AR1
011d7a: c9b3             MOV AR1,*(AR5+T1)
011d7c:               $C$L128:
011d7c: 4e01             AADD #1,SP
011d7e: 50f4             POPBOTH XAR7
011d80: 50d4             POPBOTH XAR5
011d82: 4804             RET
011d84:               _crash_void:
011d84:               $C$L2:
011d84:               $C$DW$L$_crash_void$2$B:
011d84: 4a7e             B _crash_void
011d86:               _start_timer:
011d86:               $C$DW$L$_crash_void$2$E:
011d86: 4ef5             AADD #-11,SP
011d88: eb0085           MOV XAR0,dbl(@#00h)
011d8b: 9049             MOV XSP,XAR1
011d8d: 9048             MOV XSP,XAR0
011d8f: 3c04             MOV #0,T0
011d91: b42f0002         AMAR *+AR1(#0002h)
011d95: b40f0008         AMAR *+AR0(#0008h)
011d99: 6c01523d         CALL _GPT_open
011d9d: ed00bf           MOV dbl(@#00h),XAR3
011da0: eb6185           MOV XAR0,dbl(*AR3)
011da3: ed00bf           MOV dbl(@#00h),XAR3
011da6: ed618f           MOV dbl(*AR3),XAR0
011da9: 6c015303         CALL _GPT_reset
011dad: c404             MOV T0,@#02h
011daf: 6c01355e         CALL _IRQ_clearAll
011db3: 6c0136fd         CALL _IRQ_disableAll
011db7: 7a00000a         MOV #0 << #16,AC0
011dbb: 7e070000         OR #1792,AC0,AC0
011dbf: 6c0138ad         CALL _IRQ_setVecs
011dc3: 76001848         MOV #24,T0
011dc7: 7a00010a         MOV #1 << #16,AC0
011dcb: 7e493500         OR #18741,AC0,AC0
011dcf: 6c016187         CALL _IRQ_plug
011dd3: 3c44             MOV #4,T0
011dd5: 7a00010a         MOV #1 << #16,AC0
011dd9: 7e47db00         OR #18395,AC0,AC0
011ddd: 6c016187         CALL _IRQ_plug
011de1: 76001848         MOV #24,T0
011de5: 6c01370b         CALL _IRQ_enable
011de9: 3c44             MOV #4,T0
011deb: 6c01370b         CALL _IRQ_enable
011def: e60601           MOV #1,@#03h
011df2: e60a01           MOV #1,@#05h
011df5: e60800           MOV #0,@#04h
011df8: ed310801353c     MOV dbl(*(#01353ch)),AC0
011dfe: 10073e           SFTL AC0,#-2,AC0
011e01: c00c             MOV AC0,@#06h
011e03: e60e00           MOV #0,@#07h
011e06: 9049             MOV XSP,XAR1
011e08: ed00bf           MOV dbl(@#00h),XAR3
011e0b: b42f0003         AMAR *+AR1(#0003h)
011e0f: ed618f           MOV dbl(*AR3),XAR0
011e12: 6c015488         CALL _GPT_config
011e16: c404             MOV T0,@#02h
011e18: 6c01396b         CALL _IRQ_globalEnable
011e1c: ed00bf           MOV dbl(@#00h),XAR3
011e1f: ed618f           MOV dbl(*AR3),XAR0
011e22: 6c0153f6         CALL _GPT_start
011e26: 4e0b             AADD #11,SP
011e28: 4804             RET
011e2a:               _stop_timer:
011e2a: 4efd             AADD #-3,SP
011e2c: eb0085           MOV XAR0,dbl(@#00h)
011e2f: 6c013952         CALL _IRQ_globalDisable
011e33: 6c01355e         CALL _IRQ_clearAll
011e37: 6c0136fd         CALL _IRQ_disableAll
011e3b: ed00bf           MOV dbl(@#00h),XAR3
011e3e: ed618f           MOV dbl(*AR3),XAR0
011e41: 6c015423         CALL _GPT_stop
011e45: c404             MOV T0,@#02h
011e47: ed00bf           MOV dbl(@#00h),XAR3
011e4a: ed618f           MOV dbl(*AR3),XAR0
011e4d: 6c015303         CALL _GPT_reset
011e51: c404             MOV T0,@#02h
011e53: 4e03             AADD #3,SP
011e55: 4804             RET
011e57:               _setup:
011e57: 4efd             AADD #-3,SP
011e59: eb0085           MOV XAR0,dbl(@#00h)
011e5c: 3c15             MOV #1,T1
011e5e: 7601f448         MOV #500,T0
011e62: 6c01430e         CALL _calloc
011e66: eb318501338a     MOV XAR0,dbl(*(#01338ah))
011e6c: ed31bf01338a     MOV dbl(*(#01338ah)),XAR3
011e72: 90b0             MOV XAR3,AC0
011e74: 6310             BCC $C$L3,AC0 != #0
011e76: 3e14             MOV #-1,T0
011e78: 6c016867         CALL _exit
011e7c:               $C$L3:
011e7c: ec318e01338c     AMAR *(#01338ch),XAR0
011e82: 76019058         MOV #400,T1
011e86: 3c04             MOV #0,T0
011e88: 6c01698f         CALL _memset
011e8c: 76138858         MOV #5000,T1
011e90: 3c04             MOV #0,T0
011e92: ec318e012000     AMAR *(#012000h),XAR0
011e98: 6c01698f         CALL _memset
011e9c: ec31be01338c     AMAR *(#01338ch),XAR3
011ea2: eb31b501351c     MOV XAR3,dbl(*(#01351ch))
011ea8: ed00bf           MOV dbl(@#00h),XAR3
011eab: eb31b5013520     MOV XAR3,dbl(*(#013520h))
011eb1: 7a00010a         MOV #1 << #16,AC0
011eb5: 7e338c00         OR #13196,AC0,AC0
011eb9: 6210             BCC $C$L4,AC0 != #0
011ebb: 3e14             MOV #-1,T0
011ebd: 4a02             B $C$L5
011ebf:               $C$L4:
011ebf: 3c04             MOV #0,T0
011ec1:               $C$L5:
011ec1: 4e03             AADD #3,SP
011ec3: 4804             RET
011ec5:               _mutator:
011ec5: 4ef7             AADD #-9,SP
011ec7: ec318e000000     AMAR *(#00000h),XAR0
011ecd: 6c01693f         CALL _time
011ed1: c004             MOV AC0,@#02h
011ed3: 2204             MOV AC0,T0
011ed5: 6c016435         CALL _srand
011ed9: a931013539       MOV *(#013539h),AR1
011ede: 6319             BCC $C$L6,AR1 != #0
011ee0: 3e34             MOV #-3,T0
011ee2: 6c016867         CALL _exit
011ee6:               $C$L6:
011ee6: 7600c0a8         MOV #192,AR2
011eea: a931013534       MOV *(#013534h),AR1
011eef: 1298a4_21        CMPU AR1 >= AR2, TC1 || NOP
011ef3: 66e4             BCC $C$L7,TC1
011ef5: 3c1a             MOV #1,AR2
011ef7: a931013538       MOV *(#013538h),AR1
011efc: 12a894_21        CMPU AR2 >= AR1, TC1 || NOP
011f00: 64e4             BCC $C$L8,TC1
011f02:               $C$L7:
011f02: e63108013537     MOV #8,*(#013537h)
011f08: 06008b           B $C$L16
011f0b:               $C$L8:
011f0b: 3c2a             MOV #2,AR2
011f0d: a931013534       MOV *(#013534h),AR1
011f12: 1298a4_21        CMPU AR1 >= AR2, TC1 || NOP
011f16: 64e4             BCC $C$L9,TC1
011f18: e63100013537     MOV #0,*(#013537h)
011f1e: 060075           B $C$L16
011f21:               $C$L9:
011f21: 3c4a             MOV #4,AR2
011f23: 1298a4_21        CMPU AR1 >= AR2, TC1 || NOP
011f27: 64e4             BCC $C$L10,TC1
011f29: e63101013537     MOV #1,*(#013537h)
011f2f: 060064           B $C$L16
011f32:               $C$L10:
011f32: 3c6a             MOV #6,AR2
011f34: 1298a4_21        CMPU AR1 >= AR2, TC1 || NOP
011f38: 64e4             BCC $C$L11,TC1
011f3a: e63102013537     MOV #2,*(#013537h)
011f40: 060053           B $C$L16
011f43:               $C$L11:
011f43: 3c8a             MOV #8,AR2
011f45: 1298a4_21        CMPU AR1 >= AR2, TC1 || NOP
011f49: 64e4             BCC $C$L12,TC1
011f4b: e63103013537     MOV #3,*(#013537h)
011f51: 060042           B $C$L16
011f54:               $C$L12:
011f54: 3caa             MOV #10,AR2
011f56: 1298a4_21        CMPU AR1 >= AR2, TC1 || NOP
011f5a: 6464             BCC $C$L13,TC1
011f5c: e63104013537     MOV #4,*(#013537h)
011f62: 4a32             B $C$L16
011f64:               $C$L13:
011f64: 3cca             MOV #12,AR2
011f66: 1298a4_21        CMPU AR1 >= AR2, TC1 || NOP
011f6a: 6464             BCC $C$L14,TC1
011f6c: e63105013537     MOV #5,*(#013537h)
011f72: 4a22             B $C$L16
011f74:               $C$L14:
011f74: 760052a8         MOV #82,AR2
011f78: 1298a4_21        CMPU AR1 >= AR2, TC1 || NOP
011f7c: 6464             BCC $C$L15,TC1
011f7e: e63106013537     MOV #6,*(#013537h)
011f84: 4a10             B $C$L16
011f86:               $C$L15:
011f86: 760098a8         MOV #152,AR2
011f8a: 1298a4_21        CMPU AR1 >= AR2, TC1 || NOP
011f8e: 6364             BCC $C$L16,TC1
011f90: e63107013537     MOV #7,*(#013537h)
011f96:               $C$L16:
011f96: 3c2a             MOV #2,AR2
011f98: a931013538       MOV *(#013538h),AR1
011f9d: 12a894_21        CMPU AR2 >= AR1, TC1 || NOP
011fa1: 046424           BCC $C$L17,TC1
011fa4: a431013539       MOV *(#013539h),T0
011fa9: a531013538       MOV *(#013538h),T1
011fae: 6c016915         CALL I$$UDIV
011fb2: 2245             MOV T0,T1
011fb4: a431013539       MOV *(#013539h),T0
011fb9: 6c016915         CALL I$$UDIV
011fbd: c40e             MOV T0,@#07h
011fbf: 2249             MOV T0,AR1
011fc1: 6419             BCC $C$L18,AR1 != #0
011fc3: e60e01           MOV #1,@#07h
011fc6: 4a03             B $C$L18
011fc8:               $C$L17:
011fc8: e60e01           MOV #1,@#07h
011fcb:               $C$L18:
011fcb: a931013534       MOV *(#013534h),AR1
011fd0: 180109           AND #1,AR1,AC0
011fd3: c00c             MOV AC0,@#06h
011fd5: a931013537       MOV *(#013537h),AR1
011fda: 04196d           BCC $C$L22,AR1 != #0
011fdd: e60000           MOV #0,@#00h
011fe0: a931013539       MOV *(#013539h),AR1
011fe5: aa00             MOV @#00h,AR2
011fe7: 12a894_21        CMPU AR2 >= AR1, TC1 || NOP
011feb: 6d6406cc         BCC $C$DW$L$_mutator$85$E,TC1
011fef:               $C$L19:
011fef:               $C$DW$L$_mutator$28$B:
011fef: a90c             MOV @#06h,AR1
011ff1: c902             MOV AR1,@#01h
011ff3: 76001008         MOV #16,AC0
011ff7: df0c0f_239a      SUB uns(@#06h),AC0,AC0 || MOV AR1,AR2
011ffc: 2209             MOV AC0,AR1
011ffe: 12a894_21        CMPU AR2 >= AR1, TC1 || NOP
012002: 04642d           BCC $C$DW$L$_mutator$29$E,TC1
012005:               $C$DW$L$_mutator$28$E:
012005:               $C$L20:
012005:               $C$DW$L$_mutator$29$B:
012005: a400             MOV @#00h,T0
012007: ed31bf01338a     MOV dbl(*(#01338ah)),XAR3
01200d: a502             MOV @#01h,T1
01200f: 3c10             MOV #1,AC0
012011: 5c05             SFTS AC0,T1,AC0
012013: db6b90           XOR *AR3(AR0),AC0,AR1
012016: c96b             MOV AR1,*AR3(AR0)
012018: f7020001         ADD #1,@#01h
01201c: f7020001         ADD #1,@#01h
012020: 76001008         MOV #16,AC0
012024: df0c0f           SUB uns(@#06h),AC0,AC0
012027: aa02_2309        MOV @#01h,AR2 || MOV AC0,AR1
01202b: 12a494_21        CMPU AR2 < AR1, TC1 || NOP
01202f: 0464d3           BCC $C$DW$L$_mutator$28$E,TC1
012032:               $C$DW$L$_mutator$29$E:
012032:               $C$L21:
012032:               $C$DW$L$_mutator$30$B:
012032: a90e             MOV @#07h,AR1
012034: d60099           ADD @#00h,AR1,AR1
012037: c900             MOV AR1,@#00h
012039: aa00             MOV @#00h,AR2
01203b: a931013539       MOV *(#013539h),AR1
012040: 12a494_21        CMPU AR2 < AR1, TC1 || NOP
012044: 0464a8           BCC $C$L19,TC1
012047:               $C$DW$L$_mutator$30$E:
012047: 060671           B $C$DW$L$_mutator$85$E
01204a:               $C$L22:
01204a: f0310001013537   CMP *(#013537h) == #1, TC1
012051: 6d740082         BCC $C$L26,!TC1
012055: e60000           MOV #0,@#00h
012058: a931013539       MOV *(#013539h),AR1
01205d: aa00             MOV @#00h,AR2
01205f: 12a894_21        CMPU AR2 >= AR1, TC1 || NOP
012063: 6d640654         BCC $C$DW$L$_mutator$85$E,TC1
012067:               $C$L23:
012067:               $C$DW$L$_mutator$34$B:
012067: a90c             MOV @#06h,AR1
012069: c902             MOV AR1,@#01h
01206b: 76001008         MOV #16,AC0
01206f: df0c0f_239a      SUB uns(@#06h),AC0,AC0 || MOV AR1,AR2
012074: 2209             MOV AC0,AR1
012076: 12a894_21        CMPU AR2 >= AR1, TC1 || NOP
01207a: 046442           BCC $C$DW$L$_mutator$35$E,TC1
01207d:               $C$DW$L$_mutator$34$E:
01207d:               $C$L24:
01207d:               $C$DW$L$_mutator$35$B:
01207d: a400             MOV @#00h,T0
01207f: ed31bf01338a     MOV dbl(*(#01338ah)),XAR3
012085: a502             MOV @#01h,T1
012087: 3c10             MOV #1,AC0
012089: 5c05             SFTS AC0,T1,AC0
01208b: db6b90           XOR *AR3(AR0),AC0,AR1
01208e: c96b             MOV AR1,*AR3(AR0)
012090: a400             MOV @#00h,T0
012092: ed31bf01338a     MOV dbl(*(#01338ah)),XAR3
012098: a502             MOV @#01h,T1
01209a: 4015             ADD #1,T1
01209c: 3c10             MOV #1,AC0
01209e: 5c05             SFTS AC0,T1,AC0
0120a0: db6b90           XOR *AR3(AR0),AC0,AR1
0120a3: c96b             MOV AR1,*AR3(AR0)
0120a5: f7020002         ADD #2,@#01h
0120a9: f7020001         ADD #1,@#01h
0120ad: 76001008         MOV #16,AC0
0120b1: df0c0f           SUB uns(@#06h),AC0,AC0
0120b4: aa02_2309        MOV @#01h,AR2 || MOV AC0,AR1
0120b8: 12a494_21        CMPU AR2 < AR1, TC1 || NOP
0120bc: 0464be           BCC $C$DW$L$_mutator$34$E,TC1
0120bf:               $C$DW$L$_mutator$35$E:
0120bf:               $C$L25:
0120bf:               $C$DW$L$_mutator$36$B:
0120bf: a90e             MOV @#07h,AR1
0120c1: d60099           ADD @#00h,AR1,AR1
0120c4: c900             MOV AR1,@#00h
0120c6: aa00             MOV @#00h,AR2
0120c8: a931013539       MOV *(#013539h),AR1
0120cd: 12a494_21        CMPU AR2 < AR1, TC1 || NOP
0120d1: 046493           BCC $C$L23,TC1
0120d4:               $C$DW$L$_mutator$36$E:
0120d4: 0605e4           B $C$DW$L$_mutator$85$E
0120d7:               $C$L26:
0120d7: f0310002013537   CMP *(#013537h) == #2, TC1
0120de: 6d7400ae         BCC $C$L30,!TC1
0120e2: 2209             MOV AC0,AR1
0120e4: c900             MOV AR1,@#00h
0120e6: 220a             MOV AC0,AR2
0120e8: a931013539       MOV *(#013539h),AR1
0120ed: 12a894_21        CMPU AR2 >= AR1, TC1 || NOP
0120f1: 6d6405c6         BCC $C$DW$L$_mutator$85$E,TC1
0120f5:               $C$L27:
0120f5:               $C$DW$L$_mutator$40$B:
0120f5: a90c             MOV @#06h,AR1
0120f7: c902             MOV AR1,@#01h
0120f9: 76001008         MOV #16,AC0
0120fd: df0c0f_239a      SUB uns(@#06h),AC0,AC0 || MOV AR1,AR2
012102: 2209             MOV AC0,AR1
012104: 12a894_21        CMPU AR2 >= AR1, TC1 || NOP
012108: 04646c           BCC $C$DW$L$_mutator$41$E,TC1
01210b:               $C$DW$L$_mutator$40$E:
01210b:               $C$L28:
01210b:               $C$DW$L$_mutator$41$B:
01210b: a400             MOV @#00h,T0
01210d: ed31bf01338a     MOV dbl(*(#01338ah)),XAR3
012113: a502             MOV @#01h,T1
012115: 3c10             MOV #1,AC0
012117: 5c05             SFTS AC0,T1,AC0
012119: db6b90           XOR *AR3(AR0),AC0,AR1
01211c: c96b             MOV AR1,*AR3(AR0)
01211e: a400             MOV @#00h,T0
012120: ed31bf01338a     MOV dbl(*(#01338ah)),XAR3
012126: a502             MOV @#01h,T1
012128: 4015             ADD #1,T1
01212a: 3c10             MOV #1,AC0
01212c: 5c05             SFTS AC0,T1,AC0
01212e: db6b90           XOR *AR3(AR0),AC0,AR1
012131: c96b             MOV AR1,*AR3(AR0)
012133: a400             MOV @#00h,T0
012135: ed31bf01338a     MOV dbl(*(#01338ah)),XAR3
01213b: a502             MOV @#01h,T1
01213d: 4025             ADD #2,T1
01213f: 3c10             MOV #1,AC0
012141: 5c05             SFTS AC0,T1,AC0
012143: db6b90           XOR *AR3(AR0),AC0,AR1
012146: c96b             MOV AR1,*AR3(AR0)
012148: a400             MOV @#00h,T0
01214a: ed31bf01338a     MOV dbl(*(#01338ah)),XAR3
012150: a502             MOV @#01h,T1
012152: 4035             ADD #3,T1
012154: 3c10             MOV #1,AC0
012156: 5c05             SFTS AC0,T1,AC0
012158: db6b90           XOR *AR3(AR0),AC0,AR1
01215b: c96b             MOV AR1,*AR3(AR0)
01215d: f7020004         ADD #4,@#01h
012161: f7020001         ADD #1,@#01h
012165: 76001008         MOV #16,AC0
012169: df0c0f           SUB uns(@#06h),AC0,AC0
01216c: aa02_2309        MOV @#01h,AR2 || MOV AC0,AR1
012170: 12a494_21        CMPU AR2 < AR1, TC1 || NOP
012174: 046494           BCC $C$DW$L$_mutator$40$E,TC1
012177:               $C$DW$L$_mutator$41$E:
012177:               $C$L29:
012177:               $C$DW$L$_mutator$42$B:
012177: a90e             MOV @#07h,AR1
012179: d60099           ADD @#00h,AR1,AR1
01217c: c900             MOV AR1,@#00h
01217e: aa00             MOV @#00h,AR2
012180: a931013539       MOV *(#013539h),AR1
012185: 12a494_21        CMPU AR2 < AR1, TC1 || NOP
012189: 6d64ff68         BCC $C$L27,TC1
01218d:               $C$DW$L$_mutator$42$E:
01218d: 06052b           B $C$DW$L$_mutator$85$E
012190:               $C$L30:
012190: f0310003013537   CMP *(#013537h) == #3, TC1
012197: 04744a           BCC $C$L32,!TC1
01219a: e60000           MOV #0,@#00h
01219d: a931013539       MOV *(#013539h),AR1
0121a2: aa00             MOV @#00h,AR2
0121a4: 12a894_21        CMPU AR2 >= AR1, TC1 || NOP
0121a8: 6d64050f         BCC $C$DW$L$_mutator$85$E,TC1
0121ac:               $C$L31:
0121ac:               $C$DW$L$_mutator$46$B:
0121ac: a931013534       MOV *(#013534h),AR1
0121b1: a400_190109      MOV @#00h,T0 || AND #1,AR1,AC0
0121b6: ed31bf01338a     MOV dbl(*(#01338ah)),XAR3
0121bc: 100703           SFTL AC0,#3,AC0
0121bf: 2205             MOV AC0,T1
0121c1: 7600ff18         MOV #255,AC1
0121c5: 5c15             SFTS AC1,T1,AC0
0121c7: db6b90           XOR *AR3(AR0),AC0,AR1
0121ca: c96b             MOV AR1,*AR3(AR0)
0121cc: a90e             MOV @#07h,AR1
0121ce: d60099           ADD @#00h,AR1,AR1
0121d1: c900             MOV AR1,@#00h
0121d3: aa00             MOV @#00h,AR2
0121d5: a931013539       MOV *(#013539h),AR1
0121da: 12a494_21        CMPU AR2 < AR1, TC1 || NOP
0121de: 0464cb           BCC $C$L31,TC1
0121e1:               $C$DW$L$_mutator$46$E:
0121e1: 0604d7           B $C$DW$L$_mutator$85$E
0121e4:               $C$L32:
0121e4: f0310004013537   CMP *(#013537h) == #4, TC1
0121eb: 047449           BCC $C$L34,!TC1
0121ee: e60000           MOV #0,@#00h
0121f1: a931013539       MOV *(#013539h),AR1
0121f6: aa00             MOV @#00h,AR2
0121f8: 12a894_21        CMPU AR2 >= AR1, TC1 || NOP
0121fc: 6d6404bb         BCC $C$DW$L$_mutator$85$E,TC1
012200:               $C$L33:
012200:               $C$DW$L$_mutator$50$B:
012200: a400             MOV @#00h,T0
012202: ed31bf01338a     MOV dbl(*(#01338ah)),XAR3
012208: a96b             MOV *AR3(AR0),AR1
01220a: 1cff99           XOR #255,AR1,AR1
01220d: c96b             MOV AR1,*AR3(AR0)
01220f: a400             MOV @#00h,T0
012211: ed31bf01338a     MOV dbl(*(#01338ah)),XAR3
012217: a96b             MOV *AR3(AR0),AR1
012219: 7fff0099         XOR #65280,AR1,AR1
01221d: c96b             MOV AR1,*AR3(AR0)
01221f: a90e             MOV @#07h,AR1
012221: d60099           ADD @#00h,AR1,AR1
012224: c900             MOV AR1,@#00h
012226: aa00             MOV @#00h,AR2
012228: a931013539       MOV *(#013539h),AR1
01222d: 12a494_21        CMPU AR2 < AR1, TC1 || NOP
012231: 0464cc           BCC $C$L33,TC1
012234:               $C$DW$L$_mutator$50$E:
012234: 060484           B $C$DW$L$_mutator$85$E
012237:               $C$L34:
012237: f0310005013537   CMP *(#013537h) == #5, TC1
01223e: 6d740087         BCC $C$L36,!TC1
012242: e60000           MOV #0,@#00h
012245: a931013539       MOV *(#013539h),AR1
01224a: aa00             MOV @#00h,AR2
01224c: 12a894_21        CMPU AR2 >= AR1, TC1 || NOP
012250: 6d640467         BCC $C$DW$L$_mutator$85$E,TC1
012254:               $C$L35:
012254:               $C$DW$L$_mutator$54$B:
012254: a90e             MOV @#07h,AR1
012256: d60ca9           ADD @#06h,AR1,AR2
012259: a900             MOV @#00h,AR1
01225b: 4019             ADD #1,AR1
01225d: 1294a4_21        CMPU AR1 < AR2, TC1 || NOP
012261: 6d740456         BCC $C$DW$L$_mutator$85$E,!TC1
012265:               $C$DW$L$_mutator$54$E:
012265:               $C$DW$L$_mutator$55$B:
012265: a400             MOV @#00h,T0
012267: ed31bf01338a     MOV dbl(*(#01338ah)),XAR3
01226d: a96b             MOV *AR3(AR0),AR1
01226f: 1cff99           XOR #255,AR1,AR1
012272: c96b             MOV AR1,*AR3(AR0)
012274: a400             MOV @#00h,T0
012276: ed31bf01338a     MOV dbl(*(#01338ah)),XAR3
01227c: a96b             MOV *AR3(AR0),AR1
01227e: 7fff0099         XOR #65280,AR1,AR1
012282: c96b             MOV AR1,*AR3(AR0)
012284: a400             MOV @#00h,T0
012286: 4014             ADD #1,T0
012288: ed31bf01338a     MOV dbl(*(#01338ah)),XAR3
01228e: a96b             MOV *AR3(AR0),AR1
012290: a400             MOV @#00h,T0
012292: 4014             ADD #1,T0
012294: 1cff99           XOR #255,AR1,AR1
012297: c96b             MOV AR1,*AR3(AR0)
012299: a400             MOV @#00h,T0
01229b: 4014             ADD #1,T0
01229d: ed31bf01338a     MOV dbl(*(#01338ah)),XAR3
0122a3: a96b             MOV *AR3(AR0),AR1
0122a5: a400             MOV @#00h,T0
0122a7: 4014             ADD #1,T0
0122a9: 7fff0099         XOR #65280,AR1,AR1
0122ad: c96b             MOV AR1,*AR3(AR0)
0122af: a90e             MOV @#07h,AR1
0122b1: d60099           ADD @#00h,AR1,AR1
0122b4: 4029             ADD #2,AR1
0122b6: c900             MOV AR1,@#00h
0122b8: aa00             MOV @#00h,AR2
0122ba: a931013539       MOV *(#013539h),AR1
0122bf: 12a494_21        CMPU AR2 < AR1, TC1 || NOP
0122c3: 04648e           BCC $C$L35,TC1
0122c6:               $C$DW$L$_mutator$55$E:
0122c6: 0603f2           B $C$DW$L$_mutator$85$E
0122c9:               $C$L36:
0122c9: f0310006013537   CMP *(#013537h) == #6, TC1
0122d0: 047455           BCC $C$L38,!TC1
0122d3: 2209             MOV AC0,AR1
0122d5: c900             MOV AR1,@#00h
0122d7: a031013539       MOV *(#013539h),AC0
0122dc: df0c0f_239a      SUB uns(@#06h),AC0,AC0 || MOV AR1,AR2
0122e1: 2209             MOV AC0,AR1
0122e3: 12a894_21        CMPU AR2 >= AR1, TC1 || NOP
0122e7: 6d6403d0         BCC $C$DW$L$_mutator$85$E,TC1
0122eb:               $C$L37:
0122eb:               $C$DW$L$_mutator$59$B:
0122eb: a431013534       MOV *(#013534h),T0
0122f0: 76002358         MOV #35,T1
0122f4: 6c01692a         CALL I$$UMOD
0122f8: ed31bf01338a     MOV dbl(*(#01338ah)),XAR3
0122fe: a400_2349        MOV @#00h,T0 || MOV T0,AR1
012302: d66b99           ADD *AR3(AR0),AR1,AR1
012305: c96b             MOV AR1,*AR3(AR0)
012307: f7000001         ADD #1,@#00h
01230b: a90e             MOV @#07h,AR1
01230d: d60099           ADD @#00h,AR1,AR1
012310: c900             MOV AR1,@#00h
012312: a031013539       MOV *(#013539h),AC0
012317: df0c0f_239a      SUB uns(@#06h),AC0,AC0 || MOV AR1,AR2
01231c: 2209             MOV AC0,AR1
01231e: 12a494_21        CMPU AR2 < AR1, TC1 || NOP
012322: 0464c6           BCC $C$L37,TC1
012325:               $C$DW$L$_mutator$59$E:
012325: 060393           B $C$DW$L$_mutator$85$E
012328:               $C$L38:
012328: f0310007013537   CMP *(#013537h) == #7, TC1
01232f: 047455           BCC $C$L40,!TC1
012332: 2209             MOV AC0,AR1
012334: c900             MOV AR1,@#00h
012336: a031013539       MOV *(#013539h),AC0
01233b: df0c0f_239a      SUB uns(@#06h),AC0,AC0 || MOV AR1,AR2
012340: 2209             MOV AC0,AR1
012342: 12a894_21        CMPU AR2 >= AR1, TC1 || NOP
012346: 6d640371         BCC $C$DW$L$_mutator$85$E,TC1
01234a:               $C$L39:
01234a:               $C$DW$L$_mutator$63$B:
01234a: a431013534       MOV *(#013534h),T0
01234f: 76002358         MOV #35,T1
012353: 6c01692a         CALL I$$UMOD
012357: ed31bf01338a     MOV dbl(*(#01338ah)),XAR3
01235d: a400_2349        MOV @#00h,T0 || MOV T0,AR1
012361: d86b99           SUB AR1,*AR3(AR0),AR1
012364: c96b             MOV AR1,*AR3(AR0)
012366: f7000001         ADD #1,@#00h
01236a: a90e             MOV @#07h,AR1
01236c: d60099           ADD @#00h,AR1,AR1
01236f: c900             MOV AR1,@#00h
012371: a031013539       MOV *(#013539h),AC0
012376: df0c0f_239a      SUB uns(@#06h),AC0,AC0 || MOV AR1,AR2
01237b: 2209             MOV AC0,AR1
01237d: 12a494_21        CMPU AR2 < AR1, TC1 || NOP
012381: 0464c6           BCC $C$L39,TC1
012384:               $C$DW$L$_mutator$63$E:
012384: 060334           B $C$DW$L$_mutator$85$E
012387:               $C$L40:
012387: f0310008013537   CMP *(#013537h) == #8, TC1
01238e: 6d740329         BCC $C$DW$L$_mutator$85$E,!TC1
012392: 6c016457         CALL _rand
012396: 3cc5             MOV #12,T1
012398: 6c0168c4         CALL I$$MOD
01239c: c410             MOV T0,@#08h
01239e: a931013538       MOV *(#013538h),AR1
0123a3: 6319             BCC $C$L41,AR1 != #0
0123a5: e63101013538     MOV #1,*(#013538h)
0123ab:               $C$L41:
0123ab: 6c016457         CALL _rand
0123af: a531013538       MOV *(#013538h),T1
0123b4: 76006448_2349    MOV #100,T0 || MOV T0,AR1
0123ba: 6c016915         CALL I$$UDIV
0123be: 2245             MOV T0,T1
0123c0: 2294             MOV AR1,T0
0123c2: 6c01692a         CALL I$$UMOD
0123c6: c40a             MOV T0,@#05h
0123c8: e60000           MOV #0,@#00h
0123cb: aa00             MOV @#00h,AR2
0123cd: a90a             MOV @#05h,AR1
0123cf: 12a894_21        CMPU AR2 >= AR1, TC1 || NOP
0123d3: 6d6402e4         BCC $C$DW$L$_mutator$85$E,TC1
0123d7:               $C$L42:
0123d7:               $C$DW$L$_mutator$69$B:
0123d7: 6c016457         CALL _rand
0123db: a531013539       MOV *(#013539h),T1
0123e0: 6c01692a         CALL I$$UMOD
0123e4: c406             MOV T0,@#03h
0123e6: 060293           B $C$DW$L$_mutator$82$E
0123e9:               $C$DW$L$_mutator$69$E:
0123e9:               $C$L43:
0123e9:               $C$DW$L$_mutator$71$B:
0123e9: 6c016457         CALL _rand
0123ed: 7600ffa8_2340    MOV #255,AR2 || MOV T0,AC0
0123f3: ed31bf01338a     MOV dbl(*(#01338ah)),XAR3
0123f9: 100539_37aa      SFTS AC0,#-7,AC0 || NOT AR2,AR2
0123fe: 76ff0090         BFXTR #65280,AC0,AR1
012402: 2449             ADD T0,AR1
012404: 289a             AND AR1,AR2
012406: a406_2349        MOV @#03h,T0 || MOV T0,AR1
01240a: 26a9             SUB AR2,AR1
01240c: c96b             MOV AR1,*AR3(AR0)
01240e: 06028e           B $C$DW$L$_mutator$84$E
012411:               $C$DW$L$_mutator$71$E:
012411:               $C$L44:
012411:               $C$DW$L$_mutator$72$B:
012411: a431013534       MOV *(#013534h),T0
012416: 76002258         MOV #34,T1
01241a: 6c01692a         CALL I$$UMOD
01241e: ed31bf01338a     MOV dbl(*(#01338ah)),XAR3
012424: a406_2349        MOV @#03h,T0 || MOV T0,AR1
012428: d66b99           ADD *AR3(AR0),AR1,AR1
01242b: c96b             MOV AR1,*AR3(AR0)
01242d: 06026f           B $C$DW$L$_mutator$84$E
012430:               $C$DW$L$_mutator$72$E:
012430:               $C$L45:
012430:               $C$DW$L$_mutator$73$B:
012430: a406             MOV @#03h,T0
012432: ed31bf01338a     MOV dbl(*(#01338ah)),XAR3
012438: df3193013534     MOV uns(low_byte(*(#013534h))),AR1
01243e: d66b99           ADD *AR3(AR0),AR1,AR1
012441: c96b             MOV AR1,*AR3(AR0)
012443: 060259           B $C$DW$L$_mutator$84$E
012446:               $C$DW$L$_mutator$73$E:
012446:               $C$L46:
012446:               $C$DW$L$_mutator$74$B:
012446: a406             MOV @#03h,T0
012448: ed31bf01338a     MOV dbl(*(#01338ah)),XAR3
01244e: df3193013534     MOV uns(low_byte(*(#013534h))),AR1
012454: d86b99           SUB AR1,*AR3(AR0),AR1
012457: c96b             MOV AR1,*AR3(AR0)
012459: 060243           B $C$DW$L$_mutator$84$E
01245c:               $C$DW$L$_mutator$74$E:
01245c:               $C$L47:
01245c:               $C$DW$L$_mutator$75$B:
01245c: a431013534       MOV *(#013534h),T0
012461: 76002258         MOV #34,T1
012465: 6c01692a         CALL I$$UMOD
012469: ed31bf01338a     MOV dbl(*(#01338ah)),XAR3
01246f: a406_2349        MOV @#03h,T0 || MOV T0,AR1
012473: d86b99           SUB AR1,*AR3(AR0),AR1
012476: c96b             MOV AR1,*AR3(AR0)
012478: 060224           B $C$DW$L$_mutator$84$E
01247b:               $C$DW$L$_mutator$75$E:
01247b:               $C$L48:
01247b:               $C$DW$L$_mutator$76$B:
01247b: 6c016457         CALL _rand
01247f: a531013539       MOV *(#013539h),T1
012484: 6c01692a         CALL I$$UMOD
012488: 7c000194         SUB #1,T0,AR1
01248c: c906             MOV AR1,@#03h
01248e: 6c016457         CALL _rand
012492: 2240_3dfa        MOV T0,AC0 || MOV #15,AR2
012496: 10053d_37aa      SFTS AC0,#-3,AC0 || NOT AR2,AR2
01249b: 76f00090         BFXTR #61440,AC0,AR1
01249f: 2449             ADD T0,AR1
0124a1: 289a             AND AR1,AR2
0124a3: 26a4             SUB AR2,T0
0124a5: c408             MOV T0,@#04h
0124a7: a406             MOV @#03h,T0
0124a9: ed31bf01338a     MOV dbl(*(#01338ah)),XAR3
0124af: a508             MOV @#04h,T1
0124b1: 3c10             MOV #1,AC0
0124b3: 5c05             SFTS AC0,T1,AC0
0124b5: db6b90           XOR *AR3(AR0),AC0,AR1
0124b8: c96b             MOV AR1,*AR3(AR0)
0124ba: 0601e2           B $C$DW$L$_mutator$84$E
0124bd:               $C$DW$L$_mutator$76$E:
0124bd:               $C$L49:
0124bd:               $C$DW$L$_mutator$77$B:
0124bd: 6c016457         CALL _rand
0124c1: a531013539       MOV *(#013539h),T1
0124c6: 6c01692a         CALL I$$UMOD
0124ca: 7c000194         SUB #1,T0,AR1
0124ce: c906             MOV AR1,@#03h
0124d0: 6c016457         CALL _rand
0124d4: 2240_3dfa        MOV T0,AC0 || MOV #15,AR2
0124d8: 10053d_37aa      SFTS AC0,#-3,AC0 || NOT AR2,AR2
0124dd: 76f00090         BFXTR #61440,AC0,AR1
0124e1: 2449             ADD T0,AR1
0124e3: 289a             AND AR1,AR2
0124e5: 26a4             SUB AR2,T0
0124e7: c408             MOV T0,@#04h
0124e9: a406             MOV @#03h,T0
0124eb: ed31bf01338a     MOV dbl(*(#01338ah)),XAR3
0124f1: a508             MOV @#04h,T1
0124f3: 3c10             MOV #1,AC0
0124f5: 5c05             SFTS AC0,T1,AC0
0124f7: db6b90           XOR *AR3(AR0),AC0,AR1
0124fa: c96b             MOV AR1,*AR3(AR0)
0124fc: a406             MOV @#03h,T0
0124fe: ed31bf01338a     MOV dbl(*(#01338ah)),XAR3
012504: a508             MOV @#04h,T1
012506: 4015             ADD #1,T1
012508: 3c10             MOV #1,AC0
01250a: 5c05             SFTS AC0,T1,AC0
01250c: db6b90           XOR *AR3(AR0),AC0,AR1
01250f: c96b             MOV AR1,*AR3(AR0)
012511: 06018b           B $C$DW$L$_mutator$84$E
012514:               $C$DW$L$_mutator$77$E:
012514:               $C$L50:
012514:               $C$DW$L$_mutator$78$B:
012514: 6c016457         CALL _rand
012518: a531013539       MOV *(#013539h),T1
01251d: 6c01692a         CALL I$$UMOD
012521: 7c000194         SUB #1,T0,AR1
012525: c906             MOV AR1,@#03h
012527: 6c016457         CALL _rand
01252b: 2240_3dfa        MOV T0,AC0 || MOV #15,AR2
01252f: 10053d_37aa      SFTS AC0,#-3,AC0 || NOT AR2,AR2
012534: 76f00090         BFXTR #61440,AC0,AR1
012538: 2449             ADD T0,AR1
01253a: 289a             AND AR1,AR2
01253c: 26a4             SUB AR2,T0
01253e: c408             MOV T0,@#04h
012540: a406             MOV @#03h,T0
012542: ed31bf01338a     MOV dbl(*(#01338ah)),XAR3
012548: a508             MOV @#04h,T1
01254a: 3c10             MOV #1,AC0
01254c: 5c05             SFTS AC0,T1,AC0
01254e: db6b90           XOR *AR3(AR0),AC0,AR1
012551: c96b             MOV AR1,*AR3(AR0)
012553: a406             MOV @#03h,T0
012555: ed31bf01338a     MOV dbl(*(#01338ah)),XAR3
01255b: a508             MOV @#04h,T1
01255d: 4015             ADD #1,T1
01255f: 3c10             MOV #1,AC0
012561: 5c05             SFTS AC0,T1,AC0
012563: db6b90           XOR *AR3(AR0),AC0,AR1
012566: c96b             MOV AR1,*AR3(AR0)
012568: a406             MOV @#03h,T0
01256a: ed31bf01338a     MOV dbl(*(#01338ah)),XAR3
012570: a508             MOV @#04h,T1
012572: 4025             ADD #2,T1
012574: 3c10             MOV #1,AC0
012576: 5c05             SFTS AC0,T1,AC0
012578: db6b90           XOR *AR3(AR0),AC0,AR1
01257b: c96b             MOV AR1,*AR3(AR0)
01257d: a406             MOV @#03h,T0
01257f: ed31bf01338a     MOV dbl(*(#01338ah)),XAR3
012585: a508             MOV @#04h,T1
012587: 4035             ADD #3,T1
012589: 3c10             MOV #1,AC0
01258b: 5c05             SFTS AC0,T1,AC0
01258d: db6b90           XOR *AR3(AR0),AC0,AR1
012590: c96b             MOV AR1,*AR3(AR0)
012592: 06010a           B $C$DW$L$_mutator$84$E
012595:               $C$DW$L$_mutator$78$E:
012595:               $C$L51:
012595:               $C$DW$L$_mutator$79$B:
012595: 6c016457         CALL _rand
012599: a531013539       MOV *(#013539h),T1
01259e: 6c01692a         CALL I$$UMOD
0125a2: 7c000194         SUB #1,T0,AR1
0125a6: c906             MOV AR1,@#03h
0125a8: a931013534       MOV *(#013534h),AR1
0125ad: ed31bf01338a     MOV dbl(*(#01338ah)),XAR3
0125b3: a406_190109      MOV @#03h,T0 || AND #1,AR1,AC0
0125b8: 100703           SFTL AC0,#3,AC0
0125bb: 2205             MOV AC0,T1
0125bd: 7600ff18         MOV #255,AC1
0125c1: 5c15             SFTS AC1,T1,AC0
0125c3: db6b90           XOR *AR3(AR0),AC0,AR1
0125c6: c96b             MOV AR1,*AR3(AR0)
0125c8: 0600d4           B $C$DW$L$_mutator$84$E
0125cb:               $C$DW$L$_mutator$79$E:
0125cb:               $C$L52:
0125cb:               $C$DW$L$_mutator$80$B:
0125cb: 6c016457         CALL _rand
0125cf: a531013539       MOV *(#013539h),T1
0125d4: 6c01692a         CALL I$$UMOD
0125d8: c406             MOV T0,@#03h
0125da: ed31bf01338a     MOV dbl(*(#01338ah)),XAR3
0125e0: a406             MOV @#03h,T0
0125e2: a96b             MOV *AR3(AR0),AR1
0125e4: 1cff99           XOR #255,AR1,AR1
0125e7: c96b             MOV AR1,*AR3(AR0)
0125e9: a406             MOV @#03h,T0
0125eb: ed31bf01338a     MOV dbl(*(#01338ah)),XAR3
0125f1: a96b             MOV *AR3(AR0),AR1
0125f3: 7fff0099         XOR #65280,AR1,AR1
0125f7: c96b             MOV AR1,*AR3(AR0)
0125f9: 0600a3           B $C$DW$L$_mutator$84$E
0125fc:               $C$DW$L$_mutator$80$E:
0125fc:               $C$L53:
0125fc:               $C$DW$L$_mutator$81$B:
0125fc: 6c016457         CALL _rand
012600: a531013539       MOV *(#013539h),T1
012605: 6c01692a         CALL I$$UMOD
012609: 7c000194         SUB #1,T0,AR1
01260d: c906             MOV AR1,@#03h
01260f: ed31bf01338a     MOV dbl(*(#01338ah)),XAR3
012615: a406             MOV @#03h,T0
012617: a96b             MOV *AR3(AR0),AR1
012619: 1cff99           XOR #255,AR1,AR1
01261c: c96b             MOV AR1,*AR3(AR0)
01261e: a406             MOV @#03h,T0
012620: ed31bf01338a     MOV dbl(*(#01338ah)),XAR3
012626: a96b             MOV *AR3(AR0),AR1
012628: 7fff0099         XOR #65280,AR1,AR1
01262c: c96b             MOV AR1,*AR3(AR0)
01262e: ed31bf01338a     MOV dbl(*(#01338ah)),XAR3
012634: a406             MOV @#03h,T0
012636: 4014             ADD #1,T0
012638: a96b             MOV *AR3(AR0),AR1
01263a: a406             MOV @#03h,T0
01263c: 4014             ADD #1,T0
01263e: 1cff99           XOR #255,AR1,AR1
012641: c96b             MOV AR1,*AR3(AR0)
012643: ed31bf01338a     MOV dbl(*(#01338ah)),XAR3
012649: a406             MOV @#03h,T0
01264b: 4014             ADD #1,T0
01264d: a96b             MOV *AR3(AR0),AR1
01264f: a406             MOV @#03h,T0
012651: 4014             ADD #1,T0
012653: 7fff0099         XOR #65280,AR1,AR1
012657: c96b             MOV AR1,*AR3(AR0)
012659: 060043           B $C$DW$L$_mutator$84$E
01265c:               $C$DW$L$_mutator$81$E:
01265c:               $C$L54:
01265c:               $C$DW$L$_mutator$82$B:
01265c: 6c016457         CALL _rand
012660: a531013539       MOV *(#013539h),T1
012665: 6c01692a         CALL I$$UMOD
012669: 7c000194         SUB #1,T0,AR1
01266d: c906             MOV AR1,@#03h
01266f: ed31bf01338a     MOV dbl(*(#01338ah)),XAR3
012675: a406             MOV @#03h,T0
012677: e66b00           MOV #0,*AR3(AR0)
01267a: 4a23             B $C$DW$L$_mutator$84$E
01267c:               $C$DW$L$_mutator$82$E:
01267c:               $C$L55:
01267c:               $C$DW$L$_mutator$83$B:
01267c: a010             MOV @#08h,AC0
01267e: 2209_3dba        MOV AC0,AR1 || MOV #11,AR2
012682: 12a894_21        CMPU AR2 >= AR1, TC1 || NOP
012686: 047416           BCC $C$DW$L$_mutator$84$E,!TC1
012689:               $C$DW$L$_mutator$83$E:
012689:               $C$DW$L$_mutator$84$B:
012689: 4450             SFTS AC0,#1
01268b: a110_98          MOV mmap(@AC0L),AC1
01268e: 7a00010a         MOV #1 << #16,AC0
012692: 7e843600         OR #33846,AC0,AC0
012696: 2410             ADD AC1,AC0
012698: 900b             MOV AC0,XAR3
01269a: ed6108           MOV dbl(*AR3),AC0
01269d: 9100             B AC0
01269f:               $C$DW$L$_mutator$84$E:
01269f:               $C$L56:
01269f:               $C$DW$L$_mutator$85$B:
01269f: 6c016457         CALL _rand
0126a3: 3cc5             MOV #12,T1
0126a5: 6c0168c4         CALL I$$MOD
0126a9: c410             MOV T0,@#08h
0126ab: f7000001         ADD #1,@#00h
0126af: a90a             MOV @#05h,AR1
0126b1: aa00             MOV @#00h,AR2
0126b3: 12a494_21        CMPU AR2 < AR1, TC1 || NOP
0126b7: 6d64fd1c         BCC $C$L42,TC1
0126bb:               $C$DW$L$_mutator$85$E:
0126bb:               $C$L57:
0126bb:               $C$L58:
0126bb: f7310001013534   ADD #1,*(#013534h)
0126c2: 4e09             AADD #9,SP
0126c4: 4804             RET
0126c6:               _dequeue_seed:
0126c6: 4efd             AADD #-3,SP
0126c8: a931013522       MOV *(#013522h),AR1
0126cd: aa3101351f       MOV *(#01351fh),AR2
0126d2: 12ac94_21        CMPU AR2 != AR1, TC1 || NOP
0126d6: 6364             BCC $C$L59,TC1
0126d8: e6310001351f     MOV #0,*(#01351fh)
0126de:               $C$L59:
0126de: f03100fa013534   CMP *(#013534h) == #250, TC1
0126e5: 66f4             BCC $C$L60,!TC1
0126e7: e63100013534     MOV #0,*(#013534h)
0126ed: f731000101351f   ADD #1,*(#01351fh)
0126f4:               $C$L60:
0126f4: a931013388       MOV *(#013388h),AR1
0126f9: aa3101351f       MOV *(#01351fh),AR2
0126fe: 12a494_21        CMPU AR2 < AR1, TC1 || NOP
012702: 66e4             BCC $C$L61,TC1
012704: e6310001351f     MOV #0,*(#01351fh)
01270a: f7310001013535   ADD #1,*(#013535h)
012711:               $C$L61:
012711: 3c5a             MOV #5,AR2
012713: a931013535       MOV *(#013535h),AR1
012718: 12a894_21        CMPU AR2 >= AR1, TC1 || NOP
01271c: 046423           BCC $C$L63,TC1
01271f: 3caa             MOV #10,AR2
012721: a931013538       MOV *(#013538h),AR1
012726: 1298a4_21        CMPU AR1 >= AR2, TC1 || NOP
01272a: 63e4             BCC $C$L62,TC1
01272c: f7310001013538   ADD #1,*(#013538h)
012733:               $C$L62:
012733: f031000a013538   CMP *(#013538h) == #10, TC1
01273a: 6374             BCC $C$L63,!TC1
01273c: e63101013538     MOV #1,*(#013538h)
012742:               $C$L63:
012742: b03101351f       MOV *(#01351fh) << #16,AC0
012747: 7901f400         MPYK #500,AC0,AC0
01274b: 2209             MOV AC0,AR1
01274d: ed31af01338a     MOV dbl(*(#01338ah)),XAR2
012753: ec31be012000     AMAR *(#012000h),XAR3
012759: 1490b0           AADD AR1,AR3
01275c: ec419e_0d01f3    AMAR *AR2,XAR1 || RPT #499
012762:               $C$L64:
012762:               $C$DW$L$_dequeue_seed$13$B:
012762: 806514           MOV *AR3+,*AR2+
012765:               $C$DW$L$_dequeue_seed$13$E:
012765:               $C$L65:
012765: eb0095           MOV XAR1,dbl(@#00h)
012768: ed00bf           MOV dbl(@#00h),XAR3
01276b: 90b0             MOV XAR3,AC0
01276d: 6310             BCC $C$L66,AC0 != #0
01276f: 3e14             MOV #-1,T0
012771: 6c016867         CALL _exit
012775:               $C$L66:
012775: 4e03             AADD #3,SP
012777: 4804             RET
012779:               _bubble_coverage:
012779: 4eff             AADD #-1,SP
01277b: e60000           MOV #0,@#00h
01277e: 4e01             AADD #1,SP
012780: 4804             RET
012782:               _main_harness_loop:
012782: 4efd             AADD #-3,SP
012784: 7a00010a         MOV #1 << #16,AC0
012788: 7e000000         OR #0,AC0,AC0
01278c: 9008             MOV AC0,XAR0
01278e: 08f6c6           CALL _setup
012791: e63100013389     MOV #0,*(#013389h)
012797: e63100013536     MOV #0,*(#013536h)
01279d: ec318e013524     AMAR *(#013524h),XAR0
0127a3: 6c0167a2         CALL __setjmp
0127a7:               $C$L67:
0127a7:               $C$DW$L$_main_harness_loop$3$B:
0127a7: f7310001013536   ADD #1,*(#013536h)
0127ae: 08ff15           CALL _dequeue_seed
0127b1: 08f711           CALL _mutator
0127b4: 9048             MOV XSP,XAR0
0127b6: 08f5cd           CALL _start_timer
0127b9: 76002348         MOV #35,T0
0127bd: ed318f01338a     MOV dbl(*(#01338ah)),XAR0
0127c3: 6c010000         CALL _telecom_test
0127c7: 9048             MOV XSP,XAR0
0127c9: 08f65e           CALL _stop_timer
0127cc: 3c00             MOV #0,AC0
0127ce: eb310801353e     MOV AC0,dbl(*(#01353eh))
0127d4: a931013523       MOV *(#013523h),AR1
0127d9: 040959           BCC $C$DW$L$_main_harness_loop$8$E,AR1 == #0
0127dc:               $C$DW$L$_main_harness_loop$3$E:
0127dc:               $C$DW$L$_main_harness_loop$4$B:
0127dc: ed310801338c     MOV dbl(*(#01338ch)),AC0
0127e2: 040050           BCC $C$DW$L$_main_harness_loop$8$E,AC0 == #0
0127e5:               $C$DW$L$_main_harness_loop$4$E:
0127e5:               $C$DW$L$_main_harness_loop$5$B:
0127e5: f7310001013389   ADD #1,*(#013389h)
0127ec: 08ff8a           CALL _bubble_coverage
0127ef: e60400           MOV #0,@#02h
0127f2: 7600c8a8         MOV #200,AR2
0127f6: a904             MOV @#02h,AR1
0127f8: 1298a4_21        CMPU AR1 >= AR2, TC1 || NOP
0127fc: 04641c           BCC $C$DW$L$_main_harness_loop$6$E,TC1
0127ff:               $C$DW$L$_main_harness_loop$5$E:
0127ff:               $C$L68:
0127ff:               $C$DW$L$_main_harness_loop$6$B:
0127ff: a404             MOV @#02h,T0
012801: 5040             SFTL T0,#1
012803: 3c00             MOV #0,AC0
012805: ec31be01338c     AMAR *(#01338ch),XAR3
01280b: eb6b08           MOV AC0,dbl(*AR3(AR0))
01280e: f7040001         ADD #1,@#02h
012812: a904             MOV @#02h,AR1
012814: 1294a4_21        CMPU AR1 < AR2, TC1 || NOP
012818: 0464e4           BCC $C$DW$L$_main_harness_loop$5$E,TC1
01281b:               $C$DW$L$_main_harness_loop$6$E:
01281b:               $C$L69:
01281b:               $C$DW$L$_main_harness_loop$7$B:
01281b: ec31be01338c     AMAR *(#01338ch),XAR3
012821: eb31b501351c     MOV XAR3,dbl(*(#01351ch))
012827: e63100013523     MOV #0,*(#013523h)
01282d: e63101013538     MOV #1,*(#013538h)
012833: 4a00             B $C$DW$L$_main_harness_loop$8$E
012835:               $C$DW$L$_main_harness_loop$8$E:
012835:               $C$L71:
012835:               $C$DW$L$_main_harness_loop$9$B:
012835:               $C$DW$L$_main_harness_loop$7$E:
012835:               $C$L70:
012835:               $C$DW$L$_main_harness_loop$8$B:
012835: ec318e013524     AMAR *(#013524h),XAR0
01283b: 3c14             MOV #1,T0
01283d: 6c0167c3         CALL _longjmp
012841: 06ff63           B $C$L67
012844:               _main:
012844:               $C$DW$L$_main_harness_loop$9$E:
012844: 4eff             AADD #-1,SP
012846: 08ff39           CALL _main_harness_loop
012849: 3c04             MOV #0,T0
01284b: 4e01             AADD #1,SP
01284d: 4804             RET
01284f:               _nr_reset:
01284f: 5066             PSH T2
012851: 5076             PSH T3
012853: 50d5             PSHBOTH XAR5
012855: ec01de           AMAR *AR0,XAR5
012858: a6ad001e         MOV *AR5(#001eh),T2
01285c: eda18f           MOV dbl(*AR5),XAR0
01285f: 2264             MOV T2,T0
012861: 6c016495         CALL _svdInit
012865: 76008008_2365    MOV #128,AC0 || MOV T2,T1
01286b: e6ade20018       MOV #-30,*AR5(#0018h)
012870: e6ade20019       MOV #-30,*AR5(#0019h)
012875: 5c05             SFTS AC0,T1,AC0
012877: edad8f000e       MOV dbl(*AR5(#000eh)),XAR0
01287c: 76800090         BFXTR #32768,AC0,AR1
012880: 2409             ADD AC0,AR1
012882: 4449             SFTS AR1,#-1
012884: 7b000179         ADD #1,AR1,T3
012888: 2274_3d10        MOV T3,T0 || MOV #1,AC0
01288c: 6c0165cf         CALL _utlLFractMemSet
012890: 2275_3d14        MOV T3,T1 || MOV #1,T0
012894: edad8f0010       MOV dbl(*AR5(#0010h)),XAR0
012899: 6c0165de         CALL _utlFractMemSet
01289d: edadbf0012       MOV dbl(*AR5(#0012h)),XAR3
0128a2: 6587             BCC $C$DW$L$_nr_reset$3$E,T3 == #0
0128a4: 7c000197         SUB #1,T3,AR1
0128a8: 529c             MOV AR1,CSR
0128aa: 4800             RPT CSR
0128ac:               $C$L1:
0128ac:               $C$DW$L$_nr_reset$3$B:
0128ac: e66300              MOV #0,*AR3+
0128af:               $C$DW$L$_nr_reset$3$E:
0128af:               $C$L2:
0128af: 2265             MOV T2,T1
0128b1: 76003008         MOV #48,AC0
0128b5: 5c05             SFTS AC0,T1,AC0
0128b7: 2209             MOV AC0,AR1
0128b9: edadbf0008       MOV dbl(*AR5(#0008h)),XAR3
0128be: 6489             BCC $C$DW$L$_nr_reset$6$E,AR1 == #0
0128c0: 4219             SUB #1,AR1
0128c2: 529c             MOV AR1,CSR
0128c4: 4800             RPT CSR
0128c6:               $C$L3:
0128c6:               $C$DW$L$_nr_reset$6$B:
0128c6: e66300              MOV #0,*AR3+
0128c9:               $C$DW$L$_nr_reset$6$E:
0128c9:               $C$L4:
0128c9: 2209             MOV AC0,AR1
0128cb: edadbf000a       MOV dbl(*AR5(#000ah)),XAR3
0128d0: 6589             BCC $C$DW$L$_nr_reset$9$E,AR1 == #0
0128d2: 7c000190         SUB #1,AC0,AR1
0128d6: 529c             MOV AR1,CSR
0128d8: 4800             RPT CSR
0128da:               $C$L5:
0128da:               $C$DW$L$_nr_reset$9$B:
0128da: e66300              MOV #0,*AR3+
0128dd:               $C$DW$L$_nr_reset$9$E:
0128dd:               $C$L6:
0128dd: 3c80             MOV #8,AC0
0128df: 5c05             SFTS AC0,T1,AC0
0128e1: ec31be0152e4     AMAR *(#0152e4h),XAR3
0128e7: 100510           SFTS AC0,#16,AC0
0128ea: e6ad00001a       MOV #0,*AR5(#001ah)
0128ef: 1e0500           MPYK #5,AC0,AC0
0128f2: c0ad0015         MOV AC0,*AR5(#0015h)
0128f6: 2260             MOV T2,AC0
0128f8: 100503           SFTS AC0,#3,AC0
0128fb: 4040             ADD #4,AC0
0128fd: 2204             MOV AC0,T0
0128ff: fbad747a0025     MOV #29818,*AR5(#0025h)
012905: fbad79990024     MOV #31129,*AR5(#0024h)
01290b: e6ad0a001f       MOV #10,*AR5(#001fh)
012910: 76002008         MOV #32,AC0
012914: ed6bbf           MOV dbl(*AR3(AR0)),XAR3
012917: 5c05             SFTS AC0,T1,AC0
012919: ebadb5000c       MOV XAR3,dbl(*AR5(#000ch))
01291e: c0ad0020         MOV AC0,*AR5(#0020h)
012922: 3c64             MOV #6,T0
012924: 6c015d47         CALL _nr_atten_dB2lin
012928: c4ad0021         MOV T0,*AR5(#0021h)
01292c: 3c64             MOV #6,T0
01292e: 6c015d47         CALL _nr_atten_dB2lin
012932: c4ad0022         MOV T0,*AR5(#0022h)
012936: 3c64             MOV #6,T0
012938: 6c015d47         CALL _nr_atten_dB2lin
01293c: e6ad050026       MOV #5,*AR5(#0026h)
012941: fbad00960027     MOV #150,*AR5(#0027h)
012947: e6ad000017       MOV #0,*AR5(#0017h)
01294c: c4ad0023         MOV T0,*AR5(#0023h)
012950: a9ad0025         MOV *AR5(#0025h),AR1
012954: c9ad001c         MOV AR1,*AR5(#001ch)
012958: 6c013e7d         CALL _nr_fft_tbl_init
01295c: 50d4             POPBOTH XAR5
01295e: 5072             POP T3
012960: 5062             POP T2
012962: 4804             RET
012964:               _asnrProcess:
012964: 50d5             PSHBOTH XAR5
012966: 4efc             AADD #-4,SP
012968: 76005008         MOV #80,AC0
01296c: ec01de           AMAR *AR0,XAR5
01296f: eb0495           MOV XAR1,dbl(@#02h)
012972: a5ad001e         MOV *AR5(#001eh),T1
012976: a9ad0014         MOV *AR5(#0014h),AR1
01297a: eb00a5_5d85      MOV XAR2,dbl(@#00h) || SFTS AC0,T1,AC2
01297f: 04191a           BCC $C$L7,AR1 != #0
012982: ed0008           MOV dbl(@#00h),AC0
012985: ed0418           MOV dbl(@#02h),AC1
012988: 121004           CMPU AC1 == AC0, TC1
01298b: 046439           BCC $C$L10,TC1
01298e: ed008f           MOV dbl(@#00h),XAR0
012991: ed049f           MOV dbl(@#02h),XAR1
012994: 2224             MOV AC2,T0
012996: 6c016828         CALL _memcpy
01299a: 4a2b             B $C$L10
01299c:               $C$L7:
01299c: ed04bf           MOV dbl(@#02h),XAR3
01299f: 90b0             MOV XAR3,AC0
0129a1: 6380             BCC $C$L8,AC0 == #0
0129a3: ed00bf           MOV dbl(@#00h),XAR3
0129a6: 90b0             MOV XAR3,AC0
0129a8: 6210             BCC $C$L9,AC0 != #0
0129aa:               $C$L8:
0129aa: 3c44             MOV #4,T0
0129ac: 4a1b             B $C$L11
0129ae:               $C$L9:
0129ae: eda18f           MOV dbl(*AR5),XAR0
0129b1: ed049f           MOV dbl(@#02h),XAR1
0129b4: 2224             MOV AC2,T0
0129b6: 6c015e6d         CALL _svdProcess
0129ba: eca18e           AMAR *AR5,XAR0
0129bd: ed00af           MOV dbl(@#00h),XAR2
0129c0: ed049f           MOV dbl(@#02h),XAR1
0129c3: 6c0146d4         CALL _nr_main
0129c7:               $C$L10:
0129c7: 3c04             MOV #0,T0
0129c9:               $C$L11:
0129c9: 4e04             AADD #4,SP
0129cb: 50d4             POPBOTH XAR5
0129cd: 4804             RET
0129cf:               _asnrOpen:
0129cf: 50d5             PSHBOTH XAR5
0129d1: 9090             MOV XAR1,AC0
0129d3: ec01de           AMAR *AR0,XAR5
0129d6: 6680             BCC $C$L12,AC0 == #0
0129d8: a921             MOV *AR1,AR1
0129da: 64a9             BCC $C$L12,AR1 < #0
0129dc: aaad001d         MOV *AR5(#001dh),AR2
0129e0: 12a890           CMP AR2 >= AR1, TC1
0129e3: 6264             BCC $C$L13,TC1
0129e5:               $C$L12:
0129e5: 3c44             MOV #4,T0
0129e7: 4a13             B $C$L14
0129e9:               $C$L13:
0129e9: c9ad001e         MOV AR1,*AR5(#001eh)
0129ed: 08fe5f           CALL _nr_reset
0129f0: 3c04             MOV #0,T0
0129f2: e6ad01002a       MOV #1,*AR5(#002ah)
0129f7: e6ad010014       MOV #1,*AR5(#0014h)
0129fc:               $C$L14:
0129fc: 50d4             POPBOTH XAR5
0129fe: 4804             RET
012a00:               _asnrNew:
012a00: 5066             PSH T2
012a02: 50d5             PSHBOTH XAR5
012a04: 50e5             PSHBOTH XAR6
012a06: 50f5             PSHBOTH XAR7
012a08: 4ef9             AADD #-7,SP
012a0a: ec41fe           AMAR *AR2,XAR7
012a0d: eb0885           MOV XAR0,dbl(@#04h)
012a10: a5f5             MOV *(AR7-T1),T1
012a12: ed08bf           MOV dbl(@#04h),XAR3
012a15: 76003008         MOV #48,AC0
012a19: 5c05             SFTS AC0,T1,AC0
012a1b: 76008008_230c    MOV #128,AC0 || MOV AC0,AR4
012a21: ec21de_5d05      AMAR *AR1,XAR5 || SFTS AC0,T1,AC0
012a26: ed61bf           MOV dbl(*AR3),XAR3
012a29: 76800090         BFXTR #32768,AC0,AR1
012a2d: 2409             ADD AC0,AR1
012a2f: 90b0_4549        MOV XAR3,AC0 || SFTS AR1,#-1
012a33: 4019             ADD #1,AR1
012a35: 6390             BCC $C$L15,AC0 != #0
012a37: 3c7a             MOV #7,AR2
012a39: 1240a0           CMP T0 == AR2, TC1
012a3c: 62e4             BCC $C$L16,TC1
012a3e:               $C$L15:
012a3e: 060299_3d44      B $C$L38 || MOV #4,T0
012a43:               $C$L16:
012a43: 160069           MOV #6,BRC0
012a46: eca1be_0f000d    AMAR *AR5,XAR3 || RPTB $C$DW$L$_asnrNew$6$E
012a4c:               $C$L17:
012a4c:               $C$DW$L$_asnrNew$5$B:
012a4c: aa75                MOV *(AR3-T1),AR2
012a4e: 648a                BCC $C$DW$L$_asnrNew$6$E,AR2 == #0
012a50:               $C$DW$L$_asnrNew$5$E:
012a50:               $C$DW$L$_asnrNew$6$B:
012a50: ed79af              MOV dbl(*+AR3),XAR2
012a53: 90a0                MOV XAR2,AC0
012a55: 6d000261            BCC $C$L36,AC0 == #0
012a59:               $C$DW$L$_asnrNew$6$E:
012a59:               $C$L18:
012a59:               $C$DW$L$_asnrNew$7$B:
012a59: 1406b4              AADD #6,AR3
012a5c:               $C$DW$L$_asnrNew$7$E:
012a5c:               $C$L19:
012a5c: 76002cb8         MOV #44,AR3
012a60: aab5             MOV *(AR5-T1),AR2
012a62: 12a4b4           CMPU AR2 < AR3, TC1
012a65: 6d640251         BCC $C$L36,TC1
012a69: 760020a8         MOV #32,AR2
012a6d: a5b3             MOV *(AR5+T1),T1
012a6f: 1250a4           CMPU T1 == AR2, TC1
012a72: 6764             BCC $C$L20,TC1
012a74: 7affff0a         MOV #-1 << #16,AC0
012a78: 7effff00         OR #65535,AC0,AC0
012a7c: 5c04             SFTL AC0,T1,AC0
012a7e: 4a08_3701        B $C$L21 || NOT AC0,AC1
012a82:               $C$L20:
012a82: 7affff1a         MOV #-1 << #16,AC1
012a86: 7effff11         OR #65535,AC1,AC1
012a8a:               $C$L21:
012a8a: edb9bf           MOV dbl(*+AR5),XAR3
012a8d: 90b0             MOV XAR3,AC0
012a8f: 2810             AND AC1,AC0
012a91: 6d100225         BCC $C$L36,AC0 != #0
012a95: aab3             MOV *(AR5+T1),AR2
012a97: 6d0a021f         BCC $C$L36,AR2 == #0
012a9b: aab7             MOV *AR5(T1),AR2
012a9d: 6d1a0219         BCC $C$L36,AR2 != #0
012aa1: 4c2b             RPT #43
012aa3:               $C$L22:
012aa3:               $C$DW$L$_asnrNew$16$B:
012aa3: e66300              MOV #0,*AR3+
012aa6:               $C$DW$L$_asnrNew$16$E:
012aa6:               $C$L23:
012aa6: 5290             MOV AR1,HI(AC0)
012aa8: a5ad0008         MOV *AR5(#0008h),T1
012aac: 1e0600           MPYK #6,AC0,AC0
012aaf: eca1be_230a      AMAR *AR5,XAR3 || MOV AC0,AR2
012ab4: 1406b4_1354a4    AADD #6,AR3 || CMPU T1 < AR2, TC1
012aba: edb9ef           MOV dbl(*+AR5),XAR6
012abd: 6d6401f9         BCC $C$L36,TC1
012ac1: 760020a8         MOV #32,AR2
012ac5: a5bf             MOV *(AR5-AR0B),T1
012ac7: 1250a4           CMPU T1 == AR2, TC1
012aca: 6764             BCC $C$L24,TC1
012acc: 7affff0a         MOV #-1 << #16,AC0
012ad0: 7effff00         OR #65535,AC0,AC0
012ad4: 5c04             SFTL AC0,T1,AC0
012ad6: 4a08_3701        B $C$L25 || NOT AC0,AC1
012ada:               $C$L24:
012ada: 7affff1a         MOV #-1 << #16,AC1
012ade: 7effff11         OR #65535,AC1,AC1
012ae2:               $C$L25:
012ae2: ed79af           MOV dbl(*+AR3),XAR2
012ae5: 90a0             MOV XAR2,AC0
012ae7: 2810             AND AC1,AC0
012ae9: 6d1001cd         BCC $C$L36,AC0 != #0
012aed: ab73             MOV *(AR3+T1),AR3
012aef: 6d0b01c7         BCC $C$L36,AR3 == #0
012af3: 2290             MOV AR1,AC0
012af5: ebd5a5_114702    MOV XAR2,dbl(*(AR6-T1)) || SFTL AC0,#2,AC1
012afb: aaad000e         MOV *AR5(#000eh),AR2
012aff: 2216             MOV AC1,T2
012b01: eca1be_13a464    AMAR *AR5,XAR3 || CMPU AR2 < T2, TC1
012b07: 140cb4           AADD #12,AR3
012b0a: 6d6401ac         BCC $C$L36,TC1
012b0e: 760020a8         MOV #32,AR2
012b12: a5ad000d         MOV *AR5(#000dh),T1
012b16: 1250a4           CMPU T1 == AR2, TC1
012b19: 6764             BCC $C$L26,TC1
012b1b: 7affff0a         MOV #-1 << #16,AC0
012b1f: 7effff00         OR #65535,AC0,AC0
012b23: 5c04             SFTL AC0,T1,AC0
012b25: 4a08_3702        B $C$L27 || NOT AC0,AC2
012b29:               $C$L26:
012b29: 7affff2a         MOV #-1 << #16,AC2
012b2d: 7effff22         OR #65535,AC2,AC2
012b31:               $C$L27:
012b31: ed79af           MOV dbl(*+AR3),XAR2
012b34: 90a0             MOV XAR2,AC0
012b36: 2820             AND AC2,AC0
012b38: 6d10017e         BCC $C$L36,AC0 != #0
012b3c: ab73             MOV *(AR3+T1),AR3
012b3e: 6d0b0178         BCC $C$L36,AR3 == #0
012b42: ebd9a5_5390      MOV XAR2,dbl(*+AR6) || MOV AR1,HI(AC0)
012b47: a5ad0014         MOV *AR5(#0014h),T1
012b4b: 1e0300           MPYK #3,AC0,AC0
012b4e: 220a             MOV AC0,AR2
012b50: eca1be_1354a4    AMAR *AR5,XAR3 || CMPU T1 < AR2, TC1
012b56: 1412b4           AADD #18,AR3
012b59: 6d64015d         BCC $C$L36,TC1
012b5d: 760020a8         MOV #32,AR2
012b61: a5ad0013         MOV *AR5(#0013h),T1
012b65: 1250a4           CMPU T1 == AR2, TC1
012b68: 6764             BCC $C$L28,TC1
012b6a: 7affff0a         MOV #-1 << #16,AC0
012b6e: 7effff00         OR #65535,AC0,AC0
012b72: 5c04             SFTL AC0,T1,AC0
012b74: 4a08_3702        B $C$L29 || NOT AC0,AC2
012b78:               $C$L28:
012b78: 7affff2a         MOV #-1 << #16,AC2
012b7c: 7effff22         OR #65535,AC2,AC2
012b80:               $C$L29:
012b80: ed79af           MOV dbl(*+AR3),XAR2
012b83: 90a0             MOV XAR2,AC0
012b85: 2820             AND AC2,AC0
012b87: 6d10012f         BCC $C$L36,AC0 != #0
012b8b: ab73             MOV *(AR3+T1),AR3
012b8d: 6d0b0129         BCC $C$L36,AR3 == #0
012b91: 22c0             MOV AR4,AC0
012b93: ebdda5_5100      MOV XAR2,dbl(*(AR6+AR0B)) || SFTL AC0,#1
012b98: a5ad001a         MOV *AR5(#001ah),T1
012b9c: 220a             MOV AC0,AR2
012b9e: eca1be_1354a4    AMAR *AR5,XAR3 || CMPU T1 < AR2, TC1
012ba4: 1418b4           AADD #24,AR3
012ba7: 6d64010f         BCC $C$L36,TC1
012bab: 760020a8         MOV #32,AR2
012baf: a5ad0019         MOV *AR5(#0019h),T1
012bb3: 1250a4           CMPU T1 == AR2, TC1
012bb6: 6764             BCC $C$L30,TC1
012bb8: 7affff0a         MOV #-1 << #16,AC0
012bbc: 7effff00         OR #65535,AC0,AC0
012bc0: 5c04             SFTL AC0,T1,AC0
012bc2: 4a08_3702        B $C$L31 || NOT AC0,AC2
012bc6:               $C$L30:
012bc6: 7affff2a         MOV #-1 << #16,AC2
012bca: 7effff22         OR #65535,AC2,AC2
012bce:               $C$L31:
012bce: ed79af           MOV dbl(*+AR3),XAR2
012bd1: 90a0             MOV XAR2,AC0
012bd3: 2820             AND AC2,AC0
012bd5: 6d1000e1         BCC $C$L36,AC0 != #0
012bd9: a573             MOV *(AR3+T1),T1
012bdb: 6d0500db         BCC $C$L36,T1 == #0
012bdf: ab77             MOV *AR3(T1),AR3
012be1: 6d1b00d5         BCC $C$L36,AR3 != #0
012be5: ebcda50008       MOV XAR2,dbl(*AR6(#0008h))
012bea: edcdbf0008       MOV dbl(*AR6(#0008h)),XAR3
012bef: 14c0b0           AADD AR4,AR3
012bf2: ebcdb5000a       MOV XAR3,dbl(*AR6(#000ah))
012bf7: aaad0020         MOV *AR5(#0020h),AR2
012bfb: eca1be_13a464    AMAR *AR5,XAR3 || CMPU AR2 < T2, TC1
012c01: 8c00b1141e       MOV AC1,@#00h || AADD #30,AR3
012c06: 6d6400b0         BCC $C$L36,TC1
012c0a: 760020a8         MOV #32,AR2
012c0e: a5ad001f         MOV *AR5(#001fh),T1
012c12: 1250a4           CMPU T1 == AR2, TC1
012c15: 6764             BCC $C$L32,TC1
012c17: 7affff0a         MOV #-1 << #16,AC0
012c1b: 7effff00         OR #65535,AC0,AC0
012c1f: 5c04             SFTL AC0,T1,AC0
012c21: 4a08_3701        B $C$L33 || NOT AC0,AC1
012c25:               $C$L32:
012c25: 7affff1a         MOV #-1 << #16,AC1
012c29: 7effff11         OR #65535,AC1,AC1
012c2d:               $C$L33:
012c2d: ed79af           MOV dbl(*+AR3),XAR2
012c30: 90a0             MOV XAR2,AC0
012c32: 2810             AND AC1,AC0
012c34: 6d100082         BCC $C$L36,AC0 != #0
012c38: ac73             MOV *(AR3+T1),AR4
012c3a: 040c7d           BCC $C$L36,AR4 == #0
012c3d: ab77             MOV *AR3(T1),AR3
012c3f: 041b78           BCC $C$L36,AR3 != #0
012c42: ebcda5000e       MOV XAR2,dbl(*AR6(#000eh))
012c47: edcdbf000e       MOV dbl(*AR6(#000eh)),XAR3
012c4c: 2290             MOV AR1,AC0
012c4e: 4450             SFTS AC0,#1
012c50: 220a             MOV AC0,AR2
012c52: 14a0b0           AADD AR2,AR3
012c55: ebcdb50010       MOV XAR3,dbl(*AR6(#0010h))
012c5a: edcdbf0010       MOV dbl(*AR6(#0010h)),XAR3
012c5f: 1490b0           AADD AR1,AR3
012c62: ebcdb50012       MOV XAR3,dbl(*AR6(#0012h))
012c67: ec008e           AMAR @#00h,XAR0
012c6a: eca1be           AMAR *AR5,XAR3
012c6d: 8e04bb14b524     MOV XAR3,dbl(@#02h) || AADD #36,AR3
012c73: 6c0164e6         CALL _svdGetSizes
012c77: aaad0026         MOV *AR5(#0026h),AR2
012c7b: a900             MOV @#00h,AR1
012c7d: 12a494           CMPU AR2 < AR1, TC1
012c80: 046437           BCC $C$L36,TC1
012c83: 76002098         MOV #32,AR1
012c87: a5ad0025         MOV *AR5(#0025h),T1
012c8b: 125094           CMPU T1 == AR1, TC1
012c8e: 6764             BCC $C$L34,TC1
012c90: 7affff0a         MOV #-1 << #16,AC0
012c94: 7effff00         OR #65535,AC0,AC0
012c98: 5c04             SFTL AC0,T1,AC0
012c9a: 4a08_3701        B $C$L35 || NOT AC0,AC1
012c9e:               $C$L34:
012c9e: 7affff1a         MOV #-1 << #16,AC1
012ca2: 7effff11         OR #65535,AC1,AC1
012ca6:               $C$L35:
012ca6: ed04bf           MOV dbl(@#02h),XAR3
012ca9: ed79af           MOV dbl(*+AR3),XAR2
012cac: 90a0             MOV XAR2,AC0
012cae: 2810             AND AC1,AC0
012cb0: 6410             BCC $C$L36,AC0 != #0
012cb2: a973             MOV *(AR3+T1),AR1
012cb4: 6209             BCC $C$L36,AR1 == #0
012cb6: a977             MOV *AR3(T1),AR1
012cb8: 6209             BCC $C$L37,AR1 == #0
012cba:               $C$L36:
012cba: 4a1e_3d14        B $C$L38 || MOV #1,T0
012cbe:               $C$L37:
012cbe: ebc1a5           MOV XAR2,dbl(*AR6)
012cc1: a9f5             MOV *(AR7-T1),AR1
012cc3: e6cd00002a       MOV #0,*AR6(#002ah)
012cc8: c9cd001d         MOV AR1,*AR6(#001dh)
012ccc: ede1bf           MOV dbl(*AR7),XAR3
012ccf: ebcdb50028       MOV XAR3,dbl(*AR6(#0028h))
012cd4: ed08bf           MOV dbl(@#04h),XAR3
012cd7: eb61e5_3d04      MOV XAR6,dbl(*AR3) || MOV #0,T0
012cdc:               $C$L38:
012cdc: 4e07             AADD #7,SP
012cde: 50f4             POPBOTH XAR7
012ce0: 50e4             POPBOTH XAR6
012ce2: 50d4             POPBOTH XAR5
012ce4: 5062             POP T2
012ce6: 4804             RET
012ce8:               _asnrGetSizes:
012ce8: 50d5             PSHBOTH XAR5
012cea: 50f5             PSHBOTH XAR7
012cec: 4eff             AADD #-1,SP
012cee: e60107           MOV #7,*AR0
012cf1: a541             MOV *AR2,T1
012cf3: ec21de           AMAR *AR1,XAR5
012cf6: 6605             BCC $C$L39,T1 == #0
012cf8: 3c19             MOV #1,AR1
012cfa: 125090           CMP T1 == AR1, TC1
012cfd: 3c44_9ef4        XCCPART !TC1 || MOV #4,T0
012d01: 047456           BCC $C$L40,!TC1
012d04:               $C$L39:
012d04: 76008008         MOV #128,AC0
012d08: 5c05             SFTS AC0,T1,AC0
012d0a: 76800090         BFXTR #32768,AC0,AR1
012d0e: 2409             ADD AC0,AR1
012d10: 4449             SFTS AR1,#-1
012d12: 4019             ADD #1,AR1
012d14: ec31fe0152ba     AMAR *(#0152bah),XAR7
012d1a: 5290             MOV AR1,HI(AC0)
012d1c: 1e0610           MPYK #6,AC0,AC1
012d1f: c1ed0008         MOV AC1,*AR7(#0008h)
012d23: 2290             MOV AR1,AC0
012d25: 104702           SFTL AC0,#2,AC1
012d28: 5290             MOV AR1,HI(AC0)
012d2a: c1ed000e         MOV AC1,*AR7(#000eh)
012d2e: c1ed0020         MOV AC1,*AR7(#0020h)
012d32: 1e0300           MPYK #3,AC0,AC0
012d35: c0ed0014         MOV AC0,*AR7(#0014h)
012d39: 76003008         MOV #48,AC0
012d3d: ec008e_5d05      AMAR @#00h,XAR0 || SFTS AC0,T1,AC0
012d42: e6f52c_5100      MOV #44,*(AR7-T1) || SFTL AC0,#1
012d47: c0ed001a         MOV AC0,*AR7(#001ah)
012d4b: 6c0164e6         CALL _svdGetSizes
012d4f: eba1f5           MOV XAR7,dbl(*AR5)
012d52: a900_3d04        MOV @#00h,AR1 || MOV #0,T0
012d56: c9ed0026         MOV AR1,*AR7(#0026h)
012d5a:               $C$L40:
012d5a: 4e01             AADD #1,SP
012d5c: 50f4             POPBOTH XAR7
012d5e: 50d4             POPBOTH XAR5
012d60: 4804             RET
012d62:               _asnrDelete:
012d62: ed01bf           MOV dbl(*AR0),XAR3
012d65: aa6d002a         MOV *AR3(#002ah),AR2
012d69: 3c34_9e9a        XCCPART AR2 != #0 || MOV #3,T0
012d6d: 041a42           BCC $C$L41,AR2 != #0
012d70: 3c7a             MOV #7,AR2
012d72: 1248a0           CMP T0 >= AR2, TC1
012d75: 3c54_9ef4        XCCPART !TC1 || MOV #5,T0
012d79: 047436           BCC $C$L41,!TC1
012d7c: eb39b5           MOV XAR3,dbl(*+AR1)
012d7f: ed75af           MOV dbl(*(AR3-T1)),XAR2
012d82: eb2da5000a       MOV XAR2,dbl(*AR1(#000ah))
012d87: 3c00             MOV #0,AC0
012d89: 3c04             MOV #0,T0
012d8b: ed79af           MOV dbl(*+AR3),XAR2
012d8e: eb2da50010       MOV XAR2,dbl(*AR1(#0010h))
012d93: ed7daf           MOV dbl(*(AR3+AR0B)),XAR2
012d96: eb2da50016       MOV XAR2,dbl(*AR1(#0016h))
012d9b: ed6daf0008       MOV dbl(*AR3(#0008h)),XAR2
012da0: eb2da5001c       MOV XAR2,dbl(*AR1(#001ch))
012da5: ed6dbf000e       MOV dbl(*AR3(#000eh)),XAR3
012daa: eb2db50022       MOV XAR3,dbl(*AR1(#0022h))
012daf: eb0108           MOV AC0,dbl(*AR0)
012db2:               $C$L41:
012db2: 4804             RET
012db4:               _asnrControl:
012db4: 5066             PSH T2
012db6: 50d5             PSHBOTH XAR5
012db8: 50f5             PSHBOTH XAR7
012dba: ec01de           AMAR *AR0,XAR5
012dbd: ec21fe           AMAR *AR1,XAR7
012dc0: f0ad0001002a     CMP *AR5(#002ah) == #1, TC1
012dc6: 3c24_9ef4        XCCPART !TC1 || MOV #2,T0
012dca: 6d740167         BCC $C$L56,!TC1
012dce: a6e1             MOV *AR7,T2
012dd0: ec0068           BTST @#00h,T2,TC1
012dd3: 047411           BCC $C$L43,!TC1
012dd6: a9f3             MOV *(AR7+T1),AR1
012dd8: 6489             BCC $C$L42,AR1 == #0
012dda: 3c1a             MOV #1,AR2
012ddc: 1290a0           CMP AR1 == AR2, TC1
012ddf: 6d74012b         BCC $C$L53,!TC1
012de3:               $C$L42:
012de3: c9ad0014         MOV AR1,*AR5(#0014h)
012de7:               $C$L43:
012de7: ec0268           BTST @#01h,T2,TC1
012dea: 047411           BCC $C$L45,!TC1
012ded: a9f5             MOV *(AR7-T1),AR1
012def: 6489             BCC $C$L44,AR1 == #0
012df1: 3c1a             MOV #1,AR2
012df3: 1290a0           CMP AR1 == AR2, TC1
012df6: 6d740114         BCC $C$L53,!TC1
012dfa:               $C$L44:
012dfa: c9ad001e         MOV AR1,*AR5(#001eh)
012dfe:               $C$L45:
012dfe: ec0468           BTST @#02h,T2,TC1
012e01: 047425           BCC $C$L46,!TC1
012e04: a9f7_3d3a        MOV *AR7(T1),AR1 || MOV #3,AR2
012e08: 1294a0           CMP AR1 < AR2, TC1
012e0b: 6d6400ff         BCC $C$L53,TC1
012e0f: 3c6a             MOV #6,AR2
012e11: 12a890           CMP AR2 >= AR1, TC1
012e14: 6d7400f6         BCC $C$L53,!TC1
012e18: a5ad001e         MOV *AR5(#001eh),T1
012e1c: 3c80             MOV #8,AC0
012e1e: 5c05             SFTS AC0,T1,AC0
012e20: 2205             MOV AC0,T1
012e22: d3f705           MPYM *AR7(T1),T1,AC0
012e25: c0ad0015         MOV AC0,*AR5(#0015h)
012e29:               $C$L46:
012e29: a9ad001e         MOV *AR5(#001eh),AR1
012e2d: ec0668           BTST @#03h,T2,TC1
012e30: 76003fa8         MOV #63,AR2
012e34: 76007fa8_9e99    XCCPART AR1 != #0 || MOV #127,AR2
012e3a: 047411           BCC $C$L47,!TC1
012e3d: a9f9             MOV *+AR7,AR1
012e3f: 6d3900cb         BCC $C$L53,AR1 <= #0
012e43: 12a890           CMP AR2 >= AR1, TC1
012e46: 6d7400c4         BCC $C$L53,!TC1
012e4a: c9ad001f         MOV AR1,*AR5(#001fh)
012e4e:               $C$L47:
012e4e: ec0868           BTST @#04h,T2,TC1
012e51: 04741c           BCC $C$L48,!TC1
012e54: a9fb             MOV *-AR7,AR1
012e56: 6d3900b4         BCC $C$L53,AR1 <= #0
012e5a: 12a490           CMP AR2 < AR1, TC1
012e5d: 6d6400ad         BCC $C$L53,TC1
012e61: aaad001f         MOV *AR5(#001fh),AR2
012e65: 1298a0           CMP AR1 >= AR2, TC1
012e68: 6d7400a2         BCC $C$L53,!TC1
012e6c: c9ad0020         MOV AR1,*AR5(#0020h)
012e70:               $C$L48:
012e70: ec0a68           BTST @#05h,T2,TC1
012e73: 047419           BCC $C$L49,!TC1
012e76: a4fd             MOV *(AR7+AR0B),T0
012e78: 6d240092         BCC $C$L53,T0 < #0
012e7c: 76005a98         MOV #90,AR1
012e80: 129840           CMP AR1 >= T0, TC1
012e83: 6d740087         BCC $C$L53,!TC1
012e87: 6c015d47         CALL _nr_atten_dB2lin
012e8b: c4ad0021         MOV T0,*AR5(#0021h)
012e8f:               $C$L49:
012e8f: ec0c68           BTST @#06h,T2,TC1
012e92: 047417           BCC $C$L50,!TC1
012e95: a4ff             MOV *(AR7-AR0B),T0
012e97: 042474           BCC $C$L53,T0 < #0
012e9a: 76005a98         MOV #90,AR1
012e9e: 129840           CMP AR1 >= T0, TC1
012ea1: 04746a           BCC $C$L53,!TC1
012ea4: 6c015d47         CALL _nr_atten_dB2lin
012ea8: c4ad0022         MOV T0,*AR5(#0022h)
012eac:               $C$L50:
012eac: ec0e68           BTST @#07h,T2,TC1
012eaf: 047419           BCC $C$L51,!TC1
012eb2: a4ed0008         MOV *AR7(#0008h),T0
012eb6: 042455           BCC $C$L53,T0 < #0
012eb9: 76005a98         MOV #90,AR1
012ebd: 129840           CMP AR1 >= T0, TC1
012ec0: 04744b           BCC $C$L53,!TC1
012ec3: 6c015d47         CALL _nr_atten_dB2lin
012ec7: c4ad0023         MOV T0,*AR5(#0023h)
012ecb:               $C$L51:
012ecb: ec1068           BTST @#08h,T2,TC1
012ece: 9664             XCC TC1
012ed0: a9ed000a         MOV *AR7(#000ah),AR1
012ed4: 96e4             XCCPART TC1
012ed6: c9ad0025         MOV AR1,*AR5(#0025h)
012eda: ec1268           BTST @#09h,T2,TC1
012edd: 047412           BCC $C$L52,!TC1
012ee0: aaad0025         MOV *AR5(#0025h),AR2
012ee4: a9ed0009         MOV *AR7(#0009h),AR1
012ee8: 1298a0           CMP AR1 >= AR2, TC1
012eeb: 047420           BCC $C$L53,!TC1
012eee: c9ad0024         MOV AR1,*AR5(#0024h)
012ef2:               $C$L52:
012ef2: ec1468           BTST @#0ah,T2,TC1
012ef5: 04742c           BCC $C$L55,!TC1
012ef8: 76ffb0a8         MOV #-80,AR2
012efc: a9ed000b         MOV *AR7(#000bh),AR1
012f00: 1294a0           CMP AR1 < AR2, TC1
012f03: 64e4             BCC $C$L53,TC1
012f05: 76ffd8a8         MOV #-40,AR2
012f09: 12a890           CMP AR2 >= AR1, TC1
012f0c: 6264             BCC $C$L54,TC1
012f0e:               $C$L53:
012f0e: 4a23_3d44        B $C$L56 || MOV #4,T0
012f12:               $C$L54:
012f12: f9ed0408000b     MOV *AR7(#000bh) << #4,AC0
012f18: 7c002140         SUB #33,AC0,T0
012f1c: 6c0167e7         CALL _utldB2LinPower
012f20: c0ad0026         MOV AC0,*AR5(#0026h)
012f24:               $C$L55:
012f24: ec1668           BTST @#0bh,T2,TC1
012f27: 3c04             MOV #0,T0
012f29: 9664             XCC TC1
012f2b: a9ed000c         MOV *AR7(#000ch),AR1
012f2f: 96e4             XCCPART TC1
012f31: c9ad0027         MOV AR1,*AR5(#0027h)
012f35:               $C$L56:
012f35: 50f4             POPBOTH XAR7
012f37: 50d4             POPBOTH XAR5
012f39: 5062             POP T2
012f3b: 4804             RET
012f3d:               _asnrClose:
012f3d: f00d0001002a     CMP *AR0(#002ah) == #1, TC1
012f43: 3c24             MOV #2,T0
012f45: 3c04_9ee4        XCCPART TC1 || MOV #0,T0
012f49: 96e4             XCCPART TC1
012f4b: e60d00002a       MOV #0,*AR0(#002ah)
012f50: 4804             RET
012f52:               _getenv:
012f52: 50d5             PSHBOTH XAR5
012f54: 20               NOP
012f55: 20               NOP
012f56: 50f5             PSHBOTH XAR7
012f58: ec01de           AMAR *AR0,XAR5
012f5b: 4eff             AADD #-1,SP
012f5d: ed31080152fa     MOV dbl(*(#0152fah)),AC0
012f63: 9200             CALL AC0
012f65: 76ffffa8         MOV #-1,AR2
012f69: eca1be           AMAR *AR5,XAR3
012f6c: b465             AMAR *AR3-
012f6e: a96f0001         MOV *+AR3(#0001h),AR1
012f72: 401a             ADD #1,AR2
012f74: 0419f7           BCC #0x012f6e,AR1 != #0
012f77: ec31fe015166     AMAR *(#015166h),XAR7
012f7d: eca19e           AMAR *AR5,XAR1
012f80: 7b00015a         ADD #1,AR2,T1
012f84: 7600f648         MOV #246,T0
012f88: ece18e           AMAR *AR7,XAR0
012f8b: 6c015efb         CALL _writemsg
012f8f: ec31de01516e     AMAR *(#01516eh),XAR5
012f95: eca19e           AMAR *AR5,XAR1
012f98: ece18e           AMAR *AR7,XAR0
012f9b: 6c0162f2         CALL _readmsg
012f9f: ed31080152fc     MOV dbl(*(#0152fch)),AC0
012fa5: 9200             CALL AC0
012fa7: 76ffff98         MOV #-1,AR1
012fab: eca18e           AMAR *AR5,XAR0
012fae: ec01be           AMAR *AR0,XAR3
012fb1: b465             AMAR *AR3-
012fb3: aa6f0001         MOV *+AR3(#0001h),AR2
012fb7: 4019             ADD #1,AR1
012fb9: 041af7           BCC #0x012fb3,AR2 != #0
012fbc: 4e01             AADD #1,SP
012fbe: 20               NOP
012fbf: 50f4             POPBOTH XAR7
012fc1: 50d4             POPBOTH XAR5
012fc3: 9609             XCC AR1 == #0
012fc5: ec318e000000     AMAR *(#00000h),XAR0
012fcb: 4804             RET
012fcd:               _HOSTwrite:
012fcd: 3876             PSH T3,T2
012fcf: 50d5             PSHBOTH XAR5
012fd1: 20               NOP
012fd2: 2247             MOV T0,T3
012fd4: 50f5             PSHBOTH XAR7
012fd6: ec01de_2356      AMAR *AR0,XAR5 || MOV T1,T2
012fdb: 4eff             AADD #-1,SP
012fdd: ed31080152fa     MOV dbl(*(#0152fah)),AC0
012fe3: 9200             CALL AC0
012fe5: ec31fe015166     AMAR *(#015166h),XAR7
012feb: 76010098         MOV #256,AR1
012fef: 129864_21        CMPU AR1 >= T2, TC1 || NOP
012ff3: 18ff07           AND #255,T3,AC0
012ff6: 76010068_9ef4    XCCPART !TC1 || MOV #256,T2
012ffc: c0e1_2370        MOV AC0,*AR7 || MOV T3,AC0
013000: 100538           SFTS AC0,#-8,AC0
013003: 18ff00           AND #255,AC0,AC0
013006: c0f3_19ff06      MOV AC0,*(AR7+T1) || AND #255,T2,AC0
01300b: c0f5_2360        MOV AC0,*(AR7-T1) || MOV T2,AC0
01300f: 76ff0090         BFXTR #65280,AC0,AR1
013013: c9f7             MOV AR1,*AR7(T1)
013015: 7600f348         MOV #243,T0
013019: ece18e           AMAR *AR7,XAR0
01301c: eca19e_2365      AMAR *AR5,XAR1 || MOV T2,T1
013021: 6c015efb         CALL _writemsg
013025: ec319e000000     AMAR *(#00000h),XAR1
01302b: ece18e           AMAR *AR7,XAR0
01302e: 6c0162f2         CALL _readmsg
013032: df3105015166     MOV uns(*(#015166h)),AC0
013038: df3115015167     MOV uns(*(#015167h)),AC1
01303e: 101308           ADD AC1 << #8,AC0
013041: 100510           SFTS AC0,#16,AC0
013044: 4406             MOV HI(AC0),T2
013046: ed31080152fc     MOV dbl(*(#0152fch)),AC0
01304c: 9200             CALL AC0
01304e: 4e01             AADD #1,SP
013050: 50f4             POPBOTH XAR7
013052: 2264             MOV T2,T0
013054: 50d4             POPBOTH XAR5
013056: 3a76             POP T3,T2
013058: 4804             RET
01305a:               _HOSTunlink:
01305a: 5066             PSH T2
01305c: 50d5             PSHBOTH XAR5
01305e: 50f5             PSHBOTH XAR7
013060: 20               NOP
013061: 20               NOP
013062: ed31080152fa     MOV dbl(*(#0152fah)),AC0
013068: ec01fe           AMAR *AR0,XAR7
01306b: 9200             CALL AC0
01306d: 76ffffa8         MOV #-1,AR2
013071: ece1be           AMAR *AR7,XAR3
013074: b465             AMAR *AR3-
013076: a96f0001         MOV *+AR3(#0001h),AR1
01307a: 401a             ADD #1,AR2
01307c: 0419f7           BCC #0x013076,AR1 != #0
01307f: ec31de015166     AMAR *(#015166h),XAR5
013085: ece19e           AMAR *AR7,XAR1
013088: 7b00015a         ADD #1,AR2,T1
01308c: 7600f548         MOV #245,T0
013090: eca18e           AMAR *AR5,XAR0
013093: 6c015efb         CALL _writemsg
013097: ec319e000000     AMAR *(#00000h),XAR1
01309d: eca18e           AMAR *AR5,XAR0
0130a0: 6c0162f2         CALL _readmsg
0130a4: dfb315           MOV uns(*(AR5+T1)),AC1
0130a7: dfa105           MOV uns(*AR5),AC0
0130aa: 101308           ADD AC1 << #8,AC0
0130ad: 100510           SFTS AC0,#16,AC0
0130b0: 4406             MOV HI(AC0),T2
0130b2: ed31080152fc     MOV dbl(*(#0152fch)),AC0
0130b8: 9200             CALL AC0
0130ba: 50f4             POPBOTH XAR7
0130bc: 2264             MOV T2,T0
0130be: 50d4             POPBOTH XAR5
0130c0: 5062             POP T2
0130c2: 4804             RET
0130c4:               _HOSTtime:
0130c4: 50d5             PSHBOTH XAR5
0130c6: ed31080152fa     MOV dbl(*(#0152fah)),AC0
0130cc: 4efe             AADD #-2,SP
0130ce: 9200             CALL AC0
0130d0: ec31de015166     AMAR *(#015166h),XAR5
0130d6: 7600f848         MOV #248,T0
0130da: ec319e000000     AMAR *(#00000h),XAR1
0130e0: eca18e_3d05      AMAR *AR5,XAR0 || MOV #0,T1
0130e5: 6c015efb         CALL _writemsg
0130e9: ec319e000000     AMAR *(#00000h),XAR1
0130ef: eca18e           AMAR *AR5,XAR0
0130f2: 6c0162f2         CALL _readmsg
0130f6: df3105015166     MOV uns(*(#015166h)),AC0
0130fc: dfb715           MOV uns(*AR5(T1)),AC1
0130ff: dfb515_111318    MOV uns(*(AR5-T1)),AC1 || ADD AC1 << #24,AC0
013105: dfb315_111310    MOV uns(*(AR5+T1)),AC1 || ADD AC1 << #16,AC0
01310b: 101308           ADD AC1 << #8,AC0
01310e: eb0008           MOV AC0,dbl(@#00h)
013111: ed31080152fc     MOV dbl(*(#0152fch)),AC0
013117: 9200             CALL AC0
013119: ed0008           MOV dbl(@#00h),AC0
01311c: 4e02             AADD #2,SP
01311e: 50d4             POPBOTH XAR5
013120: 4804             RET
013122:               _HOSTrename:
013122: 5066             PSH T2
013124: 50d5             PSHBOTH XAR5
013126: 20               NOP
013127: 20               NOP
013128: 50f5             PSHBOTH XAR7
01312a: ec01de           AMAR *AR0,XAR5
01312d: 4e9c             AADD #-100,SP
01312f: ed31080152fa     MOV dbl(*(#0152fah)),AC0
013135: ec21fe           AMAR *AR1,XAR7
013138: 9200             CALL AC0
01313a: 904a             MOV XSP,XAR2
01313c: eca1be           AMAR *AR5,XAR3
01313f: a961             MOV *AR3,AR1
013141: 806104           MOV *AR3,*AR2
013144: 6589             BCC #0x013151,AR1 == #0
013146: a96f0001         MOV *+AR3(#0001h),AR1
01314a: c94f0001         MOV AR1,*+AR2(#0001h)
01314e: 0419f5           BCC #0x013146,AR1 != #0
013151: 76ffffa8         MOV #-1,AR2
013155: b4a5             AMAR *AR5-
013157: a9af0001         MOV *+AR5(#0001h),AR1
01315b: 401a             ADD #1,AR2
01315d: 0419f7           BCC #0x013157,AR1 != #0
013160: 7b00015a         ADD #1,AR2,T1
013164: 904b             MOV XSP,XAR3
013166: ece1ae           AMAR *AR7,XAR2
013169: 8a41b91850       MOV *AR2,AR1 || AADD T1,AR3
01316e: c963             MOV AR1,*AR3+
013170: 6489             BCC #0x01317b,AR1 == #0
013172: a94f0001         MOV *+AR2(#0001h),AR1
013176: c963             MOV AR1,*AR3+
013178: 0419f7           BCC #0x013172,AR1 != #0
01317b: 76ffffa8         MOV #-1,AR2
01317f: b4e5             AMAR *AR7-
013181: a9ef0001         MOV *+AR7(#0001h),AR1
013185: 401a             ADD #1,AR2
013187: 0419f7           BCC #0x013181,AR1 != #0
01318a: 9049             MOV XSP,XAR1
01318c: ec31de015166     AMAR *(#015166h),XAR5
013192: 7600f748_25a5    MOV #247,T0 || ADD AR2,T1
013198: eca18e_4115      AMAR *AR5,XAR0 || ADD #1,T1
01319d: 6c015efb         CALL _writemsg
0131a1: ec319e000000     AMAR *(#00000h),XAR1
0131a7: eca18e           AMAR *AR5,XAR0
0131aa: 6c0162f2         CALL _readmsg
0131ae: dfb315           MOV uns(*(AR5+T1)),AC1
0131b1: dfa105           MOV uns(*AR5),AC0
0131b4: 101308           ADD AC1 << #8,AC0
0131b7: 100510           SFTS AC0,#16,AC0
0131ba: 4406             MOV HI(AC0),T2
0131bc: ed31080152fc     MOV dbl(*(#0152fch)),AC0
0131c2: 9200             CALL AC0
0131c4: 4e64             AADD #100,SP
0131c6: 50f4             POPBOTH XAR7
0131c8: 2264             MOV T2,T0
0131ca: 50d4             POPBOTH XAR5
0131cc: 5062             POP T2
0131ce: 4804             RET
0131d0:               _HOSTread:
0131d0: 3876             PSH T3,T2
0131d2: 50d5             PSHBOTH XAR5
0131d4: 20               NOP
0131d5: 2247             MOV T0,T3
0131d7: 50f5             PSHBOTH XAR7
0131d9: ec01de_2356      AMAR *AR0,XAR5 || MOV T1,T2
0131de: 4eff             AADD #-1,SP
0131e0: ed31080152fa     MOV dbl(*(#0152fah)),AC0
0131e6: 9200             CALL AC0
0131e8: ec31fe015166     AMAR *(#015166h),XAR7
0131ee: 76010098         MOV #256,AR1
0131f2: 129864_21        CMPU AR1 >= T2, TC1 || NOP
0131f6: 18ff07           AND #255,T3,AC0
0131f9: 76010068_9ef4    XCCPART !TC1 || MOV #256,T2
0131ff: c0e1_2370        MOV AC0,*AR7 || MOV T3,AC0
013203: 100538           SFTS AC0,#-8,AC0
013206: 18ff00           AND #255,AC0,AC0
013209: c0f3_19ff06      MOV AC0,*(AR7+T1) || AND #255,T2,AC0
01320e: c0f5_2360        MOV AC0,*(AR7-T1) || MOV T2,AC0
013212: 76ff0090         BFXTR #65280,AC0,AR1
013216: c9f7             MOV AR1,*AR7(T1)
013218: 7600f248         MOV #242,T0
01321c: ece18e_3d05      AMAR *AR7,XAR0 || MOV #0,T1
013221: ec319e000000     AMAR *(#00000h),XAR1
013227: 6c015efb         CALL _writemsg
01322b: eca19e           AMAR *AR5,XAR1
01322e: ece18e           AMAR *AR7,XAR0
013231: 6c0162f2         CALL _readmsg
013235: df3105015166     MOV uns(*(#015166h)),AC0
01323b: df3115015167     MOV uns(*(#015167h)),AC1
013241: 101308           ADD AC1 << #8,AC0
013244: 100510           SFTS AC0,#16,AC0
013247: 4406             MOV HI(AC0),T2
013249: ed31080152fc     MOV dbl(*(#0152fch)),AC0
01324f: 9200             CALL AC0
013251: 4e01             AADD #1,SP
013253: 50f4             POPBOTH XAR7
013255: 2264             MOV T2,T0
013257: 50d4             POPBOTH XAR5
013259: 3a76             POP T3,T2
01325b: 4804             RET
01325d:               _HOSTopen:
01325d: 3876             PSH T3,T2
01325f: 50d5             PSHBOTH XAR5
013261: 50e5             PSHBOTH XAR6
013263: 20               NOP
013264: 20               NOP
013265: 2246             MOV T0,T2
013267: ec01ee_2357      AMAR *AR0,XAR6 || MOV T1,T3
01326c: 50f5             PSHBOTH XAR7
01326e: ed31080152fa     MOV dbl(*(#0152fah)),AC0
013274: 9200             CALL AC0
013276: ec31be015166     AMAR *(#015166h),XAR3
01327c: 18ff07           AND #255,T3,AC0
01327f: 76ffffa8         MOV #-1,AR2
013283: c061_2370        MOV AC0,*AR3 || MOV T3,AC0
013287: ec61de_110538    AMAR *AR3,XAR5 || SFTS AC0,#-8,AC0
01328d: b4a3_19ff00      AMAR *AR5+ || AND #255,AC0,AC0
013292: c0a1_19ff06      MOV AC0,*AR5 || AND #255,T2,AC0
013297: c075_2360        MOV AC0,*(AR3-T1) || MOV T2,AC0
01329b: 76ff0090         BFXTR #65280,AC0,AR1
01329f: ecc1be           AMAR *AR6,XAR3
0132a2: b465             AMAR *AR3-
0132a4: c9b5             MOV AR1,*(AR5-T1)
0132a6: a96f0001         MOV *+AR3(#0001h),AR1
0132aa: 401a             ADD #1,AR2
0132ac: 0419f7           BCC #0x0132a6,AR1 != #0
0132af: ec31fe015166     AMAR *(#015166h),XAR7
0132b5: ecc19e           AMAR *AR6,XAR1
0132b8: 7b00015a         ADD #1,AR2,T1
0132bc: 7600f048         MOV #240,T0
0132c0: ece18e           AMAR *AR7,XAR0
0132c3: 6c015efb         CALL _writemsg
0132c7: ec319e000000     AMAR *(#00000h),XAR1
0132cd: ece18e           AMAR *AR7,XAR0
0132d0: 6c0162f2         CALL _readmsg
0132d4: dfa115           MOV uns(*AR5),AC1
0132d7: dfad05ffff       MOV uns(*AR5(#-0001h)),AC0
0132dc: 101308           ADD AC1 << #8,AC0
0132df: 100510           SFTS AC0,#16,AC0
0132e2: 4406             MOV HI(AC0),T2
0132e4: ed31080152fc     MOV dbl(*(#0152fch)),AC0
0132ea: 9200             CALL AC0
0132ec: 2267_9ea6        XCCPART T2 < #0 || MOV T2,T3
0132f0: 50f4             POPBOTH XAR7
0132f2: 2274             MOV T3,T0
0132f4: 50e4             POPBOTH XAR6
0132f6: 50d4             POPBOTH XAR5
0132f8: 3a76             POP T3,T2
0132fa: 4804             RET
0132fc:               _HOSTlseek:
0132fc: 3876             PSH T3,T2
0132fe: 50d5             PSHBOTH XAR5
013300: 2247             MOV T0,T3
013302: 4efe             AADD #-2,SP
013304: eb0008_2356      MOV AC0,dbl(@#00h) || MOV T1,T2
013309: ed31080152fa     MOV dbl(*(#0152fah)),AC0
01330f: 9200             CALL AC0
013311: ec31de015166     AMAR *(#015166h),XAR5
013317: 18ff07           AND #255,T3,AC0
01331a: c0a1_2370        MOV AC0,*AR5 || MOV T3,AC0
01331e: 100538           SFTS AC0,#-8,AC0
013321: 18ff00           AND #255,AC0,AC0
013324: c0b3             MOV AC0,*(AR5+T1)
013326: ed0008           MOV dbl(@#00h),AC0
013329: 18ff00           AND #255,AC0,AC0
01332c: c0b5             MOV AC0,*(AR5-T1)
01332e: ed0008           MOV dbl(@#00h),AC0
013331: a900_110538      MOV @#00h,AR1 || SFTS AC0,#-8,AC0
013336: 18ff00           AND #255,AC0,AC0
013339: c0b7_19ff09      MOV AC0,*AR5(T1) || AND #255,AR1,AC0
01333e: 7600f448         MOV #244,T0
013342: c0b9             MOV AC0,*+AR5
013344: ec319e000000     AMAR *(#00000h),XAR1
01334a: ed0008           MOV dbl(@#00h),AC0
01334d: 100528           SFTS AC0,#-24,AC0
013350: 18ff00           AND #255,AC0,AC0
013353: c0bb_19ff06      MOV AC0,*-AR5 || AND #255,T2,AC0
013358: c0bd_2360        MOV AC0,*(AR5+AR0B) || MOV T2,AC0
01335c: 100538           SFTS AC0,#-8,AC0
01335f: eca18e_19ff00    AMAR *AR5,XAR0 || AND #255,AC0,AC0
013365: c0bf_3d05        MOV AC0,*(AR5-AR0B) || MOV #0,T1
013369: 6c015efb         CALL _writemsg
01336d: ec319e000000     AMAR *(#00000h),XAR1
013373: eca18e           AMAR *AR5,XAR0
013376: 6c0162f2         CALL _readmsg
01337a: df3105015166     MOV uns(*(#015166h)),AC0
013380: df3115015169     MOV uns(*(#015169h)),AC1
013386: 101318           ADD AC1 << #24,AC0
013389: df3115015168     MOV uns(*(#015168h)),AC1
01338f: 101310           ADD AC1 << #16,AC0
013392: df3115015167     MOV uns(*(#015167h)),AC1
013398: 101308           ADD AC1 << #8,AC0
01339b: eb0008           MOV AC0,dbl(@#00h)
01339e: ed31080152fc     MOV dbl(*(#0152fch)),AC0
0133a4: 9200             CALL AC0
0133a6: ed0008           MOV dbl(@#00h),AC0
0133a9: 4e02             AADD #2,SP
0133ab: 50d4             POPBOTH XAR5
0133ad: 3a76             POP T3,T2
0133af: 4804             RET
0133b1:               _HOSTclose:
0133b1: 2246_5166        MOV T0,T2 || PSH T2
0133b5: 50d5             PSHBOTH XAR5
0133b7: 4eff             AADD #-1,SP
0133b9: ed31080152fa     MOV dbl(*(#0152fah)),AC0
0133bf: 9200             CALL AC0
0133c1: ec31de015166     AMAR *(#015166h),XAR5
0133c7: 7600f148         MOV #241,T0
0133cb: 18ff06           AND #255,T2,AC0
0133ce: ec319e000000     AMAR *(#00000h),XAR1
0133d4: c0a1_2360        MOV AC0,*AR5 || MOV T2,AC0
0133d8: 100538           SFTS AC0,#-8,AC0
0133db: eca18e_19ff00    AMAR *AR5,XAR0 || AND #255,AC0,AC0
0133e1: c0b3_3d05        MOV AC0,*(AR5+T1) || MOV #0,T1
0133e5: 6c015efb         CALL _writemsg
0133e9: ec319e000000     AMAR *(#00000h),XAR1
0133ef: eca18e           AMAR *AR5,XAR0
0133f2: 6c0162f2         CALL _readmsg
0133f6: df3105015166     MOV uns(*(#015166h)),AC0
0133fc: df3115015167     MOV uns(*(#015167h)),AC1
013402: 101308           ADD AC1 << #8,AC0
013405: 100510           SFTS AC0,#16,AC0
013408: 4406             MOV HI(AC0),T2
01340a: ed31080152fc     MOV dbl(*(#0152fch)),AC0
013410: 9200             CALL AC0
013412: 4e01             AADD #1,SP
013414: 50d4             POPBOTH XAR5
013416: 2264             MOV T2,T0
013418: 5062             POP T2
01341a: 4804             RET
01341c:               _HOSTclock:
01341c: 50d5             PSHBOTH XAR5
01341e: ed31080152fa     MOV dbl(*(#0152fah)),AC0
013424: 4efe             AADD #-2,SP
013426: 9200             CALL AC0
013428: ec31de015166     AMAR *(#015166h),XAR5
01342e: 7600f948         MOV #249,T0
013432: ec319e000000     AMAR *(#00000h),XAR1
013438: eca18e_3d05      AMAR *AR5,XAR0 || MOV #0,T1
01343d: 6c015efb         CALL _writemsg
013441: ec319e000000     AMAR *(#00000h),XAR1
013447: eca18e           AMAR *AR5,XAR0
01344a: 6c0162f2         CALL _readmsg
01344e: df3105015166     MOV uns(*(#015166h)),AC0
013454: dfb715           MOV uns(*AR5(T1)),AC1
013457: dfb515_111318    MOV uns(*(AR5-T1)),AC1 || ADD AC1 << #24,AC0
01345d: dfb315_111310    MOV uns(*(AR5+T1)),AC1 || ADD AC1 << #16,AC0
013463: 101308           ADD AC1 << #8,AC0
013466: eb0008           MOV AC0,dbl(@#00h)
013469: ed31080152fc     MOV dbl(*(#0152fch)),AC0
01346f: 9200             CALL AC0
013471: ed0008           MOV dbl(@#00h),AC0
013474: 4e02             AADD #2,SP
013476: 50d4             POPBOTH XAR5
013478: 4804             RET
01347a:               _IRQ_init:
01347a: 4efb             AADD #-5,SP
01347c: c404             MOV T0,@#02h
01347e: eb0085           MOV XAR0,dbl(@#00h)
013481: ed00bf           MOV dbl(@#00h),XAR3
013484: 90b0             MOV XAR3,AC0
013486: 20               NOP
013487: 20               NOP
013488: 20               NOP
013489: ec31be7fffff     AMAR *(#07fffffh),XAR3
01348f: 90b1             MOV XAR3,AC1
013491: 121c04           CMPU AC1 != AC0, TC1
013494: 62e4             BCC $C$L1,TC1
013496: 3e64             MOV #-6,T0
013498: 06006a           B $C$L6
01349b:               $C$L1:
01349b: ed00bf           MOV dbl(@#00h),XAR3
01349e: eb31b5015236     MOV XAR3,dbl(*(#015236h))
0134a4: e60600           MOV #0,@#03h
0134a7: 76001fa8         MOV #31,AR2
0134ab: a906             MOV @#03h,AR1
0134ad: 12a494_21        CMPU AR2 < AR1, TC1 || NOP
0134b1: 04641c           BCC $C$DW$L$_IRQ_init$4$E,TC1
0134b4:               $C$L2:
0134b4:               $C$DW$L$_IRQ_init$4$B:
0134b4: a406             MOV @#03h,T0
0134b6: 5040             SFTL T0,#1
0134b8: a006             MOV @#03h,AC0
0134ba: ec31be015238     AMAR *(#015238h),XAR3
0134c0: eb6b08           MOV AC0,dbl(*AR3(AR0))
0134c3: f7060001         ADD #1,@#03h
0134c7: a906             MOV @#03h,AR1
0134c9: 12a894_21        CMPU AR2 >= AR1, TC1 || NOP
0134cd: 0464e4           BCC $C$L2,TC1
0134d0:               $C$DW$L$_IRQ_init$4$E:
0134d0:               $C$L3:
0134d0: e60600           MOV #0,@#03h
0134d3: a906             MOV @#03h,AR1
0134d5: 12a494_21        CMPU AR2 < AR1, TC1 || NOP
0134d9: 046420           BCC $C$DW$L$_IRQ_init$6$E,TC1
0134dc:               $C$L4:
0134dc:               $C$DW$L$_IRQ_init$6$B:
0134dc: a506             MOV @#03h,T1
0134de: 2254             MOV T1,T0
0134e0: 5040             SFTL T0,#1
0134e2: 3c10             MOV #1,AC0
0134e4: ec31be015278     AMAR *(#015278h),XAR3
0134ea: 5c05             SFTS AC0,T1,AC0
0134ec: eb6b08           MOV AC0,dbl(*AR3(AR0))
0134ef: f7060001         ADD #1,@#03h
0134f3: a906             MOV @#03h,AR1
0134f5: 12a894_21        CMPU AR2 >= AR1, TC1 || NOP
0134f9: 0464e0           BCC $C$L4,TC1
0134fc:               $C$DW$L$_IRQ_init$6$E:
0134fc:               $C$L5:
0134fc: a904             MOV @#02h,AR1
0134fe: c9310152b8       MOV AR1,*(#0152b8h)
013503: 3c04             MOV #0,T0
013505:               $C$L6:
013505: 4e05             AADD #5,SP
013507: 4804             RET
013509:               _IRQ_clear:
013509: 4efd             AADD #-3,SP
01350b: c400             MOV T0,@#00h
01350d: 76001fa8_2349    MOV #31,AR2 || MOV T0,AR1
013513: 12a894_21        CMPU AR2 >= AR1, TC1 || NOP
013517: 6264             BCC $C$L7,TC1
013519: 3e64             MOV #-6,T0
01351b: 4a3d             B $C$L10
01351d:               $C$L7:
01351d: 080432           CALL _IRQ_globalDisable
013520: c404             MOV T0,@#02h
013522: a900             MOV @#00h,AR1
013524: c902             MOV AR1,@#01h
013526: a900_3dfa        MOV @#00h,AR1 || MOV #15,AR2
01352a: 12a894_21        CMPU AR2 >= AR1, TC1 || NOP
01352e: 046413           BCC $C$L8,TC1
013531: 7c001059         SUB #16,AR1,T1
013535: 3c10             MOV #1,AC0
013537: 5c05             SFTS AC0,T1,AC0
013539: c002             MOV AC0,@#01h
01353b: 2209             MOV AC0,AR1
01353d: c931000046       MOV AR1,*(#00046h)
013542: 4a0f             B $C$L9
013544:               $C$L8:
013544: a500             MOV @#00h,T1
013546: 3c10             MOV #1,AC0
013548: 5c05             SFTS AC0,T1,AC0
01354a: c002             MOV AC0,@#01h
01354c: 2209             MOV AC0,AR1
01354e: c931000001       MOV AR1,*(#00001h)
013553:               $C$L9:
013553: a404             MOV @#02h,T0
013555: 08042c           CALL _IRQ_globalRestore
013558: 3c04             MOV #0,T0
01355a:               $C$L10:
01355a: 4e03             AADD #3,SP
01355c: 4804             RET
01355e:               _IRQ_clearAll:
01355e: fb31ffff000001   MOV #-1,*(#00001h)
013565: fb31ffff000046   MOV #-1,*(#00046h)
01356c: 4804             RET
01356e:               _IRQ_config:
01356e: 4efb             AADD #-5,SP
013570: eb0485           MOV XAR0,dbl(@#02h)
013573: c400             MOV T0,@#00h
013575: ed04bf           MOV dbl(@#02h),XAR3
013578: 90b0_3d01        MOV XAR3,AC0 || MOV #0,AC1
01357c: 121c04           CMPU AC1 != AC0, TC1
01357f: 62e4             BCC $C$L11,TC1
013581: 3e64             MOV #-6,T0
013583: 06006a           B $C$L13
013586:               $C$L11:
013586: 76001fa8_2349    MOV #31,AR2 || MOV T0,AR1
01358c: 12a894_21        CMPU AR2 >= AR1, TC1 || NOP
013590: 62e4             BCC $C$L12,TC1
013592: 3e64             MOV #-6,T0
013594: 060059           B $C$L13
013597:               $C$L12:
013597: ed31af015236     MOV dbl(*(#015236h)),XAR2
01359d: f9000308         MOV @#00h << #3,AC0
0135a1: 2204             MOV AC0,T0
0135a3: 806170           MOV dbl(*AR3),dbl(*AR2(AR0))
0135a6: ed31bf015236     MOV dbl(*(#015236h)),XAR3
0135ac: ed04af           MOV dbl(@#02h),XAR2
0135af: f9000308         MOV @#00h << #3,AC0
0135b3: 2209             MOV AC0,AR1
0135b5: 8e55bd180890     MOV dbl(*(AR2-T1)),AC0 || AADD AR1,AR3
0135bb: eb7508           MOV AC0,dbl(*(AR3-T1))
0135be: ed31bf015236     MOV dbl(*(#015236h)),XAR3
0135c4: ed04af           MOV dbl(@#02h),XAR2
0135c7: f9000308         MOV @#00h << #3,AC0
0135cb: 2209             MOV AC0,AR1
0135cd: 8e59bd180890     MOV dbl(*+AR2),AC0 || AADD AR1,AR3
0135d3: eb7908           MOV AC0,dbl(*+AR3)
0135d6: ed31bf015236     MOV dbl(*(#015236h)),XAR3
0135dc: ed04af           MOV dbl(@#02h),XAR2
0135df: f9000308         MOV @#00h << #3,AC0
0135e3: 2209             MOV AC0,AR1
0135e5: 8e5dbd180890     MOV dbl(*(AR2+AR0B)),AC0 || AADD AR1,AR3
0135eb: eb7d08           MOV AC0,dbl(*(AR3+AR0B))
0135ee: 3c04             MOV #0,T0
0135f0:               $C$L13:
0135f0: 4e05             AADD #5,SP
0135f2: 4804             RET
0135f4:               _IRQ_getConfig:
0135f4: 4efb             AADD #-5,SP
0135f6: eb0485           MOV XAR0,dbl(@#02h)
0135f9: c400             MOV T0,@#00h
0135fb: ed04bf           MOV dbl(@#02h),XAR3
0135fe: 90b0_3d01        MOV XAR3,AC0 || MOV #0,AC1
013602: 121c04           CMPU AC1 != AC0, TC1
013605: 62e4             BCC $C$L14,TC1
013607: 3e64             MOV #-6,T0
013609: 06006d           B $C$L16
01360c:               $C$L14:
01360c: 76001fa8_2349    MOV #31,AR2 || MOV T0,AR1
013612: 12a894_21        CMPU AR2 >= AR1, TC1 || NOP
013616: 62e4             BCC $C$L15,TC1
013618: 3e64             MOV #-6,T0
01361a: 06005c           B $C$L16
01361d:               $C$L15:
01361d: ed31bf015236     MOV dbl(*(#015236h)),XAR3
013623: ed04af           MOV dbl(@#02h),XAR2
013626: f9000308         MOV @#00h << #3,AC0
01362a: 2204             MOV AC0,T0
01362c: 807d00           MOV dbl(*AR3(AR0)),dbl(*AR2)
01362f: ed31bf015236     MOV dbl(*(#015236h)),XAR3
013635: f9000308         MOV @#00h << #3,AC0
013639: 2209             MOV AC0,AR1
01363b: 1490b0           AADD AR1,AR3
01363e: ed7508           MOV dbl(*(AR3-T1)),AC0
013641: ed04bf           MOV dbl(@#02h),XAR3
013644: eb7508           MOV AC0,dbl(*(AR3-T1))
013647: ed31bf015236     MOV dbl(*(#015236h)),XAR3
01364d: f9000308         MOV @#00h << #3,AC0
013651: 2209             MOV AC0,AR1
013653: 1490b0           AADD AR1,AR3
013656: ed7908           MOV dbl(*+AR3),AC0
013659: ed04bf           MOV dbl(@#02h),XAR3
01365c: eb7908           MOV AC0,dbl(*+AR3)
01365f: ed31bf015236     MOV dbl(*(#015236h)),XAR3
013665: f9000308         MOV @#00h << #3,AC0
013669: 2209             MOV AC0,AR1
01366b: 1490b0           AADD AR1,AR3
01366e: ed7d08           MOV dbl(*(AR3+AR0B)),AC0
013671: ed04bf           MOV dbl(@#02h),XAR3
013674: eb7d08           MOV AC0,dbl(*(AR3+AR0B))
013677: 3c04             MOV #0,T0
013679:               $C$L16:
013679: 4e05             AADD #5,SP
01367b: 4804             RET
01367d:               _IRQ_disable:
01367d: 4efb             AADD #-5,SP
01367f: c400             MOV T0,@#00h
013681: 76001fa8_2349    MOV #31,AR2 || MOV T0,AR1
013687: 12a894_21        CMPU AR2 >= AR1, TC1 || NOP
01368b: 62e4             BCC $C$L17,TC1
01368d: 3e64             MOV #-6,T0
01368f: 060067           B $C$L20
013692:               $C$L17:
013692: c902             MOV AR1,@#01h
013694: 0802bb           CALL _IRQ_globalDisable
013697: c406             MOV T0,@#03h
013699: a900_3dfa        MOV @#00h,AR1 || MOV #15,AR2
01369d: 12a894_21        CMPU AR2 >= AR1, TC1 || NOP
0136a1: 04642a           BCC $C$L18,TC1
0136a4: f702fff0         ADD #-16,@#01h
0136a8: a902             MOV @#01h,AR1
0136aa: 3495             NEG AR1,T1
0136ac: df3105000045     MOV uns(*(#00045h)),AC0
0136b2: 5c05             SFTS AC0,T1,AC0
0136b4: 180100           AND #1,AC0,AC0
0136b7: c004             MOV AC0,@#02h
0136b9: a502             MOV @#01h,T1
0136bb: 3c10             MOV #1,AC0
0136bd: 5c05             SFTS AC0,T1,AC0
0136bf: 3609             NOT AC0,AR1
0136c1: d93109000045     AND *(#00045h),AR1,AC0
0136c7: c031000045       MOV AC0,*(#00045h)
0136cc: 4a24             B $C$L19
0136ce:               $C$L18:
0136ce: a902             MOV @#01h,AR1
0136d0: 3495             NEG AR1,T1
0136d2: df3105000000     MOV uns(*(#00000h)),AC0
0136d8: 5c05             SFTS AC0,T1,AC0
0136da: 180100           AND #1,AC0,AC0
0136dd: c004             MOV AC0,@#02h
0136df: a502             MOV @#01h,T1
0136e1: 3c10             MOV #1,AC0
0136e3: 5c05             SFTS AC0,T1,AC0
0136e5: 3609             NOT AC0,AR1
0136e7: d93109000000     AND *(#00000h),AR1,AC0
0136ed: c031000000       MOV AC0,*(#00000h)
0136f2:               $C$L19:
0136f2: a406             MOV @#03h,T0
0136f4: 08028d           CALL _IRQ_globalRestore
0136f7: a404             MOV @#02h,T0
0136f9:               $C$L20:
0136f9: 4e05             AADD #5,SP
0136fb: 4804             RET
0136fd:               _IRQ_disableAll:
0136fd: e63100000000     MOV #0,*(#00000h)
013703: e63100000045     MOV #0,*(#00045h)
013709: 4804             RET
01370b:               _IRQ_enable:
01370b: 4efb             AADD #-5,SP
01370d: c400             MOV T0,@#00h
01370f: 76001fa8_2349    MOV #31,AR2 || MOV T0,AR1
013715: 12a894_21        CMPU AR2 >= AR1, TC1 || NOP
013719: 62e4             BCC $C$L21,TC1
01371b: 3e64             MOV #-6,T0
01371d: 060073           B $C$L24
013720:               $C$L21:
013720: c902             MOV AR1,@#01h
013722: 08022d           CALL _IRQ_globalDisable
013725: c406             MOV T0,@#03h
013727: a900_3dfa        MOV @#00h,AR1 || MOV #15,AR2
01372b: 12a894_21        CMPU AR2 >= AR1, TC1 || NOP
01372f: 046430           BCC $C$L22,TC1
013732: f702fff0         ADD #-16,@#01h
013736: a902             MOV @#01h,AR1
013738: 3495             NEG AR1,T1
01373a: df3105000045     MOV uns(*(#00045h)),AC0
013740: 5c05             SFTS AC0,T1,AC0
013742: 180100           AND #1,AC0,AC0
013745: c004             MOV AC0,@#02h
013747: a502             MOV @#01h,T1
013749: 3c10             MOV #1,AC0
01374b: 5c05             SFTS AC0,T1,AC0
01374d: 3609             NOT AC0,AR1
01374f: d93199000045     AND *(#00045h),AR1,AR1
013755: 3c10             MOV #1,AC0
013757: 5c05             SFTS AC0,T1,AC0
013759: 2a90             OR AR1,AC0
01375b: c031000045       MOV AC0,*(#00045h)
013760: 4a2a             B $C$L23
013762:               $C$L22:
013762: a902             MOV @#01h,AR1
013764: 3495             NEG AR1,T1
013766: df3105000000     MOV uns(*(#00000h)),AC0
01376c: 5c05             SFTS AC0,T1,AC0
01376e: 180100           AND #1,AC0,AC0
013771: c004             MOV AC0,@#02h
013773: a502             MOV @#01h,T1
013775: 3c10             MOV #1,AC0
013777: 5c05             SFTS AC0,T1,AC0
013779: 3609             NOT AC0,AR1
01377b: d93199000000     AND *(#00000h),AR1,AR1
013781: 3c10             MOV #1,AC0
013783: 5c05             SFTS AC0,T1,AC0
013785: 2a90             OR AR1,AC0
013787: c031000000       MOV AC0,*(#00000h)
01378c:               $C$L23:
01378c: a406             MOV @#03h,T0
01378e: 0801f3           CALL _IRQ_globalRestore
013791: a404             MOV @#02h,T0
013793:               $C$L24:
013793: 4e05             AADD #5,SP
013795: 4804             RET
013797:               _IRQ_restore:
013797: 4efb             AADD #-5,SP
013799: c502             MOV T1,@#01h
01379b: c400             MOV T0,@#00h
01379d: 76001fa8_2349    MOV #31,AR2 || MOV T0,AR1
0137a3: 12a894_21        CMPU AR2 >= AR1, TC1 || NOP
0137a7: 62e4             BCC $C$L25,TC1
0137a9: 3e64             MOV #-6,T0
0137ab: 060057           B $C$L28
0137ae:               $C$L25:
0137ae: c904             MOV AR1,@#02h
0137b0: 08019f           CALL _IRQ_globalDisable
0137b3: c406             MOV T0,@#03h
0137b5: a900_3dfa        MOV @#00h,AR1 || MOV #15,AR2
0137b9: 12a894_21        CMPU AR2 >= AR1, TC1 || NOP
0137bd: 046422           BCC $C$L26,TC1
0137c0: f704fff0         ADD #-16,@#02h
0137c4: a504             MOV @#02h,T1
0137c6: 3c10             MOV #1,AC0
0137c8: 5c05             SFTS AC0,T1,AC0
0137ca: aa02_3709        MOV @#01h,AR2 || NOT AC0,AR1
0137ce: d93199000045     AND *(#00045h),AR1,AR1
0137d4: 18010a           AND #1,AR2,AC0
0137d7: 5c05             SFTS AC0,T1,AC0
0137d9: 2a90             OR AR1,AC0
0137db: c031000045       MOV AC0,*(#00045h)
0137e0: 4a1c             B $C$L27
0137e2:               $C$L26:
0137e2: a504             MOV @#02h,T1
0137e4: 3c10             MOV #1,AC0
0137e6: 5c05             SFTS AC0,T1,AC0
0137e8: aa02_3709        MOV @#01h,AR2 || NOT AC0,AR1
0137ec: d93199000000     AND *(#00000h),AR1,AR1
0137f2: 18010a           AND #1,AR2,AC0
0137f5: 5c05             SFTS AC0,T1,AC0
0137f7: 2a90             OR AR1,AC0
0137f9: c031000000       MOV AC0,*(#00000h)
0137fe:               $C$L27:
0137fe: a406             MOV @#03h,T0
013800: 080181           CALL _IRQ_globalRestore
013803: 3c04             MOV #0,T0
013805:               $C$L28:
013805: 4e05             AADD #5,SP
013807: 4804             RET
013809:               _IRQ_getArg:
013809: 4efb             AADD #-5,SP
01380b: eb0485           MOV XAR0,dbl(@#02h)
01380e: c400             MOV T0,@#00h
013810: ed04bf           MOV dbl(@#02h),XAR3
013813: 90b0_3d01        MOV XAR3,AC0 || MOV #0,AC1
013817: 121c04           CMPU AC1 != AC0, TC1
01381a: 6264             BCC $C$L29,TC1
01381c: 3e64             MOV #-6,T0
01381e: 4a2a             B $C$L31
013820:               $C$L29:
013820: 76001fa8_2349    MOV #31,AR2 || MOV T0,AR1
013826: 12a894_21        CMPU AR2 >= AR1, TC1 || NOP
01382a: 6264             BCC $C$L30,TC1
01382c: 3e64             MOV #-6,T0
01382e: 4a1a             B $C$L31
013830:               $C$L30:
013830: ed31bf015236     MOV dbl(*(#015236h)),XAR3
013836: f9000308         MOV @#00h << #3,AC0
01383a: 2209             MOV AC0,AR1
01383c: ed04af           MOV dbl(@#02h),XAR2
01383f: 1490b0           AADD AR1,AR3
013842: 1402b4           AADD #2,AR3
013845: 806100           MOV dbl(*AR3),dbl(*AR2)
013848: 3c04             MOV #0,T0
01384a:               $C$L31:
01384a: 4e05             AADD #5,SP
01384c: 4804             RET
01384e:               _IRQ_setArg:
01384e: 4efb             AADD #-5,SP
013850: eb0408           MOV AC0,dbl(@#02h)
013853: c400             MOV T0,@#00h
013855: 76001fa8_2349    MOV #31,AR2 || MOV T0,AR1
01385b: 12a894_21        CMPU AR2 >= AR1, TC1 || NOP
01385f: 6264             BCC $C$L32,TC1
013861: 3e64             MOV #-6,T0
013863: 4a17             B $C$L33
013865:               $C$L32:
013865: ed31bf015236     MOV dbl(*(#015236h)),XAR3
01386b: f9000308         MOV @#00h << #3,AC0
01386f: 2209             MOV AC0,AR1
013871: 8e04bd180890     MOV dbl(@#02h),AC0 || AADD AR1,AR3
013877: eb7508           MOV AC0,dbl(*(AR3-T1))
01387a: 3c04             MOV #0,T0
01387c:               $C$L33:
01387c: 4e05             AADD #5,SP
01387e: 4804             RET
013880:               _IRQ_map:
013880: 4eff             AADD #-1,SP
013882: c400             MOV T0,@#00h
013884: 76001fa8_2349    MOV #31,AR2 || MOV T0,AR1
01388a: 12a894_21        CMPU AR2 >= AR1, TC1 || NOP
01388e: 6264             BCC $C$L34,TC1
013890: 3e64             MOV #-6,T0
013892: 4a15             B $C$L35
013894:               $C$L34:
013894: a500             MOV @#00h,T1
013896: 2254             MOV T1,T0
013898: 5040             SFTL T0,#1
01389a: 3c10             MOV #1,AC0
01389c: ec31be015238     AMAR *(#015238h),XAR3
0138a2: 5c05             SFTS AC0,T1,AC0
0138a4: eb6b08           MOV AC0,dbl(*AR3(AR0))
0138a7: 3c04             MOV #0,T0
0138a9:               $C$L35:
0138a9: 4e01             AADD #1,SP
0138ab: 4804             RET
0138ad:               _IRQ_setVecs:
0138ad: 4efb             AADD #-5,SP
0138af: eb0008           MOV AC0,dbl(@#00h)
0138b2: 7affff0a         MOV #-1 << #16,AC0
0138b6: ed0018           MOV dbl(@#00h),AC1
0138b9: 7eff0000         OR #65280,AC0,AC0
0138bd: 2810             AND AC1,AC0
0138bf: 100738           SFTL AC0,#-8,AC0
0138c2: c006             MOV AC0,@#03h
0138c4: 08008b           CALL _IRQ_globalDisable
0138c7: c404             MOV T0,@#02h
0138c9: a906             MOV @#03h,AR1
0138cb: c931000049       MOV AR1,*(#00049h)
0138d0: c93100004a       MOV AR1,*(#0004ah)
0138d5: 0800ac           CALL _IRQ_globalRestore
0138d8: 3c04             MOV #0,T0
0138da: 4e05             AADD #5,SP
0138dc: 4804             RET
0138de:               _IRQ_test:
0138de: 4ef9             AADD #-7,SP
0138e0: eb0485           MOV XAR0,dbl(@#02h)
0138e3: c400             MOV T0,@#00h
0138e5: ed04bf           MOV dbl(@#02h),XAR3
0138e8: 90b0_3d01        MOV XAR3,AC0 || MOV #0,AC1
0138ec: 121c04           CMPU AC1 != AC0, TC1
0138ef: 62e4             BCC $C$L36,TC1
0138f1: 3e64             MOV #-6,T0
0138f3: 060058           B $C$L40
0138f6:               $C$L36:
0138f6: 76001fa8_2349    MOV #31,AR2 || MOV T0,AR1
0138fc: 12a894_21        CMPU AR2 >= AR1, TC1 || NOP
013900: 62e4             BCC $C$L37,TC1
013902: 3e64             MOV #-6,T0
013904: 060047           B $C$L40
013907:               $C$L37:
013907: c908             MOV AR1,@#04h
013909: 080046           CALL _IRQ_globalDisable
01390c: c40a             MOV T0,@#05h
01390e: a900_3dfa        MOV @#00h,AR1 || MOV #15,AR2
013912: 12a894_21        CMPU AR2 >= AR1, TC1 || NOP
013916: 04641a           BCC $C$L38,TC1
013919: f708fff0         ADD #-16,@#04h
01391d: a908             MOV @#04h,AR1
01391f: ed04bf           MOV dbl(@#02h),XAR3
013922: 3495             NEG AR1,T1
013924: df3105000046     MOV uns(*(#00046h)),AC0
01392a: 5c05             SFTS AC0,T1,AC0
01392c: 180100           AND #1,AC0,AC0
01392f: c061             MOV AC0,*AR3
013931: 4a14             B $C$L39
013933:               $C$L38:
013933: a908             MOV @#04h,AR1
013935: ed04bf           MOV dbl(@#02h),XAR3
013938: 3495             NEG AR1,T1
01393a: df3105000001     MOV uns(*(#00001h)),AC0
013940: 5c05             SFTS AC0,T1,AC0
013942: 180100           AND #1,AC0,AC0
013945: c061             MOV AC0,*AR3
013947:               $C$L39:
013947: a40a             MOV @#05h,T0
013949: 080038           CALL _IRQ_globalRestore
01394c: 3c04             MOV #0,T0
01394e:               $C$L40:
01394e: 4e07             AADD #7,SP
013950: 4804             RET
013952:               _IRQ_globalDisable:
013952: 4eff             AADD #-1,SP
013954: a931000003       MOV *(#00003h),AR1
013959: 7d080009         AND #2048,AR1,AC0
01395d: 100535           SFTS AC0,#-11,AC0
013960: c000             MOV AC0,@#00h
013962: 20               NOP
013963: 46b3             BSET ST1_INTM
013965: 2204             MOV AC0,T0
013967: 4e01             AADD #1,SP
013969: 4804             RET
01396b:               _IRQ_globalEnable:
01396b: 4eff             AADD #-1,SP
01396d: a931000003       MOV *(#00003h),AR1
013972: 7d080009         AND #2048,AR1,AC0
013976: 100535           SFTS AC0,#-11,AC0
013979: c000             MOV AC0,@#00h
01397b: 20               NOP
01397c: 46b2             BCLR ST1_INTM
01397e: 2204             MOV AC0,T0
013980: 4e01             AADD #1,SP
013982: 4804             RET
013984:               _IRQ_globalRestore:
013984: 4eff             AADD #-1,SP
013986: c400             MOV T0,@#00h
013988: 2249             MOV T0,AR1
01398a: 6289             BCC $C$L41,AR1 == #0
01398c: 20               NOP
01398d: 46b3             BSET ST1_INTM
01398f: 4a03             B $C$L42
013991:               $C$L41:
013991: 20               NOP
013992: 46b2             BCLR ST1_INTM
013994:               $C$L42:
013994: 4e01             AADD #1,SP
013996: 4804             RET
013998:               _nr_fft:
013998: b506_98          PSH mmap(@ST1_55)
01399b: b596_98          PSH mmap(@ST2_55)
01399e: 5066             PSH T2
0139a0: 5076             PSH T3
0139a2: 50d5             PSHBOTH XAR5
0139a4: 50e5             PSHBOTH XAR6
0139a6: 50f5             PSHBOTH XAR7
0139a8: 5075             PSHBOTH XCDP
0139aa: 46f4             BCLR ST2_ARMS
0139ac: 4683             BSET ST1_SXMD
0139ae: 46a3             BSET ST1_M40
0139b0: 4663             BSET ST1_FRCT
0139b2: 4ef3             AADD #-13,SP
0139b4: c806_3d06        MOV AR0,@#03h || MOV #0,T2
0139b8: 90be_3d11        MOV XAR3,XAR6 || MOV #1,AC1
0139bc: 3e16_9e19        XCC AR1 != #0 || MOV #-1,T2
0139c0: 90a9_3d90        MOV XAR2,XAR1 || MOV #9,AC0
0139c4: 2640             SUB T0,AC0
0139c6: c010_4314        MOV AC0,@#08h || SUB #1,T0
0139ca: e70440           MOV AC1 << T0,@#02h
0139cd: 7c000384         SUB #3,T0,AR0
0139d1: 6d1500ed         BCC splitif2,T1 != #0
0139d5: 140166           ASUB #1,T2
0139d8: f9043f38         MOV @#02h << #-1,AC3
0139dc: f9040208         MOV @#02h << #2,AC0
0139e0: 90ab_4323        MOV XAR2,XAR3 || SUB #2,AC3
0139e4: c334_98          MOV AC3,mmap(@BRC0)
0139e7: ed4118_250b      MOV dbl(*AR2),AC1 || ADD AC0,AR3
0139ec: ed6140           ADD dbl(*AR3),AC1,AC0
0139ef: 5c09_3f64        SFTS AC0,T2,AC0 || MOV #-6,T0
0139f3: ed6564           SUB AC1,dbl(*AR3-),AC2
0139f6: eb4308_5da9      MOV AC0,dbl(*AR2+) || SFTS AC2,T2,AC2
0139fb: eb4328           MOV AC2,dbl(*AR2+)
0139fe: ed4108           MOV dbl(*AR2),AC0
013a01: 1402b6           ASUB #2,AR3
013a04: 140166           ASUB #1,T2
013a07: 4aa0             RPTBLOCAL splitif1-6
013a09: ed6110              ADD dbl(*AR3),AC0,AC1
013a0c: ed6122              SUB dbl(*AR3),AC0,AC2
013a0f: 5c59                SFTS AC1,T2,AC1
013a11: eb4318_5da9         MOV AC1,dbl(*AR2+) || SFTS AC2,T2,AC2
013a16: 8e419deb0828        MOV dbl(*AR2),AC0 || MOV AC2,dbl(*AR3+)
013a1c: ed6110              ADD dbl(*AR3),AC0,AC1
013a1f: 5c59                SFTS AC1,T2,AC1
013a21: ed6122              SUB dbl(*AR3),AC0,AC2
013a24: eb4318_5da9         MOV AC1,dbl(*AR2+) || SFTS AC2,T2,AC2
013a29: 8e41bdeb0828        MOV dbl(*AR2),AC0 || MOV AC2,dbl(*(AR3+AR0))
013a2f:               splitif1:
013a2f: 140164           AADD #1,T2
013a32: 5c09             SFTS AC0,T2,AC0
013a34: eb4308           MOV AC0,dbl(*AR2+)
013a37: ed4118           MOV dbl(*AR2),AC1
013a3a: 5c59             SFTS AC1,T2,AC1
013a3c: 8e416b141801     MOV AC1,dbl(*AR2) || AADD #1,T2
013a42: f9043f38         MOV @#02h << #-1,AC3
013a46: ec31ce017f3c     AMAR *(#017f3ch),XAR4
013a4c: f9040208         MOV @#02h << #2,AC0
013a50: 909b_4323        MOV XAR1,XAR3 || SUB #2,AC3
013a54: a710_250b        MOV @#08h,T3 || ADD AC0,AR3
013a58: c334_98          MOV AC3,mmap(@BRC0)
013a5b: 909a_3d10        MOV XAR1,XAR2 || MOV #1,AC0
013a5f: 406a             ADD #6,AR2
013a61: 5c0d_434b        SFTS AC0,T3,AC0 || SUB #4,AR3
013a65: 90a7_4110        MOV XAR2,XCDP || ADD #1,AC0
013a69: 2204             MOV AC0,T0
013a6b: 244c             ADD T0,AR4
013a6d: 90cd             MOV XAR4,XAR5
013a6f: 7b0080dd         ADD #128,AR5,AR5
013a73: 20               NOP
013a74: 0e0049           RPTB splitif2-2
013a77: 828aa184            MPY uns(*AR4-),*CDP+,AC0 :: MPY uns(*AR5-),*CDP+,AC1
013a7b: 83828244            MAC *AR4,uns(*CDP-),AC0 :: MAC *AR5,uns(*CDP-),AC1
013a7f: 84a61930            MPY *AR5+,*CDP+,AC3 :: MAC *AR4+,*CDP+,AC0 >> #16
013a83: 8666a204            MPYM *AR3+,uns(*AR5-),AC2
013a87: 866a8a28            MACM uns(*AR3-),*AR5,AC2,AC2
013a8b: 8662ba40            MACM *AR3,*(AR5+AR0),AC2 >> #16,AC2
013a8f: 2602                SUB AC0,AC2
013a91: ed5b80              ADD dbl(*-AR2),AC2,AC0
013a94: eb4308              MOV AC0,dbl(*AR2+)
013a97: 102401              SUB AC2 << #1,AC0
013a9a: b4f10003            AMAR *+CDP(#0003h)
013a9e: 86662524            MACM *AR3+,uns(*AR4-),AC1,AC1
013aa2: 866a0528            MACM uns(*AR3-),*AR4,AC1,AC1
013aa6: 86623540            MACM *AR3,*(AR4+AR0),AC1 >> #16,AC1
013aaa: eb6308_2531         MOV AC0,dbl(*AR3+) || ADD AC3,AC1
013aaf: ed6160              ADD dbl(*AR3),AC1,AC2
013ab2: 3422                NEG AC2,AC2
013ab4: ed6144              SUB AC1,dbl(*AR3),AC0
013ab7: eb4328              MOV AC2,dbl(*AR2+)
013aba: 8e65ab140802        MOV AC0,dbl(*AR3-) || AADD #2,AR2
013ac0: 424b                SUB #4,AR3
013ac2:               splitif2:
013ac2:               no_ifftsplit:
013ac2: c502             MOV T1,@#01h
013ac4: 909c             MOV XAR1,XAR4
013ac6: 90ed             MOV XAR6,XAR5
013ac8: cd68_98          MOV AR5,mmap(@BSA45)
013acb: 26dd             SUB AR5,AR5
013acd: 4655             BSET ST2_AR5LC
013acf: e66000_98        MOV #0,mmap(@BK47)
013ad3: dc0413           MOV @#02h,BRC0
013ad6: a404             MOV @#02h,T0
013ad8: f734ffff_98      ADD #-1,mmap(@BRC0)
013add: 4454             SFTS T0,#1
013adf: 4034             ADD #3,T0
013ae1: 4a86             RPTBLOCAL $1_$2-2
013ae3: 808690              MOV dbl(*AR4+),dbl(*AR5+)
013ae6: 808680              MOV dbl(*AR4+),dbl(*AR5)
013ae9: b4bd                AMAR *(AR5+AR0B)
013aeb:               $1_$2:
013aeb: 4654             BCLR ST2_AR5LC
013aed: f9043f08_3d64    MOV @#02h << #-1,AC0 || MOV #6,T0
013af3: 90ec_4310        MOV XAR6,XAR4 || SUB #1,AC0
013af7: c034_98          MOV AC0,mmap(@BRC0)
013afa: 90ef             MOV XAR6,XAR7
013afc: 8e81fd1c0804     MOV dbl(*AR4),AC0 || AADD #4,AR7
013b02: 4aa0             RPTBLOCAL $STG1-6
013b04: ede110              ADD dbl(*AR7),AC0,AC1
013b07: 5c59                SFTS AC1,T2,AC1
013b09: ede122              SUB dbl(*AR7),AC0,AC2
013b0c: eb8318_5da9         MOV AC1,dbl(*AR4+) || SFTS AC2,T2,AC2
013b11: 8e839deb0828        MOV dbl(*AR4),AC0 || MOV AC2,dbl(*AR7+)
013b17: ede110              ADD dbl(*AR7),AC0,AC1
013b1a: 5c59                SFTS AC1,T2,AC1
013b1c: ede122              SUB dbl(*AR7),AC0,AC2
013b1f: eb8718_5da9         MOV AC1,dbl(*(AR4+AR0)) || SFTS AC2,T2,AC2
013b24: 8e83bdeb0828        MOV dbl(*AR4),AC0 || MOV AC2,dbl(*(AR7+AR0))
013b2a:               $STG1:
013b2a: f9043e08_3da4    MOV @#02h << #-2,AC0 || MOV #10,T0
013b30: 90ec_4310        MOV XAR6,XAR4 || SUB #1,AC0
013b34: c034_98          MOV AC0,mmap(@BRC0)
013b37: 909f             MOV XAR1,XAR7
013b39: 909d             MOV XAR1,XAR5
013b3b: 1406e4           AADD #6,AR6
013b3e: 8e83fd1c0808     MOV dbl(*AR4+),AC0 || AADD #8,AR7
013b44: 0e0046           RPTB $STG2-6
013b47: edd910              ADD dbl(*+AR6),AC0,AC1
013b4a: 5c59                SFTS AC1,T2,AC1
013b4c: edc322              SUB dbl(*AR6+),AC0,AC2
013b4f: eba318_5da9         MOV AC1,dbl(*AR5+) || SFTS AC2,T2,AC2
013b54: 8e879deb0828        MOV dbl(*AR4+),AC0 || MOV AC2,dbl(*AR7+)
013b5a: edc110              ADD dbl(*AR6),AC0,AC1
013b5d: 5c59                SFTS AC1,T2,AC1
013b5f: edc322              SUB dbl(*AR6+),AC0,AC2
013b62: eba318_5da9         MOV AC1,dbl(*AR5+) || SFTS AC2,T2,AC2
013b67: 8e879deb0828        MOV dbl(*AR4+),AC0 || MOV AC2,dbl(*AR7+)
013b6d: edd910              ADD dbl(*+AR6),AC0,AC1
013b70: 5c59                SFTS AC1,T2,AC1
013b72: edc522              SUB dbl(*AR6-),AC0,AC2
013b75: eba318_5da9         MOV AC1,dbl(*AR5+) || SFTS AC2,T2,AC2
013b7a: 8e8f9deb0828        MOV dbl(*(AR4+AR0)),AC0 || MOV AC2,dbl(*AR7+)
013b80: edc110              ADD dbl(*AR6),AC0,AC1
013b83: 5c59                SFTS AC1,T2,AC1
013b85: edc722              SUB dbl(*(AR6+AR0)),AC0,AC2
013b88: ebe718_5da9         MOV AC1,dbl(*(AR7+AR0)) || SFTS AC2,T2,AC2
013b8d: 8e86bdeb0828        MOV dbl(*AR4+),AC0 || MOV AC2,dbl(*(AR5+AR0))
013b93:               $STG2:
013b93: 8a10571d04       MOV @#08h,T3 || AMOV #4,T1
013b98: f9043d08         MOV @#02h << #-3,AC0
013b9c: 5c4d             SFTS AC0,T3,AC1
013b9e: 8c0a701510       MOV AC0,@#05h || AMOV #16,T3
013ba3: 105502           SFTS AC1,#2,AC1
013ba6: 2214             MOV AC1,T0
013ba8:               $STGLOOP:
013ba8: a00a_535d        MOV @#05h,AC0 || MOV T1,BRC1
013bac: dc0a13_4544      MOV @#05h,BRC0 || SFTS T0,#-1
013bb1: f772fffe_98      ADD #-2,mmap(@BRC1)
013bb6: e90a3f_4555      MOV AC0 << #-1,@#05h || SFTS T1,#1
013bbb: f734ffff_98      ADD #-1,mmap(@BRC0)
013bc0: 909a             MOV XAR1,XAR2
013bc2: 909b             MOV XAR1,XAR3
013bc4: 1470b0           AADD T3,AR3
013bc7: ec31ce017f3c     AMAR *(#017f3ch),XAR4
013bcd: 1440c0           AADD T0,AR4
013bd0: 90cd             MOV XAR4,XAR5
013bd2: 7b0080dd         ADD #128,AR5,AR5
013bd6: 0e007f           RPTB $GRPLOOP-3
013bd9: 90b7                MOV XAR3,XCDP
013bdb: 90ce                MOV XAR4,XAR6
013bdd: 90df                MOV XAR5,XAR7
013bdf: ed4108              MOV dbl(*AR2),AC0
013be2: ed6110              ADD dbl(*AR3),AC0,AC1
013be5: b4c3_5d59           AMAR *AR6+ || SFTS AC1,T2,AC1
013be9: ed6122              SUB dbl(*AR3),AC0,AC2
013bec: f74e0004_98         ADD #4,mmap(@CDP)
013bf1: eb4318_5da9         MOV AC1,dbl(*AR2+) || SFTS AC2,T2,AC2
013bf6: eb6328              MOV AC2,dbl(*AR3+)
013bf9: ed4108              MOV dbl(*AR2),AC0
013bfc: ed6110              ADD dbl(*AR3),AC0,AC1
013bff: b4e3_5d59           AMAR *AR7+ || SFTS AC1,T2,AC1
013c03: ed6122              SUB dbl(*AR3),AC0,AC2
013c06: eb4318_5da9         MOV AC1,dbl(*AR2+) || SFTS AC2,T2,AC2
013c0b: eb6328              MOV AC2,dbl(*AR3+)
013c0e: 0e0041              RPTB $BFLYLOOP-3
013c11: 82eb21a0               MPY uns(*AR7-),*CDP+,AC2 :: MPY uns(*AR6-),*CDP+,AC0
013c15: 83e71160               MAC *AR7+,uns(*CDP+),AC2 :: MAC *AR6+,uns(*CDP+),AC0
013c19: 82cba5a4               MAC uns(*AR6-),*CDP+,AC2 :: MPY uns(*AR7-),*CDP+,AC1
013c1d: 83c38264               MAC *AR6,uns(*CDP-),AC2 :: MAC *AR7,uns(*CDP-),AC1
013c21: 84c38d24               MAC *AR6,*CDP+,AC2 >> #16 :: MAC *AR7,*CDP+,AC1 >> #16
013c25: 86ed8a20               MACM *(AR7+AR0),*AR3,AC2,AC2
013c29: 86cd8040               MACM *(AR6+AR0),*AR3,AC0 >> #16,AC0
013c2d: b491_2710              AMAR *CDP+ || SUB AC1,AC0
013c31: ed4110                 ADD dbl(*AR2),AC0,AC1
013c34: b4e3_5dd9              AMAR *AR7+ || SFTS AC1,T2,AC3
013c38: 104401                 SUB AC0 << #1,AC1
013c3b: eb4338_5d59            MOV AC3,dbl(*AR2+) || SFTS AC1,T2,AC1
013c40: ed4180                 ADD dbl(*AR2),AC2,AC0
013c43: eb6318_5dc9            MOV AC1,dbl(*AR3+) || SFTS AC0,T2,AC3
013c48: b4c3_112401            AMAR *AR6+ || SUB AC2 << #1,AC0
013c4d: eb4338_5d09            MOV AC3,dbl(*AR2+) || SFTS AC0,T2,AC0
013c52: eb6308                 MOV AC0,dbl(*AR3+)
013c55:               $BFLYLOOP:
013c55: 1470b0              AADD T3,AR3
013c58: 1470a0              AADD T3,AR2
013c5b:               $GRPLOOP:
013c5b: 4457             SFTS T3,#1
013c5d: fc1bff47         BCC $STGLOOP,*-AR0 != #0
013c61: 525e             MOV T1,BRC0
013c63: 4444             SFTS T0,#-1
013c65: a802             MOV @#01h,AR0
013c67: f734fffe_98      ADD #-2,mmap(@BRC0)
013c6c: 909a             MOV XAR1,XAR2
013c6e: 909b             MOV XAR1,XAR3
013c70: 1470b0           AADD T3,AR3
013c73: ec31ee017f3c     AMAR *(#017f3ch),XAR6
013c79: 1440e0           AADD T0,AR6
013c7c: 90ef             MOV XAR6,XAR7
013c7e: 7b0080ff         ADD #128,AR7,AR7
013c82: 9608             XCC AR0 == #0
013c84: 140164           AADD #1,T2
013c87: 90b7             MOV XAR3,XCDP
013c89: ed4108           MOV dbl(*AR2),AC0
013c8c: ed6110           ADD dbl(*AR3),AC0,AC1
013c8f: b4c3_5d59        AMAR *AR6+ || SFTS AC1,T2,AC1
013c93: ed6122           SUB dbl(*AR3),AC0,AC2
013c96: eb4318_5da9      MOV AC1,dbl(*AR2+) || SFTS AC2,T2,AC2
013c9b: f74e0004_98      ADD #4,mmap(@CDP)
013ca0: 8e419deb0828     MOV dbl(*AR2),AC0 || MOV AC2,dbl(*AR3+)
013ca6: ed6110           ADD dbl(*AR3),AC0,AC1
013ca9: 9608             XCC AR0 == #0
013cab: 3411             NEG AC1,AC1
013cad: b4e3_5d59        AMAR *AR7+ || SFTS AC1,T2,AC1
013cb1: ed6122           SUB dbl(*AR3),AC0,AC2
013cb4: 9608             XCC AR0 == #0
013cb6: 3422             NEG AC2,AC2
013cb8: eb4318_5da9      MOV AC1,dbl(*AR2+) || SFTS AC2,T2,AC2
013cbd: eb6328           MOV AC2,dbl(*AR3+)
013cc0: 04184c           BCC $FFTLST_STG,AR0 != #0
013cc3: 0e0043           RPTB $BflyX_ifft-3
013cc6: 82eb21a0            MPY uns(*AR7-),*CDP+,AC2 :: MPY uns(*AR6-),*CDP+,AC0
013cca: 83e71160            MAC *AR7+,uns(*CDP+),AC2 :: MAC *AR6+,uns(*CDP+),AC0
013cce: 82cba5a4            MAC uns(*AR6-),*CDP+,AC2 :: MPY uns(*AR7-),*CDP+,AC1
013cd2: 83c38264            MAC *AR6,uns(*CDP-),AC2 :: MAC *AR7,uns(*CDP-),AC1
013cd6: 84c38d24            MAC *AR6,*CDP+,AC2 >> #16 :: MAC *AR7,*CDP+,AC1 >> #16
013cda: 86ed8a20            MACM *(AR7+AR0),*AR3,AC2,AC2
013cde: 86cd8040            MACM *(AR6+AR0),*AR3,AC0 >> #16,AC0
013ce2: b491_2710           AMAR *CDP+ || SUB AC1,AC0
013ce6: ed4110              ADD dbl(*AR2),AC0,AC1
013ce9: b4e3_5dd9           AMAR *AR7+ || SFTS AC1,T2,AC3
013ced: 104401              SUB AC0 << #1,AC1
013cf0: eb4338_5d59         MOV AC3,dbl(*AR2+) || SFTS AC1,T2,AC1
013cf5: ed4180              ADD dbl(*AR2),AC2,AC0
013cf8: b4c3_3503           AMAR *AR6+ || NEG AC0,AC3
013cfc: eb6318_5df9         MOV AC1,dbl(*AR3+) || SFTS AC3,T2,AC3
013d01: ed4182              SUB dbl(*AR2),AC2,AC0
013d04: eb4338_5d09         MOV AC3,dbl(*AR2+) || SFTS AC0,T2,AC0
013d09: eb6308              MOV AC0,dbl(*AR3+)
013d0c:               $BflyX_ifft:
013d0c: 060135           B splitf2
013d0f:               $FFTLST_STG:
013d0f: 0e0041           RPTB $LBFLYLOOP-3
013d12: 82eb21a0            MPY uns(*AR7-),*CDP+,AC2 :: MPY uns(*AR6-),*CDP+,AC0
013d16: 83e71160            MAC *AR7+,uns(*CDP+),AC2 :: MAC *AR6+,uns(*CDP+),AC0
013d1a: 82cba5a4            MAC uns(*AR6-),*CDP+,AC2 :: MPY uns(*AR7-),*CDP+,AC1
013d1e: 83c38264            MAC *AR6,uns(*CDP-),AC2 :: MAC *AR7,uns(*CDP-),AC1
013d22: 84c38d24            MAC *AR6,*CDP+,AC2 >> #16 :: MAC *AR7,*CDP+,AC1 >> #16
013d26: 86ed8a20            MACM *(AR7+AR0),*AR3,AC2,AC2
013d2a: 86cd8040            MACM *(AR6+AR0),*AR3,AC0 >> #16,AC0
013d2e: b491_2710           AMAR *CDP+ || SUB AC1,AC0
013d32: ed4110              ADD dbl(*AR2),AC0,AC1
013d35: b4e3_5dd9           AMAR *AR7+ || SFTS AC1,T2,AC3
013d39: 104401              SUB AC0 << #1,AC1
013d3c: eb4338_5d59         MOV AC3,dbl(*AR2+) || SFTS AC1,T2,AC1
013d41: ed4180              ADD dbl(*AR2),AC2,AC0
013d44: eb6318_5dc9         MOV AC1,dbl(*AR3+) || SFTS AC0,T2,AC3
013d49: b4c3_112401         AMAR *AR6+ || SUB AC2 << #1,AC0
013d4e: eb4338_5d09         MOV AC3,dbl(*AR2+) || SFTS AC0,T2,AC0
013d53: eb6308              MOV AC0,dbl(*AR3+)
013d56:               $LBFLYLOOP:
013d56: f9043f38         MOV @#02h << #-1,AC3
013d5a: 909a             MOV XAR1,XAR2
013d5c: f9040208         MOV @#02h << #2,AC0
013d60: 909b_4323        MOV XAR1,XAR3 || SUB #2,AC3
013d64: c334_98          MOV AC3,mmap(@BRC0)
013d67: ed4318_250b      MOV dbl(*AR2+),AC1 || ADD AC0,AR3
013d6c: ed4140           ADD dbl(*AR2),AC1,AC0
013d6f: 5c09_3f64        SFTS AC0,T2,AC0 || MOV #-6,T0
013d73: ed4562           SUB dbl(*AR2-),AC1,AC2
013d76: eb4308_5da9      MOV AC0,dbl(*AR2+) || SFTS AC2,T2,AC2
013d7b: eb6328           MOV AC2,dbl(*AR3+)
013d7e: e64300           MOV #0,*AR2+
013d81: e64500           MOV #0,*AR2-
013d84: 8045b0           MOV dbl(*AR2+),dbl(*(AR3+AR0))
013d87: ed4108           MOV dbl(*AR2),AC0
013d8a: 4aa0             RPTBLOCAL splitf1-6
013d8c: ed6110              ADD dbl(*AR3),AC0,AC1
013d8f: 5c59                SFTS AC1,T2,AC1
013d91: ed6122              SUB dbl(*AR3),AC0,AC2
013d94: eb4318_5da9         MOV AC1,dbl(*AR2+) || SFTS AC2,T2,AC2
013d99: 8e419deb0828        MOV dbl(*AR2),AC0 || MOV AC2,dbl(*AR3+)
013d9f: ed6110              ADD dbl(*AR3),AC0,AC1
013da2: 5c59                SFTS AC1,T2,AC1
013da4: ed6122              SUB dbl(*AR3),AC0,AC2
013da7: eb4318_5da9         MOV AC1,dbl(*AR2+) || SFTS AC2,T2,AC2
013dac: 8e41bdeb0828        MOV dbl(*AR2),AC0 || MOV AC2,dbl(*(AR3+AR0))
013db2:               splitf1:
013db2: 2400             ADD AC0,AC0
013db4: 5c09             SFTS AC0,T2,AC0
013db6: eb4308           MOV AC0,dbl(*AR2+)
013db9: ed4118           MOV dbl(*AR2),AC1
013dbc: 2411             ADD AC1,AC1
013dbe: 3411             NEG AC1,AC1
013dc0: 5c59             SFTS AC1,T2,AC1
013dc2: eb4118           MOV AC1,dbl(*AR2)
013dc5: f9043f38         MOV @#02h << #-1,AC3
013dc9: ec31ce017f3c     AMAR *(#017f3ch),XAR4
013dcf: f9040208_3d16    MOV @#02h << #2,AC0 || MOV #1,T2
013dd5: 909b_4323        MOV XAR1,XAR3 || SUB #2,AC3
013dd9: a710_250b        MOV @#08h,T3 || ADD AC0,AR3
013ddd: c334_98          MOV AC3,mmap(@BRC0)
013de0: 909a_3d10        MOV XAR1,XAR2 || MOV #1,AC0
013de4: 406a             ADD #6,AR2
013de6: 5c0d_434b        SFTS AC0,T3,AC0 || SUB #4,AR3
013dea: 90a7_4110        MOV XAR2,XCDP || ADD #1,AC0
013dee: 2204             MOV AC0,T0
013df0: 244c             ADD T0,AR4
013df2: 90cd             MOV XAR4,XAR5
013df4: 7b0080dd         ADD #128,AR5,AR5
013df8: 20               NOP
013df9: 0e0046           RPTB splitf2-2
013dfc: 828aa184            MPY uns(*AR4-),*CDP+,AC0 :: MPY uns(*AR5-),*CDP+,AC1
013e00: 83828244            MAC *AR4,uns(*CDP-),AC0 :: MAC *AR5,uns(*CDP-),AC1
013e04: 84869924            MPY *AR4+,*CDP+,AC2 :: MAC *AR5+,*CDP+,AC1 >> #16
013e08: 8666a024            MACM *AR3+,uns(*AR5-),AC0,AC0
013e0c: 866a8028            MACM uns(*AR3-),*AR5,AC0,AC0
013e10: 8662b040            MACM *AR3,*(AR5+AR0),AC0 >> #16,AC0
013e14: 2420                ADD AC2,AC0
013e16: ed5b20              ADD dbl(*-AR2),AC0,AC2
013e19: eb4328              MOV AC2,dbl(*AR2+)
013e1c: b4f10003            AMAR *+CDP(#0003h)
013e20: 5a89                SUB AC0 << T2,AC2
013e22: 86662004            MPYM *AR3+,uns(*AR4-),AC0
013e26: 866a0028            MACM uns(*AR3-),*AR4,AC0,AC0
013e2a: 86623040            MACM *AR3,*(AR4+AR0),AC0 >> #16,AC0
013e2e: eb6328_2701         MOV AC2,dbl(*AR3+) || SUB AC0,AC1
013e33: ed6160              ADD dbl(*AR3),AC1,AC2
013e36: ed6152              SUB dbl(*AR3),AC1,AC1
013e39: eb4328              MOV AC2,dbl(*AR2+)
013e3c: 8e65ab141802        MOV AC1,dbl(*AR3-) || AADD #2,AR2
013e42: 424b                SUB #4,AR3
013e44:               splitf2:
013e44:               end_lstg:
013e44: 46a2             BCLR ST1_M40
013e46: 4693             BSET ST1_SATD
013e48: a006             MOV @#03h,AC0
013e4a: 040018           BCC round,AC0 == #0
013e4d: f9040118         MOV @#02h << #1,AC1
013e51: c134_98          MOV AC1,mmap(@BRC0)
013e54: 909a             MOV XAR1,XAR2
013e56: 3c24             MOV #2,T0
013e58: 909b             MOV XAR1,XAR3
013e5a: 7500010f         MOV #1 << #15,AC0
013e5e: 4a83             RPTBLOCAL round-2
013e60: ed4310              ADD dbl(*AR2+),AC0,AC1
013e63: bd67                MOV HI(AC1),*(AR3+AR0)
013e65:               round:
013e65:               no_rnd:
013e65: 4692             BCLR ST1_SATD
013e67: 4e0d             AADD #13,SP
013e69: 5074             POPBOTH XCDP
013e6b: 50f4             POPBOTH XAR7
013e6d: 50e4             POPBOTH XAR6
013e6f: 50d4             POPBOTH XAR5
013e71: 5072             POP T3
013e73: 5062             POP T2
013e75: bb96_98          POP mmap(@ST2_55)
013e78: bb06_98          POP mmap(@ST1_55)
013e7b: 4804             RET
013e7d:               _nr_fft_tbl_init:
013e7d: 4804             RET
013e7f:               _free:
013e7f: 50d5             PSHBOTH XAR5
013e81: 20               NOP
013e82: 20               NOP
013e83: 20               NOP
013e84: ec01de           AMAR *AR0,XAR5
013e87: 90d0             MOV XAR5,AC0
013e89: 6d0000ba         BCC #0x013f47,AC0 == #0
013e8d: ed31080152fa     MOV dbl(*(#0152fah)),AC0
013e93: 9200             CALL AC0
013e95: 1402d6           ASUB #2,AR5
013e98: 90d3             MOV XAR5,AC3
013e9a: ed31bf0152f4     MOV dbl(*(#0152f4h)),XAR3
013ea0: 1a0013           OR #0,AC3,AC1
013ea3: 90b0             MOV XAR3,AC0
013ea5: 1a0020           OR #0,AC0,AC2
013ea8: 122814           CMPU AC2 >= AC1, TC1
013eab: 046412           BCC #0x013ec0,TC1
013eae: 900b             MOV AC0,XAR3
013eb0: ed75af           MOV dbl(*(AR3-T1)),XAR2
013eb3: 90a0             MOV XAR2,AC0
013eb5: 1a0020           OR #0,AC0,AC2
013eb8: 122414           CMPU AC2 < AC1, TC1
013ebb: 0464f0           BCC #0x013eae,TC1
013ebe: 4a06             B #0x013ec6
013ec0: ec31be000000     AMAR *(#00000h),XAR3
013ec6: 903a             MOV AC3,XAR2
013ec8: a941             MOV *AR2,AR1
013eca: 7dfffec9         AND #65534,AR1,AR4
013ece: 7dffff2c         AND #65535,AR4,AC2
013ed2: 2412             ADD AC1,AC2
013ed4: 1a0010           OR #0,AC0,AC1
013ed7: 122014           CMPU AC2 == AC1, TC1
013eda: eb5508_9e74      XCC !TC1 || MOV AC0,dbl(*(AR2-T1))
013edf: 04741d           BCC #0x013eff,!TC1
013ee2: 900a             MOV AC0,XAR2
013ee4: a941             MOV *AR2,AR1
013ee6: ec0092           BCLR @#00h,AR1
013ee9: 24c9             ADD AR4,AR1
013eeb: ed55cf           MOV dbl(*(AR2-T1)),XAR4
013eee: 903a             MOV AC3,XAR2
013ef0: 7dfffe09         AND #65534,AR1,AC0
013ef4: c041             MOV AC0,*AR2
013ef6: eb55c5           MOV XAR4,dbl(*(AR2-T1))
013ef9: a941             MOV *AR2,AR1
013efb: 7dfffec9         AND #65534,AR1,AR4
013eff: 90b0             MOV XAR3,AC0
013f01: 04002f           BCC #0x013f33,AC0 == #0
013f04: a961             MOV *AR3,AR1
013f06: 7dfffe99         AND #65534,AR1,AR1
013f0a: 7dffff19         AND #65535,AR1,AC1
013f0e: 2401             ADD AC0,AC1
013f10: 1a0003           OR #0,AC3,AC0
013f13: 121004           CMPU AC1 == AC0, TC1
013f16: 9039_9ef4        XCCPART !TC1 || MOV AC3,XAR1
013f1a: eb7595_9e74      XCC !TC1 || MOV XAR1,dbl(*(AR3-T1))
013f1f: 047419           BCC #0x013f3b,!TC1
013f22: 903a             MOV AC3,XAR2
013f24: 24c9             ADD AR4,AR1
013f26: ec0092           BCLR @#00h,AR1
013f29: c961             MOV AR1,*AR3
013f2b: ed55af           MOV dbl(*(AR2-T1)),XAR2
013f2e: eb75a5           MOV XAR2,dbl(*(AR3-T1))
013f31: 4a0c             B #0x013f3f
013f33: 9039             MOV AC3,XAR1
013f35: eb31950152f4     MOV XAR1,dbl(*(#0152f4h))
013f3b: 903b             MOV AC3,XAR3
013f3d: cc61             MOV AR4,*AR3
013f3f: ed31080152fc     MOV dbl(*(#0152fch)),AC0
013f45: 9200             CALL AC0
013f47: 50d4             POPBOTH XAR5
013f49: 4804             RET
013f4b:               _minit:
013f4b: ed31080152fa     MOV dbl(*(#0152fah)),AC0
013f51: 4eff             AADD #-1,SP
013f53: 9200             CALL AC0
013f55: ec31be004000     AMAR *(#04000h),XAR3
013f5b: 18019b           AND #1,AR3,AR1
013f5e: 7a00000a         MOV #0 << #16,AC0
013f62: 90b1             MOV XAR3,AC1
013f64: 7e600000         OR #24576,AC0,AC0
013f68: 5001             SFTL AC0,#-1
013f6a: 2690             SUB AR1,AC0
013f6c: 7dffff09_230a    AND #65535,AR1,AC0 || MOV AC0,AR2
013f72: ca310152f8       MOV AR2,*(#0152f8h)
013f77: 2410             ADD AC1,AC0
013f79: 900c             MOV AC0,XAR4
013f7b: 7dffff09         AND #65535,AR1,AC0
013f7f: 2410             ADD AC1,AC0
013f81: 900b             MOV AC0,XAR3
013f83: e631000152f9     MOV #0,*(#0152f9h)
013f89: eb31c50152f4     MOV XAR4,dbl(*(#0152f4h))
013f8f: 7dfffe0a         AND #65534,AR2,AC0
013f93: eb31c50152f6     MOV XAR4,dbl(*(#0152f6h))
013f99: c061             MOV AC0,*AR3
013f9b: ec31ae7fffff     AMAR *(#07fffffh),XAR2
013fa1: ed31080152fc     MOV dbl(*(#0152fch)),AC0
013fa7: eb75a5           MOV XAR2,dbl(*(AR3-T1))
013faa: 9200             CALL AC0
013fac: 4e01             AADD #1,SP
013fae: 4804             RET
013fb0:               _malloc:
013fb0: 5066             PSH T2
013fb2: 4efe             AADD #-2,SP
013fb4: 04045e           BCC #0x014015,T0 == #0
013fb7: 3c49             MOV #4,AR1
013fb9: 7b000264         ADD #2,T0,T2
013fbd: ed31080152fa     MOV dbl(*(#0152fah)),AC0
013fc3: 129464_21        CMPU AR1 < T2, TC1 || NOP
013fc7: 3c46_9ef4        XCCPART !TC1 || MOV #4,T2
013fcb: 180196           AND #1,T2,AR1
013fce: 2496             ADD AR1,T2
013fd0: 9200             CALL AC0
013fd2: a9310152f9       MOV *(#0152f9h),AR1
013fd7: 6189             BCC #0x013fdc,AR1 == #0
013fd9: 08ff6f           CALL _minit
013fdc: ed31bf0152f4     MOV dbl(*(#0152f4h)),XAR3
013fe2: eb00b5           MOV XAR3,dbl(@#00h)
013fe5: 20               NOP
013fe6: 20               NOP
013fe7: 20               NOP
013fe8: ec31be000000     AMAR *(#00000h),XAR3
013fee: 4a0c             B #0x013ffc
013ff0: ed00bf           MOV dbl(@#00h),XAR3
013ff3: ed75af           MOV dbl(*(AR3-T1)),XAR2
013ff6: eb00a5           MOV XAR2,dbl(@#00h)
013ff9: 20               NOP
013ffa: 20               NOP
013ffb: 20               NOP
013ffc: ec31ae7fffff     AMAR *(#07fffffh),XAR2
014002: ed0008           MOV dbl(@#00h),AC0
014005: 90a1             MOV XAR2,AC1
014007: 120c14           CMPU AC0 != AC1, TC1
01400a: 046411           BCC #0x01401e,TC1
01400d: ed31080152fc     MOV dbl(*(#0152fch)),AC0
014013: 9200             CALL AC0
014015: ec318e000000     AMAR *(#00000h),XAR0
01401b: 060081           B #0x01409f
01401e: ed00af           MOV dbl(@#00h),XAR2
014021: a941             MOV *AR2,AR1
014023: 7dfffe99         AND #65534,AR1,AR1
014027: 129464_21        CMPU AR1 < T2, TC1 || NOP
01402b: 0464c2           BCC #0x013ff0,TC1
01402e: 7b0004a6         ADD #4,T2,AR2
014032: 12a494_21        CMPU AR2 < AR1, TC1 || NOP
014036: 046424           BCC #0x01405d,TC1
014039: 90b0             MOV XAR3,AC0
01403b: 6710             BCC #0x01404b,AC0 != #0
01403d: ed00bf           MOV dbl(@#00h),XAR3
014040: ed75bf           MOV dbl(*(AR3-T1)),XAR3
014043: eb31b50152f4     MOV XAR3,dbl(*(#0152f4h))
014049: 4a09             B #0x014054
01404b: ed00af           MOV dbl(@#00h),XAR2
01404e: ed55af           MOV dbl(*(AR2-T1)),XAR2
014051: eb75a5           MOV XAR2,dbl(*(AR3-T1))
014054: ed00bf           MOV dbl(@#00h),XAR3
014057: f5610001         OR #1,*AR3
01405b: 4a34             B #0x014091
01405d: ed00af           MOV dbl(@#00h),XAR2
014060: ed00cf           MOV dbl(@#00h),XAR4
014063: 7dffff06         AND #65535,T2,AC0
014067: 90a1             MOV XAR2,AC1
014069: 2410             ADD AC1,AC0
01406b: 900a             MOV AC0,XAR2
01406d: ed95cf           MOV dbl(*(AR4-T1)),XAR4
014070: 90b0             MOV XAR3,AC0
014072: eb55c5           MOV XAR4,dbl(*(AR2-T1))
014075: eb75a5_9e10      XCC AC0 != #0 || MOV XAR2,dbl(*(AR3-T1))
01407a: ed00bf           MOV dbl(@#00h),XAR3
01407d: 2669             SUB T2,AR1
01407f: ec0092           BCLR @#00h,AR1
014082: c941_1b0196      MOV AR1,*AR2 || OR #1,T2,AR1
014087: 9600             XCC AC0 == #0
014089: eb31a50152f4     MOV XAR2,dbl(*(#0152f4h))
01408f: c961             MOV AR1,*AR3
014091: ed31080152fc     MOV dbl(*(#0152fch)),AC0
014097: 9200             CALL AC0
014099: ed008f           MOV dbl(@#00h),XAR0
01409c: 140284           AADD #2,AR0
01409f: 4e02             AADD #2,SP
0140a1: 5062             POP T2
0140a3: 4804             RET
0140a5:               _realloc:
0140a5: 5066             PSH T2
0140a7: 50d5             PSHBOTH XAR5
0140a9: 20               NOP
0140aa: 20               NOP
0140ab: 50f5             PSHBOTH XAR7
0140ad: ec01de_2346      AMAR *AR0,XAR5 || MOV T0,T2
0140b2: 4efc             AADD #-4,SP
0140b4: 6616             BCC #0x0140c2,T2 != #0
0140b6: 08fdc6           CALL _free
0140b9: ec318e000000     AMAR *(#00000h),XAR0
0140bf: 06018a           B #0x01424c
0140c2: 90d0             MOV XAR5,AC0
0140c4: 6310             BCC #0x0140cc,AC0 != #0
0140c6: 08fee7           CALL _malloc
0140c9: 060180           B #0x01424c
0140cc: 4026             ADD #2,T2
0140ce: 3c49             MOV #4,AR1
0140d0: eca1be_139464    AMAR *AR5,XAR3 || CMPU AR1 < T2, TC1
0140d6: 3c46_9ef4        XCCPART !TC1 || MOV #4,T2
0140da: 1402b6_190196    ASUB #2,AR3 || AND #1,T2,AR1
0140e0: a961_2596        MOV *AR3,AR1 || ADD AR1,T2
0140e4: 90b1             MOV XAR3,AC1
0140e6: 7dfffe09         AND #65534,AR1,AC0
0140ea: eb04b5_2510      MOV XAR3,dbl(@#02h) || ADD AC1,AC0
0140ef: eb0008           MOV AC0,dbl(@#00h)
0140f2: ed31080152fa     MOV dbl(*(#0152fah)),AC0
0140f8: 9200             CALL AC0
0140fa: ed04bf           MOV dbl(@#02h),XAR3
0140fd: a961             MOV *AR3,AR1
0140ff: 7dfffe99         AND #65534,AR1,AR1
014103: 129864_21        CMPU AR1 >= T2, TC1 || NOP
014107: 046434           BCC #0x01413e,TC1
01410a: ed31bf0152f6     MOV dbl(*(#0152f6h)),XAR3
014110: df31150152f8     MOV uns(*(#0152f8h)),AC1
014116: 90b0             MOV XAR3,AC0
014118: ed0008_2501      MOV dbl(@#00h),AC0 || ADD AC0,AC1
01411d: 120814           CMPU AC0 >= AC1, TC1
014120: 6d6400f7         BCC #0x01421b,TC1
014124: ed00bf           MOV dbl(@#00h),XAR3
014127: aa61             MOV *AR3,AR2
014129: ec00a8           BTST @#00h,AR2,TC1
01412c: 6d6400eb         BCC #0x01421b,TC1
014130: 7dfffeaa         AND #65534,AR2,AR2
014134: 249a             ADD AR1,AR2
014136: 12a464_21        CMPU AR2 < T2, TC1 || NOP
01413a: 6d6400dd         BCC #0x01421b,TC1
01413e: ed31bf0152f4     MOV dbl(*(#0152f4h)),XAR3
014144: 90b0             MOV XAR3,AC0
014146: ed0418_1b0020    MOV dbl(@#02h),AC1 || OR #0,AC0,AC2
01414c: 122814           CMPU AC2 >= AC1, TC1
01414f: 046415           BCC #0x014167,TC1
014152: 900b             MOV AC0,XAR3
014154: ed75af           MOV dbl(*(AR3-T1)),XAR2
014157: 90a0             MOV XAR2,AC0
014159: ed0418_1b0020    MOV dbl(@#02h),AC1 || OR #0,AC0,AC2
01415f: 122414           CMPU AC2 < AC1, TC1
014162: 0464ed           BCC #0x014152,TC1
014165: 4a06             B #0x01416d
014167: ec31be000000     AMAR *(#00000h),XAR3
01416d: ed04af           MOV dbl(@#02h),XAR2
014170: a941             MOV *AR2,AR1
014172: 7dfffe99         AND #65534,AR1,AR1
014176: 7dffff29         AND #65535,AR1,AC2
01417a: 2412             ADD AC1,AC2
01417c: 1a0010           OR #0,AC0,AC1
01417f: 121024           CMPU AC1 == AC2, TC1
014182: 046423           BCC #0x0141a8,TC1
014185: 2669_3d4a        SUB T2,AR1 || MOV #4,AR2
014189: 1294a4_21        CMPU AR1 < AR2, TC1 || NOP
01418d: 04647e           BCC #0x01420e,TC1
014190: ed04af           MOV dbl(@#02h),XAR2
014193: 7dffff16         AND #65535,T2,AC1
014197: 90a2             MOV XAR2,AC2
014199: 2421             ADD AC2,AC1
01419b: 901a             MOV AC1,XAR2
01419d: 7dfffe19         AND #65534,AR1,AC1
0141a1: eb5508           MOV AC0,dbl(*(AR2-T1))
0141a4: c141             MOV AC1,*AR2
0141a6: 4a32             B #0x0141da
0141a8: 900a             MOV AC0,XAR2
0141aa: aa41             MOV *AR2,AR2
0141ac: ec00a2           BCLR @#00h,AR2
0141af: 249a             ADD AR1,AR2
0141b1: 22a9             MOV AR2,AR1
0141b3: 7b0004a6         ADD #4,T2,AR2
0141b7: 12a894_21        CMPU AR2 >= AR1, TC1 || NOP
0141bb: 04642f           BCC #0x0141ed,TC1
0141be: 900a             MOV AC0,XAR2
0141c0: ed55cf           MOV dbl(*(AR2-T1)),XAR4
0141c3: ed04af           MOV dbl(@#02h),XAR2
0141c6: 7dffff06         AND #65535,T2,AC0
0141ca: 90a1             MOV XAR2,AC1
0141cc: 2410             ADD AC1,AC0
0141ce: 900a             MOV AC0,XAR2
0141d0: 2669             SUB T2,AR1
0141d2: ec0092           BCLR @#00h,AR1
0141d5: c941             MOV AR1,*AR2
0141d7: eb55c5           MOV XAR4,dbl(*(AR2-T1))
0141da: 90b0             MOV XAR3,AC0
0141dc: 9600             XCC AC0 == #0
0141de: eb31a50152f4     MOV XAR2,dbl(*(#0152f4h))
0141e4: eb75a5_9e10      XCC AC0 != #0 || MOV XAR2,dbl(*(AR3-T1))
0141e9: 4a19_2369        B #0x014206 || MOV T2,AR1
0141ed: 90b1             MOV XAR3,AC1
0141ef: 6691             BCC #0x0141fe,AC1 != #0
0141f1: 900b             MOV AC0,XAR3
0141f3: ed75bf           MOV dbl(*(AR3-T1)),XAR3
0141f6: eb31b50152f4     MOV XAR3,dbl(*(#0152f4h))
0141fc: 4a08             B #0x014206
0141fe: 900a             MOV AC0,XAR2
014200: ed55af           MOV dbl(*(AR2-T1)),XAR2
014203: eb75a5           MOV XAR2,dbl(*(AR3-T1))
014206: ed04bf           MOV dbl(@#02h),XAR3
014209: 1a0199           OR #1,AR1,AR1
01420c: c961             MOV AR1,*AR3
01420e: ed31080152fc     MOV dbl(*(#0152fch)),AC0
014214: 9200             CALL AC0
014216: eca18e           AMAR *AR5,XAR0
014219: 4a31             B #0x01424c
01421b: ed31080152fc     MOV dbl(*(#0152fch)),AC0
014221: 9200             CALL AC0
014223: 2264             MOV T2,T0
014225: 08fd88           CALL _malloc
014228: ec01fe           AMAR *AR0,XAR7
01422b: 90f0             MOV XAR7,AC0
01422d: 040019           BCC #0x014249,AC0 == #0
014230: ed04bf           MOV dbl(@#02h),XAR3
014233: a961             MOV *AR3,AR1
014235: ec0092           BCLR @#00h,AR1
014238: 7c000249         SUB #2,AR1,T0
01423c: eca19e           AMAR *AR5,XAR1
01423f: 6c016828         CALL _memcpy
014243: eca18e           AMAR *AR5,XAR0
014246: 08fc36           CALL _free
014249: ece18e           AMAR *AR7,XAR0
01424c: 4e04             AADD #4,SP
01424e: 50f4             POPBOTH XAR7
014250: 50d4             POPBOTH XAR5
014252: 5062             POP T2
014254: 4804             RET
014256:               _max_free:
014256: 5066             PSH T2
014258: ed31080152fa     MOV dbl(*(#0152fah)),AC0
01425e: 9200             CALL AC0
014260: a9310152f9       MOV *(#0152f9h),AR1
014265: ed31bf0152f4     MOV dbl(*(#0152f4h)),XAR3
01426b: 3c06             MOV #0,T2
01426d: 90b0             MOV XAR3,AC0
01426f: 041930           BCC #0x0142a2,AR1 != #0
014272: ec31be7fffff     AMAR *(#07fffffh),XAR3
014278: 1a0020           OR #0,AC0,AC2
01427b: 90b1             MOV XAR3,AC1
01427d: 122014           CMPU AC2 == AC1, TC1
014280: 04641f           BCC #0x0142a2,TC1
014283: 900b             MOV AC0,XAR3
014285: a961             MOV *AR3,AR1
014287: ec0092           BCLR @#00h,AR1
01428a: 4229             SUB #2,AR1
01428c: 126894_21        CMPU T2 >= AR1, TC1 || NOP
014290: ed75bf           MOV dbl(*(AR3-T1)),XAR3
014293: 2296_9ef4        XCCPART !TC1 || MOV AR1,T2
014297: 90b0             MOV XAR3,AC0
014299: 1a0020           OR #0,AC0,AC2
01429c: 122c14           CMPU AC2 != AC1, TC1
01429f: 0464e1           BCC #0x014283,TC1
0142a2: ed31080152fc     MOV dbl(*(#0152fch)),AC0
0142a8: 9200             CALL AC0
0142aa: 2264             MOV T2,T0
0142ac: 5062             POP T2
0142ae: 4804             RET
0142b0:               _free_memory:
0142b0: 5066             PSH T2
0142b2: ed31080152fa     MOV dbl(*(#0152fah)),AC0
0142b8: 9200             CALL AC0
0142ba: a9310152f9       MOV *(#0152f9h),AR1
0142bf: ed31bf0152f4     MOV dbl(*(#0152f4h)),XAR3
0142c5: 3c06             MOV #0,T2
0142c7: 90b0             MOV XAR3,AC0
0142c9: 04192c           BCC #0x0142f8,AR1 != #0
0142cc: ec31be7fffff     AMAR *(#07fffffh),XAR3
0142d2: 1a0020           OR #0,AC0,AC2
0142d5: 90b1             MOV XAR3,AC1
0142d7: 122014           CMPU AC2 == AC1, TC1
0142da: 04641b           BCC #0x0142f8,TC1
0142dd: 900b             MOV AC0,XAR3
0142df: a961             MOV *AR3,AR1
0142e1: ed75bf           MOV dbl(*(AR3-T1)),XAR3
0142e4: 90b0             MOV XAR3,AC0
0142e6: ec0092_1b0020    BCLR @#00h,AR1 || OR #0,AC0,AC2
0142ec: 122c14_2569      CMPU AC2 != AC1, TC1 || ADD T2,AR1
0142f1: 7c000269         SUB #2,AR1,T2
0142f5: 0464e5           BCC #0x0142dd,TC1
0142f8: ed31080152fc     MOV dbl(*(#0152fch)),AC0
0142fe: 9200             CALL AC0
014300: 2264             MOV T2,T0
014302: 5062             POP T2
014304: 4804             RET
014306:               _chkheap:
014306: ec318e000000     AMAR *(#00000h),XAR0
01430c: 4804             RET
01430e:               _calloc:
01430e: 5250             MOV T1,HI(AC0)
014310: 5800             MPY T0,AC0,AC0
014312: 2206_5166        MOV AC0,T2 || PSH T2
014316: 2264             MOV T2,T0
014318: 08fc95           CALL _malloc
01431b: 9080             MOV XAR0,AC0
01431d: 040010           BCC #0x014330,AC0 == #0
014320: ec01be           AMAR *AR0,XAR3
014323: 6586             BCC #0x014330,T2 == #0
014325: 7c000196         SUB #1,T2,AR1
014329: 529c             MOV AR1,CSR
01432b: 4800             RPT CSR
01432d: e66300              MOV #0,*AR3+
014330: 5062             POP T2
014332: 4804             RET
014334:               _nr_vad:
014334: 4efd             AADD #-3,SP
014336: ed018f           MOV dbl(*AR0),XAR0
014339: ec009e           AMAR @#00h,XAR1
01433c: ec02ae           AMAR @#01h,XAR2
01433f: ec04be           AMAR @#02h,XAR3
014342: 6c015e9a         CALL _svdGetLevels
014346: f002007f         CMP @#01h == #127, TC1
01434a: 046412           BCC $C$L1,TC1
01434d: f9020408         MOV @#01h << #4,AC0
014351: 7c002190         SUB #33,AC0,AR1
014355: c902_2394        MOV AR1,@#01h || MOV AR1,T0
014359: 6c0167e7         CALL _utldB2LinPower
01435d: 4a04             B $C$L2
01435f:               $C$L1:
01435f: 7a20000a         MOV #8192 << #16,AC0
014363:               $C$L2:
014363: 4e03             AADD #3,SP
014365: 4804             RET
014367:               _nr_sqrt:
014367: 5066             PSH T2
014369: 160049           MOV #4,BRC0
01436c: ec31be018429     AMAR *(#018429h),XAR3
014372: aa21_3d05        MOV *AR1,AR2 || MOV #0,T1
014376: a601_4b8c        MOV *AR0,T2 || RPTBLOCAL #0x014386
01437a:               $C$L3:
01437a:               $C$DW$L$_nr_sqrt$2$B:
01437a: b063_5351           MOV *AR3+ << #16,AC0 || MOV T1,HI(AC1)
01437e: 5618                MAC AC1,T2,AC0,AC0
014380: 7b400000            ADD #16384,AC0,AC0
014384: 5000                SFTL AC0,#1
014386: 4405                MOV HI(AC0),T1
014388:               $C$DW$L$_nr_sqrt$2$E:
014388:               $C$L4:
014388: 22a0             MOV AR2,AC0
01438a: 7c00010a_9eaa    XCCPART AR2 < #0 || SUB #1,AR2,AC0
014390: 768000b0         BFXTR #32768,AC0,AR3
014394: 240b             ADD AC0,AR3
014396: 444b             SFTS AR3,#-1
014398: 22b1             MOV AR3,AC1
01439a: 101501           SFTS AC1,#1,AC0
01439d: 220b             MOV AC0,AR3
01439f: 12b0a0           CMP AR3 == AR2, TC1
0143a2: 046427           BCC $C$L5,TC1
0143a5: 7ab5040a         MOV #-19196 << #16,AC0
0143a9: 100700           SFTL AC0,#0,AC0
0143ac: 7a40002a_5904    MOV #16384 << #16,AC2 || MPY T1,AC0,AC0
0143b2: 120420           CMP AC0 < AC2, TC1
0143b5: 4011_9ef4        XCCPART !TC1 || ADD #1,AC1
0143b9: 4440_9ef4        XCCPART !TC1 || SFTS AC0,#-1
0143bd: 7b400020         ADD #16384,AC0,AC2
0143c1: 76800008         MOV #-32768,AC0
0143c5: 2820             AND AC2,AC0
0143c7: 100531           SFTS AC0,#-15,AC0
0143ca: 2205             MOV AC0,T1
0143cc:               $C$L5:
0143cc: c501             MOV T1,*AR0
0143ce: c121             MOV AC1,*AR1
0143d0: 5062             POP T2
0143d2: 4804             RET
0143d4:               _nr_thr_glim:
0143d4: 5066             PSH T2
0143d6: 5076             PSH T3
0143d8: 50d5             PSHBOTH XAR5
0143da: 4efe             AADD #-2,SP
0143dc: ec01de           AMAR *AR0,XAR5
0143df: a9ad0026         MOV *AR5(#0026h),AR1
0143e3: 6d090122         BCC $C$L18,AR1 == #0
0143e7: 5c41             SFTS AC0,T0,AC1
0143e9: 2290             MOV AR1,AC0
0143eb: 120810           CMP AC0 >= AC1, TC1
0143ee: 6d6400ce         BCC $C$L14,TC1
0143f2: 1a0020           OR #0,AC0,AC2
0143f5: 102820_3d2a      EXP AC2,T2 || MOV #2,AR2
0143fa: 1268a0           CMP T2 >= AR2, TC1
0143fd: 7c000156         SUB #1,T2,T1
014401: 3c02             MOV #0,AC2
014403: 5c05_9ef4        XCCPART !TC1 || SFTS AC0,T1,AC0
014407: 7e800022         OR #32768,AC2,AC2
01440b: 7c000156         SUB #1,T2,T1
01440f: 2290_9ee4        XCCPART TC1 || MOV AR1,AC0
014413: 5c05_9ee4        XCCPART TC1 || SFTS AC0,T1,AC0
014417: 121420           CMP AC1 < AC2, TC1
01441a: 046411           BCC $C$L6,TC1
01441d: 109500           SFTS AC1,#0,AC2
014420: 76001098         MOV #16,AR1
014424: 102830           EXP AC2,T3
014427: 129870           CMP AR1 >= T3, TC1
01442a: 6264             BCC $C$L7,TC1
01442c: 4a02             B $C$L7
01442e:               $C$L6:
01442e: 3cf7             MOV #15,T3
014430:               $C$L7:
014430: 7c001057         SUB #16,T3,T1
014434: 5c55             SFTS AC1,T1,AC1
014436: a116_98          MOV mmap(@AC1L),AC1
014439: 6c016684         CALL __divli
01443d: 2676             SUB T3,T2
01443f: 1a0010           OR #0,AC0,AC1
014442: 044610           BCC $C$L8,T2 > #0
014445: 04561b           BCC $C$L9,T2 >= #0
014448: 3465             NEG T2,T1
01444a: 5c15             SFTS AC1,T1,AC0
01444c: 2209             MOV AC0,AR1
01444e: c902             MOV AR1,@#01h
014450: 04191b           BCC $C$L10,AR1 != #0
014453: 4a35             B $C$L11
014455:               $C$L8:
014455: 3e11             MOV #-1,AC1
014457: 7c000156         SUB #1,T2,T1
01445b: 5c59_3d12        SFTS AC1,T2,AC1 || MOV #1,AC2
01445f: 5a24             ADD AC2 << T1,AC0
014461: 2801             AND AC0,AC1
014463:               $C$L9:
014463: 3465             NEG T2,T1
014465: 5c15             SFTS AC1,T1,AC0
014467: 2209             MOV AC0,AR1
014469: c902             MOV AR1,@#01h
01446b: 04091c           BCC $C$L11,AR1 == #0
01446e:               $C$L10:
01446e: a002             MOV @#01h,AC0
014470: 76001098         MOV #16,AR1
014474: 100810           EXP AC0,T1
014477: 129450           CMP AR1 < T1, TC1
01447a: c500             MOV T1,@#00h
01447c: 67e4             BCC $C$L12,TC1
01447e: a900             MOV @#00h,AR1
014480: 7c001059         SUB #16,AR1,T1
014484: a002             MOV @#01h,AC0
014486: 4a0d_5d05        B $C$L13 || SFTS AC0,T1,AC0
01448a:               $C$L11:
01448a: e6001f           MOV #31,@#00h
01448d:               $C$L12:
01448d: a900             MOV @#00h,AR1
01448f: 7c001059         SUB #16,AR1,T1
014493: a002             MOV @#01h,AC0
014495: 5c05             SFTS AC0,T1,AC0
014497:               $C$L13:
014497: 76001098         MOV #16,AR1
01449b: c002             MOV AC0,@#01h
01449d: d70099           SUB @#00h,AR1,AR1
0144a0: c900             MOV AR1,@#00h
0144a2: ec028e           AMAR @#01h,XAR0
0144a5: ec009e           AMAR @#00h,XAR1
0144a8: 08febc           CALL _nr_sqrt
0144ab: a500             MOV @#00h,T1
0144ad: b002             MOV @#01h << #16,AC0
0144af: a9ad001a         MOV *AR5(#001ah),AR1
0144b3: 7affff04         AND #65535 << 16,AC0,AC0
0144b7: 5c05             SFTS AC0,T1,AC0
0144b9: bc02             MOV HI(AC0),@#01h
0144bb: 043910           BCC $C$L15,AR1 <= #0
0144be: 4a16             B $C$L16
0144c0:               $C$L14:
0144c0: a9ad0027         MOV *AR5(#0027h),AR1
0144c4: fb027fff         MOV #32767,@#01h
0144c8: 6649             BCC $C$L16,AR1 > #0
0144ca: c9ad001a         MOV AR1,*AR5(#001ah)
0144ce:               $C$L15:
0144ce: a0ad0017         MOV *AR5(#0017h),AC0
0144d2: 4a0c_3d0a        B $C$L17 || MOV #0,AR2
0144d6:               $C$L16:
0144d6: 4219             SUB #1,AR1
0144d8: a0ad0017         MOV *AR5(#0017h),AC0
0144dc: c9ad001a         MOV AR1,*AR5(#001ah)
0144e0: 220a             MOV AC0,AR2
0144e2:               $C$L17:
0144e2: d80290           SUB AC0,@#01h,AR1
0144e5: a210_98          MOV mmap(@AC0L),AC2
0144e8: 2290             MOV AR1,AC0
0144ea: 10053c           SFTS AC0,#-4,AC0
0144ed: a110_98          MOV mmap(@AC0L),AC1
0144f0: 767fff08_2521    MOV #32767,AC0 || ADD AC2,AC1
0144f6: 4011             ADD #1,AC1
0144f8: 3010             MIN AC1,AC0
0144fa: 3c09             MOV #0,AR1
0144fc: a010_98          MOV mmap(@AC0L),AC0
0144ff: 2e90             MAX AR1,AC0
014501: 2ea0             MAX AR2,AC0
014503: c0ad0017         MOV AC0,*AR5(#0017h)
014507: 4a05             B $C$L19
014509:               $C$L18:
014509: e6ad000017       MOV #0,*AR5(#0017h)
01450e:               $C$L19:
01450e: 4e02             AADD #2,SP
014510: 50d4             POPBOTH XAR5
014512: 5072             POP T3
014514: 5062             POP T2
014516: 4804             RET
014518:               _nr_fft_win:
014518: 5066             PSH T2
01451a: 5076             PSH T3
01451c: 50d5             PSHBOTH XAR5
01451e: 76005008         MOV #80,AC0
014522: 5c05             SFTS AC0,T1,AC0
014524: 2207             MOV AC0,T3
014526: 043414           BCC $C$DW$L$_nr_fft_win$3$E,T0 <= #0
014529: 2246             MOV T0,T2
01452b: 4216             SUB #1,T2
01452d: 526e             MOV T2,BRC0
01452f: 4663             BSET ST1_FRCT
014531: ec61ce_4b84      AMAR *AR3,XAR4 || RPTBLOCAL #0x01453a
014536:               $C$L20:
014536:               $C$DW$L$_nr_fft_win$3$B:
014536: 86449000            MPYM *AR2+,*AR1+,AC0
01453a: eb8308              MOV AC0,dbl(*AR4+)
01453d:               $C$DW$L$_nr_fft_win$3$E:
01453d:               $C$L21:
01453d: 227c             MOV T3,AR4
01453f: 1248c0           CMP T0 >= AR4, TC1
014542: 04641d           BCC $C$DW$L$_nr_fft_win$6$E,TC1
014545: 2240             MOV T0,AC0
014547: 4450             SFTS AC0,#1
014549: 2206             MOV AC0,T2
01454b: ec61ce_234d      AMAR *AR3,XAR4 || MOV T0,AR5
014550: 1460c0_2376      AADD T2,AR4 || MOV T3,T2
014555: 26d6             SUB AR5,T2
014557: 4216             SUB #1,T2
014559: 526e             MOV T2,BRC0
01455b: 4a82             RPTBLOCAL $C$DW$L$_nr_fft_win$6$E-3
01455d:               $C$L22:
01455d:               $C$DW$L$_nr_fft_win$6$B:
01455d: b003                MOV *AR0+ << #16,AC0
01455f: eb8308              MOV AC0,dbl(*AR4+)
014562:               $C$DW$L$_nr_fft_win$6$E:
014562:               $C$L23:
014562: 043420           BCC $C$DW$L$_nr_fft_win$9$E,T0 <= #0
014565: 2270             MOV T3,AC0
014567: 4450             SFTS AC0,#1
014569: 2206             MOV AC0,T2
01456b: ec61ce           AMAR *AR3,XAR4
01456e: 1460c0_2346      AADD T2,AR4 || MOV T0,T2
014573: 4216             SUB #1,T2
014575: 526e             MOV T2,BRC0
014577: 4a87_4763        RPTBLOCAL #0x014582 || BSET ST1_FRCT
01457b:               $C$L24:
01457b:               $C$DW$L$_nr_fft_win$9$B:
01457b: a64fffff            MOV *+AR2(#-0001h),T2
01457f: d30306              MPYM *AR0+,T2,AC0
014582: eb8308              MOV AC0,dbl(*AR4+)
014585:               $C$DW$L$_nr_fft_win$9$E:
014585:               $C$L25:
014585: 76008008_234c    MOV #128,AC0 || MOV T0,AR4
01458b: 247c_5d05        ADD T3,AR4 || SFTS AC0,T1,AC0
01458f: 220a             MOV AC0,AR2
014591: 12c8a0           CMP AR4 >= AR2, TC1
014594: 046417           BCC $C$DW$L$_nr_fft_win$12$E,TC1
014597: 22c0             MOV AR4,AC0
014599: 104501           SFTS AC0,#1,AC1
01459c: 2215             MOV AC1,T1
01459e: 26ca             SUB AR4,AR2
0145a0: 421a             SUB #1,AR2
0145a2: 52ac             MOV AR2,CSR
0145a4: 3c00             MOV #0,AC0
0145a6: 1450b0_4900      AADD T1,AR3 || RPT CSR
0145ab:               $C$L26:
0145ab:               $C$DW$L$_nr_fft_win$12$B:
0145ab: eb6308              MOV AC0,dbl(*AR3+)
0145ae:               $C$DW$L$_nr_fft_win$12$E:
0145ae:               $C$L27:
0145ae: 043410           BCC $C$DW$L$_nr_fft_win$15$E,T0 <= #0
0145b1: 7c0001a4         SUB #1,T0,AR2
0145b5: 52ae             MOV AR2,BRC0
0145b7: 4a84             RPTBLOCAL $C$DW$L$_nr_fft_win$15$E-4
0145b9:               $C$L28:
0145b9:               $C$DW$L$_nr_fft_win$15$B:
0145b9: aa0fffff            MOV *+AR0(#-0001h),AR2
0145bd: ca2fffff            MOV AR2,*+AR1(#-0001h)
0145c1:               $C$DW$L$_nr_fft_win$15$E:
0145c1:               $C$L29:
0145c1: 50d4             POPBOTH XAR5
0145c3: 5072             POP T3
0145c5: 5062             POP T2
0145c7: 4662             BCLR ST1_FRCT
0145c9: 4804             RET
0145cb:               _nr_Xpow_calc:
0145cb: 5066             PSH T2
0145cd: 5076             PSH T3
0145cf: 4eff             AADD #-1,SP
0145d1: 76008008         MOV #128,AC0
0145d5: 76008018_5d01    MOV #128,AC1 || SFTS AC0,T0,AC0
0145db: 5c51             SFTS AC1,T0,AC1
0145dd: 768000c1         BFXTR #32768,AC1,AR4
0145e1: 240c             ADD AC0,AR4
0145e3: 22c5             MOV AR4,T1
0145e5: 4445             SFTS T1,#-1
0145e7: 7dfffecc         AND #65534,AR4,AR4
0145eb: 7b000175         ADD #1,T1,T3
0145ef: 3e25             MOV #-2,T1
0145f1: 1258c0           CMP T1 >= AR4, TC1
0145f4: 3c01             MOV #0,AC1
0145f6: 04642e           BCC $C$DW$L$_nr_Xpow_calc$3$E,TC1
0145f9: 2270             MOV T3,AC0
0145fb: 4450             SFTS AC0,#1
0145fd: 7c000150         SUB #1,AC0,T1
014601: 525e             MOV T1,BRC0
014603: ec21ce           AMAR *AR1,XAR4
014606: 7a80002a_4b96    MOV #-32768 << #16,AC2 || RPTBLOCAL #0x014622
01460c:               $C$L30:
01460c:               $C$DW$L$_nr_Xpow_calc$3$B:
01460c: ed8308              MOV dbl(*AR4+),AC0
01460f: 122400              CMP AC2 < AC0, TC1
014612: 7a80000a_9ef4       XCCPART !TC1 || MOV #-32768 << #16,AC0
014618: 1a0100_9ef4         XCCPART !TC1 || OR #1,AC0,AC0
01461d: 3200                ABS AC0,AC0
01461f: 121800              CMP AC1 >= AC0, TC1
014622: 1a0010_9ef4         XCCPART !TC1 || OR #0,AC0,AC1
014627:               $C$DW$L$_nr_Xpow_calc$3$E:
014627:               $C$L31:
014627: 2270             MOV T3,AC0
014629: 76001f58_9e81    XCCPART AC1 == #0 || MOV #31,T1
01462f: 4450             SFTS AC0,#1
014631: 6301             BCC $C$L32,AC1 == #0
014633: 105500           SFTS AC1,#0,AC1
014636: 101810           EXP AC1,T1
014639:               $C$L32:
014639: 220c             MOV AC0,AR4
01463b: 043c2d           BCC $C$DW$L$_nr_Xpow_calc$8$E,AR4 <= #0
01463e: 225c             MOV T1,AR4
014640: 7c00106c         SUB #16,AR4,T2
014644: 7c000140         SUB #1,AC0,T0
014648: 524e             MOV T0,BRC0
01464a: 76001048         MOV #16,T0
01464e: 124450           CMP T0 < T1, TC1
014651: ec61ce_4b90      AMAR *AR3,XAR4 || RPTBLOCAL #0x014666
014656:               $C$L33:
014656:               $C$DW$L$_nr_Xpow_calc$8$B:
014656: ed2108_9e74         XCC !TC1 || MOV dbl(*AR1),AC0
01465b: 5c09                SFTS AC0,T2,AC0
01465d: ed2108_9e64         XCC TC1 || MOV dbl(*AR1),AC0
014662: 5c09_9ee4           XCCPART TC1 || SFTS AC0,T2,AC0
014666: 8c83901402          MOV AC0,*AR4+ || AADD #2,AR1
01466b:               $C$DW$L$_nr_Xpow_calc$8$E:
01466b:               $C$L34:
01466b: 043711           BCC $C$DW$L$_nr_Xpow_calc$11$E,T3 <= #0
01466e: 7c000197         SUB #1,T3,AR1
014672: 529e             MOV AR1,BRC0
014674: 4a86             RPTBLOCAL $C$DW$L$_nr_Xpow_calc$11$E-3
014676:               $C$L35:
014676:               $C$DW$L$_nr_Xpow_calc$11$B:
014676: d36308              SQRM *AR3+,AC0
014679: d26308              SQAM *AR3+,AC0,AC0
01467c: eb4308              MOV AC0,dbl(*AR2+)
01467f:               $C$DW$L$_nr_Xpow_calc$11$E:
01467f:               $C$L36:
01467f: 76001f98         MOV #31,AR1
014683: 125490           CMP T1 < AR1, TC1
014686: 96f4             XCCPART !TC1
014688: e60d000016       MOV #0,*AR0(#0016h)
01468d: 6574             BCC $C$L37,!TC1
01468f: 2250             MOV T1,AC0
014691: 4450             SFTS AC0,#1
014693: 3409             NEG AC0,AR1
014695: c90d0016         MOV AR1,*AR0(#0016h)
014699:               $C$L37:
014699: 4e01             AADD #1,SP
01469b: 5072             POP T3
01469d: 5062             POP T2
01469f: 4804             RET
0146a1:               _nr_fft_scale:
0146a1: 76008018         MOV #128,AC1
0146a5: 76008008_5d51    MOV #128,AC0 || SFTS AC1,T0,AC1
0146ab: 5c01             SFTS AC0,T0,AC0
0146ad: 76800091         BFXTR #32768,AC1,AR1
0146b1: 2409_3f2b        ADD AC0,AR1 || MOV #-2,AR3
0146b5: 7dfffea9         AND #65534,AR1,AR2
0146b9: 12b8a0           CMP AR3 >= AR2, TC1
0146bc: 046413           BCC $C$DW$L$_nr_fft_scale$3$E,TC1
0146bf: 7dfffe99         AND #65534,AR1,AR1
0146c3: 4019             ADD #1,AR1
0146c5: 529e             MOV AR1,BRC0
0146c7: 4a86             RPTBLOCAL $C$DW$L$_nr_fft_scale$3$E-3
0146c9:               $C$L38:
0146c9:               $C$DW$L$_nr_fft_scale$3$B:
0146c9: ed0108              MOV dbl(*AR0),AC0
0146cc: 10053e              SFTS AC0,#-2,AC0
0146cf: eb0308              MOV AC0,dbl(*AR0+)
0146d2:               $C$DW$L$_nr_fft_scale$3$E:
0146d2:               $C$L39:
0146d2: 4804             RET
0146d4:               _nr_main:
0146d4: 5066             PSH T2
0146d6: 5076             PSH T3
0146d8: 50d5             PSHBOTH XAR5
0146da: 50e5             PSHBOTH XAR6
0146dc: 50f5             PSHBOTH XAR7
0146de: 4ef8             AADD #-8,SP
0146e0: 76008018         MOV #128,AC1
0146e4: 76008008         MOV #128,AC0
0146e8: ec01de           AMAR *AR0,XAR5
0146eb: a6ad001e         MOV *AR5(#001eh),T2
0146ef: edbdbf           MOV dbl(*(AR5+AR0B)),XAR3
0146f2: ec21fe_5d59      AMAR *AR1,XAR7 || SFTS AC1,T2,AC1
0146f7: 7b000776_5d09    ADD #7,T2,T3 || SFTS AC0,T2,AC0
0146fd: 76800091         BFXTR #32768,AC1,AR1
014701: 2409             ADD AC0,AR1
014703: ec0092           BCLR @#00h,AR1
014706: 4029             ADD #2,AR1
014708: eb04b5           MOV XAR3,dbl(@#02h)
01470b: eb08a5           MOV XAR2,dbl(@#04h)
01470e: edb9ef           MOV dbl(*+AR5),XAR6
014711: 8e00bb10b590     MOV XAR3,dbl(@#00h) || AADD AR1,AR3
014717: 08fc1a           CALL _nr_vad
01471a: eb0c08           MOV AC0,dbl(@#06h)
01471d: a4ad0015         MOV *AR5(#0015h),T0
014721: ece18e           AMAR *AR7,XAR0
014724: edad9f0008       MOV dbl(*AR5(#0008h)),XAR1
014729: edadaf000c       MOV dbl(*AR5(#000ch)),XAR2
01472e: ecc1be_2365      AMAR *AR6,XAR3 || MOV T2,T1
014733: 08fde2           CALL _nr_fft_win
014736: edb5ff           MOV dbl(*(AR5-T1)),XAR7
014739: 3c08             MOV #0,AR0
01473b: 3c15             MOV #1,T1
01473d: ecc1ae_3d19      AMAR *AR6,XAR2 || MOV #1,AR1
014742: ece1be_2374      AMAR *AR7,XAR3 || MOV T3,T0
014747: 6c013998         CALL _nr_fft
01474b: ed04af           MOV dbl(@#02h),XAR2
01474e: eca18e           AMAR *AR5,XAR0
014751: ecc19e           AMAR *AR6,XAR1
014754: ece1be_2364      AMAR *AR7,XAR3 || MOV T2,T0
014759: 08fe6f           CALL _nr_Xpow_calc
01475c: ed0c08_3d04      MOV dbl(@#06h),AC0 || MOV #0,T0
014761: 08fc70           CALL _nr_thr_glim
014764: a4ad0016         MOV *AR5(#0016h),T0
014768: eca18e           AMAR *AR5,XAR0
01476b: ed009f           MOV dbl(@#00h),XAR1
01476e: ed04bf           MOV dbl(@#02h),XAR3
014771: ece1ae_2365      AMAR *AR7,XAR2 || MOV T2,T1
014776: 6c0157bf         CALL _nr_wiener
01477a: ed049f           MOV dbl(@#02h),XAR1
01477d: a4ad0016         MOV *AR5(#0016h),T0
014781: eca18e           AMAR *AR5,XAR0
014784: ece1ae_2365      AMAR *AR7,XAR2 || MOV T2,T1
014789: 6c015986         CALL _nr_noise_upd
01478d: ed009f           MOV dbl(@#00h),XAR1
014790: ecc18e_2364      AMAR *AR6,XAR0 || MOV T2,T0
014795: 6c015a18         CALL _nr_apply_gain
014799: ecc18e_2364      AMAR *AR6,XAR0 || MOV T2,T0
01479e: 08ff00           CALL _nr_fft_scale
0147a1: 3c05             MOV #0,T1
0147a3: 3c08             MOV #0,AR0
0147a5: ecc1ae_2374      AMAR *AR6,XAR2 || MOV T3,T0
0147aa: ece1be_3d09      AMAR *AR7,XAR3 || MOV #0,AR1
0147af: 6c013998         CALL _nr_fft
0147b3: ed08af           MOV dbl(@#04h),XAR2
0147b6: a4ad0015         MOV *AR5(#0015h),T0
0147ba: edadbf000c       MOV dbl(*AR5(#000ch)),XAR3
0147bf: edad9f000a       MOV dbl(*AR5(#000ah)),XAR1
0147c4: ecc18e_2365      AMAR *AR6,XAR0 || MOV T2,T1
0147c9: 6c0159f8         CALL _nr_ifft_win
0147cd: 4e08             AADD #8,SP
0147cf: 50f4             POPBOTH XAR7
0147d1: 50e4             POPBOTH XAR6
0147d3: 50d4             POPBOTH XAR5
0147d5: 5072             POP T3
0147d7: 5062             POP T2
0147d9: 4804             RET
0147db:               _fuzzer_isr:
0147db:               .text:retain:
0147db: f406f91f_98      AND #63775,mmap(@ST1_55)
0147e0: f5064100_98      OR #16640,mmap(@ST1_55)
0147e5: 46f5             BSET ST2_ARMS
0147e7: 4604             BCLR ST2_AR0LC
0147e9: 4614             BCLR ST2_AR1LC
0147eb: 4624             BCLR ST2_AR2LC
0147ed: 4634             BCLR ST2_AR3LC
0147ef: 4644             BCLR ST2_AR4LC
0147f1: 4654             BCLR ST2_AR5LC
0147f3: 4664             BCLR ST2_AR6LC
0147f5: 4674             BCLR ST2_AR7LC
0147f7: 4684             BCLR ST2_CDPLC
0147f9: 46a4             BCLR ST2_RDM
0147fb: b508_98          PSH mmap(@ST3_55)
0147fe: 5007             PSH dbl(AC0)
014800: b514_98          PSH mmap(@AC0G)
014803: 5017             PSH dbl(AC1)
014805: b51a_98          PSH mmap(@AC1G)
014808: 5027             PSH dbl(AC2)
01480a: b54c_98          PSH mmap(@AC2G)
01480d: 5037             PSH dbl(AC3)
01480f: b554_98          PSH mmap(@AC3G)
014812: 5046             PSH T0
014814: 5056             PSH T1
014816: 5085             PSHBOTH XAR0
014818: 5095             PSHBOTH XAR1
01481a: 50a5             PSHBOTH XAR2
01481c: 50b5             PSHBOTH XAR3
01481e: 50c5             PSHBOTH XAR4
014820: b562_98          PSH mmap(@BKC)
014823: b532_98          PSH mmap(@BK03)
014826: b560_98          PSH mmap(@BK47)
014829: b534_98          PSH mmap(@BRC0)
01482c: b57a_98          PSH mmap(@RSA0L)
01482f: b578_98          PSH mmap(@RSA0H)
014832: b57e_98          PSH mmap(@REA0L)
014835: b57c_98          PSH mmap(@REA0H)
014838: b574_98          PSH mmap(@BRS1)
01483b: b572_98          PSH mmap(@BRC1)
01483e: b582_98          PSH mmap(@RSA1L)
014841: b580_98          PSH mmap(@RSA1H)
014844: b586_98          PSH mmap(@REA1L)
014847: b584_98          PSH mmap(@REA1H)
01484a: b576_98          PSH mmap(@CSR)
01484d: b588_98          PSH mmap(@RPTC)
014850: 5075             PSHBOTH XCDP
014852: b51e_98          PSH mmap(@TRN0)
014855: b570_98          PSH mmap(@TRN1)
014858: b564_98          PSH mmap(@BSA01)
01485b: b566_98          PSH mmap(@BSA23)
01485e: b568_98          PSH mmap(@BSA45)
014861: b56a_98          PSH mmap(@BSA67)
014864: b56c_98          PSH mmap(@BSAC)
014867: 4489             MOV SP,AR1
014869: f49afffe_98      AND #65534,mmap(@SP)
01486e: 5096             PSH AR1
014870: 4eff             AADD #-1,SP
014872: 4617             BSET ST3_SMUL
014874: 4656             BCLR ST3_SATA
014876: 3c44             MOV #4,T0
014878: 6c013509         CALL _IRQ_clear
01487c: e651011c14       MOV #1,port(#01c14h)
014881: ed310801353e     MOV dbl(*(#01353eh)),AC0
014887: 4010             ADD #1,AC0
014889: eb310801353e     MOV AC0,dbl(*(#01353eh))
01488f: ed310801353e     MOV dbl(*(#01353eh)),AC0
014895: ec31be0186a0     AMAR *(#0186a0h),XAR3
01489b: 90b1             MOV XAR3,AC1
01489d: 6c016213         CALL __remul
0148a1: 041018           BCC $C$L1,AC0 != #0
0148a4: 3c00             MOV #0,AC0
0148a6: eb310801353e     MOV AC0,dbl(*(#01353eh))
0148ac: 6c013952         CALL _IRQ_globalDisable
0148b0: 6c01355e         CALL _IRQ_clearAll
0148b4: 6c0136fd         CALL _IRQ_disableAll
0148b8: 6c011d84         CALL _crash_void
0148bc:               $C$L1:
0148bc: 4e01             AADD #1,SP
0148be: bb9a_98          POP mmap(@SP)
0148c1: bb6c_98          POP mmap(@BSAC)
0148c4: bb6a_98          POP mmap(@BSA67)
0148c7: bb68_98          POP mmap(@BSA45)
0148ca: bb66_98          POP mmap(@BSA23)
0148cd: bb64_98          POP mmap(@BSA01)
0148d0: bb70_98          POP mmap(@TRN1)
0148d3: bb1e_98          POP mmap(@TRN0)
0148d6: 5074             POPBOTH XCDP
0148d8: bb88_98          POP mmap(@RPTC)
0148db: bb76_98          POP mmap(@CSR)
0148de: bb84_98          POP mmap(@REA1H)
0148e1: bb86_98          POP mmap(@REA1L)
0148e4: bb80_98          POP mmap(@RSA1H)
0148e7: bb82_98          POP mmap(@RSA1L)
0148ea: bb72_98          POP mmap(@BRC1)
0148ed: bb74_98          POP mmap(@BRS1)
0148f0: bb7c_98          POP mmap(@REA0H)
0148f3: bb7e_98          POP mmap(@REA0L)
0148f6: bb78_98          POP mmap(@RSA0H)
0148f9: bb7a_98          POP mmap(@RSA0L)
0148fc: bb34_98          POP mmap(@BRC0)
0148ff: bb60_98          POP mmap(@BK47)
014902: bb32_98          POP mmap(@BK03)
014905: bb62_98          POP mmap(@BKC)
014908: 50c4             POPBOTH XAR4
01490a: 50b4             POPBOTH XAR3
01490c: 50a4             POPBOTH XAR2
01490e: 5094             POPBOTH XAR1
014910: 5084             POPBOTH XAR0
014912: 5052             POP T1
014914: 5042             POP T0
014916: bb54_98          POP mmap(@AC3G)
014919: 5033             POP dbl(AC3)
01491b: bb4c_98          POP mmap(@AC2G)
01491e: 5023             POP dbl(AC2)
014920: bb1a_98          POP mmap(@AC1G)
014923: 5013             POP dbl(AC1)
014925: bb14_98          POP mmap(@AC0G)
014928: 5003             POP dbl(AC0)
01492a: bb08_98          POP mmap(@ST3_55)
01492d: 20               NOP
01492e: 20               NOP
01492f: 20               NOP
014930: 20               NOP
014931: 20               NOP
014932: 20               NOP
014933: 4805             RETI
014935:               _bus_error_isr:
014935: f406f91f_98      AND #63775,mmap(@ST1_55)
01493a: f5064100_98      OR #16640,mmap(@ST1_55)
01493f: 46f5             BSET ST2_ARMS
014941: 4604             BCLR ST2_AR0LC
014943: 4614             BCLR ST2_AR1LC
014945: 4624             BCLR ST2_AR2LC
014947: 4634             BCLR ST2_AR3LC
014949: 4644             BCLR ST2_AR4LC
01494b: 4654             BCLR ST2_AR5LC
01494d: 4664             BCLR ST2_AR6LC
01494f: 4674             BCLR ST2_AR7LC
014951: 4684             BCLR ST2_CDPLC
014953: 46a4             BCLR ST2_RDM
014955: b508_98          PSH mmap(@ST3_55)
014958: 5007             PSH dbl(AC0)
01495a: b514_98          PSH mmap(@AC0G)
01495d: 5017             PSH dbl(AC1)
01495f: b51a_98          PSH mmap(@AC1G)
014962: 5027             PSH dbl(AC2)
014964: b54c_98          PSH mmap(@AC2G)
014967: 5037             PSH dbl(AC3)
014969: b554_98          PSH mmap(@AC3G)
01496c: 5046             PSH T0
01496e: 5056             PSH T1
014970: 5085             PSHBOTH XAR0
014972: 5095             PSHBOTH XAR1
014974: 50a5             PSHBOTH XAR2
014976: 50b5             PSHBOTH XAR3
014978: 50c5             PSHBOTH XAR4
01497a: b562_98          PSH mmap(@BKC)
01497d: b532_98          PSH mmap(@BK03)
014980: b560_98          PSH mmap(@BK47)
014983: b534_98          PSH mmap(@BRC0)
014986: b57a_98          PSH mmap(@RSA0L)
014989: b578_98          PSH mmap(@RSA0H)
01498c: b57e_98          PSH mmap(@REA0L)
01498f: b57c_98          PSH mmap(@REA0H)
014992: b574_98          PSH mmap(@BRS1)
014995: b572_98          PSH mmap(@BRC1)
014998: b582_98          PSH mmap(@RSA1L)
01499b: b580_98          PSH mmap(@RSA1H)
01499e: b586_98          PSH mmap(@REA1L)
0149a1: b584_98          PSH mmap(@REA1H)
0149a4: b576_98          PSH mmap(@CSR)
0149a7: b588_98          PSH mmap(@RPTC)
0149aa: 5075             PSHBOTH XCDP
0149ac: b51e_98          PSH mmap(@TRN0)
0149af: b570_98          PSH mmap(@TRN1)
0149b2: b564_98          PSH mmap(@BSA01)
0149b5: b566_98          PSH mmap(@BSA23)
0149b8: b568_98          PSH mmap(@BSA45)
0149bb: b56a_98          PSH mmap(@BSA67)
0149be: b56c_98          PSH mmap(@BSAC)
0149c1: 4489             MOV SP,AR1
0149c3: f49afffe_98      AND #65534,mmap(@SP)
0149c8: 5096             PSH AR1
0149ca: 4eff             AADD #-1,SP
0149cc: 4617             BSET ST3_SMUL
0149ce: 4656             BCLR ST3_SATA
0149d0: 76001848         MOV #24,T0
0149d4: 6c013509         CALL _IRQ_clear
0149d8: 6c01355e         CALL _IRQ_clearAll
0149dc: 6c011d84         CALL _crash_void
0149e0: 4e01             AADD #1,SP
0149e2: bb9a_98          POP mmap(@SP)
0149e5: bb6c_98          POP mmap(@BSAC)
0149e8: bb6a_98          POP mmap(@BSA67)
0149eb: bb68_98          POP mmap(@BSA45)
0149ee: bb66_98          POP mmap(@BSA23)
0149f1: bb64_98          POP mmap(@BSA01)
0149f4: bb70_98          POP mmap(@TRN1)
0149f7: bb1e_98          POP mmap(@TRN0)
0149fa: 5074             POPBOTH XCDP
0149fc: bb88_98          POP mmap(@RPTC)
0149ff: bb76_98          POP mmap(@CSR)
014a02: bb84_98          POP mmap(@REA1H)
014a05: bb86_98          POP mmap(@REA1L)
014a08: bb80_98          POP mmap(@RSA1H)
014a0b: bb82_98          POP mmap(@RSA1L)
014a0e: bb72_98          POP mmap(@BRC1)
014a11: bb74_98          POP mmap(@BRS1)
014a14: bb7c_98          POP mmap(@REA0H)
014a17: bb7e_98          POP mmap(@REA0L)
014a1a: bb78_98          POP mmap(@RSA0H)
014a1d: bb7a_98          POP mmap(@RSA0L)
014a20: bb34_98          POP mmap(@BRC0)
014a23: bb60_98          POP mmap(@BK47)
014a26: bb32_98          POP mmap(@BK03)
014a29: bb62_98          POP mmap(@BKC)
014a2c: 50c4             POPBOTH XAR4
014a2e: 50b4             POPBOTH XAR3
014a30: 50a4             POPBOTH XAR2
014a32: 5094             POPBOTH XAR1
014a34: 5084             POPBOTH XAR0
014a36: 5052             POP T1
014a38: 5042             POP T0
014a3a: bb54_98          POP mmap(@AC3G)
014a3d: 5033             POP dbl(AC3)
014a3f: bb4c_98          POP mmap(@AC2G)
014a42: 5023             POP dbl(AC2)
014a44: bb1a_98          POP mmap(@AC1G)
014a47: 5013             POP dbl(AC1)
014a49: bb14_98          POP mmap(@AC0G)
014a4c: 5003             POP dbl(AC0)
014a4e: bb08_98          POP mmap(@ST3_55)
014a51: 20               NOP
014a52: 20               NOP
014a53: 20               NOP
014a54: 20               NOP
014a55: 20               NOP
014a56: 20               NOP
014a57: 4805             RETI
014a59:               _data_log_isr:
014a59: f406f91f_98      AND #63775,mmap(@ST1_55)
014a5e: f5064100_98      OR #16640,mmap(@ST1_55)
014a63: 46f5             BSET ST2_ARMS
014a65: 4604             BCLR ST2_AR0LC
014a67: 4614             BCLR ST2_AR1LC
014a69: 4624             BCLR ST2_AR2LC
014a6b: 4634             BCLR ST2_AR3LC
014a6d: 4644             BCLR ST2_AR4LC
014a6f: 4654             BCLR ST2_AR5LC
014a71: 4664             BCLR ST2_AR6LC
014a73: 4674             BCLR ST2_AR7LC
014a75: 4684             BCLR ST2_CDPLC
014a77: 46a4             BCLR ST2_RDM
014a79: b508_98          PSH mmap(@ST3_55)
014a7c: 5007             PSH dbl(AC0)
014a7e: b514_98          PSH mmap(@AC0G)
014a81: 5017             PSH dbl(AC1)
014a83: b51a_98          PSH mmap(@AC1G)
014a86: 5027             PSH dbl(AC2)
014a88: b54c_98          PSH mmap(@AC2G)
014a8b: 5037             PSH dbl(AC3)
014a8d: b554_98          PSH mmap(@AC3G)
014a90: 5046             PSH T0
014a92: 5056             PSH T1
014a94: 5085             PSHBOTH XAR0
014a96: 5095             PSHBOTH XAR1
014a98: 50a5             PSHBOTH XAR2
014a9a: 50b5             PSHBOTH XAR3
014a9c: 50c5             PSHBOTH XAR4
014a9e: b562_98          PSH mmap(@BKC)
014aa1: b532_98          PSH mmap(@BK03)
014aa4: b560_98          PSH mmap(@BK47)
014aa7: b534_98          PSH mmap(@BRC0)
014aaa: b57a_98          PSH mmap(@RSA0L)
014aad: b578_98          PSH mmap(@RSA0H)
014ab0: b57e_98          PSH mmap(@REA0L)
014ab3: b57c_98          PSH mmap(@REA0H)
014ab6: b574_98          PSH mmap(@BRS1)
014ab9: b572_98          PSH mmap(@BRC1)
014abc: b582_98          PSH mmap(@RSA1L)
014abf: b580_98          PSH mmap(@RSA1H)
014ac2: b586_98          PSH mmap(@REA1L)
014ac5: b584_98          PSH mmap(@REA1H)
014ac8: b576_98          PSH mmap(@CSR)
014acb: b588_98          PSH mmap(@RPTC)
014ace: 5075             PSHBOTH XCDP
014ad0: b51e_98          PSH mmap(@TRN0)
014ad3: b570_98          PSH mmap(@TRN1)
014ad6: b564_98          PSH mmap(@BSA01)
014ad9: b566_98          PSH mmap(@BSA23)
014adc: b568_98          PSH mmap(@BSA45)
014adf: b56a_98          PSH mmap(@BSA67)
014ae2: b56c_98          PSH mmap(@BSAC)
014ae5: 4489             MOV SP,AR1
014ae7: f49afffe_98      AND #65534,mmap(@SP)
014aec: 5096             PSH AR1
014aee: 4eff             AADD #-1,SP
014af0: 4617             BSET ST3_SMUL
014af2: 4656             BCLR ST3_SATA
014af4: 76001948         MOV #25,T0
014af8: 6c013509         CALL _IRQ_clear
014afc: 6c01355e         CALL _IRQ_clearAll
014b00: 6c011d84         CALL _crash_void
014b04: 4e01             AADD #1,SP
014b06: bb9a_98          POP mmap(@SP)
014b09: bb6c_98          POP mmap(@BSAC)
014b0c: bb6a_98          POP mmap(@BSA67)
014b0f: bb68_98          POP mmap(@BSA45)
014b12: bb66_98          POP mmap(@BSA23)
014b15: bb64_98          POP mmap(@BSA01)
014b18: bb70_98          POP mmap(@TRN1)
014b1b: bb1e_98          POP mmap(@TRN0)
014b1e: 5074             POPBOTH XCDP
014b20: bb88_98          POP mmap(@RPTC)
014b23: bb76_98          POP mmap(@CSR)
014b26: bb84_98          POP mmap(@REA1H)
014b29: bb86_98          POP mmap(@REA1L)
014b2c: bb80_98          POP mmap(@RSA1H)
014b2f: bb82_98          POP mmap(@RSA1L)
014b32: bb72_98          POP mmap(@BRC1)
014b35: bb74_98          POP mmap(@BRS1)
014b38: bb7c_98          POP mmap(@REA0H)
014b3b: bb7e_98          POP mmap(@REA0L)
014b3e: bb78_98          POP mmap(@RSA0H)
014b41: bb7a_98          POP mmap(@RSA0L)
014b44: bb34_98          POP mmap(@BRC0)
014b47: bb60_98          POP mmap(@BK47)
014b4a: bb32_98          POP mmap(@BK03)
014b4d: bb62_98          POP mmap(@BKC)
014b50: 50c4             POPBOTH XAR4
014b52: 50b4             POPBOTH XAR3
014b54: 50a4             POPBOTH XAR2
014b56: 5094             POPBOTH XAR1
014b58: 5084             POPBOTH XAR0
014b5a: 5052             POP T1
014b5c: 5042             POP T0
014b5e: bb54_98          POP mmap(@AC3G)
014b61: 5033             POP dbl(AC3)
014b63: bb4c_98          POP mmap(@AC2G)
014b66: 5023             POP dbl(AC2)
014b68: bb1a_98          POP mmap(@AC1G)
014b6b: 5013             POP dbl(AC1)
014b6d: bb14_98          POP mmap(@AC0G)
014b70: 5003             POP dbl(AC0)
014b72: bb08_98          POP mmap(@ST3_55)
014b75: 20               NOP
014b76: 20               NOP
014b77: 20               NOP
014b78: 20               NOP
014b79: 20               NOP
014b7a: 20               NOP
014b7b: 4805             RETI
014b7d:               _snlProcess:
014b7d: 5066             PSH T2
014b7f: 5076             PSH T3
014b81: 50d5             PSHBOTH XAR5
014b83: 50e5             PSHBOTH XAR6
014b85: 50f5             PSHBOTH XAR7
014b87: 4ef6             AADD #-10,SP
014b89: ec21fe           AMAR *AR1,XAR7
014b8c: ec01de           AMAR *AR0,XAR5
014b8f: a9b7             MOV *AR5(T1),AR1
014b91: a0bd             MOV *(AR5+AR0B),AC0
014b93: edad280008       MOV dbl(*AR5(#0008h)),AC2
014b98: c402             MOV T0,@#01h
014b9a: c906             MOV AR1,@#03h
014b9c: eda118           MOV dbl(*AR5),AC1
014b9f: a6b9             MOV *+AR5,T2
014ba1: aeb5_19ffa0      MOV *(AR5-T1),AR6 || AND #255,AC0,AR2
014ba6: 76ff0090         BFXTR #65280,AC0,AR1
014baa: 7a00ff0a         MOV #255 << #16,AC0
014bae: c908             MOV AR1,@#04h
014bb0: 7effff00         OR #65535,AC0,AC0
014bb4: a9bf_2920        MOV *(AR5-AR0B),AR1 || AND AC2,AC0
014bb8: eb1008           MOV AC0,dbl(@#08h)
014bbb: c90a_112728      MOV AR1,@#05h || SFTL AC2,#-24,AC0
014bc0: 102723_191f90    SFTL AC2,#-29,AC0 || AND #31,AC0,AR1
014bc6: c904_190100      MOV AR1,@#02h || AND #1,AC0,AC0
014bcb: 3cc9             MOV #12,AR1
014bcd: 3c09_9e80        XCCPART AC0 == #0 || MOV #0,AR1
014bd1: a7bb_41c9        MOV *-AR5,T3 || ADD #12,AR1
014bd5: c90c             MOV AR1,@#06h
014bd7: a904             MOV @#02h,AR1
014bd9: c900             MOV AR1,@#00h
014bdb:               $C$L1:
014bdb:               $C$DW$L$_snlProcess$2$B:
014bdb: a404             MOV @#02h,T0
014bdd: a5eb             MOV *AR7(AR0),T1
014bdf: ab06_3d09        MOV @#03h,AR3 || MOV #0,AR1
014be3: 5250_13e4b4      MOV T1,HI(AC0) || CMPU AR6 < AR3, TC1
014be8: 2252_9ed5        XCCPART T1 >= #0 || MOV T1,AC2
014bec: 3c19_9ef4        XCCPART !TC1 || MOV #1,AR1
014bf0: 5804             MPY T1,AC0,AC0
014bf2: 10a503_9ed5      XCCPART T1 >= #0 || SFTS AC2,#3,AC2
014bf7: 10c53c           SFTS AC0,#-4,AC3
014bfa: 7dffff0e         AND #65535,AR6,AC0
014bfe: 2252_9ea5        XCCPART T1 < #0 || MOV T1,AC2
014c02: 10a503_9ea5      XCCPART T1 < #0 || SFTS AC2,#3,AC2
014c07: 3422_9ea5        XCCPART T1 < #0 || NEG AC2,AC2
014c0b: 2602             SUB AC0,AC2
014c0d: 10a53b           SFTS AC2,#-5,AC2
014c10: 3c02_2520        MOV #0,AC2 || ADD AC2,AC0
014c14: 7effff22         OR #65535,AC2,AC2
014c18: 122404           CMPU AC2 < AC0, TC1
014c1b: 220e             MOV AC0,AR6
014c1d: 76ffffe8_9ee4    XCCPART TC1 || MOV #-1,AR6
014c23: 1a0003           OR #0,AC3,AC0
014c26: 2410             ADD AC1,AC0
014c28: 120814           CMPU AC0 >= AC1, TC1
014c2b: 7dffff2e         AND #65535,AR6,AC2
014c2f: 7affff0a_9ef4    XCCPART !TC1 || MOV #-1 << #16,AC0
014c35: 7effff00_9ef4    XCCPART !TC1 || OR #65535,AC0,AC0
014c3b: ed1008_1b0010    MOV dbl(@#08h),AC0 || OR #0,AC0,AC1
014c41: 2420_13e4b4      ADD AC2,AC0 || CMPU AR6 < AR3, TC1
014c46: eb1008_411a      MOV AC0,dbl(@#08h) || ADD #1,AR2
014c4b: 046416           BCC $C$DW$L$_snlProcess$6$B,TC1
014c4e:               $C$DW$L$_snlProcess$2$E:
014c4e:               $C$DW$L$_snlProcess$3$B:
014c4e: 3c0b             MOV #0,AR3
014c50: cb08             MOV AR3,@#04h
014c52: 6d0901cf         BCC $C$DW$L$_snlProcess$37$B,AR1 == #0
014c56:               $C$DW$L$_snlProcess$3$E:
014c56:               $C$DW$L$_snlProcess$4$B:
014c56: 76010098         MOV #256,AR1
014c5a: 12a894           CMPU AR2 >= AR1, TC1
014c5d: 6d6400e9         BCC $C$DW$L$_snlProcess$20$B,TC1
014c61:               $C$DW$L$_snlProcess$4$E:
014c61:               $C$DW$L$_snlProcess$5$B:
014c61: 0601ca           B $C$DW$L$_snlProcess$38$B
014c64:               $C$DW$L$_snlProcess$6$B:
014c64:               $C$DW$L$_snlProcess$5$E:
014c64:               $C$L2:
014c64: 760085c8         MOV #133,AR4
014c68: ab08             MOV @#04h,AR3
014c6a: 12b4c4           CMPU AR3 < AR4, TC1
014c6d: 6d6400bd         BCC $C$DW$L$_snlProcess$18$B,TC1
014c71:               $C$DW$L$_snlProcess$6$E:
014c71:               $C$DW$L$_snlProcess$7$B:
014c71: 6d1901b0         BCC $C$DW$L$_snlProcess$37$B,AR1 != #0
014c75:               $C$DW$L$_snlProcess$7$E:
014c75:               $C$DW$L$_snlProcess$8$B:
014c75: b006             MOV @#03h << #16,AC0
014c77: b006_118700      MOV @#03h << #16,AC0 || SFTL AC0,#0,AC2
014c7c: 7affff04         AND #65535 << 16,AC0,AC0
014c80: 5426             MPY AC2,AC0
014c82: 108738           SFTL AC0,#-8,AC2
014c85: 7affff0a         MOV #-1 << #16,AC0
014c89: 7efffc00         OR #65532,AC0,AC0
014c8d: 76010098_2920    MOV #256,AR1 || AND AC2,AC0
014c93: 2603_13a494      SUB AC0,AC3 || CMPU AR2 < AR1, TC1
014c98: 2631_9ec3        XCCPART AC3 > #0 || SUB AC3,AC1
014c9c: 6d64018e         BCC $C$DW$L$_snlProcess$38$B,TC1
014ca0:               $C$DW$L$_snlProcess$8$E:
014ca0:               $C$DW$L$_snlProcess$9$B:
014ca0: 7affff0a         MOV #-1 << #16,AC0
014ca4: 10573c           SFTL AC1,#-4,AC1
014ca7: 7efff000         OR #65520,AC0,AC0
014cab: 2810             AND AC1,AC0
014cad: 6c0164f5         CALL _utlLin2dBPower
014cb1: 2240             MOV T0,AC0
014cb3: ed1008_114504    MOV dbl(@#08h),AC0 || SFTS AC0,#4,AC1
014cb9: 100738           SFTL AC0,#-8,AC0
014cbc: 5000             SFTL AC0,#1
014cbe: 7628b8a8_2309    MOV #10424,AR2 || MOV AC0,AR1
014cc4: 12a494           CMPU AR2 < AR1, TC1
014cc7: c006             MOV AC0,@#03h
014cc9: 04641b           BCC $C$DW$L$_snlProcess$12$B,TC1
014ccc:               $C$DW$L$_snlProcess$9$E:
014ccc:               $C$DW$L$_snlProcess$10$B:
014ccc: 7600a0a8         MOV #160,AR2
014cd0: 1298a4           CMPU AR1 >= AR2, TC1
014cd3: 7600a098         MOV #160,AR1
014cd7: c906_9ef4        XCCPART !TC1 || MOV AR1,@#03h
014cdb: 767f0098         MOV #32512,AR1
014cdf: 127c90           CMP T3 != AR1, TC1
014ce2: 046412           BCC $C$DW$L$_snlProcess$12$E,TC1
014ce5:               $C$DW$L$_snlProcess$10$E:
014ce5:               $C$DW$L$_snlProcess$11$B:
014ce5: 4a3a             B $C$DW$L$_snlProcess$17$B
014ce7:               $C$DW$L$_snlProcess$12$B:
014ce7:               $C$DW$L$_snlProcess$11$E:
014ce7:               $C$L3:
014ce7: 7628b898         MOV #10424,AR1
014ceb: c906             MOV AR1,@#03h
014ced: 767f0098         MOV #32512,AR1
014cf1: 127090           CMP T3 == AR1, TC1
014cf4: 04642a           BCC $C$DW$L$_snlProcess$17$B,TC1
014cf7:               $C$DW$L$_snlProcess$12$E:
014cf7:               $C$L4:
014cf7:               $C$DW$L$_snlProcess$13$B:
014cf7: a90a             MOV @#05h,AR1
014cf9: 041925           BCC $C$DW$L$_snlProcess$17$B,AR1 != #0
014cfc:               $C$DW$L$_snlProcess$13$E:
014cfc:               $C$DW$L$_snlProcess$14$B:
014cfc: 2279             MOV T3,AR1
014cfe: 760c00a8_2719    MOV #3072,AR2 || SUB AC1,AR1
014d04: 1298a0           CMP AR1 >= AR2, TC1
014d07: 66e4             BCC $C$DW$L$_snlProcess$16$B,TC1
014d09:               $C$DW$L$_snlProcess$14$E:
014d09:               $C$DW$L$_snlProcess$15$B:
014d09: 2671             SUB T3,AC1
014d0b: a016_98          MOV mmap(@AC1L),AC0
014d0e: 10053d           SFTS AC0,#-3,AC0
014d11: 06010f_2507      B $C$DW$L$_snlProcess$37$B || ADD AC0,T3
014d16:               $C$DW$L$_snlProcess$16$B:
014d16:               $C$DW$L$_snlProcess$15$E:
014d16:               $C$L5:
014d16: 2219             MOV AC1,AR1
014d18: 2679             SUB T3,AR1
014d1a: 4449             SFTS AR1,#-1
014d1c: 060104_2597      B $C$DW$L$_snlProcess$37$B || ADD AR1,T3
014d21:               $C$DW$L$_snlProcess$17$B:
014d21:               $C$DW$L$_snlProcess$16$E:
014d21:               $C$L6:
014d21: a90a             MOV @#05h,AR1
014d23: f70affff_9e19    XCC AR1 != #0 || ADD #-1,@#05h
014d29: 0600f7_2317      B $C$DW$L$_snlProcess$37$B || MOV AC1,T3
014d2e:               $C$DW$L$_snlProcess$18$B:
014d2e:               $C$DW$L$_snlProcess$17$E:
014d2e:               $C$L7:
014d2e: f7080001         ADD #1,@#04h
014d32: 760085b8         MOV #133,AR3
014d36: a908             MOV @#04h,AR1
014d38: 1298b4           CMPU AR1 >= AR3, TC1
014d3b: 6d6400e6         BCC $C$DW$L$_snlProcess$37$B,TC1
014d3f:               $C$DW$L$_snlProcess$18$E:
014d3f:               $C$DW$L$_snlProcess$19$B:
014d3f: 76010098         MOV #256,AR1
014d43: 12a494           CMPU AR2 < AR1, TC1
014d46: 6d6400e4         BCC $C$DW$L$_snlProcess$38$B,TC1
014d4a:               $C$DW$L$_snlProcess$20$B:
014d4a:               $C$DW$L$_snlProcess$19$E:
014d4a:               $C$L8:
014d4a: 7affff0a         MOV #-1 << #16,AC0
014d4e: 10573c           SFTL AC1,#-4,AC1
014d51: 7efff000         OR #65520,AC0,AC0
014d55: 2810             AND AC1,AC0
014d57: 6c0164f5         CALL _utlLin2dBPower
014d5b: 767f0098         MOV #32512,AR1
014d5f: 2240_136090      MOV T0,AC0 || CMP T2 == AR1, TC1
014d64: 100504           SFTS AC0,#4,AC0
014d67: 6d6400b4         BCC $C$DW$L$_snlProcess$35$B,TC1
014d6b:               $C$DW$L$_snlProcess$20$E:
014d6b:               $C$DW$L$_snlProcess$21$B:
014d6b: 2209             MOV AC0,AR1
014d6d: 760c00a8_2769    MOV #3072,AR2 || SUB T2,AR1
014d73: 1298a0           CMP AR1 >= AR2, TC1
014d76: 6d64009c         BCC $C$DW$L$_snlProcess$34$B,TC1
014d7a:               $C$DW$L$_snlProcess$21$E:
014d7a:               $C$DW$L$_snlProcess$22$B:
014d7a: 767f00a8         MOV #32512,AR2
014d7e: 1270a0           CMP T3 == AR2, TC1
014d81: 220b             MOV AC0,AR3
014d83: 227a             MOV T3,AR2
014d85: 76b000a8_9ee4    XCCPART TC1 || MOV #-20480,AR2
014d8b: 246a             ADD T2,AR2
014d8d: 444a             SFTS AR2,#-1
014d8f: 12b4a0           CMP AR3 < AR2, TC1
014d92: 04642e           BCC $C$DW$L$_snlProcess$27$B,TC1
014d95:               $C$DW$L$_snlProcess$22$E:
014d95:               $C$DW$L$_snlProcess$23$B:
014d95: 226b             MOV T2,AR3
014d97: 760c00c8_270b    MOV #3072,AR4 || SUB AC0,AR3
014d9d: 12b4c0           CMP AR3 < AR4, TC1
014da0: 3c1a             MOV #1,AR2
014da2: 046418           BCC $C$DW$L$_snlProcess$26$B,TC1
014da5:               $C$DW$L$_snlProcess$23$E:
014da5:               $C$DW$L$_snlProcess$24$B:
014da5: ed1008_3d01      MOV dbl(@#08h),AC0 || MOV #0,AC1
014daa: 7effff11         OR #65535,AC1,AC1
014dae: 100738           SFTL AC0,#-8,AC0
014db1: 121804           CMPU AC1 >= AC0, TC1
014db4: 76509258         MOV #20626,T1
014db8: 04641f           BCC $C$DW$L$_snlProcess$27$E,TC1
014dbb:               $C$DW$L$_snlProcess$24$E:
014dbb:               $C$DW$L$_snlProcess$25$B:
014dbb: 4a21             B $C$DW$L$_snlProcess$28$E
014dbd:               $C$DW$L$_snlProcess$26$B:
014dbd:               $C$DW$L$_snlProcess$25$E:
014dbd:               $C$L9:
014dbd: 7647cf58         MOV #18383,T1
014dc1: 4a21             B $C$DW$L$_snlProcess$30$B
014dc3:               $C$DW$L$_snlProcess$27$B:
014dc3:               $C$DW$L$_snlProcess$26$E:
014dc3:               $C$L10:
014dc3: ed1008_3d01      MOV dbl(@#08h),AC0 || MOV #0,AC1
014dc8: 76509258         MOV #20626,T1
014dcc: 7effff11         OR #65535,AC1,AC1
014dd0: 100738           SFTL AC0,#-8,AC0
014dd3: 121404           CMPU AC1 < AC0, TC1
014dd6: 3c0a             MOV #0,AR2
014dd8: 6264             BCC $C$DW$L$_snlProcess$28$E,TC1
014dda:               $C$DW$L$_snlProcess$27$E:
014dda:               $C$L11:
014dda:               $C$DW$L$_snlProcess$28$B:
014dda: c006             MOV AC0,@#03h
014ddc: 4a06             B $C$DW$L$_snlProcess$30$B
014dde:               $C$DW$L$_snlProcess$28$E:
014dde:               $C$L12:
014dde:               $C$DW$L$_snlProcess$29$B:
014dde: 76ffffb8         MOV #-1,AR3
014de2: cb06             MOV AR3,@#03h
014de4:               $C$DW$L$_snlProcess$30$B:
014de4:               $C$DW$L$_snlProcess$29$E:
014de4:               $C$L13:
014de4: b006             MOV @#03h << #16,AC0
014de6: 5804_3d01        MPY T1,AC0,AC0 || MOV #0,AC1
014dea: 7effff11         OR #65535,AC1,AC1
014dee: 100532           SFTS AC0,#-14,AC0
014df1: 121404           CMPU AC1 < AC0, TC1
014df4: 66e4             BCC $C$DW$L$_snlProcess$32$B,TC1
014df6:               $C$DW$L$_snlProcess$30$E:
014df6:               $C$DW$L$_snlProcess$31$B:
014df6: 7628b8c8_230b    MOV #10424,AR4 || MOV AC0,AR3
014dfc: 12c8b4           CMPU AR4 >= AR3, TC1
014dff: c006             MOV AC0,@#03h
014e01: 6364             BCC $C$DW$L$_snlProcess$33$B,TC1
014e03:               $C$DW$L$_snlProcess$32$B:
014e03:               $C$DW$L$_snlProcess$31$E:
014e03:               $C$L14:
014e03: 7628b8b8         MOV #10424,AR3
014e07: cb06             MOV AR3,@#03h
014e09:               $C$DW$L$_snlProcess$33$B:
014e09:               $C$DW$L$_snlProcess$32$E:
014e09:               $C$L15:
014e09: 2290_9e9a        XCCPART AR2 != #0 || MOV AR1,AC0
014e0d: 10053c           SFTS AC0,#-4,AC0
014e10: 2406_9e9a        XCCPART AR2 != #0 || ADD AC0,T2
014e14: 4a0b             B $C$DW$L$_snlProcess$36$B
014e16:               $C$DW$L$_snlProcess$34$B:
014e16:               $C$DW$L$_snlProcess$33$E:
014e16:               $C$L16:
014e16: 2290             MOV AR1,AC0
014e18: 10053e           SFTS AC0,#-2,AC0
014e1b: 4a02_2506        B $C$DW$L$_snlProcess$36$B || ADD AC0,T2
014e1f:               $C$DW$L$_snlProcess$35$B:
014e1f:               $C$DW$L$_snlProcess$34$E:
014e1f:               $C$L17:
014e1f: 2206             MOV AC0,T2
014e21:               $C$DW$L$_snlProcess$36$B:
014e21:               $C$DW$L$_snlProcess$35$E:
014e21:               $C$L18:
014e21: 3c49             MOV #4,AR1
014e23: c90a             MOV AR1,@#05h
014e25:               $C$DW$L$_snlProcess$37$B:
014e25:               $C$DW$L$_snlProcess$36$E:
014e25:               $C$L19:
014e25: 3c00             MOV #0,AC0
014e27: 3c01             MOV #0,AC1
014e29: eb1008_3d0a      MOV AC0,dbl(@#08h) || MOV #0,AR2
014e2e:               $C$DW$L$_snlProcess$38$B:
014e2e:               $C$DW$L$_snlProcess$37$E:
014e2e:               $C$L20:
014e2e: a90c             MOV @#06h,AR1
014e30: d60099           ADD @#00h,AR1,AR1
014e33: ab02             MOV @#01h,AR3
014e35: c900             MOV AR1,@#00h
014e37: ac00             MOV @#00h,AR4
014e39: a904_13c4b4      MOV @#02h,AR1 || CMPU AR4 < AR3, TC1
014e3e: d60c99           ADD @#06h,AR1,AR1
014e41: c904             MOV AR1,@#02h
014e43: 6d64fd94         BCC $C$L1,TC1
014e47:               $C$DW$L$_snlProcess$38$E:
014e47: f4bdff00         AND #65280,*(AR5+AR0B)
014e4b: eba118_19ffaa    MOV AC1,dbl(*AR5) || AND #255,AR2,AR2
014e51: dabdaa           OR *(AR5+AR0B),AR2,AR2
014e54: a108             MOV @#04h,AC1
014e56: d70299           SUB @#01h,AR1,AR1
014e59: cabd             MOV AR2,*(AR5+AR0B)
014e5b: ab06             MOV @#03h,AR3
014e5d: f4bd00ff         AND #255,*(AR5+AR0B)
014e61: a0bd             MOV *(AR5+AR0B),AC0
014e63: c7bb_111108      MOV T3,*-AR5 || OR AC1 << #8, AC0
014e68: edad180008       MOV dbl(*AR5(#0008h)),AC1
014e6d: c0bd             MOV AC0,*(AR5+AR0B)
014e6f: 7ae0ff0a         MOV #-7937 << #16,AC0
014e73: 7effff00         OR #65535,AC0,AC0
014e77: c6b9_2910        MOV T2,*+AR5 || AND AC1,AC0
014e7b: ebad080008       MOV AC0,dbl(*AR5(#0008h))
014e80: ceb5_191f19      MOV AR6,*(AR5-T1) || AND #31,AR1,AC1
014e85: edad080008       MOV dbl(*AR5(#0008h)),AC0
014e8a: cbb7_111118      MOV AR3,*AR5(T1) || OR AC1 << #24, AC0
014e8f: ebad080008       MOV AC0,dbl(*AR5(#0008h))
014e94: 7aff000a         MOV #-256 << #16,AC0
014e98: edad180008       MOV dbl(*AR5(#0008h)),AC1
014e9d: 7a00ff1a_2910    MOV #255 << #16,AC1 || AND AC1,AC0
014ea3: ebad080008       MOV AC0,dbl(*AR5(#0008h))
014ea8: 7effff11         OR #65535,AC1,AC1
014eac: ed1008_3d04      MOV dbl(@#08h),AC0 || MOV #0,T0
014eb1: ab0a_2901        MOV @#05h,AR3 || AND AC0,AC1
014eb5: edad080008       MOV dbl(*AR5(#0008h)),AC0
014eba: cbbf_2b01        MOV AR3,*(AR5-AR0B) || OR AC0,AC1
014ebe: ebad180008       MOV AC1,dbl(*AR5(#0008h))
014ec3: 4e0a             AADD #10,SP
014ec5: 50f4             POPBOTH XAR7
014ec7: 50e4             POPBOTH XAR6
014ec9: 50d4             POPBOTH XAR5
014ecb: 5072             POP T3
014ecd: 5062             POP T2
014ecf: 4804             RET
014ed1:               _snlGetLevels:
014ed1: ac19             MOV *+AR0,AR4
014ed3: 7b0080cc         ADD #128,AR4,AR4
014ed7: 22c0             MOV AR4,AC0
014ed9: 100538           SFTS AC0,#-8,AC0
014edc: c021             MOV AC0,*AR1
014ede: a91b             MOV *-AR0,AR1
014ee0: 7b008099         ADD #128,AR1,AR1
014ee4: 2290             MOV AR1,AC0
014ee6: 100538_3d04      SFTS AC0,#-8,AC0 || MOV #0,T0
014eeb: c041             MOV AC0,*AR2
014eed: a917             MOV *AR0(T1),AR1
014eef: c961             MOV AR1,*AR3
014ef1: 4804             RET
014ef3:               _nr_wiener_opt:
014ef3: 4ef5             AADD #-11,SP
014ef5: c600             MOV T2,@#00h
014ef7: c702             MOV T3,@#01h
014ef9: eb06d5           MOV XAR5,dbl(@#03h)
014efc: eb0ae5           MOV XAR6,dbl(@#05h)
014eff: eb0ef5           MOV XAR7,dbl(@#07h)
014f02: f40401ff_98      AND #511,mmap(@ST0_55)
014f07: f5064140_98      OR #16704,mmap(@ST1_55)
014f0c: f406f9df_98      AND #63967,mmap(@ST1_55)
014f11: f4967a00_98      AND #31232,mmap(@ST2_55)
014f16: f408ffdd_98      AND #65501,mmap(@ST3_55)
014f1b: a013             MOV *(AR0+T1),AC0
014f1d: a033             MOV *(AR1+T1),AC0
014f1f: a053             MOV *(AR2+T1),AC0
014f21: a073             MOV *(AR3+T1),AC0
014f23: a093             MOV *(AR4+T1),AC0
014f25: 3c35             MOV #3,T1
014f27: a003             MOV *AR0+,AC0
014f29: 904d             MOV XSP,XAR5
014f2b: 40cd             ADD #12,AR5
014f2d: 90df             MOV XAR5,XAR7
014f2f: 405f             ADD #5,AR7
014f31: 904e             MOV XSP,XAR6
014f33: 408e             ADD #8,AR6
014f35: 4214             SUB #1,T0
014f37: 524e             MOV T0,BRC0
014f39: a61a             MOV @#0dh,T2
014f3b: a41c             MOV @#0eh,T0
014f3d: 0e006a           RPTB loop_W-2
014f40: 86a02004            MPYM *AR5,uns(*AR0-),AC0
014f44: 86a04040            MACM *AR5,*(AR0+T1),AC0 >> #16,AC0
014f48: 4693                BSET ST1_SATD
014f4a: 2201                MOV AC0,AC1
014f4c: 5c51                SFTS AC1,T0,AC1
014f4e: ed4328              MOV dbl(*AR2+),AC2
014f51: 5ca9                SFTS AC2,T2,AC2
014f53: 2612                SUB AC1,AC2
014f55: 3c03                MOV #0,AC3
014f57: 2e23                MAX AC2,AC3
014f59: a71e                MOV @#0fh,T3
014f5b: 5cfd                SFTS AC3,T3,AC3
014f5d: 4692                BCLR ST1_SATD
014f5f: bf12                MOV HI(AC3),@#09h
014f61: c310                MOV AC3,@#08h
014f63: 86e31304            MPYM *AR7,uns(*AR6+),AC3
014f67: 86e32f40            MACM *AR7,*AR6-,AC3 >> #16,AC3
014f6b: a183                MOV *AR4+,AC1
014f6d: a720                MOV @#10h,T3
014f6f: 4693                BSET ST1_SATD
014f71: 5c5d                SFTS AC1,T3,AC1
014f73: 105510              SFTS AC1,#16,AC1
014f76: d32411              MPYM @#12h,AC1,AC1
014f79: 105530              SFTS AC1,#-16,AC1
014f7c: 2413                ADD AC1,AC3
014f7e: a726                MOV @#13h,T3
014f80: 3477                NEG T3,T3
014f82: 3c12                MOV #1,AC2
014f84: 5cad                SFTS AC2,T3,AC2
014f86: 4442                SFTS AC2,#-1
014f88: 2432                ADD AC3,AC2
014f8a: 3477                NEG T3,T3
014f8c: 5cad                SFTS AC2,T3,AC2
014f8e: 3c13                MOV #1,AC3
014f90: 2e23                MAX AC2,AC3
014f92: eb6338              MOV AC3,dbl(*AR3+)
014f95: a728                MOV @#14h,T3
014f97: 3477                NEG T3,T3
014f99: 3c11                MOV #1,AC1
014f9b: 5c5d                SFTS AC1,T3,AC1
014f9d: 4441                SFTS AC1,#-1
014f9f: 2401                ADD AC0,AC1
014fa1: 3477                NEG T3,T3
014fa3: 5c5d                SFTS AC1,T3,AC1
014fa5: 2413                ADD AC1,AC3
014fa7: eb2338              MOV AC3,dbl(*AR1+)
014faa: 4692                BCLR ST1_SATD
014fac:               loop_W:
014fac: a600             MOV @#00h,T2
014fae: a702             MOV @#01h,T3
014fb0: ed06df           MOV dbl(@#03h),XAR5
014fb3: ed0aef           MOV dbl(@#05h),XAR6
014fb6: ed0eff           MOV dbl(@#07h),XAR7
014fb9: 4e0b             AADD #11,SP
014fbb: 4662             BCLR ST1_FRCT
014fbd: 46f5             BSET ST2_ARMS
014fbf: 4692             BCLR ST1_SATD
014fc1: 4804             RET
014fc3:               _nr_wiener_opt1:
014fc3: 4efe             AADD #-2,SP
014fc5: c602             MOV T2,@#01h
014fc7: f40401ff_98      AND #511,mmap(@ST0_55)
014fcc: f5064100_98      OR #16640,mmap(@ST1_55)
014fd1: f406f9df_98      AND #63967,mmap(@ST1_55)
014fd6: f4967a00_98      AND #31232,mmap(@ST2_55)
014fdb: f408ffdd_98      AND #65501,mmap(@ST3_55)
014fe0: 3c03             MOV #0,AC3
014fe2: 2654             SUB T1,T0
014fe4: 4214             SUB #1,T0
014fe6: 524e             MOV T0,BRC0
014fe8: 0e0058           RPTB loop_W1-2
014feb: 4693                BSET ST1_SATD
014fed: ed0308              MOV dbl(*AR0+),AC0
014ff0: 6280                BCC L6,AC0 == #0
014ff2: 100800              EXP AC0,T0
014ff5: 4a04                B L7
014ff7:               L6:
014ff7: 76001f48            MOV #31,T0
014ffb:               L7:
014ffb: ed2318              MOV dbl(*AR1+),AC1
014ffe: 6281                BCC L8,AC1 == #0
015000: 101810              EXP AC1,T1
015003: 4a04                B L9
015005:               L8:
015005: 76001f58            MOV #31,T1
015009:               L9:
015009: 2246                MOV T0,T2
01500b: 2656                SUB T1,T2
01500d: 4214                SUB #1,T0
01500f: 5c01                SFTS AC0,T0,AC0
015011: 7c001055            SUB #16,T1,T1
015015: 5c55                SFTS AC1,T1,AC1
015017: 3c12                MOV #1,AC2
015019: 2e12                MAX AC1,AC2
01501b: c200                MOV AC2,@#00h
01501d: 904b                MOV XSP,XAR3
01501f: 4c0f                RPT #15
015021: de6103                 SUBC *AR3,AC0,AC0
015024: c061                MOV AC0,*AR3
015026: df6105              MOV uns(*AR3),AC0
015029: 3c11                MOV #1,AC1
01502b: 5c59                SFTS AC1,T2,AC1
01502d: 4441                SFTS AC1,#-1
01502f: 2410                ADD AC1,AC0
015031: 3466                NEG T2,T2
015033: 5c09                SFTS AC0,T2,AC0
015035: 2206                MOV AC0,T2
015037: 2260                MOV T2,AC0
015039: 9620                XCC AC0 < #0
01503b: 767fff68            MOV #32767,T2
01503f: c643                MOV T2,*AR2+
015041: 2463                ADD T2,AC3
015043: 4692                BCLR ST1_SATD
015045:               loop_W1:
015045: 2230             MOV AC3,AC0
015047: a602             MOV @#01h,T2
015049: 4e02             AADD #2,SP
01504b: 46f5             BSET ST2_ARMS
01504d: 4692             BCLR ST1_SATD
01504f: 4804             RET
015051:               _nr_wiener_opt2:
015051: 4efe             AADD #-2,SP
015053: c602             MOV T2,@#01h
015055: f40401ff_98      AND #511,mmap(@ST0_55)
01505a: f5064100_98      OR #16640,mmap(@ST1_55)
01505f: f406f9df_98      AND #63967,mmap(@ST1_55)
015064: f4967a00_98      AND #31232,mmap(@ST2_55)
015069: f408ffdd_98      AND #65501,mmap(@ST3_55)
01506e: 2654             SUB T1,T0
015070: 4214             SUB #1,T0
015072: 2246             MOV T0,T2
015074: 524e             MOV T0,BRC0
015076: 904c             MOV XSP,XAR4
015078: 4019             ADD #1,AR1
01507a: 3c34             MOV #3,T0
01507c: 3c02             MOV #0,AC2
01507e: 0e0024           RPTB loop1_W2-2
015081: 4693                BSET ST1_SATD
015083: 86001000            MPYM *AR0,*AR0+,AC0
015087: 4450                SFTS AC0,#1
015089: 4692                BCLR ST1_SATD
01508b: bc00                MOV HI(AC0),@#00h
01508d: 8680a004            MPYM *AR4,uns(*AR1-),AC0
015091: 4693                BSET ST1_SATD
015093: 7d800010            AND #32768,AC0,AC1
015097: 105731              SFTL AC1,#-15,AC1
01509a: 8680b040            MACM *AR4,*(AR1+AR0),AC0 >> #16,AC0
01509e: 4450                SFTS AC0,#1
0150a0: 2a10                OR AC1,AC0
0150a2: eb4308              MOV AC0,dbl(*AR2+)
0150a5: 2e02                MAX AC0,AC2
0150a7:               loop1_W2:
0150a7: 2220             MOV AC2,AC0
0150a9: 266a             SUB T2,AR2
0150ab: 266a             SUB T2,AR2
0150ad: 422a             SUB #2,AR2
0150af: 6280             BCC L10,AC0 == #0
0150b1: 100810           EXP AC0,T1
0150b4: 4a04             B L11
0150b6:               L10:
0150b6: 76001f58         MOV #31,T1
0150ba:               L11:
0150ba: 76001048         MOV #16,T0
0150be: 2645             SUB T0,T1
0150c0: 526e             MOV T2,BRC0
0150c2: 0e0005           RPTB loop2_W2-2
0150c5: ed4328              MOV dbl(*AR2+),AC2
0150c8: 5ca5                SFTS AC2,T1,AC2
0150ca: c263                MOV AC2,*AR3+
0150cc:               loop2_W2:
0150cc: a602             MOV @#01h,T2
0150ce: 4e02             AADD #2,SP
0150d0: 46f5             BSET ST2_ARMS
0150d2: 4692             BCLR ST1_SATD
0150d4: 4804             RET
0150d6:               _nr_wiener_opt3:
0150d6: 4eff             AADD #-1,SP
0150d8: f40401ff_98      AND #511,mmap(@ST0_55)
0150dd: f5064000_98      OR #16384,mmap(@ST1_55)
0150e2: f406f9df_98      AND #63967,mmap(@ST1_55)
0150e7: 4693             BSET ST1_SATD
0150e9: f4967a00_98      AND #31232,mmap(@ST2_55)
0150ee: f408ffdd_98      AND #65501,mmap(@ST3_55)
0150f3: 2240             MOV T0,AC0
0150f5: 6420             BCC loop0,AC0 < #0
0150f7: 3c00             MOV #0,AC0
0150f9: 524c             MOV T0,CSR
0150fb: 4800             RPT CSR
0150fd: c003                MOV AC0,*AR0+
0150ff:               loop0:
0150ff: 525e             MOV T1,BRC0
015101: 0e0004           RPTB loop1_W3-2
015104: a101                MOV *AR0,AC1
015106: 2eb1                MAX AR3,AC1
015108: c103                MOV AC1,*AR0+
01510a:               loop1_W3:
01510a: 529e             MOV AR1,BRC0
01510c: 0e0004           RPTB loop2_W3-2
01510f: a101                MOV *AR0,AC1
015111: 2ec1                MAX AR4,AC1
015113: c103                MOV AC1,*AR0+
015115:               loop2_W3:
015115: 3c00             MOV #0,AC0
015117: a404             MOV @#02h,T0
015119: 52ae             MOV AR2,BRC0
01511b: 0e000c           RPTB loop3_W3-2
01511e: a101                MOV *AR0,AC1
015120: 2e41                MAX T0,AC1
015122: 100510              SFTS AC0,#16,AC0
015125: 105510              SFTS AC1,#16,AC1
015128: 2410                ADD AC1,AC0
01512a: bd03                MOV HI(AC1),*AR0+
01512c:               loop3_W3:
01512c: 4e01             AADD #1,SP
01512e: 46f5             BSET ST2_ARMS
015130: 4692             BCLR ST1_SATD
015132: 4804             RET
015134:               _nr_noise_upd_opt:
015134: 4ef0             AADD #-16,SP
015136: eb0ad5           MOV XAR5,dbl(@#05h)
015139: eb0ee5           MOV XAR6,dbl(@#07h)
01513c: eb12f5           MOV XAR7,dbl(@#09h)
01513f: c616             MOV T2,@#0bh
015141: c718             MOV T3,@#0ch
015143: f40401ff_98      AND #511,mmap(@ST0_55)
015148: f5064140_98      OR #16704,mmap(@ST1_55)
01514d: f406f9df_98      AND #63967,mmap(@ST1_55)
015152: f4967a00_98      AND #31232,mmap(@ST2_55)
015157: f408ffdd_98      AND #65501,mmap(@ST3_55)
01515c: 2654             SUB T1,T0
01515e: 2247             MOV T0,T3
015160: 4214             SUB #1,T0
015162: 524e             MOV T0,BRC0
015164: 3c06             MOV #0,T2
015166: 2656             SUB T1,T2
015168: 22c4             MOV AR4,T0
01516a: a522             MOV @#11h,T1
01516c: 904c             MOV XSP,XAR4
01516e: 404c             ADD #4,AR4
015170: 904f             MOV XSP,XAR7
015172: 402f             ADD #2,AR7
015174: 904d             MOV XSP,XAR5
015176: 7b0012dd         ADD #18,AR5,AR5
01517a: 904e             MOV XSP,XAR6
01517c: 40de             ADD #13,AR6
01517e: 3c03             MOV #0,AC3
015180: 0e0066           RPTB loop1_NU-2
015183: ed0308              MOV dbl(*AR0+),AC0
015186: 5c01                SFTS AC0,T0,AC0
015188: bc02                MOV HI(AC0),@#01h
01518a: c004                MOV AC0,@#02h
01518c: ed2318              MOV dbl(*AR1+),AC1
01518f: 5c55                SFTS AC1,T1,AC1
015191: bd06                MOV HI(AC1),@#03h
015193: c108                MOV AC1,@#04h
015195: 86a22104            MPYM *AR5,uns(*AR4-),AC1
015199: 86a21540            MACM *AR5,*AR4+,AC1 >> #16,AC1
01519d: 2601                SUB AC0,AC1
01519f: 042118              BCC L12,AC1 < #0
0151a2: a141                MOV *AR2,AC1
0151a4: a226                MOV @#13h,AC2
0151a6: 2621                SUB AC2,AC1
0151a8: 6551                BCC L14,AC1 >= #0
0151aa: a141                MOV *AR2,AC1
0151ac: 4011                ADD #1,AC1
0151ae: c143                MOV AC1,*AR2+
0151b0: a228                MOV @#14h,AC2
0151b2: 4a0c                B L13
0151b4:               L14:
0151b4: a22a                MOV @#15h,AC2
0151b6: a143                MOV *AR2+,AC1
0151b8: 4a06                B L13
0151ba:               L12:
0151ba: 3c01                MOV #0,AC1
0151bc: c143                MOV AC1,*AR2+
0151be: a22a                MOV @#15h,AC2
0151c0:               L13:
0151c0: a128                MOV @#14h,AC1
0151c2: 2621                SUB AC2,AC1
0151c4: c11a                MOV AC1,@#0dh
0151c6: c21c                MOV AC2,@#0eh
0151c8: 86c22004            MPYM *AR6,uns(*AR4-),AC0
0151cc: 86c61040            MACM *AR6+,*AR4+,AC0 >> #16,AC0
0151d0: 86c3a104            MPYM *AR6,uns(*AR7-),AC1
0151d4: 86cb9540            MACM *AR6-,*AR7+,AC1 >> #16,AC1
0151d8: 2401                ADD AC0,AC1
0151da: eb6318              MOV AC1,dbl(*AR3+)
0151dd: 20                  NOP
0151de: 20                  NOP
0151df: 20                  NOP
0151e0: 20                  NOP
0151e1: 9606                XCC T2 == #0
0151e3: 2213                MOV AC1,AC3
0151e5: 9646                XCC T2 > #0
0151e7: 2e13                MAX AC1,AC3
0151e9: 4016                ADD #1,T2
0151eb:               loop1_NU:
0151eb: 6283             BCC L15,AC3 == #0
0151ed: 103800           EXP AC3,T0
0151f0: 4a04             B L16
0151f2:               L15:
0151f2: 76001f48         MOV #31,T0
0151f6:               L16:
0151f6: a52c             MOV @#16h,T1
0151f8: 2645             SUB T0,T1
0151fa: 2256             MOV T1,T2
0151fc: 76ffe148         MOV #-31,T0
015200: 2645             SUB T0,T1
015202: 9635             XCC T1 <= #0
015204: 76ffe168         MOV #-31,T2
015208: ed2eff           MOV dbl(@#17h),XAR7
01520b: c6e1             MOV T2,*AR7
01520d: a52c             MOV @#16h,T1
01520f: 2665             SUB T2,T1
015211: 2678             SUB T3,AR0
015213: 2678             SUB T3,AR0
015215: 267b             SUB T3,AR3
015217: 267b             SUB T3,AR3
015219: 4217             SUB #1,T3
01521b: 527e             MOV T3,BRC0
01521d: 0e0005           RPTB loop2_NU-3
015220: ed6308              MOV dbl(*AR3+),AC0
015223: 5c05                SFTS AC0,T1,AC0
015225: eb0308              MOV AC0,dbl(*AR0+)
015228:               loop2_NU:
015228: ed0adf           MOV dbl(@#05h),XAR5
01522b: ed0eef           MOV dbl(@#07h),XAR6
01522e: ed12ff           MOV dbl(@#09h),XAR7
015231: a616             MOV @#0bh,T2
015233: a718             MOV @#0ch,T3
015235: 4e10             AADD #16,SP
015237: 4662             BCLR ST1_FRCT
015239: 46f5             BSET ST2_ARMS
01523b: 4804             RET
01523d:               _GPT_open:
01523d: 4ef7             AADD #-9,SP
01523f: eb0895           MOV XAR1,dbl(@#04h)
015242: eb0485           MOV XAR0,dbl(@#02h)
015245: c400             MOV T0,@#00h
015247: ed08bf           MOV dbl(@#04h),XAR3
01524a: e66100           MOV #0,*AR3
01524d: 3c00             MOV #0,AC0
01524f: eb0c08           MOV AC0,dbl(@#06h)
015252: ed04bf           MOV dbl(@#02h),XAR3
015255: 90b0_3d01        MOV XAR3,AC0 || MOV #0,AC1
015259: 121c04           CMPU AC1 != AC0, TC1
01525c: 6664             BCC $C$L1,TC1
01525e: ed08bf           MOV dbl(@#04h),XAR3
015261: e661fb           MOV #-5,*AR3
015264: ed0c8f           MOV dbl(@#06h),XAR0
015267: 060095           B $C$L10
01526a:               $C$L1:
01526a: a900             MOV @#00h,AR1
01526c: 6429             BCC $C$L2,AR1 < #0
01526e: 3c3a             MOV #3,AR2
015270: 1294a0_21        CMP AR1 < AR2, TC1 || NOP
015274: 6664             BCC $C$L3,TC1
015276:               $C$L2:
015276: ed08bf           MOV dbl(@#04h),XAR3
015279: e661fa           MOV #-6,*AR3
01527c: ed0c8f           MOV dbl(@#06h),XAR0
01527f: 06007d           B $C$L10
015282:               $C$L3:
015282: eb0cb5           MOV XAR3,dbl(@#06h)
015285: fb101c00         MOV #7168,@#08h
015289: 060057           B $C$L8
01528c:               $C$L4:
01528c: ed0cbf           MOV dbl(@#06h),XAR3
01528f: e66100           MOV #0,*AR3
015292: ed0cbf           MOV dbl(@#06h),XAR3
015295: fb751810         MOV #6160,*(AR3-T1)
015299: ab10             MOV @#08h,AR3
01529b: a975_99          MOV port(*(AR3-T1)),AR1
01529e: ec1492           BCLR @#0ah,AR1
0152a1: c975_9a          MOV AR1,port(*(AR3-T1))
0152a4: 060055           B $C$L9
0152a7:               $C$L5:
0152a7: ed0cbf           MOV dbl(@#06h),XAR3
0152aa: e66101           MOV #1,*AR3
0152ad: ed0cbf           MOV dbl(@#06h),XAR3
0152b0: fb751850         MOV #6224,*(AR3-T1)
0152b4: ab10             MOV @#08h,AR3
0152b6: a975_99          MOV port(*(AR3-T1)),AR1
0152b9: ec1892           BCLR @#0ch,AR1
0152bc: c975_9a          MOV AR1,port(*(AR3-T1))
0152bf: 4a3b             B $C$L9
0152c1:               $C$L6:
0152c1: ed0cbf           MOV dbl(@#06h),XAR3
0152c4: e66102           MOV #2,*AR3
0152c7: ed0cbf           MOV dbl(@#06h),XAR3
0152ca: fb751890         MOV #6288,*(AR3-T1)
0152ce: ab10             MOV @#08h,AR3
0152d0: a975_99          MOV port(*(AR3-T1)),AR1
0152d3: ec1a92           BCLR @#0dh,AR1
0152d6: c975_9a          MOV AR1,port(*(AR3-T1))
0152d9: 4a21             B $C$L9
0152db:               $C$L7:
0152db: ed08bf           MOV dbl(@#04h),XAR3
0152de: e661fa           MOV #-6,*AR3
0152e1: 4a19             B $C$L9
0152e3:               $C$L8:
0152e3: a900             MOV @#00h,AR1
0152e5: 0409a4           BCC $C$L4,AR1 == #0
0152e8: 3c1a             MOV #1,AR2
0152ea: 1290a0_21        CMP AR1 == AR2, TC1 || NOP
0152ee: 0464b6           BCC $C$L5,TC1
0152f1: 3c2a             MOV #2,AR2
0152f3: 1290a0_21        CMP AR1 == AR2, TC1 || NOP
0152f7: 0464c7           BCC $C$L6,TC1
0152fa: 4a5f             B $C$L7
0152fc:               $C$L9:
0152fc: ed0c8f           MOV dbl(@#06h),XAR0
0152ff:               $C$L10:
0152ff: 4e09             AADD #9,SP
015301: 4804             RET
015303:               _GPT_reset:
015303: 4efb             AADD #-5,SP
015305: eb0085           MOV XAR0,dbl(@#00h)
015308: ed00bf           MOV dbl(@#00h),XAR3
01530b: 90b0_3d01        MOV XAR3,AC0 || MOV #0,AC1
01530f: 121c04           CMPU AC1 != AC0, TC1
015312: 62e4             BCC $C$L11,TC1
015314: 3e54             MOV #-5,T0
015316: 060062           B $C$L18
015319:               $C$L11:
015319: a975             MOV *(AR3-T1),AR1
01531b: c904             MOV AR1,@#02h
01531d: 229b             MOV AR1,AR3
01531f: e66100_9a        MOV #0,port(*AR3)
015323: ab04             MOV @#02h,AR3
015325: e67900_9a        MOV #0,port(*+AR3)
015329: ab04             MOV @#02h,AR3
01532b: e67b00_9a        MOV #0,port(*-AR3)
01532f: ab04             MOV @#02h,AR3
015331: e67500_9a        MOV #0,port(*(AR3-T1))
015335: ab04             MOV @#02h,AR3
015337: e67700_9a        MOV #0,port(*AR3(T1))
01533b: fb061c14         MOV #7188,@#03h
01533f: 4a1c             B $C$L16
015341:               $C$L12:
015341: ab06             MOV @#03h,AR3
015343: e66101_9a        MOV #1,port(*AR3)
015347: 4a30             B $C$L17
015349:               $C$L13:
015349: ab06             MOV @#03h,AR3
01534b: e66102_9a        MOV #2,port(*AR3)
01534f: 4a28             B $C$L17
015351:               $C$L14:
015351: ab06             MOV @#03h,AR3
015353: e66104_9a        MOV #4,port(*AR3)
015357: 4a20             B $C$L17
015359:               $C$L15:
015359: 3e64             MOV #-6,T0
01535b: 4a1e             B $C$L18
01535d:               $C$L16:
01535d: ed00bf           MOV dbl(@#00h),XAR3
015360: a961             MOV *AR3,AR1
015362: 0409dc           BCC $C$L12,AR1 == #0
015365: 3c1a             MOV #1,AR2
015367: 1290a0_21        CMP AR1 == AR2, TC1 || NOP
01536b: 0464db           BCC $C$L13,TC1
01536e: 3c2a             MOV #2,AR2
015370: 1290a0_21        CMP AR1 == AR2, TC1 || NOP
015374: 0464da           BCC $C$L14,TC1
015377: 4a60             B $C$L15
015379:               $C$L17:
015379: 3c04             MOV #0,T0
01537b:               $C$L18:
01537b: 4e05             AADD #5,SP
01537d: 4804             RET
01537f:               _GPT_close:
01537f: 4efd             AADD #-3,SP
015381: eb0085           MOV XAR0,dbl(@#00h)
015384: ed00bf           MOV dbl(@#00h),XAR3
015387: 90b0_3d01        MOV XAR3,AC0 || MOV #0,AC1
01538b: 121c04           CMPU AC1 != AC0, TC1
01538e: 62e4             BCC $C$L19,TC1
015390: 3e54             MOV #-5,T0
015392: 06005d           B $C$L25
015395:               $C$L19:
015395: fb041c00         MOV #7168,@#02h
015399: 4a30             B $C$L23
01539b:               $C$L20:
01539b: ab04             MOV @#02h,AR3
01539d: a975_99          MOV port(*(AR3-T1)),AR1
0153a0: ec1492           BCLR @#0ah,AR1
0153a3: ec1490           BSET @#0ah,AR1
0153a6: c975_9a          MOV AR1,port(*(AR3-T1))
0153a9: 4a3a             B $C$L24
0153ab:               $C$L21:
0153ab: ab04             MOV @#02h,AR3
0153ad: a975_99          MOV port(*(AR3-T1)),AR1
0153b0: ec1892           BCLR @#0ch,AR1
0153b3: ec1890           BSET @#0ch,AR1
0153b6: c975_9a          MOV AR1,port(*(AR3-T1))
0153b9: 4a2a             B $C$L24
0153bb:               $C$L22:
0153bb: ab04             MOV @#02h,AR3
0153bd: a975_99          MOV port(*(AR3-T1)),AR1
0153c0: ec1a92           BCLR @#0dh,AR1
0153c3: ec1a90           BSET @#0dh,AR1
0153c6: c975_9a          MOV AR1,port(*(AR3-T1))
0153c9: 4a1a             B $C$L24
0153cb:               $C$L23:
0153cb: ed00bf           MOV dbl(@#00h),XAR3
0153ce: a961             MOV *AR3,AR1
0153d0: 0409c8           BCC $C$L20,AR1 == #0
0153d3: 3c1a             MOV #1,AR2
0153d5: 1290a0_21        CMP AR1 == AR2, TC1 || NOP
0153d9: 0464cf           BCC $C$L21,TC1
0153dc: 3c2a             MOV #2,AR2
0153de: 1290a0_21        CMP AR1 == AR2, TC1 || NOP
0153e2: 0464d6           BCC $C$L22,TC1
0153e5:               $C$L24:
0153e5: ed00bf           MOV dbl(@#00h),XAR3
0153e8: e67500           MOV #0,*(AR3-T1)
0153eb: 3c00             MOV #0,AC0
0153ed: eb0008           MOV AC0,dbl(@#00h)
0153f0: 3c04             MOV #0,T0
0153f2:               $C$L25:
0153f2: 4e03             AADD #3,SP
0153f4: 4804             RET
0153f6:               _GPT_start:
0153f6: 4efd             AADD #-3,SP
0153f8: eb0085           MOV XAR0,dbl(@#00h)
0153fb: ed00bf           MOV dbl(@#00h),XAR3
0153fe: 90b0_3d01        MOV XAR3,AC0 || MOV #0,AC1
015402: 121c04           CMPU AC1 != AC0, TC1
015405: 6264             BCC $C$L26,TC1
015407: 3e54             MOV #-5,T0
015409: 4a14             B $C$L27
01540b:               $C$L26:
01540b: a975             MOV *(AR3-T1),AR1
01540d: c904             MOV AR1,@#02h
01540f: 229b             MOV AR1,AR3
015411: a961_99          MOV port(*AR3),AR1
015414: ec0092           BCLR @#00h,AR1
015417: ec0090           BSET @#00h,AR1
01541a: c961_9a          MOV AR1,port(*AR3)
01541d: 3c04             MOV #0,T0
01541f:               $C$L27:
01541f: 4e03             AADD #3,SP
015421: 4804             RET
015423:               _GPT_stop:
015423: 4efd             AADD #-3,SP
015425: eb0085           MOV XAR0,dbl(@#00h)
015428: ed00bf           MOV dbl(@#00h),XAR3
01542b: 90b0_3d01        MOV XAR3,AC0 || MOV #0,AC1
01542f: 121c04           CMPU AC1 != AC0, TC1
015432: 6264             BCC $C$L28,TC1
015434: 3e54             MOV #-5,T0
015436: 4a11             B $C$L29
015438:               $C$L28:
015438: a975             MOV *(AR3-T1),AR1
01543a: c904             MOV AR1,@#02h
01543c: 229b             MOV AR1,AR3
01543e: a961_99          MOV port(*AR3),AR1
015441: ec0092           BCLR @#00h,AR1
015444: c961_9a          MOV AR1,port(*AR3)
015447: 3c04             MOV #0,T0
015449:               $C$L29:
015449: 4e03             AADD #3,SP
01544b: 4804             RET
01544d:               _GPT_getCnt:
01544d: 4ef9             AADD #-7,SP
01544f: eb0495           MOV XAR1,dbl(@#02h)
015452: eb0085           MOV XAR0,dbl(@#00h)
015455: ed00bf           MOV dbl(@#00h),XAR3
015458: 90b0_3d01        MOV XAR3,AC0 || MOV #0,AC1
01545c: 121c04           CMPU AC1 != AC0, TC1
01545f: 6264             BCC $C$L30,TC1
015461: 3e54             MOV #-5,T0
015463: 4a1f             B $C$L31
015465:               $C$L30:
015465: a975             MOV *(AR3-T1),AR1
015467: c90c             MOV AR1,@#06h
015469: 229b             MOV AR1,AR3
01546b: a979_99          MOV port(*+AR3),AR1
01546e: c908             MOV AR1,@#04h
015470: ab0c             MOV @#06h,AR3
015472: a97b_99          MOV port(*-AR3),AR1
015475: c90a             MOV AR1,@#05h
015477: ed04bf           MOV dbl(@#02h),XAR3
01547a: 5290             MOV AR1,HI(AC0)
01547c: da0800           OR @#04h,AC0,AC0
01547f: eb6108           MOV AC0,dbl(*AR3)
015482: 3c04             MOV #0,T0
015484:               $C$L31:
015484: 4e07             AADD #7,SP
015486: 4804             RET
015488:               _GPT_config:
015488: 4efb             AADD #-5,SP
01548a: eb0495           MOV XAR1,dbl(@#02h)
01548d: eb0085           MOV XAR0,dbl(@#00h)
015490: ed00bf           MOV dbl(@#00h),XAR3
015493: 90b0_3d01        MOV XAR3,AC0 || MOV #0,AC1
015497: 121c04           CMPU AC1 != AC0, TC1
01549a: 62e4             BCC $C$L32,TC1
01549c: 3e54             MOV #-5,T0
01549e: 06008a           B $C$L34
0154a1:               $C$L32:
0154a1: ed04bf           MOV dbl(@#02h),XAR3
0154a4: 90b0             MOV XAR3,AC0
0154a6: 121c04           CMPU AC1 != AC0, TC1
0154a9: 62e4             BCC $C$L33,TC1
0154ab: 3e64             MOV #-6,T0
0154ad: 06007b           B $C$L34
0154b0:               $C$L33:
0154b0: ed00bf           MOV dbl(@#00h),XAR3
0154b3: a975             MOV *(AR3-T1),AR1
0154b5: c908             MOV AR1,@#04h
0154b7: 229b             MOV AR1,AR3
0154b9: a961_99          MOV port(*AR3),AR1
0154bc: ec1e92           BCLR @#0fh,AR1
0154bf: c961_9a          MOV AR1,port(*AR3)
0154c2: ed04bf           MOV dbl(@#02h),XAR3
0154c5: f9730208         MOV *(AR3+T1) << #2,AC0
0154c9: ab08             MOV @#04h,AR3
0154cb: 183c90           AND #60,AC0,AR1
0154ce: aa61_99          MOV port(*AR3),AR2
0154d1: 7dffc3aa         AND #65475,AR2,AR2
0154d5: 2aa9             OR AR2,AR1
0154d7: c961_9a          MOV AR1,port(*AR3)
0154da: ed04bf           MOV dbl(@#02h),XAR3
0154dd: a961             MOV *AR3,AR1
0154df: ab08             MOV @#04h,AR3
0154e1: 5090             SFTL AR1,#1
0154e3: 180299           AND #2,AR1,AR1
0154e6: aa61_99          MOV port(*AR3),AR2
0154e9: ec02a2           BCLR @#01h,AR2
0154ec: 2aa9             OR AR2,AR1
0154ee: c961_9a          MOV AR1,port(*AR3)
0154f1: ed04bf           MOV dbl(@#02h),XAR3
0154f4: f9750f08         MOV *(AR3-T1) << #15,AC0
0154f8: ab08             MOV @#04h,AR3
0154fa: 7d800090         AND #32768,AC0,AR1
0154fe: aa61_99          MOV port(*AR3),AR2
015501: ec1ea2           BCLR @#0fh,AR2
015504: 2aa9             OR AR2,AR1
015506: c961_9a          MOV AR1,port(*AR3)
015509: ab08             MOV @#04h,AR3
01550b: e67900_9a        MOV #0,port(*+AR3)
01550f: ab08             MOV @#04h,AR3
015511: e67b00_9a        MOV #0,port(*-AR3)
015515: ed04bf           MOV dbl(@#02h),XAR3
015518: a977             MOV *AR3(T1),AR1
01551a: ab08             MOV @#04h,AR3
01551c: c975_9a          MOV AR1,port(*(AR3-T1))
01551f: ed04bf           MOV dbl(@#02h),XAR3
015522: a979             MOV *+AR3,AR1
015524: ab08             MOV @#04h,AR3
015526: c977_9a          MOV AR1,port(*AR3(T1))
015529: 3c04             MOV #0,T0
01552b:               $C$L34:
01552b: 4e05             AADD #5,SP
01552d: 4804             RET
01552f:               _hlc_reset:
01552f: 3c00             MOV #0,AC0
015531: e61d00           MOV #0,*(AR0+AR0B)
015534: fb1f7fff         MOV #32767,*(AR0-AR0B)
015538: e60d000008       MOV #0,*AR0(#0008h)
01553d: e60d000009       MOV #0,*AR0(#0009h)
015542: eb1908           MOV AC0,dbl(*+AR0)
015545: eb1508           MOV AC0,dbl(*(AR0-T1))
015548: 4804             RET
01554a:               _hlc_gain_convert:
01554a: 3eca             MOV #-12,AR2
01554c: 12a440           CMP AR2 < T0, TC1
01554f: 3c0c             MOV #0,AR4
015551: 6564             BCC $C$DW$L$_hlc_gain_convert$2$E,TC1
015553:               $C$L1:
015553:               $C$DW$L$_hlc_gain_convert$2$B:
015553: 421c             SUB #1,AR4
015555: 40c4             ADD #12,T0
015557: 12a840           CMP AR2 >= T0, TC1
01555a: 0464f6           BCC $C$L1,TC1
01555d:               $C$DW$L$_hlc_gain_convert$2$E:
01555d:               $C$L2:
01555d: 9624             XCC T0 < #0
01555f: ec31be0183fb     AMAR *(#0183fbh),XAR3
015565: b469             AMAR *(AR3-AR0)
015567: 9654             XCC T0 >= #0
015569: ec31be0183fb     AMAR *(#0183fbh),XAR3
01556f: 806004           MOV *AR3,*AR0
015572: cc21             MOV AR4,*AR1
015574: 4804             RET
015576:               _hlc_fsm:
015576: 5066             PSH T2
015578: 5076             PSH T3
01557a: 50d5             PSHBOTH XAR5
01557c: 50e5             PSHBOTH XAR6
01557e: 50f5             PSHBOTH XAR7
015580: 4efc             AADD #-4,SP
015582: ec01de           AMAR *AR0,XAR5
015585: ec218e           AMAR *AR1,XAR0
015588: ec00be           AMAR @#00h,XAR3
01558b: eca1ae           AMAR *AR5,XAR2
01558e: eca1fe           AMAR *AR5,XAR7
015591: a9a1             MOV *AR5,AR1
015593: 8c04a91404       MOV AR1,@#02h || AADD #4,AR2
015598: a5ad000e         MOV *AR5(#000eh),T1
01559c: a7ad0009         MOV *AR5(#0009h),T3
0155a0: 8abdf61c02       MOV *(AR5+AR0B),T2 || AADD #2,AR7
0155a5: ece19e_234e      AMAR *AR7,XAR1 || MOV T0,AR6
0155aa: 6c01675b         CALL _hlc_power_calc
0155ae: ed0008           MOV dbl(@#00h),AC0
0155b1: 6c0164f5         CALL _utlLin2dBPower
0155b5: 2240             MOV T0,AC0
0155b7: 10053d           SFTS AC0,#-3,AC0
0155ba: a004_230a        MOV @#02h,AC0 || MOV AC0,AR2
0155be: 76007890         BFXTR #120,AC0,AR1
0155c2: 3c05             MOV #0,T1
0155c4: 6d0900c8         BCC $C$L10,AR1 == #0
0155c8: 3c1b             MOV #1,AR3
0155ca: 1290b4           CMPU AR1 == AR3, TC1
0155cd: 046456           BCC $C$L5,TC1
0155d0: 3c2b             MOV #2,AR3
0155d2: 1290b4           CMPU AR1 == AR3, TC1
0155d5: 6d7400d0         BCC $C$L11,!TC1
0155d9: a9ad000c         MOV *AR5(#000ch),AR1
0155dd: 1294a0           CMP AR1 < AR2, TC1
0155e0: 04642f           BCC $C$L3,TC1
0155e3: 044739           BCC $C$L4,T3 > #0
0155e6: 3e19             MOV #-1,AR1
0155e8: ece18e_136490    AMAR *AR7,XAR0 || CMP T2 < AR1, TC1
0155ee: 3c06_9ef4        XCCPART !TC1 || MOV #0,T2
0155f2: 140584           AADD #5,AR0
0155f5: 4016_9ee4        XCCPART TC1 || ADD #1,T2
0155f9: ece19e           AMAR *AR7,XAR1
0155fc: 140694_2364      AADD #6,AR1 || MOV T2,T0
015601: 08ff46           CALL _hlc_gain_convert
015604: 045618           BCC $C$L4,T2 >= #0
015607: a0ed000b         MOV *AR7(#000bh),AC0
01560b: 4440             SFTS AC0,#-1
01560d: 060099_2307      B $C$L12 || MOV AC0,T3
015612:               $C$L3:
015612: a9a1             MOV *AR5,AR1
015614: 7dff8f09         AND #65423,AR1,AC0
015618: ec0600           BSET @#03h,AC0
01561b: c0a1_3d07        MOV AC0,*AR5 || MOV #0,T3
01561f:               $C$L4:
01561f: 6d260088         BCC $C$L12,T2 < #0
015623: 06005b           B $C$L9
015626:               $C$L5:
015626: a9ed000a         MOV *AR7(#000ah),AR1
01562a: 12a490           CMP AR2 < AR1, TC1
01562d: 04643b           BCC $C$L7,TC1
015630: 04474b           BCC $C$L8,T3 > #0
015633: 26a9             SUB AR2,AR1
015635: 129860           CMP AR1 >= T2, TC1
015638: 046422           BCC $C$L6,TC1
01563b: 76ffa198         MOV #-95,AR1
01563f: ece18e_139460    AMAR *AR7,XAR0 || CMP AR1 < T2, TC1
015645: 76ffa068_9ef4    XCCPART !TC1 || MOV #-96,T2
01564b: 140584           AADD #5,AR0
01564e: 4216_9ee4        XCCPART TC1 || SUB #1,T2
015652: ece19e           AMAR *AR7,XAR1
015655: 140694_2364      AADD #6,AR1 || MOV T2,T0
01565a: 08feed           CALL _hlc_gain_convert
01565d:               $C$L6:
01565d: a0ed0008         MOV *AR7(#0008h),AC0
015661: 4440             SFTS AC0,#-1
015663: 2207             MOV AC0,T3
015665: 045619           BCC $C$L9,T2 >= #0
015668: 060040           B $C$L12
01566b:               $C$L7:
01566b: a9a1             MOV *AR5,AR1
01566d: 7dff8709         AND #65415,AR1,AC0
015671: ec0800           BSET @#04h,AC0
015674: c0a1             MOV AC0,*AR5
015676: a0ed000b         MOV *AR7(#000bh),AC0
01567a: 4440             SFTS AC0,#-1
01567c: 2207             MOV AC0,T3
01567e:               $C$L8:
01567e: 04262a           BCC $C$L12,T2 < #0
015681:               $C$L9:
015681: f4a1ff87         AND #65415,*AR5
015685: fbfb7fff         MOV #32767,*-AR7
015689: e6fd00           MOV #0,*(AR7+AR0B)
01568c: 4a1b_3d06        B $C$L12 || MOV #0,T2
015690:               $C$L10:
015690: a9ed000a         MOV *AR7(#000ah),AR1
015694: 1298a0           CMP AR1 >= AR2, TC1
015697: 046411           BCC $C$L12,TC1
01569a: a9a1             MOV *AR5,AR1
01569c: 7dff8f09         AND #65423,AR1,AC0
0156a0: ec0600           BSET @#03h,AC0
0156a3: c0a1             MOV AC0,*AR5
0156a5: 4a02_3d07        B $C$L12 || MOV #0,T3
0156a9:               $C$L11:
0156a9: 3c15             MOV #1,T1
0156ab:               $C$L12:
0156ab: c6f9_27e7        MOV T2,*+AR7 || SUB AR6,T3
0156af: c7ff_2354        MOV T3,*(AR7-AR0B) || MOV T1,T0
0156b3: 4e04             AADD #4,SP
0156b5: 50f4             POPBOTH XAR7
0156b7: 50e4             POPBOTH XAR6
0156b9: 50d4             POPBOTH XAR5
0156bb: 5072             POP T3
0156bd: 5062             POP T2
0156bf: 4804             RET
0156c1:               _hlc_apply_gain:
0156c1: 5066             PSH T2
0156c3: 5076             PSH T3
0156c5: 4eff             AADD #-1,SP
0156c7: 40f9             ADD #15,AR1
0156c9: 043424           BCC $C$DW$L$_hlc_apply_gain$3$E,T0 <= #0
0156cc: 7c0001a4         SUB #1,T0,AR2
0156d0: 52ae             MOV AR2,BRC0
0156d2: 7c001e79         SUB #30,AR1,T3
0156d6: 76001ea8         MOV #30,AR2
0156da: 7c001e69         SUB #30,AR1,T2
0156de: 4a8b_13a490      RPTBLOCAL #0x0156ee || CMP AR2 < AR1, TC1
0156e3:               $C$L13:
0156e3:               $C$DW$L$_hlc_apply_gain$3$B:
0156e3: d30105              MPYM *AR0,T1,AC0
0156e6: 5c0d_9ef4           XCCPART !TC1 || SFTS AC0,T3,AC0
0156ea: 5c09_9ee4           XCCPART TC1 || SFTS AC0,T2,AC0
0156ee: c003                MOV AC0,*AR0+
0156f0:               $C$DW$L$_hlc_apply_gain$3$E:
0156f0:               $C$L14:
0156f0: 4e01             AADD #1,SP
0156f2: 5072             POP T3
0156f4: 5062             POP T2
0156f6: 4804             RET
0156f8:               _hlcProcess:
0156f8: 5066             PSH T2
0156fa: 5076             PSH T3
0156fc: 50d5             PSHBOTH XAR5
0156fe: 50e5             PSHBOTH XAR6
015700: 50f5             PSHBOTH XAR7
015702: 4efe             AADD #-2,SP
015704: ec01ee           AMAR *AR0,XAR6
015707: ec21de           AMAR *AR1,XAR5
01570a: ecc1fe           AMAR *AR6,XAR7
01570d: 8ac1f01c02       MOV *AR6,AC0 || AADD #2,AR7
015712: ec0008           BTST @#00h,AC0,TC1
015715: a7cd000f         MOV *AR6(#000fh),T3
015719: 3c04_9ef4        XCCPART !TC1 || MOV #0,T0
01571d: 047449           BCC $C$L19,!TC1
015720: 76000690         BFXTR #6,AC0,AR1
015724: 5290             MOV AR1,HI(AC0)
015726: 1e2800           MPYK #40,AC0,AC0
015729: 2206             MOV AC0,T2
01572b: 043739           BCC $C$DW$L$_hlcProcess$8$E,T3 <= #0
01572e: 3c09             MOV #0,AR1
015730: c900             MOV AR1,@#00h
015732:               $C$L15:
015732:               $C$DW$L$_hlcProcess$4$B:
015732: ecc18e           AMAR *AR6,XAR0
015735: eca19e_2364      AMAR *AR5,XAR1 || MOV T2,T0
01573a: 08fe39           CALL _hlc_fsm
01573d: 6204             BCC $C$DW$L$_hlcProcess$6$B,T0 == #0
01573f:               $C$DW$L$_hlcProcess$4$E:
01573f: 4a26_3d14        B $C$L19 || MOV #1,T0
015743:               $C$DW$L$_hlcProcess$6$B:
015743:               $C$L16:
015743: a9f9             MOV *+AR7,AR1
015745: 6659             BCC $C$DW$L$_hlcProcess$8$B,AR1 >= #0
015747:               $C$DW$L$_hlcProcess$6$E:
015747:               $C$DW$L$_hlcProcess$7$B:
015747: a5fb             MOV *-AR7,T1
015749: a9fd             MOV *(AR7+AR0B),AR1
01574b: eca18e_2364      AMAR *AR5,XAR0 || MOV T2,T0
015750: 08ff6e           CALL _hlc_apply_gain
015753:               $C$DW$L$_hlcProcess$8$B:
015753:               $C$DW$L$_hlcProcess$7$E:
015753:               $C$L17:
015753: 2265             MOV T2,T1
015755: f7000001         ADD #1,@#00h
015759: d30005           MPYM @#00h,T1,AC0
01575c: 2209             MOV AC0,AR1
01575e: 129470           CMP AR1 < T3, TC1
015761: 1460d0           AADD T2,AR5
015764: 0464cb           BCC $C$L15,TC1
015767:               $C$DW$L$_hlcProcess$8$E:
015767:               $C$L18:
015767: 3c04             MOV #0,T0
015769:               $C$L19:
015769: 4e02             AADD #2,SP
01576b: 50f4             POPBOTH XAR7
01576d: 50e4             POPBOTH XAR6
01576f: 50d4             POPBOTH XAR5
015771: 5072             POP T3
015773: 5062             POP T2
015775: 4804             RET
015777:               _hlcControl:
015777: 4eff             AADD #-1,SP
015779: 9080             MOV XAR0,AC0
01577b: 6200             BCC $C$L20,AC0 == #0
01577d: 9090             MOV XAR1,AC0
01577f: 6210             BCC $C$L21,AC0 != #0
015781:               $C$L20:
015781: 3c14             MOV #1,T0
015783: 4a36             B $C$L27
015785:               $C$L21:
015785: aa21             MOV *AR1,AR2
015787: 040a12           BCC $C$L22,AR2 == #0
01578a: 3c1b             MOV #1,AR3
01578c: 12a0b0           CMP AR2 == AR3, TC1
01578f: 046412           BCC $C$L24,TC1
015792: 3c2b             MOV #2,AR3
015794: 12a0b0           CMP AR2 == AR3, TC1
015797: 046417           BCC $C$L25,TC1
01579a: 4a1d             B $C$L26
01579c:               $C$L22:
01579c: f401fffe         AND #65534,*AR0
0157a0:               $C$L23:
0157a0: 3c04             MOV #0,T0
0157a2: 4a17             B $C$L27
0157a4:               $C$L24:
0157a4: 08fd88           CALL _hlc_reset
0157a7: f401fffe         AND #65534,*AR0
0157ab: f5010001         OR #1,*AR0
0157af: 4a6f             B $C$L23
0157b1:               $C$L25:
0157b1: a933             MOV *(AR1+T1),AR1
0157b3: c90d000c         MOV AR1,*AR0(#000ch)
0157b7: 4a67             B $C$L23
0157b9:               $C$L26:
0157b9: 3c24             MOV #2,T0
0157bb:               $C$L27:
0157bb: 4e01             AADD #1,SP
0157bd: 4804             RET
0157bf:               _nr_wiener:
0157bf: 5066             PSH T2
0157c1: 5076             PSH T3
0157c3: 50d5             PSHBOTH XAR5
0157c5: 50e5             PSHBOTH XAR6
0157c7: 50f5             PSHBOTH XAR7
0157c9: 4eec             AADD #-20,SP
0157cb: 2256             MOV T1,T2
0157cd: 76008008         MOV #128,AC0
0157d1: 5c89             SFTS AC0,T2,AC2
0157d3: ec21ee_5d49      AMAR *AR1,XAR6 || SFTS AC0,T2,AC1
0157d8: 76800092         BFXTR #32768,AC2,AR1
0157dc: eb1cb5_2519      MOV XAR3,dbl(@#0eh) || ADD AC1,AR1
0157e1: 76c00022_239b    BFXTR #49152,AC2,AC2 || MOV AR1,AR3
0157e7: 7dfffe99         AND #65534,AR1,AR1
0157eb: ec0022_454b      BCLR @#00h,AC2 || SFTS AR3,#-1
0157f0: 4029_119301      ADD #2,AR1 || ADD AC1 << #1,AC2
0157f5: 7dfffc72         AND #65532,AC2,T3
0157f9: ec01de_411b      AMAR *AR0,XAR5 || ADD #1,AR3
0157fe: a5ad0019         MOV *AR5(#0019h),T1
015802: ec41fe_4147      AMAR *AR2,XAR7 || ADD #4,T3
015807: 8c18fb1090       MOV AR3,@#0ch || AADD AR1,AR7
01580c: a9ad0018         MOV *AR5(#0018h),AR1
015810: edadbf0010       MOV dbl(*AR5(#0010h)),XAR3
015815: c416_4129        MOV T0,@#0bh || ADD #2,AR1
015819: eb20b5_234b      MOV XAR3,dbl(@#10h) || MOV T0,AR3
01581e: 1470a0_235c      AADD T3,AR2 || MOV T1,AR4
015823: eb24a5_23b0      MOV XAR2,dbl(@#12h) || MOV AR3,AC0
015828: fb005000_2f90    MOV #20480,@#00h || MAX AR1,AC0
01582e: aa16_230b        MOV @#0bh,AR2 || MOV AC0,AR3
015832: 26ba             SUB AR3,AR2
015834: a4ad001c         MOV *AR5(#001ch),T0
015838: ca02_239a        MOV AR2,@#01h || MOV AR1,AR2
01583c: 26ba             SUB AR3,AR2
01583e: ca04_2fbc        MOV AR2,@#02h || MAX AR3,AR4
015842: 767fffa8_27cb    MOV #32767,AR2 || SUB AR4,AR3
015848: cb06_27c5        MOV AR3,@#03h || SUB AR4,T1
01584c: a022_98          MOV mmap(@AR1),AC0
01584f: edad8f000e       MOV dbl(*AR5(#000eh)),XAR0
015854: c508             MOV T1,@#04h
015856: ece1be_274a      AMAR *AR7,XAR3 || SUB T0,AR2
01585b: ca0a_2fc0        MOV AR2,@#05h || MAX AR4,AC0
01585f: c40c_270c        MOV T0,@#06h || SUB AC0,AR4
015863: cc0e_2709        MOV AR4,@#07h || SUB AC0,AR1
015867: c910             MOV AR1,@#08h
015869: ed249f           MOV dbl(@#12h),XAR1
01586c: ed20cf           MOV dbl(@#10h),XAR4
01586f: a418_3d05        MOV @#0ch,T0 || MOV #0,T1
015873: ed1caf           MOV dbl(@#0eh),XAR2
015876: 6c014ef3         CALL _nr_wiener_opt
01587a: a418             MOV @#0ch,T0
01587c: ed249f           MOV dbl(@#12h),XAR1
01587f: ecc1ae           AMAR *AR6,XAR2
015882: ece18e_3d05      AMAR *AR7,XAR0 || MOV #0,T1
015887: 6c014fc3         CALL _nr_wiener_opt1
01588b: 3c71             MOV #7,AC1
01588d: 5c59             SFTS AC1,T2,AC1
01588f: 2219             MOV AC1,AR1
015891: 3495             NEG AR1,T1
015893: 5c05_9ed9        XCCPART AR1 >= #0 || SFTS AC0,T1,AC0
015897: 3415             NEG AC1,T1
015899: 5c05_9ea9        XCCPART AR1 < #0 || SFTS AC0,T1,AC0
01589d: 1a0010           OR #0,AC0,AC1
0158a0: e6141f_9e81      XCCPART AC1 == #0 || MOV #31,@#0ah
0158a5: 6401             BCC $C$L1,AC1 == #0
0158a7: 105500           SFTS AC1,#0,AC1
0158aa: 101810           EXP AC1,T1
0158ad: c514             MOV T1,@#0ah
0158af:               $C$L1:
0158af: 760010a8         MOV #16,AR2
0158b3: a914             MOV @#0ah,AR1
0158b5: c0ad001b         MOV AC0,*AR5(#001bh)
0158b9: 12a490           CMP AR2 < AR1, TC1
0158bc: a914             MOV @#0ah,AR1
0158be: 7c001059         SUB #16,AR1,T1
0158c2: 76001098_5d05    MOV #16,AR1 || SFTS AC0,T1,AC0
0158c8: c012             MOV AC0,@#09h
0158ca: d71499           SUB @#0ah,AR1,AR1
0158cd: c914             MOV AR1,@#0ah
0158cf: ec128e           AMAR @#09h,XAR0
0158d2: ec149e           AMAR @#0ah,XAR1
0158d5: 6c014367         CALL _nr_sqrt
0158d9: a514             MOV @#0ah,T1
0158db: b012             MOV @#09h << #16,AC0
0158dd: 7affff04         AND #65535 << 16,AC0,AC0
0158e1: 5c05             SFTS AC0,T1,AC0
0158e3: 4409             MOV HI(AC0),AR1
0158e5: 5090             SFTL AR1,#1
0158e7: 5290             MOV AR1,HI(AC0)
0158e9: 767fff98_450a    MOV #32767,AR1 || MOV HI(AC0),AR2
0158ef: 26a9             SUB AR2,AR1
0158f1: a022_98          MOV mmap(@AR1),AC0
0158f4: 76066698         MOV #1638,AR1
0158f8: a418             MOV @#0ch,T0
0158fa: ecc18e_2f90      AMAR *AR6,XAR0 || MAX AR1,AC0
0158ff: a9ad0025         MOV *AR5(#0025h),AR1
015903: c012             MOV AC0,@#09h
015905: d8ad590024       SUB AR1,*AR5(#0024h),T1
01590a: ed20bf           MOV dbl(@#10h),XAR3
01590d: d31205           MPYM @#09h,T1,AC0
015910: ece1ae_110531    AMAR *AR7,XAR2 || SFTS AC0,#-15,AC0
015916: 2490_3d05        ADD AR1,AC0 || MOV #0,T1
01591a: c0ad001c         MOV AC0,*AR5(#001ch)
01591e: ed1c9f           MOV dbl(@#0eh),XAR1
015921: 6c015051         CALL _nr_wiener_opt2
015925: 76001f58_9e80    XCCPART AC0 == #0 || MOV #31,T1
01592b: 6300             BCC $C$L2,AC0 == #0
01592d: 100500           SFTS AC0,#0,AC0
015930: 100810           EXP AC0,T1
015933:               $C$L2:
015933: a916             MOV @#0bh,AR1
015935: 2659             SUB T1,AR1
015937: aaad001f         MOV *AR5(#001fh),AR2
01593b: a6ad0017         MOV *AR5(#0017h),T2
01593f: acad0022         MOV *AR5(#0022h),AR4
015943: 7b001099         ADD #16,AR1,AR1
015947: abad0020         MOV *AR5(#0020h),AR3
01594b: c9ad0019         MOV AR1,*AR5(#0019h)
01594f: 7c00015a         SUB #1,AR2,T1
015953: a9ad0023         MOV *AR5(#0023h),AR1
015957: 2e6c             MAX T2,AR4
015959: 2e69             MAX T2,AR1
01595b: c900_23b9        MOV AR1,@#00h || MOV AR3,AR1
01595f: 26a9             SUB AR2,AR1
015961: aa18_4319        MOV @#0ch,AR2 || SUB #1,AR1
015965: 26ba_3f14        SUB AR3,AR2 || MOV #-1,T0
015969: abad0021         MOV *AR5(#0021h),AR3
01596d: 421a             SUB #1,AR2
01596f: ecc18e_2f6b      AMAR *AR6,XAR0 || MAX T2,AR3
015974: 6c0150d6         CALL _nr_wiener_opt3
015978: 4e14             AADD #20,SP
01597a: 50f4             POPBOTH XAR7
01597c: 50e4             POPBOTH XAR6
01597e: 50d4             POPBOTH XAR5
015980: 5072             POP T3
015982: 5062             POP T2
015984: 4804             RET
015986:               _nr_noise_upd:
015986: 50d5             PSHBOTH XAR5
015988: 50f5             PSHBOTH XAR7
01598a: 4ef7             AADD #-9,SP
01598c: 76008028         MOV #128,AC2
015990: 76008018_5da5    MOV #128,AC1 || SFTS AC2,T1,AC2
015996: ec41be_5d55      AMAR *AR2,XAR3 || SFTS AC1,T1,AC1
01599b: a040_98          MOV mmap(@T0),AC0
01599e: 768000a2         BFXTR #32768,AC2,AR2
0159a2: 241a             ADD AC1,AR2
0159a4: ec01de_454a      AMAR *AR0,XAR5 || SFTS AR2,#-1
0159a9: acad0018         MOV *AR5(#0018h),AR4
0159ad: 7b00012a         ADD #1,AR2,AC2
0159b1: 2ec0             MAX AR4,AC0
0159b3: 2604_116502      SUB AC0,T0 || SFTS AC2,#2,AC1
0159b8: ec10fe_2315      AMAR @#08h,XAR7 || MOV AC1,T1
0159bd: edad8f000e       MOV dbl(*AR5(#000eh)),XAR0
0159c2: c400             MOV T0,@#00h
0159c4: edadaf0012       MOV dbl(*AR5(#0012h)),XAR2
0159c9: fb022aaa         MOV #10922,@#01h
0159cd: 8e04b6104050     MOV #64,@#02h || AADD T1,AR3
0159d3: fb067fff         MOV #32767,@#03h
0159d7: fb087999_270c    MOV #31129,@#04h || SUB AC0,AR4
0159dd: c00a_2324        MOV AC0,@#05h || MOV AC2,T0
0159e1: eb0cf5_3d05      MOV XAR7,dbl(@#06h) || MOV #0,T1
0159e6: 6c015134         CALL _nr_noise_upd_opt
0159ea: a910             MOV @#08h,AR1
0159ec: c9ad0018         MOV AR1,*AR5(#0018h)
0159f0: 4e09             AADD #9,SP
0159f2: 50f4             POPBOTH XAR7
0159f4: 50d4             POPBOTH XAR5
0159f6: 4804             RET
0159f8:               _nr_ifft_win:
0159f8: 4eff             AADD #-1,SP
0159fa: ec61ce           AMAR *AR3,XAR4
0159fd: 76005008         MOV #80,AC0
015a01: ec41be_5d05      AMAR *AR2,XAR3 || SFTS AC0,T1,AC0
015a06: ec21ae_3d25      AMAR *AR1,XAR2 || MOV #2,T1
015a0b: ec819e_230c      AMAR *AR4,XAR1 || MOV AC0,AR4
015a10: 6c015abd         CALL _nr_ifft_win_opt
015a14: 4e01             AADD #1,SP
015a16: 4804             RET
015a18:               _nr_apply_gain:
015a18: 4eff             AADD #-1,SP
015a1a: ec21ae           AMAR *AR1,XAR2
015a1d: 76008018         MOV #128,AC1
015a21: 76008008         MOV #128,AC0
015a25: ec019e_5d51      AMAR *AR0,XAR1 || SFTS AC1,T0,AC1
015a2a: ec418e_5d01      AMAR *AR2,XAR0 || SFTS AC0,T0,AC0
015a2f: 768000a1         BFXTR #32768,AC1,AR2
015a33: 240a             ADD AC0,AR2
015a35: 444a             SFTS AR2,#-1
015a37: 7b00014a         ADD #1,AR2,T0
015a3b: 6c015a6e         CALL _nr_apply_gain_opt
015a3f: 4e01             AADD #1,SP
015a41: 4804             RET
015a43:               _nr_lfxf:
015a43: b506_98          PSH mmap(@ST1_55)
015a46: 4efc             AADD #-4,SP
015a48: 4683             BSET ST1_SXMD
015a4a: 46a3             BSET ST1_M40
015a4c: 4663             BSET ST1_FRCT
015a4e: eb0008           MOV AC0,dbl(@#00h)
015a51: c404             MOV T0,@#02h
015a53: 9048             MOV XSP,XAR0
015a55: 9049             MOV XSP,XAR1
015a57: b40f0001         AMAR *+AR0(#0001h)
015a5b: b42f0002         AMAR *+AR1(#0002h)
015a5f: 86088008         MPYM uns(*AR0-),*AR1,AC0
015a63: 86008040         MACM *AR0,*AR1,AC0 >> #16,AC0
015a67: 4e04             AADD #4,SP
015a69: bb06_98          POP mmap(@ST1_55)
015a6c: 4804             RET
015a6e:               _nr_apply_gain_opt:
015a6e: 4eff             AADD #-1,SP
015a70: f40401ff_98      AND #511,mmap(@ST0_55)
015a75: f5064140_98      OR #16704,mmap(@ST1_55)
015a7a: f406f9df_98      AND #63967,mmap(@ST1_55)
015a7f: f4967a00_98      AND #31232,mmap(@ST2_55)
015a84: f408ffdd_98      AND #65501,mmap(@ST3_55)
015a89: 4214             SUB #1,T0
015a8b: 524e             MOV T0,BRC0
015a8d: 3c34             MOV #3,T0
015a8f: 904b             MOV XSP,XAR3
015a91: 4019             ADD #1,AR1
015a93: 401a             ADD #1,AR2
015a95: 0e001a           RPTB loop-3
015a98: a103                MOV *AR0+,AC1
015a9a: 105510              SFTS AC1,#16,AC1
015a9d: bd00                MOV HI(AC1),@#00h
015a9f: 8660a004            MPYM *AR3,uns(*AR1-),AC0
015aa3: 86608040            MACM *AR3,*AR1,AC0 >> #16,AC0
015aa7: eb2708              MOV AC0,dbl(*(AR1+AR0))
015aaa: 8660a004            MPYM *AR3,uns(*AR1-),AC0
015aae: 86608040            MACM *AR3,*AR1,AC0 >> #16,AC0
015ab2: eb2708              MOV AC0,dbl(*(AR1+AR0))
015ab5:               loop:
015ab5: 4e01             AADD #1,SP
015ab7: 4662             BCLR ST1_FRCT
015ab9: 46f5             BSET ST2_ARMS
015abb: 4804             RET
015abd:               _nr_ifft_win_opt:
015abd: 4eff             AADD #-1,SP
015abf: c600             MOV T2,@#00h
015ac1: f40401ff_98      AND #511,mmap(@ST0_55)
015ac6: f5064140_98      OR #16704,mmap(@ST1_55)
015acb: f406f9df_98      AND #63967,mmap(@ST1_55)
015ad0: 4693             BSET ST1_SATD
015ad2: f4967a00_98      AND #31232,mmap(@ST2_55)
015ad7: f408ffdd_98      AND #65501,mmap(@ST3_55)
015adc: 264c             SUB T0,AR4
015ade: 421c             SUB #1,AR4
015ae0: 4214             SUB #1,T0
015ae2: 524e             MOV T0,BRC0
015ae4: 0e0010           RPTB loop1_IW-2
015ae7: ed0308              MOV dbl(*AR0+),AC0
015aea: 5c05                SFTS AC0,T1,AC0
015aec: a623                MOV *AR1+,T2
015aee: 5808                MPY T2,AC0,AC0
015af0: a143                MOV *AR2+,AC1
015af2: 105510              SFTS AC1,#16,AC1
015af5: 2410                ADD AC1,AC0
015af7: bc63                MOV HI(AC0),*AR3+
015af9:               loop1_IW:
015af9: 52ce             MOV AR4,BRC0
015afb: 0e0005           RPTB loop2_IW-2
015afe: ed0308              MOV dbl(*AR0+),AC0
015b01: 5c05                SFTS AC0,T1,AC0
015b03: bc63                MOV HI(AC0),*AR3+
015b05:               loop2_IW:
015b05: 524e             MOV T0,BRC0
015b07: 4219             SUB #1,AR1
015b09: 264a             SUB T0,AR2
015b0b: 421a             SUB #1,AR2
015b0d: 0e0009           RPTB loop3_IW-2
015b10: ed0308              MOV dbl(*AR0+),AC0
015b13: 5c05                SFTS AC0,T1,AC0
015b15: a625                MOV *AR1-,T2
015b17: 5808                MPY T2,AC0,AC0
015b19: bc43                MOV HI(AC0),*AR2+
015b1b:               loop3_IW:
015b1b: a600             MOV @#00h,T2
015b1d: 4e01             AADD #1,SP
015b1f: 4662             BCLR ST1_FRCT
015b21: 46f5             BSET ST2_ARMS
015b23: 4692             BCLR ST1_SATD
015b25: 4804             RET
015b27:               _sgn_hoth_gen_samples:
015b27: 5066             PSH T2
015b29: 5076             PSH T3
015b2b: 50d5             PSHBOTH XAR5
015b2d: 50e5             PSHBOTH XAR6
015b2f: 50f5             PSHBOTH XAR7
015b31: 4efe             AADD #-2,SP
015b33: ec01de           AMAR *AR0,XAR5
015b36: ec21fe           AMAR *AR1,XAR7
015b39: c400             MOV T0,@#00h
015b3b: 8a00851c37       MOV @#00h,T1 || AADD #55,AR0
015b40: a4ad0036         MOV *AR5(#0036h),T0
015b44: 6c0166cc         CALL _wngGenNoiseFrame
015b48: eca1ce           AMAR *AR5,XAR4
015b4b: a900             MOV @#00h,AR1
015b4d: 1432c4           AADD #50,AR4
015b50: 04397b           BCC $C$DW$L$_sgn_hoth_gen_samples$5$E,AR1 <= #0
015b53: aa00             MOV @#00h,AR2
015b55: eca1ee           AMAR *AR5,XAR6
015b58: eca18e           AMAR *AR5,XAR0
015b5b: eca19e_431a      AMAR *AR5,XAR1 || SUB #1,AR2
015b60: 7623d948_53ae    MOV #9177,T0 || MOV AR2,BRC0
015b66: 76084e78         MOV #2126,T3
015b6a: ece17e           AMAR *AR7,XCDP
015b6d: 1434e4           AADD #52,AR6
015b70: 143584           AADD #53,AR0
015b73: 143394_0f0053    AADD #51,AR1 || RPTB #0x015bcc
015b79:               $C$L1:
015b79:               $C$DW$L$_sgn_hoth_gen_samples$3$B:
015b79: a071                MOV *CDP,AC0
015b7b: 10050a              SFTS AC0,#10,AC0
015b7e: 8d2205a500          MASM *AR1,T0,AC0,AC0 || MOV *AR4,T1
015b83: d5c10c              MASM *AR6,T3,AC0,AC0
015b86: 7942a306            MACK T1,#17059,AC0,AC0
015b8a: a501                MOV *AR0,T1
015b8c: 7908a106            MACK T1,#2209,AC0,AC0
015b90: 100533              SFTS AC0,#-13,AC0
015b93: a001_2305           MOV *AR0,AC0 || MOV AC0,T1
015b97: a621_114503         MOV *AR1,T2 || SFTS AC0,#3,AC1
015b9c: b0c1_2701           MOV *AR6 << #16,AC0 || SUB AC0,AC1
015ba0: 7905f100            MPYK #1521,AC0,AC0
015ba4: 790e6f06            MACK T1,#3695,AC0,AC0
015ba8: ec81ae_2710         AMAR *AR4,XAR2 || SUB AC1,AC0
015bad: 79fe360a            MACK T2,#-458,AC0,AC0
015bb1: 8a81a61c03          MOV *AR4,T2 || AADD #3,AR2
015bb6: ec81be              AMAR *AR4,XAR3
015bb9: 79f04a0a            MACK T2,#-4022,AC0,AC0
015bbd: 1402b4_110534       AADD #2,AR3 || SFTS AC0,#-12,AC0
015bc3: c071_4d02           MOV AC0,*CDP || RPT #2
015bc7:               $C$DW$L$_sgn_hoth_gen_samples$3$E:
015bc7:               $C$L2:
015bc7:               $C$DW$L$_sgn_hoth_gen_samples$4$B:
015bc7: 806924                 MOV *AR3-,*AR2-
015bca:               $C$DW$L$_sgn_hoth_gen_samples$4$E:
015bca:               $C$L3:
015bca:               $C$DW$L$_sgn_hoth_gen_samples$5$B:
015bca: c581                MOV T1,*AR4
015bcc: b491                AMAR *CDP+
015bce:               $C$DW$L$_sgn_hoth_gen_samples$5$E:
015bce:               $C$L4:
015bce: a900             MOV @#00h,AR1
015bd0: a5ad0031         MOV *AR5(#0031h),T1
015bd4: 6739             BCC $C$DW$L$_sgn_hoth_gen_samples$8$E,AR1 <= #0
015bd6: 4219             SUB #1,AR1
015bd8: 529e             MOV AR1,BRC0
015bda: 4a86             RPTBLOCAL $C$DW$L$_sgn_hoth_gen_samples$8$E-2
015bdc:               $C$L5:
015bdc:               $C$DW$L$_sgn_hoth_gen_samples$8$B:
015bdc: d3e105              MPYM *AR7,T1,AC0
015bdf: 100537              SFTS AC0,#-9,AC0
015be2: c0e3                MOV AC0,*AR7+
015be4:               $C$DW$L$_sgn_hoth_gen_samples$8$E:
015be4:               $C$L6:
015be4: 4e02             AADD #2,SP
015be6: 50f4             POPBOTH XAR7
015be8: 50e4             POPBOTH XAR6
015bea: 50d4             POPBOTH XAR5
015bec: 5072             POP T3
015bee: 5062             POP T2
015bf0: 4804             RET
015bf2:               _hlcInit:
015bf2: 5066             PSH T2
015bf4: 50d5             PSHBOTH XAR5
015bf6: 4eff             AADD #-1,SP
015bf8: ec01de           AMAR *AR0,XAR5
015bfb: 90d0             MOV XAR5,AC0
015bfd: 6200             BCC $C$L1,AC0 == #0
015bff: 9090             MOV XAR1,AC0
015c01: 6290             BCC $C$L2,AC0 != #0
015c03:               $C$L1:
015c03: 06009e_3d14      B $C$L6 || MOV #1,T0
015c08:               $C$L2:
015c08: aa21             MOV *AR1,AR2
015c0a: ec08a8           BTST @#04h,AR2,TC1
015c0d: f4a1fffe         AND #65534,*AR5
015c11: 3c16             MOV #1,T2
015c13: a639_9e64        XCC TC1 || MOV *+AR1,T2
015c17: ec06a8           BTST @#03h,AR2,TC1
015c1a: 04741a           BCC $C$L4,!TC1
015c1d: ab3b_5360        MOV *-AR1,AR3 || MOV T2,HI(AC0)
015c21: 1e2800_23b4      MPYK #40,AC0,AC0 || MOV AR3,T0
015c26: 2205             MOV AC0,T1
015c28: 6c0168c4         CALL I$$MOD
015c2c: 6284             BCC $C$L3,T0 == #0
015c2e: 060073_3d24      B $C$L6 || MOV #2,T0
015c33:               $C$L3:
015c33: 4a05_23b0        B $C$L5 || MOV AR3,AC0
015c37:               $C$L4:
015c37: 5260             MOV T2,HI(AC0)
015c39: 1e2800           MPYK #40,AC0,AC0
015c3c:               $C$L5:
015c3c: ec00a8           BTST @#00h,AR2,TC1
015c3f: c0ad000f         MOV AC0,*AR5(#000fh)
015c43: 20               NOP
015c44: 96f4             XCCPART !TC1
015c46: e6ad00000c       MOV #0,*AR5(#000ch)
015c4b: ab33_9e64        XCC TC1 || MOV *(AR1+T1),AR3
015c4f: 96e4             XCCPART TC1
015c51: cbad000c         MOV AR3,*AR5(#000ch)
015c55: ec02a8           BTST @#01h,AR2,TC1
015c58: 2265             MOV T2,T1
015c5a: 7615e008         MOV #5600,AC0
015c5e: f9350308_9e64    XCC TC1 || MOV *(AR1-T1) << #3,AC0
015c64: ec04a8           BTST @#02h,AR2,TC1
015c67: 3e59_9ef4        XCCPART !TC1 || MOV #-5,AR1
015c6b: 3e4a             MOV #-4,AR2
015c6d: 100510           SFTS AC0,#16,AC0
015c70: 5804             MPY T1,AC0,AC0
015c72: c0ad000d         MOV AC0,*AR5(#000dh)
015c76: 5260             MOV T2,HI(AC0)
015c78: d7379a_9e64      XCC TC1 || SUB *AR1(T1),AR2,AR1
015c7d: 2669_1f5000      SUB T2,AR1 || MPYK #80,AC0,AC0
015c82: 4019             ADD #1,AR1
015c84: c9ad000e         MOV AR1,*AR5(#000eh)
015c88: c0ad000a         MOV AC0,*AR5(#000ah)
015c8c: 6c01552f         CALL _hlc_reset
015c90: f4a1ff87         AND #65415,*AR5
015c94: f4a1fff9_2360    AND #65529,*AR5 || MOV T2,AC0
015c9a: 5000             SFTL AC0,#1
015c9c: 180790           AND #7,AC0,AR1
015c9f: daa199           OR *AR5,AR1,AR1
015ca2: c9a1_3d04        MOV AR1,*AR5 || MOV #0,T0
015ca6:               $C$L6:
015ca6: 4e01             AADD #1,SP
015ca8: 50d4             POPBOTH XAR5
015caa: 5062             POP T2
015cac: 4804             RET
015cae:               _hlcGetSizes:
015cae: 9080             MOV XAR0,AC0
015cb0: 3c04             MOV #0,T0
015cb2: 3c14_9e80        XCCPART AC0 == #0 || MOV #1,T0
015cb6: e60110_9e90      XCCPART AC0 != #0 || MOV #16,*AR0
015cbb: 4804             RET
015cbd:               _nr_gain_convert:
015cbd: 4eff             AADD #-1,SP
015cbf: 2242             MOV T0,AC2
015cc1: 222a             MOV AC2,AR2
015cc3: 043a27           BCC $C$L1,AR2 <= #0
015cc6: 7b005fa2         ADD #95,AC2,AR2
015cca: 76aaaba8_23a0    MOV #-21845,AR2 || MOV AR2,AC0
015cd0: 7dffff1a         AND #65535,AR2,AC1
015cd4: 6c01696a         CALL I$$LMPY
015cd8: 10072a           SFTL AC0,#-22,AC0
015cdb: 2205             MOV AC0,T1
015cdd: 1ea086           MACK T1,#-96,AC2,AC0
015ce0: 76ffa0b8_230a    MOV #-96,AR3 || MOV AC0,AR2
015ce6: 12b8a0           CMP AR3 >= AR2, TC1
015ce9: 66e4             BCC $C$L2,TC1
015ceb: 4a17             B $C$DW$L$_nr_gain_convert$5$E
015ced:               $C$L1:
015ced: 76ffa0b8         MOV #-96,AR3
015cf1: 12b4a0           CMP AR3 < AR2, TC1
015cf4: 3c05             MOV #0,T1
015cf6: 6664             BCC $C$DW$L$_nr_gain_convert$5$E,TC1
015cf8:               $C$L2:
015cf8:               $C$DW$L$_nr_gain_convert$5$B:
015cf8: 4215             SUB #1,T1
015cfa: 7b0060aa         ADD #96,AR2,AR2
015cfe: 12b8a0           CMP AR3 >= AR2, TC1
015d01: 0464f4           BCC $C$L2,TC1
015d04:               $C$DW$L$_nr_gain_convert$5$E:
015d04:               $C$L3:
015d04: 22ab             MOV AR2,AR3
015d06: 3e8b_35b4        MOV #-8,AR3 || NEG AR3,T0
015d0a: 12b4a0           CMP AR3 < AR2, TC1
015d0d: 04641c           BCC $C$L4,TC1
015d10: 34aa             NEG AR2,AR2
015d12: 7dfff8ba         AND #65528,AR2,AR3
015d16: 22a4             MOV AR2,T0
015d18: 26b4             SUB AR3,T0
015d1a: 22a1             MOV AR2,AC1
015d1c: 10553d           SFTS AC1,#-3,AC1
015d1f: 221a             MOV AC1,AR2
015d21: ec31be018407     AMAR *(#018407h),XAR3
015d27: 14a0b0           AADD AR2,AR3
015d2a: 4a06             B $C$L5
015d2c:               $C$L4:
015d2c: ec31be018407     AMAR *(#018407h),XAR3
015d32:               $C$L5:
015d32: ec31ae018413     AMAR *(#018413h),XAR2
015d38: 865d8100         MPYM *AR2(AR0),*AR3,AC1
015d3c: 105531           SFTS AC1,#-15,AC1
015d3f: c101             MOV AC1,*AR0
015d41: c521             MOV T1,*AR1
015d43: 4e01             AADD #1,SP
015d45: 4804             RET
015d47:               _nr_atten_dB2lin:
015d47: 4efd             AADD #-3,SP
015d49: 2240             MOV T0,AC0
015d4b: 767fffa8_2309    MOV #32767,AR2 || MOV AC0,AR1
015d51: 129ca0           CMP AR1 != AR2, TC1
015d54: 3c00_9ef4        XCCPART !TC1 || MOV #0,AC0
015d58: 047420           BCC $C$L6,!TC1
015d5b: ec029e_110504    AMAR @#01h,XAR1 || SFTS AC0,#4,AC0
015d61: ec008e_3504      AMAR @#00h,XAR0 || NEG AC0,T0
015d66: 08ff54           CALL _nr_gain_convert
015d69: a902             MOV @#01h,AR1
015d6b: 349a             NEG AR1,AR2
015d6d: 34a5             NEG AR2,T1
015d6f: a000             MOV @#00h,AC0
015d71: 5c05_9eb9        XCCPART AR1 <= #0 || SFTS AC0,T1,AC0
015d75: 34a5             NEG AR2,T1
015d77: 5c05_9ec9        XCCPART AR1 > #0 || SFTS AC0,T1,AC0
015d7b:               $C$L6:
015d7b: 2204             MOV AC0,T0
015d7d: 4e03             AADD #3,SP
015d7f: 4804             RET
015d81:               _slmProcess:
015d81: 50d5             PSHBOTH XAR5
015d83: 4efe             AADD #-2,SP
015d85: ec01ae           AMAR *AR0,XAR2
015d88: ec41de           AMAR *AR2,XAR5
015d8b: a0a1             MOV *AR5,AC0
015d8d: ec218e_190f90    AMAR *AR1,XAR0 || AND #15,AC0,AR1
015d93: 180fa0           AND #15,AC0,AR2
015d96: 3c04_9e89        XCCPART AR1 == #0 || MOV #0,T0
015d9a: 040961           BCC $C$L1,AR1 == #0
015d9d: 760c0050         BFXTR #3072,AC0,T1
015da1: 7601f090         BFXTR #496,AC0,AR1
015da5: ec1208           BTST @#09h,AC0,TC1
015da8: 52a0             MOV AR2,HI(AC0)
015daa: c900_1f1300      MOV AR1,@#00h || MPYK #19,AC0,AC0
015daf: 7c001390         SUB #19,AC0,AR1
015db3: e60201_9ef4      XCCPART !TC1 || MOV #1,@#01h
015db8: ec31be01811c     AMAR *(#01811ch),XAR3
015dbe: e602ff_9ee4      XCCPART TC1 || MOV #-1,@#01h
015dc3: ec02ae           AMAR @#01h,XAR2
015dc6: 1490b0           AADD AR1,AR3
015dc9: ec009e           AMAR @#00h,XAR1
015dcc: 6c01654a         CALL _slm_proc
015dd0: f0020001         CMP @#01h == #1, TC1
015dd4: f4a1fe0f         AND #65039,*AR5
015dd8: a000             MOV @#00h,AC0
015dda: 3c04             MOV #0,T0
015ddc: 10070b           SFTL AC0,#11,AC0
015ddf: 3c04_9ef4        XCCPART !TC1 || MOV #0,T0
015de3: 76ff8090         BFXTR #65408,AC0,AR1
015de7: daa199           OR *AR5,AR1,AR1
015dea: c9a1             MOV AR1,*AR5
015dec: f4a1fdff_9e64    XCC TC1 || AND #65023,*AR5
015df2: f4a1fdff_9e74    XCC !TC1 || AND #65023,*AR5
015df8: f5a10200_9e74    XCC !TC1 || OR #512,*AR5
015dfe:               $C$L1:
015dfe: 4e02             AADD #2,SP
015e00: 50d4             POPBOTH XAR5
015e02: 4804             RET
015e04:               _slmControl:
015e04: 9080             MOV XAR0,AC0
015e06: 3c14_9e80        XCCPART AC0 == #0 || MOV #1,T0
015e0a: 040030           BCC $C$L5,AC0 == #0
015e0d: 63a4             BCC $C$L2,T0 < #0
015e0f: 3c69             MOV #6,AR1
015e11: 124490           CMP T0 < AR1, TC1
015e14: 6264             BCC $C$L3,TC1
015e16:               $C$L2:
015e16: 3c24             MOV #2,T0
015e18: 4a23             B $C$L5
015e1a:               $C$L3:
015e1a: aa01             MOV *AR0,AR2
015e1c: 180f9a           AND #15,AR2,AR1
015e1f: 124094           CMPU T0 == AR1, TC1
015e22: 046416           BCC $C$L4,TC1
015e25: 7dfe0f0a         AND #65039,AR2,AC0
015e29: c001_190f94      MOV AC0,*AR0 || AND #15,T0,AR1
015e2e: f401fdff         AND #65023,*AR0
015e32: f401fff0         AND #65520,*AR0
015e36: da0199           OR *AR0,AR1,AR1
015e39: c901             MOV AR1,*AR0
015e3b:               $C$L4:
015e3b: 3c04             MOV #0,T0
015e3d:               $C$L5:
015e3d: 4804             RET
015e3f:               _svd_signal_pow:
015e3f: f00d0001000c     CMP *AR0(#000ch) == #1, TC1
015e45: 3c9b             MOV #9,AR3
015e47: ed0d08000a       MOV dbl(*AR0(#000ah)),AC0
015e4c: 3c8b_9ee4        XCCPART TC1 || MOV #8,AR3
015e50: 043413           BCC $C$DW$L$_svd_signal_pow$3$E,T0 <= #0
015e53: 7c0001a4         SUB #1,T0,AR2
015e57: 52ae             MOV AR2,BRC0
015e59: 4a87_35b5        RPTBLOCAL #0x015e64 || NEG AR3,T1
015e5d:               $C$L1:
015e5d:               $C$DW$L$_svd_signal_pow$3$B:
015e5d: d32318              SQRM *AR1+,AC1
015e60: 2601                SUB AC0,AC1
015e62: 5c55                SFTS AC1,T1,AC1
015e64: 2410                ADD AC1,AC0
015e66:               $C$DW$L$_svd_signal_pow$3$E:
015e66:               $C$L2:
015e66: eb0d08000a       MOV AC0,dbl(*AR0(#000ah))
015e6b: 4804             RET
015e6d:               _svdProcess:
015e6d: 5066             PSH T2
015e6f: 50d5             PSHBOTH XAR5
015e71: 50f5             PSHBOTH XAR7
015e73: ec21de           AMAR *AR1,XAR5
015e76: ec01fe_2346      AMAR *AR0,XAR7 || MOV T0,T2
015e7b: 6c014b7d         CALL _snlProcess
015e7f: eca19e_234c      AMAR *AR5,XAR1 || MOV T0,AR4
015e84: ece18e_2364      AMAR *AR7,XAR0 || MOV T2,T0
015e89: 08ffb3           CALL _svd_signal_pow
015e8c: 3c04             MOV #0,T0
015e8e: 3c14_9e9c        XCCPART AR4 != #0 || MOV #1,T0
015e92: 50f4             POPBOTH XAR7
015e94: 50d4             POPBOTH XAR5
015e96: 5062             POP T2
015e98: 4804             RET
015e9a:               _svdGetLevels:
015e9a: 4eff             AADD #-1,SP
015e9c: 6c014ed1         CALL _snlGetLevels
015ea0: 6204             BCC $C$L3,T0 == #0
015ea2: 3c14             MOV #1,T0
015ea4: 4a02             B $C$L4
015ea6:               $C$L3:
015ea6: 3c04             MOV #0,T0
015ea8:               $C$L4:
015ea8: 4e01             AADD #1,SP
015eaa: 4804             RET
015eac:               _svdGetDecision:
015eac: 50d5             PSHBOTH XAR5
015eae: 50f5             PSHBOTH XAR7
015eb0: 4efd             AADD #-3,SP
015eb2: ec02ae           AMAR @#01h,XAR2
015eb5: ec04be           AMAR @#02h,XAR3
015eb8: ec21fe           AMAR *AR1,XAR7
015ebb: ec01de           AMAR *AR0,XAR5
015ebe: ec009e           AMAR @#00h,XAR1
015ec1: 6c014ed1         CALL _snlGetLevels
015ec5: f000007f         CMP @#00h == #127, TC1
015ec9: 04641d           BCC $C$L5,TC1
015ecc: f002007f         CMP @#01h == #127, TC1
015ed0: 046416           BCC $C$L5,TC1
015ed3: d30408           SQRM @#02h,AC0
015ed6: edad18000a       MOV dbl(*AR5(#000ah)),AC1
015edb: 10053a           SFTS AC0,#-6,AC0
015ede: 120410           CMP AC0 < AC1, TC1
015ee1: 3c09             MOV #0,AR1
015ee3: 3c19_9ee4        XCCPART TC1 || MOV #1,AR1
015ee7: 4a02             B $C$L6
015ee9:               $C$L5:
015ee9: 3e19             MOV #-1,AR1
015eeb:               $C$L6:
015eeb: 140a45           AMOV #10,T0
015eee: 80bf80_2394      MOV dbl(*AR5(AR0)),dbl(*AR7) || MOV AR1,T0
015ef3: 4e03             AADD #3,SP
015ef5: 50f4             POPBOTH XAR7
015ef7: 50d4             POPBOTH XAR5
015ef9: 4804             RET
015efb:               _writemsg:
015efb:               .text:CIO_breakpoint:
015efb: 7600f9a8_5166    MOV #249,AR2 || PSH T2
015f01: ec31be007000     AMAR *(#07000h),XAR3
015f07: c561_1340a4      MOV T1,*AR3 || CMPU T0 == AR2, TC1
015f0c: c473             MOV T0,*(AR3+T1)
015f0e: 6d64009a         BCC #0x015fac,TC1
015f12: 160079           MOV #7,BRC0
015f15: 0e003e_3d02      RPTB #0x015f58 || MOV #0,AC2
015f1a: ec0028              BTST @#00h,AC2,TC1
015f1d: 04641f              BCC #0x015f3f,TC1
015f20: 76fffea2            BFXTR #65534,AC2,AR2
015f24: 90b0                MOV XAR3,AC0
015f26: 7dffff1a            AND #65535,AR2,AC1
015f2a: 2410                ADD AC1,AC0
015f2c: 106703              SFTL AC2,#3,AC1
015f2f: 361a                NOT AC1,AR2
015f31: 18086a              AND #8,AR2,T2
015f34: 900a                MOV AC0,XAR2
015f36: df0333              MOV uns(low_byte(*AR0+)),AC3
015f39: 5c78                SFTL AC3,T2,AC1
015f3b: c155                MOV AC1,*(AR2-T1)
015f3d: 4a19                B #0x015f58
015f3f: 76fffea2            BFXTR #65534,AC2,AR2
015f43: 90b0                MOV XAR3,AC0
015f45: 7dffff1a            AND #65535,AR2,AC1
015f49: 2410                ADD AC1,AC0
015f4b: 900a                MOV AC0,XAR2
015f4d: 8d03af1cc302        MOV uns(low_byte(*AR0+)),AR4 || AADD #2,AR2
015f53: da41cc              OR *AR2,AR4,AR4
015f56: cc41                MOV AR4,*AR2
015f58: 4012                ADD #1,AC2
015f5a: 04054f           BCC #0x015fac,T1 == #0
015f5d: 7c0001a5         SUB #1,T1,AR2
015f61: 52ae             MOV AR2,BRC0
015f63: 0e0042_3d02      RPTB #0x015faa || MOV #0,AC2
015f68: ec0028              BTST @#00h,AC2,TC1
015f6b: 046421              BCC #0x015f8f,TC1
015f6e: 7b0008a2            ADD #8,AC2,AR2
015f72: 50a1                SFTL AR2,#-1
015f74: 90b0                MOV XAR3,AC0
015f76: 7dffff1a            AND #65535,AR2,AC1
015f7a: 2410                ADD AC1,AC0
015f7c: 106703              SFTL AC2,#3,AC1
015f7f: 361a                NOT AC1,AR2
015f81: 18085a              AND #8,AR2,T1
015f84: 900a                MOV AC0,XAR2
015f86: df2333              MOV uns(low_byte(*AR1+)),AC3
015f89: 5c74                SFTL AC3,T1,AC1
015f8b: c155                MOV AC1,*(AR2-T1)
015f8d: 4a1b                B #0x015faa
015f8f: 7b0008a2            ADD #8,AC2,AR2
015f93: 50a1                SFTL AR2,#-1
015f95: 90b0                MOV XAR3,AC0
015f97: 7dffff1a            AND #65535,AR2,AC1
015f9b: 2410                ADD AC1,AC0
015f9d: 900a                MOV AC0,XAR2
015f9f: 8d23af1cc302        MOV uns(low_byte(*AR1+)),AR4 || AADD #2,AR2
015fa5: da41cc              OR *AR2,AR4,AR4
015fa8: cc41                MOV AR4,*AR2
015faa: 4012                ADD #1,AC2
015fac: 20               NOP
015fad: 20               NOP
015fae: 20               NOP
015faf: 20               NOP
015fb0:               C$$IO$$:
015fb0: 20               NOP
015fb1: 5062             POP T2
015fb3: 4804             RET
015fb5:               __divul:
015fb5: 120814           CMPU AC0 >= AC1, TC1
015fb8: 108700           SFTL AC0,#0,AC2
015fbb: 3c03_9ef4        XCCPART !TC1 || MOV #0,AC3
015fbf: 102820_5166      EXP AC2,T2 || PSH T2
015fc4: 109700           SFTL AC1,#0,AC2
015fc7: 102810_21        EXP AC2,T1 || NOP
015fcb: 2665             SUB T2,T1
015fcd: 04747f           BCC #0x01604f,!TC1
015fd0: 3c03_9e80        XCCPART AC0 == #0 || MOV #0,AC3
015fd4: 040078           BCC #0x01604f,AC0 == #0
015fd7: 7affff3a_9e81    XCCPART AC1 == #0 || MOV #-1 << #16,AC3
015fdd: 7effff33_9e81    XCCPART AC1 == #0 || OR #65535,AC3,AC3
015fe3: 040169           BCC #0x01604f,AC1 == #0
015fe6: 3e19_5d94        MOV #-1,AR1 || SFTL AC1,T1,AC2
015fea: 126c90_3d01      CMP T2 != AR1, TC1 || MOV #0,AC1
015fef: 3c11_9ef4        XCCPART !TC1 || MOV #1,AC1
015ff3: 120824           CMPU AC0 >= AC2, TC1
015ff6: 5cd4             SFTL AC1,T1,AC3
015ff8: 5031_9ef4        XCCPART !TC1 || SFTL AC3,#-1
015ffc: 040115           BCC #0x016014,AC1 == #0
015fff: 120424           CMPU AC0 < AC2, TC1
016002: 2620_9ef4        XCCPART !TC1 || SUB AC2,AC0
016006: 5021_9ef4        XCCPART !TC1 || SFTL AC2,#-1
01600a: 5021_9ee4        XCCPART TC1 || SFTL AC2,#-1
01600e: 2620_9ee4        XCCPART TC1 || SUB AC2,AC0
016012: 4a02             B #0x016016
016014: 4015             ADD #1,T1
016016: 043520           BCC #0x016039,T1 <= #0
016019: 7c000195         SUB #1,T1,AR1
01601d: 529e             MOV AR1,BRC0
01601f: 4a95             RPTBLOCAL _coverage_log-32
016021: 120424_3d09         CMPU AC0 < AC2, TC1 || MOV #0,AR1
016026: 3c19_9ef4           XCCPART !TC1 || MOV #1,AR1
01602a: 120424              CMPU AC0 < AC2, TC1
01602d: 2291                MOV AR1,AC1
01602f: 2620_9ef4           XCCPART !TC1 || SUB AC2,AC0
016033: 104101              OR AC0 << #1, AC1
016036: 1a0001              OR #0,AC1,AC0
016039: 040513           BCC #0x01604f,T1 == #0
01603c: 76002098         MOV #32,AR1
016040: 2659             SUB T1,AR1
016042: 2295             MOV AR1,T1
016044: 5c04             SFTL AC0,T1,AC0
016046: 3455             NEG T1,T1
016048: 5c04             SFTL AC0,T1,AC0
01604a: 2a30             OR AC3,AC0
01604c: 1a0030           OR #0,AC0,AC3
01604f: 5062             POP T2
016051: 1a0003           OR #0,AC3,AC0
016054: 4804             RET
016056:               _coverage_log:
016056: 5046             PSH T0
016058: 5056             PSH T1
01605a: 5066             PSH T2
01605c: 5076             PSH T3
01605e: 5085             PSHBOTH XAR0
016060: 5095             PSHBOTH XAR1
016062: 50a5             PSHBOTH XAR2
016064: 50b5             PSHBOTH XAR3
016066: 50c5             PSHBOTH XAR4
016068: 50d5             PSHBOTH XAR5
01606a: 50e5             PSHBOTH XAR6
01606c: 50f5             PSHBOTH XAR7
01606e: 5005             PSHBOTH AC0
016070: 5015             PSHBOTH AC1
016072: 5025             PSHBOTH AC2
016074: 5035             PSHBOTH AC3
016076: 4efd             AADD #-3,SP
016078: eb0004           MOV RETA,dbl(@#00h)
01607b: ed0008           MOV dbl(@#00h),AC0
01607e: 4240             SUB #4,AC0
016080: 180140           AND #1,AC0,T0
016083: 5001             SFTL AC0,#-1
016085: 9008             MOV AC0,XAR0
016087: 76002098         MOV #32,AR1
01608b: 040412           BCC even,T0 == #0
01608e:               odd:
01608e: e50195           MOV AR1,low_byte(*AR0)
016091: 4018             ADD #1,AR0
016093: e50194           MOV AR1,high_byte(*AR0)
016096: e50195           MOV AR1,low_byte(*AR0)
016099: 4018             ADD #1,AR0
01609b: e50194           MOV AR1,high_byte(*AR0)
01609e: 4a10             B map_store
0160a0:               even:
0160a0: e50195           MOV AR1,low_byte(*AR0)
0160a3: e50194           MOV AR1,high_byte(*AR0)
0160a6: 4018             ADD #1,AR0
0160a8: e50195           MOV AR1,low_byte(*AR0)
0160ab: e50194           MOV AR1,high_byte(*AR0)
0160ae: 4018             ADD #1,AR0
0160b0:               map_store:
0160b0: ed0008           MOV dbl(@#00h),AC0
0160b3: 4240             SUB #4,AC0
0160b5:               finish:
0160b5: ed31af01351c     MOV dbl(*(#01351ch)),XAR2
0160bb: eb4108           MOV AC0,dbl(*AR2)
0160be: 1402a4           AADD #2,AR2
0160c1: eb31a501351c     MOV XAR2,dbl(*(#01351ch))
0160c7: e63101013523     MOV #1,*(#013523h)
0160cd: 4e03             AADD #3,SP
0160cf: 5034             POPBOTH AC3
0160d1: 5024             POPBOTH AC2
0160d3: 5014             POPBOTH AC1
0160d5: 5004             POPBOTH AC0
0160d7: 50f4             POPBOTH XAR7
0160d9: 50e4             POPBOTH XAR6
0160db: 50d4             POPBOTH XAR5
0160dd: 50c4             POPBOTH XAR4
0160df: 50b4             POPBOTH XAR3
0160e1: 50a4             POPBOTH XAR2
0160e3: 5094             POPBOTH XAR1
0160e5: 5084             POPBOTH XAR0
0160e7: 5072             POP T3
0160e9: 5062             POP T2
0160eb: 5052             POP T1
0160ed: 5042             POP T0
0160ef: 4804             RET
0160f1:               _utlSin:
0160f1: b506_98          PSH mmap(@ST1_55)
0160f4: 4683             BSET ST1_SXMD
0160f6: 4663             BSET ST1_FRCT
0160f8: 46a3             BSET ST1_M40
0160fa: ec318e01841b     AMAR *(#01841bh),XAR0
016100: b003_170069      MOV *AR0+ << #16,AC0 || MOV #6,BRC0
016105: b103_4b82        MOV *AR0+ << #16,AC1 || RPTBLOCAL #0x01610b
016109: 5813                MACR AC0,T0,AC1,AC0
01610b: b103                MOV *AR0+ << #16,AC1
01610d:               $1_$3:
01610d: 100532           SFTS AC0,#-14,AC0
016110: 2204             MOV AC0,T0
016112: bb06_98          POP mmap(@ST1_55)
016115: 4804             RET
016117:               _utlLVecSum:
016117: b506_98          PSH mmap(@ST1_55)
01611a: 4683             BSET ST1_SXMD
01611c: 4693             BSET ST1_SATD
01611e: 4215             SUB #1,T1
016120: 525c             MOV T1,CSR
016122: 144092_3d00      ASUB T0,AR1 || MOV #0,AC0
016127: 149041_4900      AMOV AR1,T0 || RPT CSR
01612c: ed0300              ADD dbl(*AR0+),AC0,AC0
01612f: 5c01             SFTS AC0,T0,AC0
016131: bb06_98          POP mmap(@ST1_55)
016134: 4804             RET
016136:               _utlLFractVecMax:
016136: b506_98          PSH mmap(@ST1_55)
016139: 4683             BSET ST1_SXMD
01613b: 4693             BSET ST1_SATD
01613d: 4224             SUB #2,T0
01613f: 524e             MOV T0,BRC0
016141: ed0308_4b83      MOV dbl(*AR0+),AC0 || RPTBLOCAL #0x016149
016146: ed0318              MOV dbl(*AR0+),AC1
016149: 2e10                MAX AC1,AC0
01614b:               $1_$5:
01614b: bb06_98          POP mmap(@ST1_55)
01614e: 4804             RET
016150:               _utlLsVecMax:
016150: b506_98          PSH mmap(@ST1_55)
016153: 4693             BSET ST1_SATD
016155: 4683             BSET ST1_SXMD
016157: 4224             SUB #2,T0
016159: 524e             MOV T0,BRC0
01615b: a403_4b82        MOV *AR0+,T0 || RPTBLOCAL #0x016161
01615f: a503                MOV *AR0+,T1
016161: 2e54                MAX T1,T0
016163:               $1_$6:
016163: bb06_98          POP mmap(@ST1_55)
016166: 4804             RET
016168:               _utlVecSum:
016168: b506_98          PSH mmap(@ST1_55)
01616b: 4683             BSET ST1_SXMD
01616d: 4693             BSET ST1_SATD
01616f: 4215             SUB #1,T1
016171: 3c00             MOV #0,AC0
016173: 144092_535c      ASUB T0,AR1 || MOV T1,CSR
016178: 149041_4900      AMOV AR1,T0 || RPT CSR
01617d: d60300              ADD *AR0+,AC0,AC0
016180: 5c01             SFTS AC0,T0,AC0
016182: bb06_98          POP mmap(@ST1_55)
016185: 4804             RET
016187:               _IRQ_plug:
016187: 50b5             PSHBOTH XAR3
016189: 50a5             PSHBOTH XAR2
01618b: 4ef7             AADD #-9,SP
01618d: eb0408           MOV AC0,dbl(@#02h)
016190: c40e             MOV T0,@#07h
016192: 3c00             MOV #0,AC0
016194: 900a             MOV AC0,XAR2
016196: 900b             MOV AC0,XAR3
016198: 6c013952         CALL _IRQ_globalDisable
01619c: c410             MOV T0,@#08h
01619e: 20               NOP
01619f: 20               NOP
0161a0: 20               NOP
0161a1: 20               NOP
0161a2: 20               NOP
0161a3: ec31ae000049     AMAR *(#00049h),XAR2
0161a9: 20               NOP
0161aa: 20               NOP
0161ab: 20               NOP
0161ac: 20               NOP
0161ad: 20               NOP
0161ae: a10e             MOV @#07h,AC1
0161b0: 181831           AND #24,AC1,AC3
0161b3: 7c001033         SUB #16,AC3,AC3
0161b7: 9603             XCC AC3 == #0
0161b9: ec31ae00004a     AMAR *(#0004ah),XAR2
0161bf: 105503           SFTS AC1,#3,AC1
0161c2: a041             MOV *AR2,AC0
0161c4: 100504           SFTS AC0,#4,AC0
0161c7: 100504           SFTS AC0,#4,AC0
0161ca: 2a10             OR AC1,AC0
0161cc: 10053f           SFTS AC0,#-1,AC0
0161cf: eb0008           MOV AC0,dbl(@#00h)
0161d2: ed0408           MOV dbl(@#02h),AC0
0161d5: ed00bf           MOV dbl(@#00h),XAR3
0161d8: a90e             MOV @#07h,AR1
0161da: 180fa9           AND #15,AR1,AR2
0161dd: eb6108           MOV AC0,dbl(*AR3)
0161e0: 765e8038         MOV #24192,AC3
0161e4: 402b             ADD #2,AR3
0161e6: c361             MOV AC3,*AR3
0161e8: 401b             ADD #1,AR3
0161ea: c361             MOV AC3,*AR3
0161ec: 22a4             MOV AR2,T0
0161ee: 181099           AND #16,AR1,AR1
0161f1: 3c10             MOV #1,AC0
0161f3: 5c00             SFTL AC0,T0,AC0
0161f5: 2203             MOV AC0,AC3
0161f7: 6319             BCC LIFR1,AR1 != #0
0161f9: 3c1a             MOV #1,AR2
0161fb: c341             MOV AC3,*AR2
0161fd: 4a06             B RESTORE_INTM
0161ff:               LIFR1:
0161ff: 760046a8         MOV #70,AR2
016203: c341             MOV AC3,*AR2
016205:               RESTORE_INTM:
016205: a410             MOV @#08h,T0
016207: 6c013984         CALL _IRQ_globalRestore
01620b:               EPILOGUE:
01620b: 4e09             AADD #9,SP
01620d: 50a4             POPBOTH XAR2
01620f: 50b4             POPBOTH XAR3
016211: 4804             RET
016213:               __remul:
016213: 108700           SFTL AC0,#0,AC2
016216: 120814           CMPU AC0 >= AC1, TC1
016219: 102820_5166      EXP AC2,T2 || PSH T2
01621e: 109700           SFTL AC1,#0,AC2
016221: 102810_21        EXP AC2,T1 || NOP
016225: 2665             SUB T2,T1
016227: 047457           BCC #0x016281,!TC1
01622a: 6290             BCC #0x016231,AC0 != #0
01622c: 3c00             MOV #0,AC0
01622e: 060050           B #0x016281
016231: 3c00_9e81        XCCPART AC1 == #0 || MOV #0,AC0
016235: 040149           BCC #0x016281,AC1 == #0
016238: 3e19             MOV #-1,AR1
01623a: 126c90_21        CMP T2 != AR1, TC1 || NOP
01623e: 5c54             SFTL AC1,T1,AC1
016240: 046415           BCC #0x016258,TC1
016243: 120414           CMPU AC0 < AC1, TC1
016246: 2610_9ef4        XCCPART !TC1 || SUB AC1,AC0
01624a: 5011_9ef4        XCCPART !TC1 || SFTL AC1,#-1
01624e: 5011_9ee4        XCCPART TC1 || SFTL AC1,#-1
016252: 2610_9ee4        XCCPART TC1 || SUB AC1,AC0
016256: 4a02             B #0x01625a
016258: 4015             ADD #1,T1
01625a: 043520           BCC #0x01627d,T1 <= #0
01625d: 7c000195         SUB #1,T1,AR1
016261: 529e             MOV AR1,BRC0
016263: 4a95             RPTBLOCAL reset_isr-11
016265: 120414_3d09         CMPU AC0 < AC1, TC1 || MOV #0,AR1
01626a: 3c19_9ef4           XCCPART !TC1 || MOV #1,AR1
01626e: 120414              CMPU AC0 < AC1, TC1
016271: 2292                MOV AR1,AC2
016273: 2610_9ef4           XCCPART !TC1 || SUB AC1,AC0
016277: 108101              OR AC0 << #1, AC2
01627a: 1a0002              OR #0,AC2,AC0
01627d: 3455             NEG T1,T1
01627f: 5c04             SFTL AC0,T1,AC0
016281: 5062             POP T2
016283: 4804             RET
016285:               reset_isr:
016285: 46b3             BSET ST1_INTM
016287: fb920007_98      MOV #7,mmap(@IVPD)
01628c: fb940007_98      MOV #7,mmap(@IVPH)
016291: 4676             BCLR ST3_CBERR
016293: fb02ffff_98      MOV #-1,mmap(@IFR0)
016298: fb8cffff_98      MOV #-1,mmap(@IFR1)
01629d: e651201c04       MOV #32,port(#01c04h)
0162a2: 5e80             NOP_16
0162a4: fb5100ff1c05     MOV #255,port(#01c05h)
0162aa: 5e80             NOP_16
0162ac: 6a0168e1         B _c_int00
0162b0:               nmi_isr:
0162b0: 4a7e             B nmi_isr
0162b2:               int0_isr:
0162b2: 4a7e             B int0_isr
0162b4:               int1_isr:
0162b4: 4a7e             B int1_isr
0162b6:               tim_isr:
0162b6: 4a7e             B tim_isr
0162b8:               i2s0_mmc0_tx_isr:
0162b8: 4a7e             B i2s0_mmc0_tx_isr
0162ba:               uart_isr:
0162ba: 4a7e             B uart_isr
0162bc:               i2s0_mmc0_rx_isr:
0162bc: 4a7e             B i2s0_mmc0_rx_isr
0162be:               dma_isr:
0162be: 4a7e             B dma_isr
0162c0:               i2s1_mmc1_tx_isr:
0162c0: 4a7e             B i2s1_mmc1_tx_isr
0162c2:               coprocfft_isr:
0162c2: 4a7e             B coprocfft_isr
0162c4:               i2s1_mmc1_rx_isr:
0162c4: 4a7e             B i2s1_mmc1_rx_isr
0162c6:               lcd_isr:
0162c6: 4a7e             B lcd_isr
0162c8:               saradc_isr:
0162c8: 4a7e             B saradc_isr
0162ca:               i2s2_tx_isr:
0162ca: 4a7e             B i2s2_tx_isr
0162cc:               i2s2_rx_isr:
0162cc: 4a7e             B i2s2_rx_isr
0162ce:               i2s3_tx_isr:
0162ce: 4a7e             B i2s3_tx_isr
0162d0:               i2s3_rx_isr:
0162d0: 4a7e             B i2s3_rx_isr
0162d2:               rtc_isr:
0162d2: 4a7e             B rtc_isr
0162d4:               spi_isr:
0162d4: 4a7e             B spi_isr
0162d6:               usb_isr:
0162d6: 4a7e             B usb_isr
0162d8:               gpio_isr:
0162d8: 4a7e             B gpio_isr
0162da:               emif_error_isr:
0162da: 4a7e             B emif_error_isr
0162dc:               i2c_isr:
0162dc: 4a7e             B i2c_isr
0162de:               berr_isr:
0162de: 4676             BCLR ST3_CBERR
0162e0: 4a7c             B berr_isr
0162e2:               dlog_isr:
0162e2: 4a7e             B dlog_isr
0162e4:               rtos_isr:
0162e4: 4a7e             B rtos_isr
0162e6:               rtdxrcv_isr:
0162e6: 4a7e             B rtdxrcv_isr
0162e8:               rtdxxmt_isr:
0162e8: 4a7e             B rtdxxmt_isr
0162ea:               emuint_isr:
0162ea: 4a7e             B emuint_isr
0162ec:               sint30_isr:
0162ec: 4a7e             B sint30_isr
0162ee:               sint31_isr:
0162ee: 4a7e             B sint31_isr
0162f0:               no_isr:
0162f0: 4a7e             B no_isr
0162f2:               _readmsg:
0162f2: ec31be007000     AMAR *(#07000h),XAR3
0162f8: 3c02_170079      MOV #0,AC2 || MOV #7,BRC0
0162fd: ac61_4ba0        MOV *AR3,AR4 || RPTBLOCAL #0x016321
016301: 76fffea2            BFXTR #65534,AC2,AR2
016305: 90b0                MOV XAR3,AC0
016307: 7dffff1a            AND #65535,AR2,AC1
01630b: 2410                ADD AC1,AC0
01630d: 900a                MOV AC0,XAR2
01630f: 106703              SFTL AC2,#3,AC1
016312: df5305_371a         MOV uns(*(AR2+T1)),AC0 || NOT AC1,AR2
016317: 1808aa              AND #8,AR2,AR2
01631a: 34a5                NEG AR2,T1
01631c: 5c05                SFTS AC0,T1,AC0
01631e: 18ff00              AND #255,AC0,AC0
016321: c003_4112           MOV AC0,*AR0+ || ADD #1,AC2
016325: 9090             MOV XAR1,AC0
016327: 040033           BCC #0x01635d,AC0 == #0
01632a: 040c30           BCC #0x01635d,AR4 == #0
01632d: 7c0001ac         SUB #1,AR4,AR2
016331: 52ae             MOV AR2,BRC0
016333: 4aa2_3d02        RPTBLOCAL #0x016359 || MOV #0,AC2
016337: 7b0008a2            ADD #8,AC2,AR2
01633b: 50a1                SFTL AR2,#-1
01633d: 90b0                MOV XAR3,AC0
01633f: 7dffff1a            AND #65535,AR2,AC1
016343: 2410                ADD AC1,AC0
016345: 900a                MOV AC0,XAR2
016347: 106703              SFTL AC2,#3,AC1
01634a: df5305_371a         MOV uns(*(AR2+T1)),AC0 || NOT AC1,AR2
01634f: 1808aa              AND #8,AR2,AR2
016352: 34a5                NEG AR2,T1
016354: 5c05                SFTS AC0,T1,AC0
016356: 18ff00              AND #255,AC0,AC0
016359: c023_4112           MOV AC0,*AR1+ || ADD #1,AC2
01635d: 4804             RET
01635f:               _snlInit:
01635f: 9080             MOV XAR0,AC0
016361: 3c14_9e80        XCCPART AC0 == #0 || MOV #1,T0
016365: 040052           BCC $C$L4,AC0 == #0
016368: 3c19             MOV #1,AR1
01636a: 124090           CMP T0 == AR1, TC1
01636d: 6664             BCC $C$L1,TC1
01636f: 3c29             MOV #2,AR1
016371: 124090           CMP T0 == AR1, TC1
016374: 3c24_9ef4        XCCPART !TC1 || MOV #2,T0
016378: 04743f           BCC $C$L4,!TC1
01637b:               $C$L1:
01637b: ec01be_4d09      AMAR *AR0,XAR3 || RPT #9
016380:               $C$L2:
016380:               $C$DW$L$_snlInit$5$B:
016380: e66300              MOV #0,*AR3+
016383:               $C$DW$L$_snlInit$5$E:
016383:               $C$L3:
016383: ed0d080008       MOV dbl(*AR0(#0008h)),AC0
016388: f41d00ff         AND #255,*(AR0+AR0B)
01638c: ec3a02           BCLR @#1dh,AC0
01638f: fb171038_3749    MOV #4152,*AR0(T1) || NOT T0,AR1
016395: eb0d080008       MOV AC0,dbl(*AR0(#0008h))
01639a: f51d8500_2390    OR #34048,*(AR0+AR0B) || MOV AR1,AC0
0163a0: 180110           AND #1,AC0,AC1
0163a3: ed0d080008       MOV dbl(*AR0(#0008h)),AC0
0163a8: 10111d_3d04      OR AC1 << #29, AC0 || MOV #0,T0
0163ad: fb1b7f00         MOV #32512,*-AR0
0163b1: fb197f00         MOV #32512,*+AR0
0163b5: eb0d080008       MOV AC0,dbl(*AR0(#0008h))
0163ba:               $C$L4:
0163ba: 4804             RET
0163bc:               _snlGetSizes:
0163bc: 9080             MOV XAR0,AC0
0163be: 3c04             MOV #0,T0
0163c0: 3c14_9e80        XCCPART AC0 == #0 || MOV #1,T0
0163c4: e6010a_9e90      XCCPART AC0 != #0 || MOV #10,*AR0
0163c9: 4804             RET
0163cb:               _wngInit:
0163cb: 5066             PSH T2
0163cd: 5076             PSH T3
0163cf: 4eff             AADD #-1,SP
0163d1: 04444a           BCC $C$L5,T0 > #0
0163d4: 76ffbaa8         MOV #-70,AR2
0163d8: 1244a0           CMP T0 < AR2, TC1
0163db: 64e4             BCC $C$L1,TC1
0163dd: 3e5a             MOV #-5,AR2
0163df: 1244a0           CMP T0 < AR2, TC1
0163e2: 6364             BCC $C$L2,TC1
0163e4: 4a3a             B $C$L6
0163e6:               $C$L1:
0163e6: 76ffba48         MOV #-70,T0
0163ea:               $C$L2:
0163ea: 3e5a             MOV #-5,AR2
0163ec: 3c06             MOV #0,T2
0163ee:               $C$DW$L$_wngInit$7$B:
0163ee:               $C$L3:
0163ee: 4016             ADD #1,T2
0163f0: 4064             ADD #6,T0
0163f2: 1244a0           CMP T0 < AR2, TC1
0163f5: 0464f6           BCC $C$DW$L$_wngInit$7$B,TC1
0163f8:               $C$DW$L$_wngInit$7$E:
0163f8: ec31be018423     AMAR *(#018423h),XAR3
0163fe: b469             AMAR *(AR3-AR0)
016400: a061             MOV *AR3,AC0
016402: 043615           BCC $C$L4,T2 <= #0
016405: 7c000176         SUB #1,T2,T3
016409: 3c11             MOV #1,AC1
01640b: 3e11_5b1c        MOV #-1,AC1 || ADD AC1 << T3,AC0
01640f: 5c59             SFTS AC1,T2,AC1
016411: 2801             AND AC0,AC1
016413: 3466             NEG T2,T2
016415: a016_98          MOV mmap(@AC1L),AC0
016418: 5c09             SFTS AC0,T2,AC0
01641a:               $C$L4:
01641a: c001             MOV AC0,*AR0
01641c: 4a0d             B $C$L7
01641e:               $C$L5:
01641e: 3c04             MOV #0,T0
016420:               $C$L6:
016420: ec31be018423     AMAR *(#018423h),XAR3
016426: b469             AMAR *(AR3-AR0)
016428: 806004           MOV *AR3,*AR0
01642b:               $C$L7:
01642b: c521             MOV T1,*AR1
01642d: 4e01             AADD #1,SP
01642f: 5072             POP T3
016431: 5062             POP T2
016433: 4804             RET
016435:               _srand:
016435: 5066             PSH T2
016437: ed31080152fa     MOV dbl(*(#0152fah)),AC0
01643d: 2246             MOV T0,T2
01643f: 9200             CALL AC0
016441: 7dffff06         AND #65535,T2,AC0
016445: eb3108015302     MOV AC0,dbl(*(#015302h))
01644b: ed31080152fc     MOV dbl(*(#0152fch)),AC0
016451: 9200             CALL AC0
016453: 5062             POP T2
016455: 4804             RET
016457:               _rand:
016457: ed31080152fa     MOV dbl(*(#0152fah)),AC0
01645d: 4efd             AADD #-3,SP
01645f: 9200             CALL AC0
016461: 7a41c61a         MOV #16838 << #16,AC1
016465: ed3108015302     MOV dbl(*(#015302h)),AC0
01646b: 7e4e6d11         OR #20077,AC1,AC1
01646f: 6c01696a         CALL I$$LMPY
016473: 7b303900         ADD #12345,AC0,AC0
016477: eb0008           MOV AC0,dbl(@#00h)
01647a: ed0008           MOV dbl(@#00h),AC0
01647d: eb3108015302     MOV AC0,dbl(*(#015302h))
016483: ed31080152fc     MOV dbl(*(#0152fch)),AC0
016489: 9200             CALL AC0
01648b: a900             MOV @#00h,AR1
01648d: 7d7fff49         AND #32767,AR1,T0
016491: 4e03             AADD #3,SP
016493: 4804             RET
016495:               _svdInit:
016495: 5066             PSH T2
016497: 50d5             PSHBOTH XAR5
016499: 4eff             AADD #-1,SP
01649b: ec01de           AMAR *AR0,XAR5
01649e: 90d0_2346        MOV XAR5,AC0 || MOV T0,T2
0164a2: 3c14_9e80        XCCPART AC0 == #0 || MOV #1,T0
0164a6: 040035           BCC $C$L3,AC0 == #0
0164a9: 3c19             MOV #1,AR1
0164ab: 126090           CMP T2 == AR1, TC1
0164ae: 6664             BCC $C$L1,TC1
0164b0: 3c29             MOV #2,AR1
0164b2: 126090           CMP T2 == AR1, TC1
0164b5: 3c24_9ef4        XCCPART !TC1 || MOV #2,T0
0164b9: 047422           BCC $C$L3,!TC1
0164bc:               $C$L1:
0164bc: 2264             MOV T2,T0
0164be: 6c01635f         CALL _snlInit
0164c2: 3c00             MOV #0,AC0
0164c4: c6ad000c         MOV T2,*AR5(#000ch)
0164c8: ebad08000a       MOV AC0,dbl(*AR5(#000ah))
0164cd: 6684             BCC $C$L2,T0 == #0
0164cf: 3c29             MOV #2,AR1
0164d1: 124090           CMP T0 == AR1, TC1
0164d4: 3c14             MOV #1,T0
0164d6: 3c24_9ee4        XCCPART TC1 || MOV #2,T0
0164da: 4a02             B $C$L3
0164dc:               $C$L2:
0164dc: 3c04             MOV #0,T0
0164de:               $C$L3:
0164de: 4e01             AADD #1,SP
0164e0: 50d4             POPBOTH XAR5
0164e2: 5062             POP T2
0164e4: 4804             RET
0164e6:               _svdGetSizes:
0164e6: 9080             MOV XAR0,AC0
0164e8: 3c04             MOV #0,T0
0164ea: 3c14_9e80        XCCPART AC0 == #0 || MOV #1,T0
0164ee: e6010e_9e90      XCCPART AC0 != #0 || MOV #14,*AR0
0164f3: 4804             RET
0164f5:               _utlLin2dBPower:
0164f5: b506_98          PSH mmap(@ST1_55)
0164f8: 4683             BSET ST1_SXMD
0164fa: 46a3             BSET ST1_M40
0164fc: 4010             ADD #1,AC0
0164fe: 100800           EXP AC0,T0
016501: ec319e018432     AMAR *(#018432h),XAR1
016507: 7c001e44         SUB #30,T0,T0
01650b: 3444             NEG T0,T0
01650d: 2243             MOV T0,AC3
01650f: 42f4             SUB #15,T0
016511: 3444             NEG T0,T0
016513: 5c41             SFTS AC0,T0,AC1
016515: 7100015f         SUB #1 << #15,AC1,AC1
016519: 4663             BSET ST1_FRCT
01651b: 2214_170029      MOV AC1,T0 || MOV #2,BRC0
016520: b023             MOV *AR1+ << #16,AC0
016522: b223_4b82        MOV *AR1+ << #16,AC2 || RPTBLOCAL #0x016528
016526: 5823                MACR AC0,T0,AC2,AC0
016528: b223                MOV *AR1+ << #16,AC2
01652a:               $1_$4:
01652a: 4662_11052d      BCLR ST1_FRCT || SFTS AC0,#-19,AC0
01652f: 103309           ADD AC3 << #9,AC0
016532: 100510           SFTS AC0,#16,AC0
016535: 79605400         MPYK #24660,AC0,AC0
016539: 100532           SFTS AC0,#-14,AC0
01653c: 7c544c00         SUB #21580,AC0,AC0
016540: 10053c           SFTS AC0,#-4,AC0
016543: 2204             MOV AC0,T0
016545: bb06_98          POP mmap(@ST1_55)
016548: 4804             RET
01654a:               _slm_proc:
01654a: 3876             PSH T3,T2
01654c: 50d5             PSHBOTH XAR5
01654e: b506_98          PSH mmap(@ST1_55)
016551: 4683             BSET ST1_SXMD
016553: 2257             MOV T1,T3
016555: a641             MOV *AR2,T2
016557: 7c0001c4         SUB #1,T0,AR4
01655b: 52ce             MOV AR4,BRC0
01655d: a421             MOV *AR1,T0
01655f: 76001258         MOV #18,T1
016563: a161_4ba5        MOV *AR3,AC1 || RPTBLOCAL #0x01658c
016567: d30106              MPYM *AR0,T2,AC0
01656a: 3466_9ea0           XCCPART AC0 < #0 || NEG T2,T2
01656e: 3c04_9ea0           XCCPART AC0 < #0 || MOV #0,T0
016572: 3200                ABS AC0,AC0
016574: 120410_21           CMP AC0 < AC1, TC1 || NOP
016578: 3c04_9ee4           XCCPART TC1 || MOV #0,T0
01657c: a26b                MOV *AR3(AR0),AC2
01657e: 122400              CMP AC2 < AC0, TC1
016581: d36b36              MPYM *AR3(AR0),T2,AC3
016584: 2474_9ee4           XCCPART TC1 || ADD T3,T0
016588: c301_9ee4           XCCPART TC1 || MOV AC3,*AR0
01658c: b403_3154           AMAR *AR0+ || MIN T1,T0
016590:               $1_$1:
016590: c421             MOV T0,*AR1
016592: c641             MOV T2,*AR2
016594: bb06_98          POP mmap(@ST1_55)
016597: 50d4             POPBOTH XAR5
016599: 3a76             POP T3,T2
01659b: 4804             RET
01659d:               _utlScaleUp6dB:
01659d: 6734             BCC $C$DW$L$_utlScaleUp6dB$3$E,T0 <= #0
01659f: 7c0001a4         SUB #1,T0,AR2
0165a3: 52ae             MOV AR2,BRC0
0165a5: 4a84             RPTBLOCAL $C$DW$L$_utlScaleUp6dB$3$E-2
0165a7:               $C$L1:
0165a7:               $C$DW$L$_utlScaleUp6dB$3$B:
0165a7: aa03                MOV *AR0+,AR2
0165a9: 50a0                SFTL AR2,#1
0165ab: ca23                MOV AR2,*AR1+
0165ad:               $C$DW$L$_utlScaleUp6dB$3$E:
0165ad:               $C$L2:
0165ad: 4804             RET
0165af:               _utlScaleDown6dB:
0165af: 6734             BCC $C$DW$L$_utlScaleDown6dB$3$E,T0 <= #0
0165b1: 7c0001a4         SUB #1,T0,AR2
0165b5: 52ae             MOV AR2,BRC0
0165b7: 4a84             RPTBLOCAL $C$DW$L$_utlScaleDown6dB$3$E-2
0165b9:               $C$L3:
0165b9:               $C$DW$L$_utlScaleDown6dB$3$B:
0165b9: aa03                MOV *AR0+,AR2
0165bb: 444a                SFTS AR2,#-1
0165bd: ca23                MOV AR2,*AR1+
0165bf:               $C$DW$L$_utlScaleDown6dB$3$E:
0165bf:               $C$L4:
0165bf: 4804             RET
0165c1:               _utlLsMemSet:
0165c1: 6535             BCC $C$DW$L$_utlLsMemSet$3$E,T1 <= #0
0165c3: 7c000195         SUB #1,T1,AR1
0165c7: 529c             MOV AR1,CSR
0165c9: 4800             RPT CSR
0165cb:               $C$L5:
0165cb:               $C$DW$L$_utlLsMemSet$3$B:
0165cb: c403                MOV T0,*AR0+
0165cd:               $C$DW$L$_utlLsMemSet$3$E:
0165cd:               $C$L6:
0165cd: 4804             RET
0165cf:               _utlLFractMemSet:
0165cf: 65b4             BCC $C$DW$L$_utlLFractMemSet$3$E,T0 <= #0
0165d1: 7c000194         SUB #1,T0,AR1
0165d5: 529c             MOV AR1,CSR
0165d7: 4800             RPT CSR
0165d9:               $C$L7:
0165d9:               $C$DW$L$_utlLFractMemSet$3$B:
0165d9: eb0308              MOV AC0,dbl(*AR0+)
0165dc:               $C$DW$L$_utlLFractMemSet$3$E:
0165dc:               $C$L8:
0165dc: 4804             RET
0165de:               _utlFractMemSet:
0165de: 6535             BCC $C$DW$L$_utlFractMemSet$3$E,T1 <= #0
0165e0: 7c000195         SUB #1,T1,AR1
0165e4: 529c             MOV AR1,CSR
0165e6: 4800             RPT CSR
0165e8:               $C$L9:
0165e8:               $C$DW$L$_utlFractMemSet$3$B:
0165e8: c403                MOV T0,*AR0+
0165ea:               $C$DW$L$_utlFractMemSet$3$E:
0165ea:               $C$L10:
0165ea: 4804             RET
0165ec:               _auto_init:
0165ec: 4eff             AADD #-1,SP
0165ee: ec318e00b4d5     AMAR *(#0b4d5h),XAR0
0165f4: 368f             NOT AR0,AR7
0165f6: 040f29           BCC #0x016622,AR7 == #0
0165f9: aa03             MOV *AR0+,AR2
0165fb: 040a24           BCC #0x016622,AR2 == #0
0165fe: f9038808_431a    MOV uns(*AR0+) << #8,AC0 || SUB #1,AR2
016604: df0315_53ac      MOV uns(*AR0+),AC1 || MOV AR2,CSR
016609: 101138           OR AC1 << #-8, AC0
01660c: 18ff11           AND #255,AC1,AC1
01660f: 900e             MOV AC0,XAR6
016611: 6391             BCC #0x01661a,AC1 != #0
016613: 4800             RPT CSR
016615: 800714              MOV *AR0+,*AR6+
016618: 4a5f             B #0x0165f9
01661a: 4800             RPT CSR
01661c: 800714_9a           MOV *AR0+,port(*AR6+)
016620: 4a57             B #0x0165f9
016622: ec31ee7fffff     AMAR *(#07fffffh),XAR6
016628: 36ef             NOT AR6,AR7
01662a: 648f             BCC #0x016635,AR7 == #0
01662c: edc308           MOV dbl(*AR6+),AC0
01662f: 6200             BCC #0x016635,AC0 == #0
016631: 9200             CALL AC0
016633: 4a77             B #0x01662c
016635: 4e01             AADD #1,SP
016637: 4804             RET
016639:               __args_main:
016639: 7affff0a         MOV #-1 << #16,AC0
01663d: 7affff1a         MOV #-1 << #16,AC1
016641: 7effff00         OR #65535,AC0,AC0
016645: 7effff11         OR #65535,AC1,AC1
016649: 121c04           CMPU AC1 != AC0, TC1
01664c: 4eff             AADD #-1,SP
01664e: 20               NOP
01664f: 20               NOP
016650: 3c04_9ef4        XCCPART !TC1 || MOV #0,T0
016654: 9674             XCC !TC1
016656: ec318e000000     AMAR *(#00000h),XAR0
01665c: 04741d           BCC #0x01667c,!TC1
01665f: 7affff0a         MOV #-1 << #16,AC0
016663: 7effff00         OR #65535,AC0,AC0
016667: 900b             MOV AC0,XAR3
016669: 7affff0a         MOV #-1 << #16,AC0
01666d: a461             MOV *AR3,T0
01666f: 7effff00         OR #65535,AC0,AC0
016673: 900b             MOV AC0,XAR3
016675: 1402b4           AADD #2,AR3
016678: 90b0             MOV XAR3,AC0
01667a: 9008             MOV AC0,XAR0
01667c: 6c012844         CALL _main
016680: 4e01             AADD #1,SP
016682: 4804             RET
016684:               __divli:
016684: 1a0021_5166      OR #0,AC1,AC2 || PSH T2
016689: 2c02_3d06        XOR AC0,AC2 || MOV #0,T2
01668d: 7a7fff0a_9e81    XCCPART AC1 == #0 || MOV #32767 << #16,AC0
016693: 3c16_9ea2        XCCPART AC2 < #0 || MOV #1,T2
016697: 7effff00_9e81    XCCPART AC1 == #0 || OR #65535,AC0,AC0
01669d: 040128           BCC #0x0166c8,AC1 == #0
0166a0: 7a80002a         MOV #-32768 << #16,AC2
0166a4: 120020           CMP AC0 == AC2, TC1
0166a7: 3200             ABS AC0,AC0
0166a9: 7a80000a_9ee4    XCCPART TC1 || MOV #-32768 << #16,AC0
0166af: 121020           CMP AC1 == AC2, TC1
0166b2: 3211             ABS AC1,AC1
0166b4: 7a80001a_9ee4    XCCPART TC1 || MOV #-32768 << #16,AC1
0166ba: 6c015fb5         CALL __divul
0166be: 1a0010           OR #0,AC0,AC1
0166c1: 3400             NEG AC0,AC0
0166c3: 1a0001_9e86      XCCPART T2 == #0 || OR #0,AC1,AC0
0166c8: 5062             POP T2
0166ca: 4804             RET
0166cc:               _wngGenNoiseFrame:
0166cc: b506_98          PSH mmap(@ST1_55)
0166cf: b596_98          PSH mmap(@ST2_55)
0166d2: 4225             SUB #2,T1
0166d4: 525e             MOV T1,BRC0
0166d6: 5242             MOV T0,HI(AC2)
0166d8: 76b50558         MOV #-19195,T1
0166dc: 3c10             MOV #1,AC0
0166de: d40134           MACM *AR0,T1,AC0,AC3
0166e1: c301             MOV AC3,*AR0
0166e3: d30112           MPYM *AR0,AC2,AC1
0166e6: 4a85             RPTBLOCAL $1_$3-6
0166e8: d40134              MACM *AR0,T1,AC0,AC3
0166eb: c301                MOV AC3,*AR0
0166ed: 8d0093e91271        MPYM *AR0,AC2,AC1 || MOV AC1 << #-15,*AR1+
0166f3:               $1_$3:
0166f3: e92371           MOV AC1 << #-15,*AR1+
0166f6: bb96_98          POP mmap(@ST2_55)
0166f9: bb06_98          POP mmap(@ST1_55)
0166fc: 4804             RET
0166fe:               _wngGenNoiseSample:
0166fe: 76b50558         MOV #-19195,T1
016702: d3010d           MPYMU *AR0,T1,AC0
016705: 4010             ADD #1,AC0
016707: c001             MOV AC0,*AR0
016709: 3ef5             MOV #-15,T1
01670b: d30114           MPYM *AR0,T0,AC1
01670e: 5c55             SFTS AC1,T1,AC1
016710: 2214             MOV AC1,T0
016712: 4804             RET
016714:               _slmInit:
016714: 9080             MOV XAR0,AC0
016716: 6200             BCC $C$L1,AC0 == #0
016718: 9090             MOV XAR1,AC0
01671a: 6210             BCC $C$L2,AC0 != #0
01671c:               $C$L1:
01671c: 3c14             MOV #1,T0
01671e: 4a2a             B $C$L4
016720:               $C$L2:
016720: f401fff0         AND #65520,*AR0
016724: dc2100           BTST #0,*AR1,TC1
016727: f401f3ff_9e74    XCC !TC1 || AND #62463,*AR0
01672d: f5010800_9e74    XCC !TC1 || OR #2048,*AR0
016733: 047412           BCC $C$L3,!TC1
016736: f401f3ff         AND #62463,*AR0
01673a: 20               NOP
01673b: 20               NOP
01673c: a933             MOV *(AR1+T1),AR1
01673e: a001_190319      MOV *AR0,AC0 || AND #3,AR1,AC1
016743: 10110a           OR AC1 << #10, AC0
016746: c001             MOV AC0,*AR0
016748:               $C$L3:
016748: 3c04             MOV #0,T0
01674a:               $C$L4:
01674a: 4804             RET
01674c:               _slmGetSizes:
01674c: 9080             MOV XAR0,AC0
01674e: 3c04             MOV #0,T0
016750: 3c14_9e80        XCCPART AC0 == #0 || MOV #1,T0
016754: e60101_9e90      XCCPART AC0 != #0 || MOV #1,*AR0
016759: 4804             RET
01675b:               _hlc_power_calc:
01675b: b506_98          PSH mmap(@ST1_55)
01675e: b596_98          PSH mmap(@ST2_55)
016761: 4eff             AADD #-1,SP
016763: 3c03             MOV #0,AC3
016765: ed2108           MOV dbl(*AR1),AC0
016768: ed4118           MOV dbl(*AR2),AC1
01676b: 4214             SUB #1,T0
01676d: 524e             MOV T0,BRC0
01676f: 4a9c             RPTBLOCAL hpow_loop-2
016771: f9010f28            MOV *AR0 << #15,AC2
016775: 2602                SUB AC0,AC2
016777: 5ca5                SFTS AC2,T1,AC2
016779: 2420                ADD AC2,AC0
01677b: f9030f28            MOV *AR0+ << #15,AC2
01677f: 2602                SUB AC0,AC2
016781: 4452                SFTS AC2,#1
016783: 54ad                SATR AC2,AC2
016785: 54a8                SQR AC2,AC2
016787: 2612                SUB AC1,AC2
016789: 5ca5                SFTS AC2,T1,AC2
01678b: 2421                ADD AC2,AC1
01678d: 2e13                MAX AC1,AC3
01678f:               hpow_loop:
01678f: eb2108           MOV AC0,dbl(*AR1)
016792: eb4118           MOV AC1,dbl(*AR2)
016795: eb6138           MOV AC3,dbl(*AR3)
016798: 4e01             AADD #1,SP
01679a: bb96_98          POP mmap(@ST2_55)
01679d: bb06_98          POP mmap(@ST1_55)
0167a0: 4804             RET
0167a2:               __setjmp:
0167a2:               _setjmp:
0167a2: eb0304           MOV RETA,dbl(*AR0+)
0167a5: eb03d5           MOV XAR5,dbl(*AR0+)
0167a8: eb03e5           MOV XAR6,dbl(*AR0+)
0167ab: eb03f5           MOV XAR7,dbl(*AR0+)
0167ae: eb0345           MOV XSP,dbl(*AR0+)
0167b1: eb0355           MOV XSSP,dbl(*AR0+)
0167b4: 5014             POPBOTH AC1
0167b6: 5015             PSHBOTH AC1
0167b8: eb0318           MOV AC1,dbl(*AR0+)
0167bb: c603             MOV T2,*AR0+
0167bd: c703             MOV T3,*AR0+
0167bf: 3c04             MOV #0,T0
0167c1: 4804             RET
0167c3:               _longjmp:
0167c3: ed0306           MOV dbl(*AR0+),RETA
0167c6: ed03df           MOV dbl(*AR0+),XAR5
0167c9: ed03ef           MOV dbl(*AR0+),XAR6
0167cc: ed03ff           MOV dbl(*AR0+),XAR7
0167cf: ed034f           MOV dbl(*AR0+),XSP
0167d2: ed035f           MOV dbl(*AR0+),XSSP
0167d5: ed0318           MOV dbl(*AR0+),AC1
0167d8: 20               NOP
0167d9: 5024             POPBOTH AC2
0167db: 5015             PSHBOTH AC1
0167dd: a603             MOV *AR0+,T2
0167df: a703             MOV *AR0+,T3
0167e1: 3c14_9e84        XCCPART T0 == #0 || MOV #1,T0
0167e5: 4804             RET
0167e7:               _utldB2LinPower:
0167e7: b506_98          PSH mmap(@ST1_55)
0167ea: 4683             BSET ST1_SXMD
0167ec: 46a3             BSET ST1_M40
0167ee: ec318e01842e     AMAR *(#01842eh),XAR0
0167f4: 3c00             MOV #0,AC0
0167f6: 792a8502         MACK T0,#10885,AC0,AC0
0167fa: 100535           SFTS AC0,#-11,AC0
0167fd: 7b1c0100         ADD #7169,AC0,AC0
016801: 4663             BSET ST1_FRCT
016803: 104538           SFTS AC0,#-8,AC1
016806: 100507           SFTS AC0,#7,AC0
016809: 10140f           SUB AC1 << #15,AC0
01680c: 2204_170029      MOV AC0,T0 || MOV #2,BRC0
016811: b003             MOV *AR0+ << #16,AC0
016813: b203_4b82        MOV *AR0+ << #16,AC2 || RPTBLOCAL #0x016819
016817: 5823                MACR AC0,T0,AC2,AC0
016819: b203                MOV *AR0+ << #16,AC2
01681b:               $1_$4:
01681b: 7c001e51         SUB #30,AC1,T1
01681f: 5c05_4762        SFTS AC0,T1,AC0 || BCLR ST1_FRCT
016823: bb06_98          POP mmap(@ST1_55)
016826: 4804             RET
016828:               _memcpy:
016828: df4005_98        MOV uns(mmap(@T0)),AC0
01682c: ec01ae           AMAR *AR0,XAR2
01682f: 6f051824         BCCU #0x016857,AC0 < #24
016833: 228b             MOV AR0,AR3
016835: 2a9b             OR AR1,AR3
016837: 1801bb           AND #1,AR3,AR3
01683a: 041b1a           BCC #0x016857,AR3 != #0
01683d: 5001_190150      SFTL AC0,#-1 || AND #1,AC0,T1
016842: 4210             SUB #1,AC0
016844: 64a0             BCC #0x01684f,AC0 < #0
016846: dc1003_98        MOV mmap(@AC0L),CSR
01684a: 4800             RPT CSR
01684c: 802510              MOV dbl(*AR1+),dbl(*AR2+)
01684f: 020500           RETCC T1 == #0
016852: 802104           MOV *AR1,*AR2
016855: 4804             RET
016857: 020000_4310      RETCC AC0 == #0 || SUB #1,AC0
01685c: dc1003_98        MOV mmap(@AC0L),CSR
016860: 4800             RPT CSR
016862: 802514              MOV *AR1+,*AR2+
016865: 4804             RET
016867:               _exit:
016867: 5066             PSH T2
016869: ed31080152fa     MOV dbl(*(#0152fah)),AC0
01686f: 2246             MOV T0,T2
016871: 9200             CALL AC0
016873: ed3108015300     MOV dbl(*(#015300h)),AC0
016879: 6500             BCC #0x016885,AC0 == #0
01687b: ed3108015300     MOV dbl(*(#015300h)),AC0
016881: 2264             MOV T2,T0
016883: 9200             CALL AC0
016885: ed31080152fe     MOV dbl(*(#0152feh)),AC0
01688b: 6400             BCC #0x016895,AC0 == #0
01688d: ed31080152fe     MOV dbl(*(#0152feh)),AC0
016893: 9200             CALL AC0
016895: ed31080152fc     MOV dbl(*(#0152fch)),AC0
01689b: 9200             CALL AC0
01689d: 6c0169a0         CALL _abort
0168a1: 5062             POP T2
0168a3: 4804             RET
0168a5:               I$$DIV:
0168a5:               __divi:
0168a5: 4eff             AADD #-1,SP
0168a7: 225c_3351        MOV T1,AR4 || ABS T1,AC1
0168ab: c100_3340        MOV AC1,@#00h || ABS T0,AC0
0168af: 4682_4d0f        BCLR ST1_SXMD || RPT #15
0168b3: de0003              SUBC @#00h,AC0,AC0
0168b6: 4683             BSET ST1_SXMD
0168b8: 2c4c             XOR T0,AR4
0168ba: 2204             MOV AC0,T0
0168bc: 3444_9eac        XCCPART AR4 < #0 || NEG T0,T0
0168c0: 4e01             AADD #1,SP
0168c2: 4804             RET
0168c4:               I$$MOD:
0168c4:               __remi:
0168c4: 4eff_3351        AADD #-1,SP || ABS T1,AC1
0168c8: c100_3340        MOV AC1,@#00h || ABS T0,AC0
0168cc: 4682_4d0f        BCLR ST1_SXMD || RPT #15
0168d0: de0003              SUBC @#00h,AC0,AC0
0168d3: 4683             BSET ST1_SXMD
0168d5: 2245             MOV T0,T1
0168d7: 4404             MOV HI(AC0),T0
0168d9: 6155             BCC #0x0168dd,T1 >= #0
0168db: 3444             NEG T0,T0
0168dd: 4e01             AADD #1,SP
0168df: 4804             RET
0168e1:               _c_int00:
0168e1: ec314e000380     AMAR *(#00380h),XSP
0168e7: ec315e000280     AMAR *(#00280h),XSSP
0168ed: f406f91f_98      AND #63775,mmap(@ST1_55)
0168f2: f5064100_98      OR #16640,mmap(@ST1_55)
0168f7: f496fa00_98      AND #64000,mmap(@ST2_55)
0168fc: f5968000_98      OR #32768,mmap(@ST2_55)
016901: 4656             BCLR ST3_SATA
016903: 4617             BSET ST3_SMUL
016905: 4606             BCLR ST3_SST
016907: 6c0165ec         CALL _auto_init
01690b: 6c016639         CALL __args_main
01690f: 3c19             MOV #1,AR1
016911: 6c016867         CALL _exit
016915:               I$$UDIV:
016915:               __divu:
016915: 4eff             AADD #-1,SP
016917: 4682             BCLR ST1_SXMD
016919: c500_2340        MOV T1,@#00h || MOV T0,AC0
01691d: 4c0f             RPT #15
01691f: de0003              SUBC @#00h,AC0,AC0
016922: 4683             BSET ST1_SXMD
016924: 2204             MOV AC0,T0
016926: 4e01             AADD #1,SP
016928: 4804             RET
01692a:               I$$UMOD:
01692a:               __remu:
01692a: 4eff             AADD #-1,SP
01692c: 4682             BCLR ST1_SXMD
01692e: c500_2340        MOV T1,@#00h || MOV T0,AC0
016932: 4c0f             RPT #15
016934: de0003              SUBC @#00h,AC0,AC0
016937: 4683             BSET ST1_SXMD
016939: 4404             MOV HI(AC0),T0
01693b: 4e01             AADD #1,SP
01693d: 4804             RET
01693f:               _time:
01693f: 50d5             PSHBOTH XAR5
016941: 20               NOP
016942: 20               NOP
016943: 20               NOP
016944: ec01de           AMAR *AR0,XAR5
016947: 6c0130c4         CALL _HOSTtime
01694b: 90d1             MOV XAR5,AC1
01694d: eba108_9e11      XCC AC1 != #0 || MOV AC0,dbl(*AR5)
016952: 50d4             POPBOTH XAR5
016954: 4804             RET
016956:               _strcpy:
016956: aa21             MOV *AR1,AR2
016958: ec01be           AMAR *AR0,XAR3
01695b: ca63             MOV AR2,*AR3+
01695d: 648a             BCC #0x016968,AR2 == #0
01695f: aa2f0001         MOV *+AR1(#0001h),AR2
016963: ca63             MOV AR2,*AR3+
016965: 041af7           BCC #0x01695f,AR2 != #0
016968: 4804             RET
01696a:               I$$LMPY:
01696a:               __mpyli:
01696a: 5016_2304        PSH AC1 || MOV AC0,T0
01696e: d30000           MPYM @#00h,AC0,AC0
016971: 5842             MAC AC1,T0,AC0,AC1
016973: d3000c           MPYMU @#00h,T0,AC0
016976: 101310_4f01      ADD AC1 << #16,AC0 || AADD #1,SP
01697b: 4804             RET
01697d:               __register_unlock:
01697d: eb31080152fc     MOV AC0,dbl(*(#0152fch))
016983: 4804             RET
016985:               __register_lock:
016985: eb31080152fa     MOV AC0,dbl(*(#0152fah))
01698b: 4804             RET
01698d:               __nop:
01698d: 4804             RET
01698f:               _memset:
01698f: ec01be           AMAR *AR0,XAR3
016992: 6505             BCC #0x01699e,T1 == #0
016994: 7c000195         SUB #1,T1,AR1
016998: 529c             MOV AR1,CSR
01699a: 4800             RPT CSR
01699c: c463                MOV T0,*AR3+
01699e: 4804             RET
0169a0:               _abort:
0169a0:               .text:CIO_breakpoint:
0169a0: 20               NOP
0169a1:               C$$EXIT:
0169a1: 20               NOP
0169a2: 16000c           SIM_TRIG
0169a5: 4a7e             B #0x0169a5
0169a7: 4a7e             B #0x0169a7
0169a9: 20               NOP

DATA section .const, 0x3132 words load/run at 0x15304
015304:               _sgn_css_n_samples_16k:
015304:               .const:_sgn_css_n_samples_16k:
015304:               .const:
015304: 109e             .word 0x109e
015305: 0c91             .word 0x0c91
015306: 10d1             .word 0x10d1
015307: 369b             .word 0x369b
015308: 3381             .word 0x3381
015309: 1a89             .word 0x1a89
01530a: 351e             .word 0x351e
01530b: 2f08             .word 0x2f08
01530c: 1323             .word 0x1323
01530d: 1b0b             .word 0x1b0b
01530e: 31e7             .word 0x31e7
01530f: 29a5             .word 0x29a5
015310: 20fc             .word 0x20fc
015311: 180b             .word 0x180b
015312: 0ba1             .word 0x0ba1
015313: 1c85             .word 0x1c85
015314: 0c3b             .word 0x0c3b
015315: 2bff             .word 0x2bff
015316: 300a             .word 0x300a
015317: 1141             .word 0x1141
015318: 06df             .word 0x06df
015319: e0d4             .word 0xe0d4
01531a: e781             .word 0xe781
01531b: db20             .word 0xdb20
01531c: c999             .word 0xc999
01531d: c329             .word 0xc329
01531e: bc6d             .word 0xbc6d
01531f: ba27             .word 0xba27
015320: bcf8             .word 0xbcf8
015321: cc14             .word 0xcc14
015322: cc92             .word 0xcc92
015323: ec7a             .word 0xec7a
015324: ea8c             .word 0xea8c
015325: c31b             .word 0xc31b
015326: c067             .word 0xc067
015327: cfd4             .word 0xcfd4
015328: d65f             .word 0xd65f
015329: d711             .word 0xd711
01532a: dc5c             .word 0xdc5c
01532b: f0ab             .word 0xf0ab
01532c: f3e9             .word 0xf3e9
01532d: d50e             .word 0xd50e
01532e: e7b6             .word 0xe7b6
01532f: 0c07             .word 0x0c07
015330: 0f10             .word 0x0f10
015331: 1342             .word 0x1342
015332: 0ffd             .word 0x0ffd
015333: 0ef7             .word 0x0ef7
015334: 277d             .word 0x277d
015335: 277e             .word 0x277e
015336: 051e             .word 0x051e
015337: fbfc             .word 0xfbfc
015338: fa91             .word 0xfa91
015339: 0110             .word 0x0110
01533a: 1916             .word 0x1916
01533b: 2d36             .word 0x2d36
01533c: 18bb             .word 0x18bb
01533d: ed2d             .word 0xed2d
01533e: f46d             .word 0xf46d
01533f: 0340             .word 0x0340
015340: 0182             .word 0x0182
015341: f980             .word 0xf980
015342: df5c             .word 0xdf5c
015343: d030             .word 0xd030
015344: d75f             .word 0xd75f
015345: e1ef             .word 0xe1ef
015346: f646             .word 0xf646
015347: ea45             .word 0xea45
015348: b776             .word 0xb776
015349: d9db             .word 0xd9db
01534a: 05fe             .word 0x05fe
01534b: 0288             .word 0x0288
01534c: 039d             .word 0x039d
01534d: f006             .word 0xf006
01534e: e0a4             .word 0xe0a4
01534f: f21d             .word 0xf21d
015350: 2485             .word 0x2485
015351: 3619             .word 0x3619
015352: 2b37             .word 0x2b37
015353: 2c0f             .word 0x2c0f
015354: 3f27             .word 0x3f27
015355: 3af0             .word 0x3af0
015356: 2828             .word 0x2828
015357: 21f6             .word 0x21f6
015358: 0940             .word 0x0940
015359: 12ac             .word 0x12ac
01535a: 2f34             .word 0x2f34
01535b: 5c70             .word 0x5c70
01535c: 54e9             .word 0x54e9
01535d: 309f             .word 0x309f
01535e: 3b1f             .word 0x3b1f
01535f: 387d             .word 0x387d
015360: 1d30             .word 0x1d30
015361: ff9c             .word 0xff9c
015362: 150b             .word 0x150b
015363: 1860             .word 0x1860
015364: 1121             .word 0x1121
015365: 055b             .word 0x055b
015366: 0aec             .word 0x0aec
015367: 34c1             .word 0x34c1
015368: 2593             .word 0x2593
015369: 1499             .word 0x1499
01536a: f807             .word 0xf807
01536b: cbb0             .word 0xcbb0
01536c: c73a             .word 0xc73a
01536d: d05b             .word 0xd05b
01536e: d22d             .word 0xd22d
01536f: d1fd             .word 0xd1fd
015370: d1d7             .word 0xd1d7
015371: d266             .word 0xd266
015372: c739             .word 0xc739
015373: d88e             .word 0xd88e
015374: c86b             .word 0xc86b
015375: a72e             .word 0xa72e
015376: d02c             .word 0xd02c
015377: e60d             .word 0xe60d
015378: 0661             .word 0x0661
015379: f66b             .word 0xf66b
01537a: e635             .word 0xe635
01537b: f0fb             .word 0xf0fb
01537c: d37f             .word 0xd37f
01537d: dbe1             .word 0xdbe1
01537e: d192             .word 0xd192
01537f: f693             .word 0xf693
015380: 105f             .word 0x105f
015381: f830             .word 0xf830
015382: 0b06             .word 0x0b06
015383: 1a0e             .word 0x1a0e
015384: 11e6             .word 0x11e6
015385: 13a1             .word 0x13a1
015386: 1fdb             .word 0x1fdb
015387: 0f28             .word 0x0f28
015388: 13fc             .word 0x13fc
015389: 15fa             .word 0x15fa
01538a: 2739             .word 0x2739
01538b: 2b7e             .word 0x2b7e
01538c: 0a33             .word 0x0a33
01538d: 16da             .word 0x16da
01538e: 14a5             .word 0x14a5
01538f: 11fa             .word 0x11fa
015390: 0f54             .word 0x0f54
015391: 0aa7             .word 0x0aa7
015392: fbe2             .word 0xfbe2
015393: f628             .word 0xf628
015394: 0493             .word 0x0493
015395: e698             .word 0xe698
015396: e661             .word 0xe661
015397: c9dc             .word 0xc9dc
015398: b09a             .word 0xb09a
015399: cdc4             .word 0xcdc4
01539a: dc41             .word 0xdc41
01539b: f088             .word 0xf088
01539c: ed21             .word 0xed21
01539d: 026f             .word 0x026f
01539e: 0bd2             .word 0x0bd2
01539f: 0771             .word 0x0771
0153a0: 060e             .word 0x060e
0153a1: fdd1             .word 0xfdd1
0153a2: 1084             .word 0x1084
0153a3: 0621             .word 0x0621
0153a4: 1101             .word 0x1101
0153a5: 01c3             .word 0x01c3
0153a6: f16a             .word 0xf16a
0153a7: 0874             .word 0x0874
0153a8: 09f0             .word 0x09f0
0153a9: 11ce             .word 0x11ce
0153aa: 0314             .word 0x0314
0153ab: f94f             .word 0xf94f
0153ac: ef98             .word 0xef98
0153ad: f15a             .word 0xf15a
0153ae: f00e             .word 0xf00e
0153af: e88d             .word 0xe88d
0153b0: f1d8             .word 0xf1d8
0153b1: ee85             .word 0xee85
0153b2: 0b5a             .word 0x0b5a
0153b3: 23f1             .word 0x23f1
0153b4: 2ec0             .word 0x2ec0
0153b5: 2fad             .word 0x2fad
0153b6: 3700             .word 0x3700
0153b7: 3ac5             .word 0x3ac5
0153b8: 227f             .word 0x227f
0153b9: 1499             .word 0x1499
0153ba: 0783             .word 0x0783
0153bb: 08d8             .word 0x08d8
0153bc: 0898             .word 0x0898
0153bd: 1263             .word 0x1263
0153be: 10a9             .word 0x10a9
0153bf: 006f             .word 0x006f
0153c0: f925             .word 0xf925
0153c1: 1375             .word 0x1375
0153c2: 3438             .word 0x3438
0153c3: 0b3e             .word 0x0b3e
0153c4: f81b             .word 0xf81b
0153c5: ff1f             .word 0xff1f
0153c6: 0c36             .word 0x0c36
0153c7: 00ec             .word 0x00ec
0153c8: e497             .word 0xe497
0153c9: fcbb             .word 0xfcbb
0153ca: 0c32             .word 0x0c32
0153cb: 05bf             .word 0x05bf
0153cc: f6bb             .word 0xf6bb
0153cd: 0bb7             .word 0x0bb7
0153ce: 1721             .word 0x1721
0153cf: 0ece             .word 0x0ece
0153d0: 18fe             .word 0x18fe
0153d1: 2549             .word 0x2549
0153d2: 3c27             .word 0x3c27
0153d3: 1a73             .word 0x1a73
0153d4: 09c4             .word 0x09c4
0153d5: 0ed0             .word 0x0ed0
0153d6: f2e0             .word 0xf2e0
0153d7: fc79             .word 0xfc79
0153d8: f6f2             .word 0xf6f2
0153d9: 0087             .word 0x0087
0153da: f830             .word 0xf830
0153db: c65d             .word 0xc65d
0153dc: ce47             .word 0xce47
0153dd: c8b6             .word 0xc8b6
0153de: c1bf             .word 0xc1bf
0153df: bb93             .word 0xbb93
0153e0: c0ff             .word 0xc0ff
0153e1: c0ca             .word 0xc0ca
0153e2: bbf6             .word 0xbbf6
0153e3: f0db             .word 0xf0db
0153e4: ef75             .word 0xef75
0153e5: e711             .word 0xe711
0153e6: d3f5             .word 0xd3f5
0153e7: bb80             .word 0xbb80
0153e8: d6ed             .word 0xd6ed
0153e9: e6f5             .word 0xe6f5
0153ea: da91             .word 0xda91
0153eb: cb74             .word 0xcb74
0153ec: e74a             .word 0xe74a
0153ed: ee8b             .word 0xee8b
0153ee: f7d6             .word 0xf7d6
0153ef: 0bc7             .word 0x0bc7
0153f0: 08d8             .word 0x08d8
0153f1: ef7c             .word 0xef7c
0153f2: e33c             .word 0xe33c
0153f3: f64c             .word 0xf64c
0153f4: f939             .word 0xf939
0153f5: 19fe             .word 0x19fe
0153f6: 2a2b             .word 0x2a2b
0153f7: 27c8             .word 0x27c8
0153f8: 2aba             .word 0x2aba
0153f9: 2cdc             .word 0x2cdc
0153fa: 2ecb             .word 0x2ecb
0153fb: 15ed             .word 0x15ed
0153fc: 0a2a             .word 0x0a2a
0153fd: 092f             .word 0x092f
0153fe: 05ac             .word 0x05ac
0153ff: 0f30             .word 0x0f30
015400: 3411             .word 0x3411
015401: 2ee9             .word 0x2ee9
015402: 1b5d             .word 0x1b5d
015403: 372f             .word 0x372f
015404: 369b             .word 0x369b
015405: 2f87             .word 0x2f87
015406: 3ab1             .word 0x3ab1
015407: 4fc4             .word 0x4fc4
015408: 5064             .word 0x5064
015409: 3d9c             .word 0x3d9c
01540a: 4528             .word 0x4528
01540b: 3121             .word 0x3121
01540c: 27e3             .word 0x27e3
01540d: 1ebf             .word 0x1ebf
01540e: e9dc             .word 0xe9dc
01540f: e2ef             .word 0xe2ef
015410: d751             .word 0xd751
015411: b245             .word 0xb245
015412: b4a0             .word 0xb4a0
015413: cb5b             .word 0xcb5b
015414: da25             .word 0xda25
015415: d88e             .word 0xd88e
015416: d56c             .word 0xd56c
015417: e65e             .word 0xe65e
015418: 0ade             .word 0x0ade
015419: 2345             .word 0x2345
01541a: 1e9d             .word 0x1e9d
01541b: 0a91             .word 0x0a91
01541c: 14af             .word 0x14af
01541d: 2828             .word 0x2828
01541e: 1f74             .word 0x1f74
01541f: 26ca             .word 0x26ca
015420: 257d             .word 0x257d
015421: f4f9             .word 0xf4f9
015422: d20e             .word 0xd20e
015423: d975             .word 0xd975
015424: d906             .word 0xd906
015425: da18             .word 0xda18
015426: f90f             .word 0xf90f
015427: f3dd             .word 0xf3dd
015428: d6e0             .word 0xd6e0
015429: e25b             .word 0xe25b
01542a: d42a             .word 0xd42a
01542b: c9a4             .word 0xc9a4
01542c: ec09             .word 0xec09
01542d: f47e             .word 0xf47e
01542e: f526             .word 0xf526
01542f: fc21             .word 0xfc21
015430: ee6f             .word 0xee6f
015431: c876             .word 0xc876
015432: b419             .word 0xb419
015433: b3fd             .word 0xb3fd
015434: c6fc             .word 0xc6fc
015435: f6f6             .word 0xf6f6
015436: fa70             .word 0xfa70
015437: ef8d             .word 0xef8d
015438: f918             .word 0xf918
015439: ea43             .word 0xea43
01543a: f377             .word 0xf377
01543b: 11ff             .word 0x11ff
01543c: 1049             .word 0x1049
01543d: 10eb             .word 0x10eb
01543e: 1844             .word 0x1844
01543f: 1249             .word 0x1249
015440: f47d             .word 0xf47d
015441: ee77             .word 0xee77
015442: 0633             .word 0x0633
015443: f8bd             .word 0xf8bd
015444: 0790             .word 0x0790
015445: 169d             .word 0x169d
015446: 0d2a             .word 0x0d2a
015447: 1f5b             .word 0x1f5b
015448: 297b             .word 0x297b
015449: 3d4b             .word 0x3d4b
01544a: 3ea7             .word 0x3ea7
01544b: 445a             .word 0x445a
01544c: 5aba             .word 0x5aba
01544d: 3869             .word 0x3869
01544e: 3875             .word 0x3875
01544f: 4059             .word 0x4059
015450: 1795             .word 0x1795
015451: 2820             .word 0x2820
015452: 2446             .word 0x2446
015453: 0cb2             .word 0x0cb2
015454: 15a8             .word 0x15a8
015455: 0cde             .word 0x0cde
015456: 10ec             .word 0x10ec
015457: fb57             .word 0xfb57
015458: f905             .word 0xf905
015459: 0edd             .word 0x0edd
01545a: 1089             .word 0x1089
01545b: 1297             .word 0x1297
01545c: 0674             .word 0x0674
01545d: 0010             .word 0x0010
01545e: e89d             .word 0xe89d
01545f: dfa5             .word 0xdfa5
015460: df7e             .word 0xdf7e
015461: f0ba             .word 0xf0ba
015462: 0980             .word 0x0980
015463: f3f9             .word 0xf3f9
015464: ecbf             .word 0xecbf
015465: d96c             .word 0xd96c
015466: bfaf             .word 0xbfaf
015467: cf27             .word 0xcf27
015468: da05             .word 0xda05
015469: c8aa             .word 0xc8aa
01546a: d063             .word 0xd063
01546b: cea5             .word 0xcea5
01546c: bd0f             .word 0xbd0f
01546d: d279             .word 0xd279
01546e: e369             .word 0xe369
01546f: e1fc             .word 0xe1fc
015470: c94a             .word 0xc94a
015471: cfdf             .word 0xcfdf
015472: e51f             .word 0xe51f
015473: e665             .word 0xe665
015474: e8b3             .word 0xe8b3
015475: f180             .word 0xf180
015476: 1283             .word 0x1283
015477: f9fc             .word 0xf9fc
015478: eedb             .word 0xeedb
015479: 153a             .word 0x153a
01547a: 1f6a             .word 0x1f6a
01547b: 2cc8             .word 0x2cc8
01547c: 18df             .word 0x18df
01547d: fdbb             .word 0xfdbb
01547e: 01c7             .word 0x01c7
01547f: 121d             .word 0x121d
015480: 1bd1             .word 0x1bd1
015481: 1bdf             .word 0x1bdf
015482: 2187             .word 0x2187
015483: 0fb7             .word 0x0fb7
015484: 12ba             .word 0x12ba
015485: 04b6             .word 0x04b6
015486: ec74             .word 0xec74
015487: f68e             .word 0xf68e
015488: f225             .word 0xf225
015489: f9db             .word 0xf9db
01548a: f48c             .word 0xf48c
01548b: ff91             .word 0xff91
01548c: 13c5             .word 0x13c5
01548d: 1fa9             .word 0x1fa9
01548e: 213a             .word 0x213a
01548f: 13c0             .word 0x13c0
015490: 18dc             .word 0x18dc
015491: 1562             .word 0x1562
015492: 2d99             .word 0x2d99
015493: 38a6             .word 0x38a6
015494: 49b6             .word 0x49b6
015495: 4ee8             .word 0x4ee8
015496: 1cad             .word 0x1cad
015497: 1748             .word 0x1748
015498: 1906             .word 0x1906
015499: 0c5f             .word 0x0c5f
01549a: 148b             .word 0x148b
01549b: fa3a             .word 0xfa3a
01549c: f0b1             .word 0xf0b1
01549d: 1330             .word 0x1330
01549e: 0213             .word 0x0213
01549f: 050e             .word 0x050e
0154a0: 03df             .word 0x03df
0154a1: 01d4             .word 0x01d4
0154a2: 0ece             .word 0x0ece
0154a3: 003c             .word 0x003c
0154a4: 05bb             .word 0x05bb
0154a5: da51             .word 0xda51
0154a6: ce1f             .word 0xce1f
0154a7: e9bc             .word 0xe9bc
0154a8: f090             .word 0xf090
0154a9: f955             .word 0xf955
0154aa: eb35             .word 0xeb35
0154ab: d27a             .word 0xd27a
0154ac: d5f1             .word 0xd5f1
0154ad: e5e8             .word 0xe5e8
0154ae: ee1d             .word 0xee1d
0154af: fe63             .word 0xfe63
0154b0: fb68             .word 0xfb68
0154b1: 0bd8             .word 0x0bd8
0154b2: f94a             .word 0xf94a
0154b3: f7aa             .word 0xf7aa
0154b4: f8d0             .word 0xf8d0
0154b5: d562             .word 0xd562
0154b6: fbff             .word 0xfbff
0154b7: 072a             .word 0x072a
0154b8: 0295             .word 0x0295
0154b9: f8e9             .word 0xf8e9
0154ba: f35a             .word 0xf35a
0154bb: e650             .word 0xe650
0154bc: d917             .word 0xd917
0154bd: 0d96             .word 0x0d96
0154be: 0487             .word 0x0487
0154bf: dc9e             .word 0xdc9e
0154c0: dc88             .word 0xdc88
0154c1: ce22             .word 0xce22
0154c2: c476             .word 0xc476
0154c3: d8d0             .word 0xd8d0
0154c4: ed2c             .word 0xed2c
0154c5: ff1f             .word 0xff1f
0154c6: f00e             .word 0xf00e
0154c7: ebb0             .word 0xebb0
0154c8: f87d             .word 0xf87d
0154c9: dbc0             .word 0xdbc0
0154ca: ef5b             .word 0xef5b
0154cb: 0a54             .word 0x0a54
0154cc: 03e0             .word 0x03e0
0154cd: f77b             .word 0xf77b
0154ce: e96f             .word 0xe96f
0154cf: fbf1             .word 0xfbf1
0154d0: 137e             .word 0x137e
0154d1: 2451             .word 0x2451
0154d2: 2c46             .word 0x2c46
0154d3: 28d0             .word 0x28d0
0154d4: 16ed             .word 0x16ed
0154d5: 0c73             .word 0x0c73
0154d6: 1cb0             .word 0x1cb0
0154d7: 185b             .word 0x185b
0154d8: 1492             .word 0x1492
0154d9: 3247             .word 0x3247
0154da: 2b41             .word 0x2b41
0154db: 216c             .word 0x216c
0154dc: 3ca7             .word 0x3ca7
0154dd: 2fc9             .word 0x2fc9
0154de: 2b4c             .word 0x2b4c
0154df: 4600             .word 0x4600
0154e0: 572d             .word 0x572d
0154e1: 5366             .word 0x5366
0154e2: 2ad1             .word 0x2ad1
0154e3: 0e9f             .word 0x0e9f
0154e4: f786             .word 0xf786
0154e5: 0376             .word 0x0376
0154e6: 13c2             .word 0x13c2
0154e7: fa83             .word 0xfa83
0154e8: 0677             .word 0x0677
0154e9: f54f             .word 0xf54f
0154ea: f67d             .word 0xf67d
0154eb: 03d1             .word 0x03d1
0154ec: de4c             .word 0xde4c
0154ed: ecf5             .word 0xecf5
0154ee: e70b             .word 0xe70b
0154ef: d22d             .word 0xd22d
0154f0: ce50             .word 0xce50
0154f1: c6ea             .word 0xc6ea
0154f2: bfb1             .word 0xbfb1
0154f3: ab52             .word 0xab52
0154f4: cda5             .word 0xcda5
0154f5: e469             .word 0xe469
0154f6: dab5             .word 0xdab5
0154f7: e7c4             .word 0xe7c4
0154f8: 0019             .word 0x0019
0154f9: 0c5d             .word 0x0c5d
0154fa: e8b6             .word 0xe8b6
0154fb: dde1             .word 0xdde1
0154fc: f899             .word 0xf899
0154fd: f347             .word 0xf347
0154fe: f5cb             .word 0xf5cb
0154ff: 088b             .word 0x088b
015500: 0ccf             .word 0x0ccf
015501: 10f7             .word 0x10f7
015502: 0ba6             .word 0x0ba6
015503: 111b             .word 0x111b
015504: ff9f             .word 0xff9f
015505: e8b4             .word 0xe8b4
015506: f0ff             .word 0xf0ff
015507: 0b04             .word 0x0b04
015508: 2df5             .word 0x2df5
015509: f9b8             .word 0xf9b8
01550a: ecb6             .word 0xecb6
01550b: 0e30             .word 0x0e30
01550c: 0579             .word 0x0579
01550d: 08f1             .word 0x08f1
01550e: 0df4             .word 0x0df4
01550f: 195e             .word 0x195e
015510: 0309             .word 0x0309
015511: 1117             .word 0x1117
015512: 0aee             .word 0x0aee
015513: f69c             .word 0xf69c
015514: 12ec             .word 0x12ec
015515: 1312             .word 0x1312
015516: 10ad             .word 0x10ad
015517: ff19             .word 0xff19
015518: fdbe             .word 0xfdbe
015519: 0a2a             .word 0x0a2a
01551a: 103f             .word 0x103f
01551b: f857             .word 0xf857
01551c: f8bd             .word 0xf8bd
01551d: 0735             .word 0x0735
01551e: 00bb             .word 0x00bb
01551f: 0231             .word 0x0231
015520: 00e2             .word 0x00e2
015521: 1137             .word 0x1137
015522: eb60             .word 0xeb60
015523: f497             .word 0xf497
015524: f256             .word 0xf256
015525: e871             .word 0xe871
015526: 05e8             .word 0x05e8
015527: f2e8             .word 0xf2e8
015528: 08b7             .word 0x08b7
015529: f020             .word 0xf020
01552a: e584             .word 0xe584
01552b: f4ef             .word 0xf4ef
01552c: fbdf             .word 0xfbdf
01552d: 134a             .word 0x134a
01552e: 1da6             .word 0x1da6
01552f: 2589             .word 0x2589
015530: 16f0             .word 0x16f0
015531: 211d             .word 0x211d
015532: 0b5f             .word 0x0b5f
015533: 011b             .word 0x011b
015534: 128e             .word 0x128e
015535: 0a2d             .word 0x0a2d
015536: ecb3             .word 0xecb3
015537: cc23             .word 0xcc23
015538: e7e1             .word 0xe7e1
015539: fbbb             .word 0xfbbb
01553a: e395             .word 0xe395
01553b: d520             .word 0xd520
01553c: cb41             .word 0xcb41
01553d: c71d             .word 0xc71d
01553e: deb0             .word 0xdeb0
01553f: eb1c             .word 0xeb1c
015540: fdf8             .word 0xfdf8
015541: 1216             .word 0x1216
015542: 22bc             .word 0x22bc
015543: 167e             .word 0x167e
015544: fe84             .word 0xfe84
015545: 2f13             .word 0x2f13
015546: 348c             .word 0x348c
015547: 16af             .word 0x16af
015548: 2164             .word 0x2164
015549: 413b             .word 0x413b
01554a: 47ed             .word 0x47ed
01554b: 2715             .word 0x2715
01554c: 066f             .word 0x066f
01554d: e8bc             .word 0xe8bc
01554e: f651             .word 0xf651
01554f: 1396             .word 0x1396
015550: 014e             .word 0x014e
015551: cfdf             .word 0xcfdf
015552: c3d8             .word 0xc3d8
015553: d17f             .word 0xd17f
015554: c978             .word 0xc978
015555: c8fa             .word 0xc8fa
015556: d7ec             .word 0xd7ec
015557: e2a7             .word 0xe2a7
015558: fc26             .word 0xfc26
015559: 0cb5             .word 0x0cb5
01555a: fe9f             .word 0xfe9f
01555b: 0907             .word 0x0907
01555c: 2035             .word 0x2035
01555d: 1eb4             .word 0x1eb4
01555e: 0af7             .word 0x0af7
01555f: 1400             .word 0x1400
015560: 2d84             .word 0x2d84
015561: 330b             .word 0x330b
015562: 1eb6             .word 0x1eb6
015563: 1175             .word 0x1175
015564: 17e4             .word 0x17e4
015565: 0ac2             .word 0x0ac2
015566: 0f4a             .word 0x0f4a
015567: 150e             .word 0x150e
015568: 1349             .word 0x1349
015569: fef2             .word 0xfef2
01556a: f5d2             .word 0xf5d2
01556b: f5fd             .word 0xf5fd
01556c: d9b4             .word 0xd9b4
01556d: d66f             .word 0xd66f
01556e: d36f             .word 0xd36f
01556f: e3d7             .word 0xe3d7
015570: db38             .word 0xdb38
015571: c88a             .word 0xc88a
015572: df9f             .word 0xdf9f
015573: e5a7             .word 0xe5a7
015574: e518             .word 0xe518
015575: e79f             .word 0xe79f
015576: f92c             .word 0xf92c
015577: 0893             .word 0x0893
015578: 16d3             .word 0x16d3
015579: 1d2a             .word 0x1d2a
01557a: 2c92             .word 0x2c92
01557b: 30ef             .word 0x30ef
01557c: 129d             .word 0x129d
01557d: 0ba6             .word 0x0ba6
01557e: f779             .word 0xf779
01557f: f930             .word 0xf930
015580: 1723             .word 0x1723
015581: 22bc             .word 0x22bc
015582: 18f7             .word 0x18f7
015583: fdd1             .word 0xfdd1
015584: fcb8             .word 0xfcb8
015585: 05b3             .word 0x05b3
015586: 0b0f             .word 0x0b0f
015587: 035b             .word 0x035b
015588: 121a             .word 0x121a
015589: 1518             .word 0x1518
01558a: f63e             .word 0xf63e
01558b: ea30             .word 0xea30
01558c: d1ea             .word 0xd1ea
01558d: f038             .word 0xf038
01558e: 0fc5             .word 0x0fc5
01558f: f937             .word 0xf937
015590: ec0c             .word 0xec0c
015591: ef54             .word 0xef54
015592: f9c9             .word 0xf9c9
015593: e5f3             .word 0xe5f3
015594: ede0             .word 0xede0
015595: f468             .word 0xf468
015596: ff84             .word 0xff84
015597: 219d             .word 0x219d
015598: 209e             .word 0x209e
015599: 3248             .word 0x3248
01559a: 265f             .word 0x265f
01559b: 0ee1             .word 0x0ee1
01559c: 0969             .word 0x0969
01559d: e81b             .word 0xe81b
01559e: ebfb             .word 0xebfb
01559f: ec40             .word 0xec40
0155a0: d0f5             .word 0xd0f5
0155a1: dee9             .word 0xdee9
0155a2: dd7e             .word 0xdd7e
0155a3: dde3             .word 0xdde3
0155a4: f7f4             .word 0xf7f4
0155a5: e773             .word 0xe773
0155a6: e69f             .word 0xe69f
0155a7: fe86             .word 0xfe86
0155a8: fe94             .word 0xfe94
0155a9: f66b             .word 0xf66b
0155aa: ecd8             .word 0xecd8
0155ab: f4eb             .word 0xf4eb
0155ac: 083a             .word 0x083a
0155ad: 0801             .word 0x0801
0155ae: 1297             .word 0x1297
0155af: 2cfd             .word 0x2cfd
0155b0: 21f4             .word 0x21f4
0155b1: 06a3             .word 0x06a3
0155b2: 1732             .word 0x1732
0155b3: 24e6             .word 0x24e6
0155b4: 0189             .word 0x0189
0155b5: 0f2b             .word 0x0f2b
0155b6: 1a3c             .word 0x1a3c
0155b7: eb64             .word 0xeb64
0155b8: ebb0             .word 0xebb0
0155b9: efae             .word 0xefae
0155ba: e1df             .word 0xe1df
0155bb: d35c             .word 0xd35c
0155bc: d7a1             .word 0xd7a1
0155bd: 091a             .word 0x091a
0155be: 27d2             .word 0x27d2
0155bf: 2b23             .word 0x2b23
0155c0: 2af5             .word 0x2af5
0155c1: 2f4f             .word 0x2f4f
0155c2: 2d76             .word 0x2d76
0155c3: 2222             .word 0x2222
0155c4: 1549             .word 0x1549
0155c5: 0932             .word 0x0932
0155c6: 0bfb             .word 0x0bfb
0155c7: 0748             .word 0x0748
0155c8: 057d             .word 0x057d
0155c9: f42a             .word 0xf42a
0155ca: d464             .word 0xd464
0155cb: e581             .word 0xe581
0155cc: e7ab             .word 0xe7ab
0155cd: e1c9             .word 0xe1c9
0155ce: ecb9             .word 0xecb9
0155cf: f675             .word 0xf675
0155d0: 1039             .word 0x1039
0155d1: fb3c             .word 0xfb3c
0155d2: e892             .word 0xe892
0155d3: ee2f             .word 0xee2f
0155d4: ffd7             .word 0xffd7
0155d5: 2ec0             .word 0x2ec0
0155d6: 1bca             .word 0x1bca
0155d7: fa62             .word 0xfa62
0155d8: 0b2a             .word 0x0b2a
0155d9: ee96             .word 0xee96
0155da: cc55             .word 0xcc55
0155db: ef46             .word 0xef46
0155dc: f71a             .word 0xf71a
0155dd: e811             .word 0xe811
0155de: 009a             .word 0x009a
0155df: 0c49             .word 0x0c49
0155e0: 008c             .word 0x008c
0155e1: 021c             .word 0x021c
0155e2: 0371             .word 0x0371
0155e3: fbc9             .word 0xfbc9
0155e4: fa19             .word 0xfa19
0155e5: f937             .word 0xf937
0155e6: f1ec             .word 0xf1ec
0155e7: e3f5             .word 0xe3f5
0155e8: 032f             .word 0x032f
0155e9: 1442             .word 0x1442
0155ea: fdc8             .word 0xfdc8
0155eb: 0ad3             .word 0x0ad3
0155ec: 1dbc             .word 0x1dbc
0155ed: 2952             .word 0x2952
0155ee: 0b04             .word 0x0b04
0155ef: 03e5             .word 0x03e5
0155f0: 146e             .word 0x146e
0155f1: eca3             .word 0xeca3
0155f2: f15f             .word 0xf15f
0155f3: 0c5a             .word 0x0c5a
0155f4: 05d4             .word 0x05d4
0155f5: 081d             .word 0x081d
0155f6: 0fa4             .word 0x0fa4
0155f7: 12ba             .word 0x12ba
0155f8: 0e4c             .word 0x0e4c
0155f9: 0cdd             .word 0x0cdd
0155fa: 1686             .word 0x1686
0155fb: 205e             .word 0x205e
0155fc: 1b19             .word 0x1b19
0155fd: 1fda             .word 0x1fda
0155fe: 301c             .word 0x301c
0155ff: 2017             .word 0x2017
015600: 0977             .word 0x0977
015601: f202             .word 0xf202
015602: eb16             .word 0xeb16
015603: 0624             .word 0x0624
015604: 0c33             .word 0x0c33
015605: ff32             .word 0xff32
015606: f47b             .word 0xf47b
015607: db85             .word 0xdb85
015608: c771             .word 0xc771
015609: cbcf             .word 0xcbcf
01560a: d646             .word 0xd646
01560b: e5dc             .word 0xe5dc
01560c: d3b3             .word 0xd3b3
01560d: c508             .word 0xc508
01560e: ca68             .word 0xca68
01560f: da1b             .word 0xda1b
015610: fd71             .word 0xfd71
015611: ede6             .word 0xede6
015612: ecb1             .word 0xecb1
015613: 0625             .word 0x0625
015614: 13be             .word 0x13be
015615: 0aa4             .word 0x0aa4
015616: ed32             .word 0xed32
015617: e547             .word 0xe547
015618: 0000             .word 0x0000
015619: 138e             .word 0x138e
01561a: feb3             .word 0xfeb3
01561b: 028c             .word 0x028c
01561c: 02f3             .word 0x02f3
01561d: 18e7             .word 0x18e7
01561e: 25a3             .word 0x25a3
01561f: 18c1             .word 0x18c1
015620: 361c             .word 0x361c
015621: 2f21             .word 0x2f21
015622: 05d1             .word 0x05d1
015623: 040b             .word 0x040b
015624: 0cc8             .word 0x0cc8
015625: e415             .word 0xe415
015626: de72             .word 0xde72
015627: db38             .word 0xdb38
015628: dc08             .word 0xdc08
015629: f670             .word 0xf670
01562a: d982             .word 0xd982
01562b: df89             .word 0xdf89
01562c: eadd             .word 0xeadd
01562d: ec79             .word 0xec79
01562e: 03a5             .word 0x03a5
01562f: 0ba4             .word 0x0ba4
015630: 13ff             .word 0x13ff
015631: 07e8             .word 0x07e8
015632: 07f6             .word 0x07f6
015633: 16b5             .word 0x16b5
015634: f4a4             .word 0xf4a4
015635: e96b             .word 0xe96b
015636: 038c             .word 0x038c
015637: 07af             .word 0x07af
015638: 1afe             .word 0x1afe
015639: 2886             .word 0x2886
01563a: 1c5c             .word 0x1c5c
01563b: 1866             .word 0x1866
01563c: 1744             .word 0x1744
01563d: 0a12             .word 0x0a12
01563e: 1ec4             .word 0x1ec4
01563f: 2aee             .word 0x2aee
015640: 1955             .word 0x1955
015641: 1f21             .word 0x1f21
015642: 068d             .word 0x068d
015643: 002e             .word 0x002e
015644: 0ed6             .word 0x0ed6
015645: 213a             .word 0x213a
015646: 3352             .word 0x3352
015647: 1c48             .word 0x1c48
015648: 19b3             .word 0x19b3
015649: 04b6             .word 0x04b6
01564a: 0a44             .word 0x0a44
01564b: 2e4f             .word 0x2e4f
01564c: 0853             .word 0x0853
01564d: e9bb             .word 0xe9bb
01564e: e940             .word 0xe940
01564f: f02d             .word 0xf02d
015650: 0350             .word 0x0350
015651: f963             .word 0xf963
015652: ded0             .word 0xded0
015653: d514             .word 0xd514
015654: b9ae             .word 0xb9ae
015655: afc5             .word 0xafc5
015656: de7e             .word 0xde7e
015657: f757             .word 0xf757
015658: f5ef             .word 0xf5ef
015659: eb17             .word 0xeb17
01565a: ebed             .word 0xebed
01565b: 01c7             .word 0x01c7
01565c: ff37             .word 0xff37
01565d: ff14             .word 0xff14
01565e: fa58             .word 0xfa58
01565f: e8fe             .word 0xe8fe
015660: f9f1             .word 0xf9f1
015661: fb0a             .word 0xfb0a
015662: eba1             .word 0xeba1
015663: 019a             .word 0x019a
015664: 1956             .word 0x1956
015665: 1a1b             .word 0x1a1b
015666: 2201             .word 0x2201
015667: 343a             .word 0x343a
015668: 1642             .word 0x1642
015669: 0e1b             .word 0x0e1b
01566a: 08ca             .word 0x08ca
01566b: da77             .word 0xda77
01566c: c918             .word 0xc918
01566d: bc99             .word 0xbc99
01566e: e457             .word 0xe457
01566f: ebe7             .word 0xebe7
015670: ee2c             .word 0xee2c
015671: 0aec             .word 0x0aec
015672: e471             .word 0xe471
015673: f446             .word 0xf446
015674: fca2             .word 0xfca2
015675: d1d2             .word 0xd1d2
015676: d56d             .word 0xd56d
015677: e2d1             .word 0xe2d1
015678: c6e3             .word 0xc6e3
015679: cefb             .word 0xcefb
01567a: f504             .word 0xf504
01567b: ffc7             .word 0xffc7
01567c: 0809             .word 0x0809
01567d: f4bc             .word 0xf4bc
01567e: 01ca             .word 0x01ca
01567f: 2726             .word 0x2726
015680: 2d34             .word 0x2d34
015681: 2527             .word 0x2527
015682: 1ef8             .word 0x1ef8
015683: 1146             .word 0x1146
015684: fede             .word 0xfede
015685: f718             .word 0xf718
015686: f954             .word 0xf954
015687: 289c             .word 0x289c
015688: 368f             .word 0x368f
015689: 339d             .word 0x339d
01568a: 44e1             .word 0x44e1
01568b: 3503             .word 0x3503
01568c: 37ae             .word 0x37ae
01568d: 34dc             .word 0x34dc
01568e: 210c             .word 0x210c
01568f: 2004             .word 0x2004
015690: 37c1             .word 0x37c1
015691: 3776             .word 0x3776
015692: 06ca             .word 0x06ca
015693: f273             .word 0xf273
015694: efee             .word 0xefee
015695: ff40             .word 0xff40
015696: 11fc             .word 0x11fc
015697: 01cf             .word 0x01cf
015698: 0f52             .word 0x0f52
015699: 1f22             .word 0x1f22
01569a: 192f             .word 0x192f
01569b: 11bd             .word 0x11bd
01569c: ff7c             .word 0xff7c
01569d: 11c5             .word 0x11c5
01569e: 124a             .word 0x124a
01569f: e3d1             .word 0xe3d1
0156a0: d575             .word 0xd575
0156a1: debb             .word 0xdebb
0156a2: eb59             .word 0xeb59
0156a3: eeae             .word 0xeeae
0156a4: e971             .word 0xe971
0156a5: e852             .word 0xe852
0156a6: df52             .word 0xdf52
0156a7: d4b6             .word 0xd4b6
0156a8: cb7e             .word 0xcb7e
0156a9: de26             .word 0xde26
0156aa: ef22             .word 0xef22
0156ab: cfa5             .word 0xcfa5
0156ac: d777             .word 0xd777
0156ad: ed6e             .word 0xed6e
0156ae: e6f5             .word 0xe6f5
0156af: fc18             .word 0xfc18
0156b0: fdbb             .word 0xfdbb
0156b1: 0ccd             .word 0x0ccd
0156b2: 1158             .word 0x1158
0156b3: f436             .word 0xf436
0156b4: fa60             .word 0xfa60
0156b5: efbd             .word 0xefbd
0156b6: 03ae             .word 0x03ae
0156b7: 2890             .word 0x2890
0156b8: 121d             .word 0x121d
0156b9: 0619             .word 0x0619
0156ba: 1397             .word 0x1397
0156bb: 0ed9             .word 0x0ed9
0156bc: 1886             .word 0x1886
0156bd: 2e65             .word 0x2e65
0156be: 10a4             .word 0x10a4
0156bf: f209             .word 0xf209
0156c0: ee32             .word 0xee32
0156c1: dcbf             .word 0xdcbf
0156c2: d04d             .word 0xd04d
0156c3: e289             .word 0xe289
0156c4: e6b5             .word 0xe6b5
0156c5: d44d             .word 0xd44d
0156c6: cbcb             .word 0xcbcb
0156c7: d034             .word 0xd034
0156c8: dc26             .word 0xdc26
0156c9: df68             .word 0xdf68
0156ca: f11a             .word 0xf11a
0156cb: f8d3             .word 0xf8d3
0156cc: 034e             .word 0x034e
0156cd: 098b             .word 0x098b
0156ce: fb41             .word 0xfb41
0156cf: 0711             .word 0x0711
0156d0: f7fa             .word 0xf7fa
0156d1: e134             .word 0xe134
0156d2: f83e             .word 0xf83e
0156d3: 0300             .word 0x0300
0156d4: f4db             .word 0xf4db
0156d5: fa8e             .word 0xfa8e
0156d6: ffb1             .word 0xffb1
0156d7: 2bd4             .word 0x2bd4
0156d8: 4845             .word 0x4845
0156d9: 2e41             .word 0x2e41
0156da: 2fcc             .word 0x2fcc
0156db: 23fc             .word 0x23fc
0156dc: 3700             .word 0x3700
0156dd: 2b8f             .word 0x2b8f
0156de: 0eee             .word 0x0eee
0156df: 2c8b             .word 0x2c8b
0156e0: 2a78             .word 0x2a78
0156e1: 29e1             .word 0x29e1
0156e2: 2e76             .word 0x2e76
0156e3: 20bf             .word 0x20bf
0156e4: 0f65             .word 0x0f65
0156e5: 04eb             .word 0x04eb
0156e6: 07be             .word 0x07be
0156e7: 1800             .word 0x1800
0156e8: fcba             .word 0xfcba
0156e9: da7b             .word 0xda7b
0156ea: d26e             .word 0xd26e
0156eb: c49e             .word 0xc49e
0156ec: db1b             .word 0xdb1b
0156ed: df12             .word 0xdf12
0156ee: e6ef             .word 0xe6ef
0156ef: fe60             .word 0xfe60
0156f0: 080a             .word 0x080a
0156f1: fc6e             .word 0xfc6e
0156f2: e77e             .word 0xe77e
0156f3: ddb2             .word 0xddb2
0156f4: da8b             .word 0xda8b
0156f5: fd18             .word 0xfd18
0156f6: 030e             .word 0x030e
0156f7: 0563             .word 0x0563
0156f8: 10ad             .word 0x10ad
0156f9: 118c             .word 0x118c
0156fa: 06c9             .word 0x06c9
0156fb: ea72             .word 0xea72
0156fc: 0e1b             .word 0x0e1b
0156fd: 35d4             .word 0x35d4
0156fe: 2c9d             .word 0x2c9d
0156ff: 22cf             .word 0x22cf
015700: 2548             .word 0x2548
015701: 27e1             .word 0x27e1
015702: 1dab             .word 0x1dab
015703: 09cf             .word 0x09cf
015704: ef6f             .word 0xef6f
015705: e09c             .word 0xe09c
015706: e6a2             .word 0xe6a2
015707: da23             .word 0xda23
015708: c791             .word 0xc791
015709: d7cc             .word 0xd7cc
01570a: e492             .word 0xe492
01570b: e4b5             .word 0xe4b5
01570c: f059             .word 0xf059
01570d: e41e             .word 0xe41e
01570e: e33f             .word 0xe33f
01570f: f5a9             .word 0xf5a9
015710: e798             .word 0xe798
015711: f50d             .word 0xf50d
015712: ee11             .word 0xee11
015713: fc76             .word 0xfc76
015714: 225c             .word 0x225c
015715: 077d             .word 0x077d
015716: 0db4             .word 0x0db4
015717: 0a7b             .word 0x0a7b
015718: 0c85             .word 0x0c85
015719: 1bb6             .word 0x1bb6
01571a: 0ed8             .word 0x0ed8
01571b: 029d             .word 0x029d
01571c: e82d             .word 0xe82d
01571d: dd33             .word 0xdd33
01571e: da5d             .word 0xda5d
01571f: d8de             .word 0xd8de
015720: e866             .word 0xe866
015721: 09ab             .word 0x09ab
015722: 0a22             .word 0x0a22
015723: f60a             .word 0xf60a
015724: f802             .word 0xf802
015725: f991             .word 0xf991
015726: 12b8             .word 0x12b8
015727: 2d31             .word 0x2d31
015728: 3c78             .word 0x3c78
015729: 4937             .word 0x4937
01572a: 1ab5             .word 0x1ab5
01572b: 11de             .word 0x11de
01572c: 26c2             .word 0x26c2
01572d: f673             .word 0xf673
01572e: 0f93             .word 0x0f93
01572f: 1b6e             .word 0x1b6e
015730: 0319             .word 0x0319
015731: 2b37             .word 0x2b37
015732: 1a85             .word 0x1a85
015733: 1344             .word 0x1344
015734: 29cb             .word 0x29cb
015735: 1d1e             .word 0x1d1e
015736: 2011             .word 0x2011
015737: 201f             .word 0x201f
015738: 021f             .word 0x021f
015739: f2ae             .word 0xf2ae
01573a: f67d             .word 0xf67d
01573b: e72e             .word 0xe72e
01573c: e237             .word 0xe237
01573d: e779             .word 0xe779
01573e: e685             .word 0xe685
01573f: f731             .word 0xf731
015740: 0783             .word 0x0783
015741: 00b5             .word 0x00b5
015742: f54c             .word 0xf54c
015743: 0440             .word 0x0440
015744: f517             .word 0xf517
015745: e21d             .word 0xe21d
015746: f12a             .word 0xf12a
015747: dfee             .word 0xdfee
015748: df5c             .word 0xdf5c
015749: c9c8             .word 0xc9c8
01574a: bcab             .word 0xbcab
01574b: d259             .word 0xd259
01574c: b85b             .word 0xb85b
01574d: b078             .word 0xb078
01574e: b6da             .word 0xb6da
01574f: d100             .word 0xd100
015750: f028             .word 0xf028
015751: f494             .word 0xf494
015752: 04f3             .word 0x04f3
015753: 08d7             .word 0x08d7
015754: 06c1             .word 0x06c1
015755: 13b7             .word 0x13b7
015756: 1515             .word 0x1515
015757: 1efd             .word 0x1efd
015758: 3bbd             .word 0x3bbd
015759: 3276             .word 0x3276
01575a: 0dc8             .word 0x0dc8
01575b: f9c8             .word 0xf9c8
01575c: f0cc             .word 0xf0cc
01575d: f934             .word 0xf934
01575e: 0a83             .word 0x0a83
01575f: 0a8e             .word 0x0a8e
015760: 18a0             .word 0x18a0
015761: 1c16             .word 0x1c16
015762: 2e60             .word 0x2e60
015763: 30d7             .word 0x30d7
015764: fe21             .word 0xfe21
015765: 0574             .word 0x0574
015766: 0906             .word 0x0906
015767: fc1e             .word 0xfc1e
015768: 0d82             .word 0x0d82
015769: 2a5f             .word 0x2a5f
01576a: 29f4             .word 0x29f4
01576b: 2725             .word 0x2725
01576c: 3084             .word 0x3084
01576d: 1976             .word 0x1976
01576e: 11ff             .word 0x11ff
01576f: 0e91             .word 0x0e91
015770: 1e5b             .word 0x1e5b
015771: 2be4             .word 0x2be4
015772: 3482             .word 0x3482
015773: 2e20             .word 0x2e20
015774: 1b22             .word 0x1b22
015775: 036e             .word 0x036e
015776: d2d2             .word 0xd2d2
015777: c362             .word 0xc362
015778: c0ff             .word 0xc0ff
015779: d499             .word 0xd499
01577a: dbff             .word 0xdbff
01577b: dd8c             .word 0xdd8c
01577c: e495             .word 0xe495
01577d: f357             .word 0xf357
01577e: ff0e             .word 0xff0e
01577f: 0567             .word 0x0567
015780: 27e0             .word 0x27e0
015781: 22d7             .word 0x22d7
015782: 148f             .word 0x148f
015783: 004b             .word 0x004b
015784: 0446             .word 0x0446
015785: ff68             .word 0xff68
015786: e75e             .word 0xe75e
015787: da0d             .word 0xda0d
015788: ca0b             .word 0xca0b
015789: dea9             .word 0xdea9
01578a: d828             .word 0xd828
01578b: d640             .word 0xd640
01578c: d4e5             .word 0xd4e5
01578d: d304             .word 0xd304
01578e: ccda             .word 0xccda
01578f: b798             .word 0xb798
015790: b91d             .word 0xb91d
015791: b6a6             .word 0xb6a6
015792: d217             .word 0xd217
015793: f462             .word 0xf462
015794: f01d             .word 0xf01d
015795: e3d1             .word 0xe3d1
015796: f3fc             .word 0xf3fc
015797: 0812             .word 0x0812
015798: 16b6             .word 0x16b6
015799: 06ca             .word 0x06ca
01579a: 0b90             .word 0x0b90
01579b: 2b8b             .word 0x2b8b
01579c: 16d6             .word 0x16d6
01579d: 1b9e             .word 0x1b9e
01579e: 1db3             .word 0x1db3
01579f: 2143             .word 0x2143
0157a0: 32e8             .word 0x32e8
0157a1: 2071             .word 0x2071
0157a2: 2440             .word 0x2440
0157a3: 332e             .word 0x332e
0157a4: 2c15             .word 0x2c15
0157a5: 38d2             .word 0x38d2
0157a6: 5604             .word 0x5604
0157a7: 36a9             .word 0x36a9
0157a8: 26dd             .word 0x26dd
0157a9: 426b             .word 0x426b
0157aa: 2e9c             .word 0x2e9c
0157ab: 1ed2             .word 0x1ed2
0157ac: 1b4b             .word 0x1b4b
0157ad: 1b31             .word 0x1b31
0157ae: 2e76             .word 0x2e76
0157af: 3928             .word 0x3928
0157b0: 2b7d             .word 0x2b7d
0157b1: f0b2             .word 0xf0b2
0157b2: d61c             .word 0xd61c
0157b3: e748             .word 0xe748
0157b4: dde7             .word 0xdde7
0157b5: dca1             .word 0xdca1
0157b6: dd1d             .word 0xdd1d
0157b7: eebf             .word 0xeebf
0157b8: 050c             .word 0x050c
0157b9: 00d2             .word 0x00d2
0157ba: faf8             .word 0xfaf8
0157bb: e0ef             .word 0xe0ef
0157bc: d19e             .word 0xd19e
0157bd: c997             .word 0xc997
0157be: b53a             .word 0xb53a
0157bf: b485             .word 0xb485
0157c0: cb5e             .word 0xcb5e
0157c1: caa5             .word 0xcaa5
0157c2: bf56             .word 0xbf56
0157c3: e044             .word 0xe044
0157c4: f591             .word 0xf591
0157c5: fc95             .word 0xfc95
0157c6: 02b8             .word 0x02b8
0157c7: e8bb             .word 0xe8bb
0157c8: c66d             .word 0xc66d
0157c9: b09d             .word 0xb09d
0157ca: b49d             .word 0xb49d
0157cb: d8e6             .word 0xd8e6
0157cc: f7f6             .word 0xf7f6
0157cd: 1574             .word 0x1574
0157ce: 1bc4             .word 0x1bc4
0157cf: f739             .word 0xf739
0157d0: 0a75             .word 0x0a75
0157d1: 24e3             .word 0x24e3
0157d2: 2bd1             .word 0x2bd1
0157d3: 3d11             .word 0x3d11
0157d4: 39f8             .word 0x39f8
0157d5: 4286             .word 0x4286
0157d6: 3fa1             .word 0x3fa1
0157d7: 2a5d             .word 0x2a5d
0157d8: 1433             .word 0x1433
0157d9: 101d             .word 0x101d
0157da: 0558             .word 0x0558
0157db: 10ac             .word 0x10ac
0157dc: 2fda             .word 0x2fda
0157dd: 2119             .word 0x2119
0157de: 1c42             .word 0x1c42
0157df: 2a55             .word 0x2a55
0157e0: 2c04             .word 0x2c04
0157e1: 0811             .word 0x0811
0157e2: 0f39             .word 0x0f39
0157e3: 1f37             .word 0x1f37
0157e4: 049e             .word 0x049e
0157e5: 0b41             .word 0x0b41
0157e6: ee2f             .word 0xee2f
0157e7: e6aa             .word 0xe6aa
0157e8: ed50             .word 0xed50
0157e9: dae4             .word 0xdae4
0157ea: f1e8             .word 0xf1e8
0157eb: fb37             .word 0xfb37
0157ec: 03cf             .word 0x03cf
0157ed: 0861             .word 0x0861
0157ee: 080e             .word 0x080e
0157ef: 0511             .word 0x0511
0157f0: fc52             .word 0xfc52
0157f1: ff39             .word 0xff39
0157f2: de7d             .word 0xde7d
0157f3: e429             .word 0xe429
0157f4: e175             .word 0xe175
0157f5: c1fe             .word 0xc1fe
0157f6: d1da             .word 0xd1da
0157f7: c852             .word 0xc852
0157f8: e01d             .word 0xe01d
0157f9: 028d             .word 0x028d
0157fa: f6d8             .word 0xf6d8
0157fb: e80e             .word 0xe80e
0157fc: d735             .word 0xd735
0157fd: e0d6             .word 0xe0d6
0157fe: 041f             .word 0x041f
0157ff: 0e81             .word 0x0e81
015800: fbd1             .word 0xfbd1
015801: 0e2d             .word 0x0e2d
015802: 2db8             .word 0x2db8
015803: 3fd8             .word 0x3fd8
015804: 3fd6             .word 0x3fd6
015805: 1f28             .word 0x1f28
015806: 1b9b             .word 0x1b9b
015807: 2bdf             .word 0x2bdf
015808: 1a2f             .word 0x1a2f
015809: 0173             .word 0x0173
01580a: f6d5             .word 0xf6d5
01580b: ec64             .word 0xec64
01580c: d822             .word 0xd822
01580d: cf4d             .word 0xcf4d
01580e: dc04             .word 0xdc04
01580f: d9ba             .word 0xd9ba
015810: d4ed             .word 0xd4ed
015811: daf3             .word 0xdaf3
015812: d7f1             .word 0xd7f1
015813: cd7f             .word 0xcd7f
015814: e990             .word 0xe990
015815: 00a2             .word 0x00a2
015816: 095c             .word 0x095c
015817: 24a0             .word 0x24a0
015818: 0c2e             .word 0x0c2e
015819: f48c             .word 0xf48c
01581a: ef96             .word 0xef96
01581b: ff98             .word 0xff98
01581c: 09d8             .word 0x09d8
01581d: 0cd8             .word 0x0cd8
01581e: 2dcb             .word 0x2dcb
01581f: 2ce3             .word 0x2ce3
015820: 3e7d             .word 0x3e7d
015821: 4a7b             .word 0x4a7b
015822: 3e64             .word 0x3e64
015823: 30b6             .word 0x30b6
015824: 2cdb             .word 0x2cdb
015825: 155b             .word 0x155b
015826: e318             .word 0xe318
015827: f24e             .word 0xf24e
015828: fdcf             .word 0xfdcf
015829: 20bc             .word 0x20bc
01582a: 2c25             .word 0x2c25
01582b: 0b74             .word 0x0b74
01582c: 1b7e             .word 0x1b7e
01582d: fe0d             .word 0xfe0d
01582e: e9fe             .word 0xe9fe
01582f: de7b             .word 0xde7b
015830: cd9f             .word 0xcd9f
015831: df6a             .word 0xdf6a
015832: ec3e             .word 0xec3e
015833: fbf1             .word 0xfbf1
015834: 0e1b             .word 0x0e1b
015835: 35ad             .word 0x35ad
015836: 2846             .word 0x2846
015837: 0b11             .word 0x0b11
015838: ef93             .word 0xef93
015839: db8b             .word 0xdb8b
01583a: fa13             .word 0xfa13
01583b: d861             .word 0xd861
01583c: c6ef             .word 0xc6ef
01583d: bee5             .word 0xbee5
01583e: b2b9             .word 0xb2b9
01583f: c7de             .word 0xc7de
015840: e28f             .word 0xe28f
015841: ee85             .word 0xee85
015842: d674             .word 0xd674
015843: 0f31             .word 0x0f31
015844: 1d8a             .word 0x1d8a
015845: 0ed6             .word 0x0ed6
015846: 21e9             .word 0x21e9
015847: 0ed8             .word 0x0ed8
015848: 0b17             .word 0x0b17
015849: f6c8             .word 0xf6c8
01584a: 103e             .word 0x103e
01584b: 1205             .word 0x1205
01584c: 0a75             .word 0x0a75
01584d: 3208             .word 0x3208
01584e: 19d6             .word 0x19d6
01584f: 0646             .word 0x0646
015850: f91d             .word 0xf91d
015851: f994             .word 0xf994
015852: 2172             .word 0x2172
015853: 1c5b             .word 0x1c5b
015854: fde5             .word 0xfde5
015855: 010c             .word 0x010c
015856: f84a             .word 0xf84a
015857: e6ed             .word 0xe6ed
015858: e5ce             .word 0xe5ce
015859: ef22             .word 0xef22
01585a: 0b83             .word 0x0b83
01585b: 11a5             .word 0x11a5
01585c: f9a7             .word 0xf9a7
01585d: fdb5             .word 0xfdb5
01585e: 2ac5             .word 0x2ac5
01585f: 1297             .word 0x1297
015860: 023c             .word 0x023c
015861: 2693             .word 0x2693
015862: 258e             .word 0x258e
015863: 33b6             .word 0x33b6
015864: 2322             .word 0x2322
015865: 0b99             .word 0x0b99
015866: fb7b             .word 0xfb7b
015867: dcba             .word 0xdcba
015868: d851             .word 0xd851
015869: ceb8             .word 0xceb8
01586a: babf             .word 0xbabf
01586b: ccaa             .word 0xccaa
01586c: ef19             .word 0xef19
01586d: fd1e             .word 0xfd1e
01586e: 134c             .word 0x134c
01586f: fa00             .word 0xfa00
015870: dade             .word 0xdade
015871: cc34             .word 0xcc34
015872: c472             .word 0xc472
015873: d918             .word 0xd918
015874: f731             .word 0xf731
015875: 0c73             .word 0x0c73
015876: 05da             .word 0x05da
015877: 1c95             .word 0x1c95
015878: 1b34             .word 0x1b34
015879: 11ac             .word 0x11ac
01587a: 023a             .word 0x023a
01587b: e226             .word 0xe226
01587c: e934             .word 0xe934
01587d: 10ba             .word 0x10ba
01587e: 19f2             .word 0x19f2
01587f: 16e2             .word 0x16e2
015880: 324d             .word 0x324d
015881: f438             .word 0xf438
015882: f2e6             .word 0xf2e6
015883: fed6             .word 0xfed6
015884: e86e             .word 0xe86e
015885: 05eb             .word 0x05eb
015886: e9c7             .word 0xe9c7
015887: fab2             .word 0xfab2
015888: 0e46             .word 0x0e46
015889: 11ac             .word 0x11ac
01588a: 190b             .word 0x190b
01588b: 115c             .word 0x115c
01588c: 187f             .word 0x187f
01588d: 263c             .word 0x263c
01588e: 2c5a             .word 0x2c5a
01588f: 20eb             .word 0x20eb
015890: 2934             .word 0x2934
015891: 2847             .word 0x2847
015892: 190e             .word 0x190e
015893: 020e             .word 0x020e
015894: fe2b             .word 0xfe2b
015895: dd20             .word 0xdd20
015896: d572             .word 0xd572
015897: efdd             .word 0xefdd
015898: e187             .word 0xe187
015899: f65d             .word 0xf65d
01589a: 12ba             .word 0x12ba
01589b: 34bf             .word 0x34bf
01589c: 2a26             .word 0x2a26
01589d: 14d3             .word 0x14d3
01589e: 027f             .word 0x027f
01589f: f20c             .word 0xf20c
0158a0: 0406             .word 0x0406
0158a1: f71e             .word 0xf71e
0158a2: 0735             .word 0x0735
0158a3: f0dd             .word 0xf0dd
0158a4: db1d             .word 0xdb1d
0158a5: e4fb             .word 0xe4fb
0158a6: dba9             .word 0xdba9
0158a7: e3f0             .word 0xe3f0
0158a8: c267             .word 0xc267
0158a9: c53e             .word 0xc53e
0158aa: d9b4             .word 0xd9b4
0158ab: cd5d             .word 0xcd5d
0158ac: e023             .word 0xe023
0158ad: ef5e             .word 0xef5e
0158ae: f7fc             .word 0xf7fc
0158af: fe4f             .word 0xfe4f
0158b0: f44f             .word 0xf44f
0158b1: e1bd             .word 0xe1bd
0158b2: cfa3             .word 0xcfa3
0158b3: dd0d             .word 0xdd0d
0158b4: 021e             .word 0x021e
0158b5: 0840             .word 0x0840
0158b6: 0a72             .word 0x0a72
0158b7: 1dfd             .word 0x1dfd
0158b8: 2306             .word 0x2306
0158b9: 2ff7             .word 0x2ff7
0158ba: 314f             .word 0x314f
0158bb: 212d             .word 0x212d
0158bc: 24dd             .word 0x24dd
0158bd: 2375             .word 0x2375
0158be: 2cef             .word 0x2cef
0158bf: 4934             .word 0x4934
0158c0: 46b2             .word 0x46b2
0158c1: 3c11             .word 0x3c11
0158c2: 30cc             .word 0x30cc
0158c3: 1416             .word 0x1416
0158c4: 0db5             .word 0x0db5
0158c5: 08c7             .word 0x08c7
0158c6: f875             .word 0xf875
0158c7: ee69             .word 0xee69
0158c8: e237             .word 0xe237
0158c9: e9f3             .word 0xe9f3
0158ca: eea1             .word 0xeea1
0158cb: d749             .word 0xd749
0158cc: d74f             .word 0xd74f
0158cd: f415             .word 0xf415
0158ce: f625             .word 0xf625
0158cf: f23e             .word 0xf23e
0158d0: e7f6             .word 0xe7f6
0158d1: d000             .word 0xd000
0158d2: da3c             .word 0xda3c
0158d3: fee2             .word 0xfee2
0158d4: 0ad3             .word 0x0ad3
0158d5: ea0c             .word 0xea0c
0158d6: e358             .word 0xe358
0158d7: dc64             .word 0xdc64
0158d8: d32a             .word 0xd32a
0158d9: 019d             .word 0x019d
0158da: 2a05             .word 0x2a05
0158db: 266a             .word 0x266a
0158dc: 0e62             .word 0x0e62
0158dd: 19dc             .word 0x19dc
0158de: 2206             .word 0x2206
0158df: 1cc3             .word 0x1cc3
0158e0: 28a2             .word 0x28a2
0158e1: 29c6             .word 0x29c6
0158e2: 2715             .word 0x2715
0158e3: 1e77             .word 0x1e77
0158e4: fe3a             .word 0xfe3a
0158e5: e961             .word 0xe961
0158e6: f971             .word 0xf971
0158e7: f17f             .word 0xf17f
0158e8: df9c             .word 0xdf9c
0158e9: da67             .word 0xda67
0158ea: df28             .word 0xdf28
0158eb: da93             .word 0xda93
0158ec: d772             .word 0xd772
0158ed: f2c0             .word 0xf2c0
0158ee: 0466             .word 0x0466
0158ef: 0fa7             .word 0x0fa7
0158f0: 02c1             .word 0x02c1
0158f1: f2ac             .word 0xf2ac
0158f2: e48a             .word 0xe48a
0158f3: e0fa             .word 0xe0fa
0158f4: e760             .word 0xe760
0158f5: e7fd             .word 0xe7fd
0158f6: f2bc             .word 0xf2bc
0158f7: f2bf             .word 0xf2bf
0158f8: f431             .word 0xf431
0158f9: ddf6             .word 0xddf6
0158fa: f2a3             .word 0xf2a3
0158fb: 0e38             .word 0x0e38
0158fc: 0850             .word 0x0850
0158fd: 1fa6             .word 0x1fa6
0158fe: 1407             .word 0x1407
0158ff: 1dc1             .word 0x1dc1
015900: 21c2             .word 0x21c2
015901: 1262             .word 0x1262
015902: 0bba             .word 0x0bba
015903: ed1d             .word 0xed1d
015904: ff45             .word 0xff45
015905: 00ec             .word 0x00ec
015906: 0a17             .word 0x0a17
015907: 3553             .word 0x3553
015908: 37a0             .word 0x37a0
015909: 326c             .word 0x326c
01590a: 1832             .word 0x1832
01590b: 0fa1             .word 0x0fa1
01590c: 0bbd             .word 0x0bbd
01590d: f065             .word 0xf065
01590e: ecea             .word 0xecea
01590f: 0119             .word 0x0119
015910: 0b02             .word 0x0b02
015911: ee59             .word 0xee59
015912: f4d2             .word 0xf4d2
015913: 20dd             .word 0x20dd
015914: 2951             .word 0x2951
015915: 1581             .word 0x1581
015916: 0554             .word 0x0554
015917: f311             .word 0xf311
015918: 01cf             .word 0x01cf
015919: 29f2             .word 0x29f2
01591a: 26c3             .word 0x26c3
01591b: 211d             .word 0x211d
01591c: 1dc9             .word 0x1dc9
01591d: 202a             .word 0x202a
01591e: 222d             .word 0x222d
01591f: 1bb0             .word 0x1bb0
015920: 1378             .word 0x1378
015921: d9c0             .word 0xd9c0
015922: c02a             .word 0xc02a
015923: c323             .word 0xc323
015924: b7ca             .word 0xb7ca
015925: c5e6             .word 0xc5e6
015926: c537             .word 0xc537
015927: cef5             .word 0xcef5
015928: c694             .word 0xc694
015929: b594             .word 0xb594
01592a: be40             .word 0xbe40
01592b: bdc5             .word 0xbdc5
01592c: d74b             .word 0xd74b
01592d: e005             .word 0xe005
01592e: e3c3             .word 0xe3c3
01592f: f240             .word 0xf240
015930: 075f             .word 0x075f
015931: 0556             .word 0x0556
015932: efcc             .word 0xefcc
015933: 10e7             .word 0x10e7
015934: 1e38             .word 0x1e38
015935: 0c5f             .word 0x0c5f
015936: f38e             .word 0xf38e
015937: f610             .word 0xf610
015938: 035b             .word 0x035b
015939: 0d7b             .word 0x0d7b
01593a: 0d6a             .word 0x0d6a
01593b: 059d             .word 0x059d
01593c: 17c3             .word 0x17c3
01593d: 05d4             .word 0x05d4
01593e: 161e             .word 0x161e
01593f: 12f9             .word 0x12f9
015940: 0334             .word 0x0334
015941: 01df             .word 0x01df
015942: 048b             .word 0x048b
015943: 2789             .word 0x2789
015944: 0649             .word 0x0649
015945: 04cd             .word 0x04cd
015946: f1b7             .word 0xf1b7
015947: f29c             .word 0xf29c
015948: 228d             .word 0x228d
015949: 2c52             .word 0x2c52
01594a: 4807             .word 0x4807
01594b: 2ebe             .word 0x2ebe
01594c: 334f             .word 0x334f
01594d: 358d             .word 0x358d
01594e: 1ec7             .word 0x1ec7
01594f: 1662             .word 0x1662
015950: 16c9             .word 0x16c9
015951: 3907             .word 0x3907
015952: 32ea             .word 0x32ea
015953: 3693             .word 0x3693
015954: 39ee             .word 0x39ee
015955: 36ad             .word 0x36ad
015956: 1c3c             .word 0x1c3c
015957: fdc9             .word 0xfdc9
015958: 05b6             .word 0x05b6
015959: 054e             .word 0x054e
01595a: 07d5             .word 0x07d5
01595b: e729             .word 0xe729
01595c: db64             .word 0xdb64
01595d: eda8             .word 0xeda8
01595e: e199             .word 0xe199
01595f: d72b             .word 0xd72b
015960: e234             .word 0xe234
015961: d6c7             .word 0xd6c7
015962: c455             .word 0xc455
015963: d14e             .word 0xd14e
015964: e2db             .word 0xe2db
015965: f08b             .word 0xf08b
015966: e07e             .word 0xe07e
015967: e998             .word 0xe998
015968: 0548             .word 0x0548
015969: 1b56             .word 0x1b56
01596a: 0a86             .word 0x0a86
01596b: e516             .word 0xe516
01596c: ecb3             .word 0xecb3
01596d: dc8c             .word 0xdc8c
01596e: e384             .word 0xe384
01596f: eac2             .word 0xeac2
015970: df0a             .word 0xdf0a
015971: eb80             .word 0xeb80
015972: e7b6             .word 0xe7b6
015973: c821             .word 0xc821
015974: caf2             .word 0xcaf2
015975: f080             .word 0xf080
015976: d8c7             .word 0xd8c7
015977: d686             .word 0xd686
015978: e93d             .word 0xe93d
015979: e19c             .word 0xe19c
01597a: f5d5             .word 0xf5d5
01597b: eb56             .word 0xeb56
01597c: db85             .word 0xdb85
01597d: f091             .word 0xf091
01597e: ece0             .word 0xece0
01597f: f18a             .word 0xf18a
015980: 0c3b             .word 0x0c3b
015981: 10d1             .word 0x10d1
015982: f690             .word 0xf690
015983: d9b7             .word 0xd9b7
015984: eee2             .word 0xeee2
015985: f5aa             .word 0xf5aa
015986: dc99             .word 0xdc99
015987: fc70             .word 0xfc70
015988: 2f36             .word 0x2f36
015989: 3a6c             .word 0x3a6c
01598a: 3f80             .word 0x3f80
01598b: 2f0d             .word 0x2f0d
01598c: 389b             .word 0x389b
01598d: 6484             .word 0x6484
01598e: 6e41             .word 0x6e41
01598f: 6d9b             .word 0x6d9b
015990: 5fc2             .word 0x5fc2
015991: 6366             .word 0x6366
015992: 4402             .word 0x4402
015993: 1ba8             .word 0x1ba8
015994: 1175             .word 0x1175
015995: fc7f             .word 0xfc7f
015996: 07e6             .word 0x07e6
015997: fde4             .word 0xfde4
015998: e81e             .word 0xe81e
015999: f490             .word 0xf490
01599a: 0e40             .word 0x0e40
01599b: 02c3             .word 0x02c3
01599c: 017f             .word 0x017f
01599d: 0936             .word 0x0936
01599e: 028d             .word 0x028d
01599f: 1921             .word 0x1921
0159a0: 1233             .word 0x1233
0159a1: feb8             .word 0xfeb8
0159a2: e46e             .word 0xe46e
0159a3: d95a             .word 0xd95a
0159a4: cfbf             .word 0xcfbf
0159a5: cb0a             .word 0xcb0a
0159a6: d64e             .word 0xd64e
0159a7: d530             .word 0xd530
0159a8: efa0             .word 0xefa0
0159a9: f062             .word 0xf062
0159aa: f244             .word 0xf244
0159ab: fcaa             .word 0xfcaa
0159ac: e35b             .word 0xe35b
0159ad: e020             .word 0xe020
0159ae: ef4b             .word 0xef4b
0159af: e4c6             .word 0xe4c6
0159b0: f190             .word 0xf190
0159b1: f74c             .word 0xf74c
0159b2: f095             .word 0xf095
0159b3: fab7             .word 0xfab7
0159b4: e852             .word 0xe852
0159b5: 01eb             .word 0x01eb
0159b6: fcd3             .word 0xfcd3
0159b7: f53b             .word 0xf53b
0159b8: fb4a             .word 0xfb4a
0159b9: db5d             .word 0xdb5d
0159ba: fd60             .word 0xfd60
0159bb: 0234             .word 0x0234
0159bc: 16a7             .word 0x16a7
0159bd: 1e2d             .word 0x1e2d
0159be: f067             .word 0xf067
0159bf: f2e0             .word 0xf2e0
0159c0: deba             .word 0xdeba
0159c1: d965             .word 0xd965
0159c2: e4f2             .word 0xe4f2
0159c3: e7b6             .word 0xe7b6
0159c4: eceb             .word 0xeceb
0159c5: fbbb             .word 0xfbbb
0159c6: 2465             .word 0x2465
0159c7: 3a09             .word 0x3a09
0159c8: 3ae5             .word 0x3ae5
0159c9: 311c             .word 0x311c
0159ca: 2d6a             .word 0x2d6a
0159cb: 1c13             .word 0x1c13
0159cc: 06ed             .word 0x06ed
0159cd: 0272             .word 0x0272
0159ce: f6e1             .word 0xf6e1
0159cf: fb47             .word 0xfb47
0159d0: 0325             .word 0x0325
0159d1: 0e6b             .word 0x0e6b
0159d2: 1652             .word 0x1652
0159d3: 0a4b             .word 0x0a4b
0159d4: ff24             .word 0xff24
0159d5: f4db             .word 0xf4db
0159d6: ea16             .word 0xea16
0159d7: e668             .word 0xe668
0159d8: e17b             .word 0xe17b
0159d9: e7ad             .word 0xe7ad
0159da: f41a             .word 0xf41a
0159db: e1b2             .word 0xe1b2
0159dc: e927             .word 0xe927
0159dd: f37a             .word 0xf37a
0159de: ff86             .word 0xff86
0159df: 0b48             .word 0x0b48
0159e0: e5c8             .word 0xe5c8
0159e1: eb4e             .word 0xeb4e
0159e2: e8d4             .word 0xe8d4
0159e3: e55a             .word 0xe55a
0159e4: 0279             .word 0x0279
0159e5: 0756             .word 0x0756
0159e6: 03d1             .word 0x03d1
0159e7: f925             .word 0xf925
0159e8: fbfc             .word 0xfbfc
0159e9: 05dd             .word 0x05dd
0159ea: 0db4             .word 0x0db4
0159eb: 155a             .word 0x155a
0159ec: 3b75             .word 0x3b75
0159ed: 4739             .word 0x4739
0159ee: 302f             .word 0x302f
0159ef: 2ac5             .word 0x2ac5
0159f0: 26a4             .word 0x26a4
0159f1: 2b5c             .word 0x2b5c
0159f2: 2007             .word 0x2007
0159f3: 0e2a             .word 0x0e2a
0159f4: 01cc             .word 0x01cc
0159f5: 17ab             .word 0x17ab
0159f6: 0932             .word 0x0932
0159f7: f608             .word 0xf608
0159f8: 0fc2             .word 0x0fc2
0159f9: 0513             .word 0x0513
0159fa: 06e5             .word 0x06e5
0159fb: 154f             .word 0x154f
0159fc: 220a             .word 0x220a
0159fd: 032d             .word 0x032d
0159fe: efe2             .word 0xefe2
0159ff: 0282             .word 0x0282
015a00: 17c1             .word 0x17c1
015a01: 0ebd             .word 0x0ebd
015a02: dadb             .word 0xdadb
015a03: e8a2             .word 0xe8a2
015a04: ec1c             .word 0xec1c
015a05: e4e7             .word 0xe4e7
015a06: d063             .word 0xd063
015a07: b9fc             .word 0xb9fc
015a08: c75f             .word 0xc75f
015a09: b40e             .word 0xb40e
015a0a: bae3             .word 0xbae3
015a0b: cc6c             .word 0xcc6c
015a0c: db2e             .word 0xdb2e
015a0d: f16f             .word 0xf16f
015a0e: f839             .word 0xf839
015a0f: ebbf             .word 0xebbf
015a10: f0bc             .word 0xf0bc
015a11: 06fe             .word 0x06fe
015a12: 247a             .word 0x247a
015a13: 4236             .word 0x4236
015a14: 2a7b             .word 0x2a7b
015a15: 1584             .word 0x1584
015a16: 01ce             .word 0x01ce
015a17: fd89             .word 0xfd89
015a18: 0a75             .word 0x0a75
015a19: 07b1             .word 0x07b1
015a1a: 05dd             .word 0x05dd
015a1b: e3d4             .word 0xe3d4
015a1c: f285             .word 0xf285
015a1d: 1645             .word 0x1645
015a1e: 0a1f             .word 0x0a1f
015a1f: 1310             .word 0x1310
015a20: fa5a             .word 0xfa5a
015a21: e565             .word 0xe565
015a22: 0ccb             .word 0x0ccb
015a23: 0a96             .word 0x0a96
015a24: 0d07             .word 0x0d07
015a25: 2761             .word 0x2761
015a26: 1ba8             .word 0x1ba8
015a27: 0f9f             .word 0x0f9f
015a28: 0bcb             .word 0x0bcb
015a29: 06e6             .word 0x06e6
015a2a: ee56             .word 0xee56
015a2b: d856             .word 0xd856
015a2c: e336             .word 0xe336
015a2d: dcc6             .word 0xdcc6
015a2e: d238             .word 0xd238
015a2f: dfd9             .word 0xdfd9
015a30: e4c1             .word 0xe4c1
015a31: ec90             .word 0xec90
015a32: 0234             .word 0x0234
015a33: 0dde             .word 0x0dde
015a34: 0c90             .word 0x0c90
015a35: 046e             .word 0x046e
015a36: 06fe             .word 0x06fe
015a37: 1383             .word 0x1383
015a38: 143f             .word 0x143f
015a39: 0b67             .word 0x0b67
015a3a: f746             .word 0xf746
015a3b: eeb6             .word 0xeeb6
015a3c: 0b64             .word 0x0b64
015a3d: 1acf             .word 0x1acf
015a3e: 1296             .word 0x1296
015a3f: 0f25             .word 0x0f25
015a40: 0e72             .word 0x0e72
015a41: 0edb             .word 0x0edb
015a42: 0c59             .word 0x0c59
015a43: 0f91             .word 0x0f91
015a44: ffb9             .word 0xffb9
015a45: e8e4             .word 0xe8e4
015a46: f2e5             .word 0xf2e5
015a47: fc9d             .word 0xfc9d
015a48: fa4f             .word 0xfa4f
015a49: fa91             .word 0xfa91
015a4a: fd1e             .word 0xfd1e
015a4b: 198d             .word 0x198d
015a4c: 3d46             .word 0x3d46
015a4d: 3dae             .word 0x3dae
015a4e: 2c05             .word 0x2c05
015a4f: 0be3             .word 0x0be3
015a50: 0516             .word 0x0516
015a51: 1b63             .word 0x1b63
015a52: 23c7             .word 0x23c7
015a53: 280c             .word 0x280c
015a54: 15ad             .word 0x15ad
015a55: f3e4             .word 0xf3e4
015a56: ef1a             .word 0xef1a
015a57: ff56             .word 0xff56
015a58: ee40             .word 0xee40
015a59: f1e8             .word 0xf1e8
015a5a: 077a             .word 0x077a
015a5b: fdcf             .word 0xfdcf
015a5c: f41b             .word 0xf41b
015a5d: e78f             .word 0xe78f
015a5e: f5ee             .word 0xf5ee
015a5f: e468             .word 0xe468
015a60: df0b             .word 0xdf0b
015a61: 048a             .word 0x048a
015a62: e682             .word 0xe682
015a63: bc43             .word 0xbc43
015a64: bc25             .word 0xbc25
015a65: c944             .word 0xc944
015a66: c73a             .word 0xc73a
015a67: d406             .word 0xd406
015a68: e52c             .word 0xe52c
015a69: eb0c             .word 0xeb0c
015a6a: ffd4             .word 0xffd4
015a6b: 19f8             .word 0x19f8
015a6c: 217a             .word 0x217a
015a6d: 1cc4             .word 0x1cc4
015a6e: 2136             .word 0x2136
015a6f: 176e             .word 0x176e
015a70: 0afe             .word 0x0afe
015a71: 0709             .word 0x0709
015a72: 09ac             .word 0x09ac
015a73: 0524             .word 0x0524
015a74: 1108             .word 0x1108
015a75: 1955             .word 0x1955
015a76: 1660             .word 0x1660
015a77: 1731             .word 0x1731
015a78: fbc6             .word 0xfbc6
015a79: fce7             .word 0xfce7
015a7a: 09f6             .word 0x09f6
015a7b: 10ec             .word 0x10ec
015a7c: f751             .word 0xf751
015a7d: f301             .word 0xf301
015a7e: 059b             .word 0x059b
015a7f: ea08             .word 0xea08
015a80: f0fb             .word 0xf0fb
015a81: e6ed             .word 0xe6ed
015a82: dd23             .word 0xdd23
015a83: e940             .word 0xe940
015a84: f048             .word 0xf048
015a85: f8dc             .word 0xf8dc
015a86: f685             .word 0xf685
015a87: e5e2             .word 0xe5e2
015a88: daa7             .word 0xdaa7
015a89: 058d             .word 0x058d
015a8a: 02e8             .word 0x02e8
015a8b: f20a             .word 0xf20a
015a8c: fe65             .word 0xfe65
015a8d: fed9             .word 0xfed9
015a8e: 078a             .word 0x078a
015a8f: 053a             .word 0x053a
015a90: 1105             .word 0x1105
015a91: 187b             .word 0x187b
015a92: 2024             .word 0x2024
015a93: 1b13             .word 0x1b13
015a94: 179d             .word 0x179d
015a95: 22ee             .word 0x22ee
015a96: f746             .word 0xf746
015a97: d5ca             .word 0xd5ca
015a98: d7cf             .word 0xd7cf
015a99: 0011             .word 0x0011
015a9a: 2365             .word 0x2365
015a9b: 20d0             .word 0x20d0
015a9c: 3374             .word 0x3374
015a9d: 1eae             .word 0x1eae
015a9e: 0be3             .word 0x0be3
015a9f: 10f1             .word 0x10f1
015aa0: 13a5             .word 0x13a5
015aa1: 218b             .word 0x218b
015aa2: 1655             .word 0x1655
015aa3: 055b             .word 0x055b
015aa4: 0b74             .word 0x0b74
015aa5: 337e             .word 0x337e
015aa6: 2707             .word 0x2707
015aa7: 24da             .word 0x24da
015aa8: 42a2             .word 0x42a2
015aa9: 26bd             .word 0x26bd
015aaa: 2480             .word 0x2480
015aab: f9f2             .word 0xf9f2
015aac: e3ab             .word 0xe3ab
015aad: 15dc             .word 0x15dc
015aae: 194f             .word 0x194f
015aaf: 14c9             .word 0x14c9
015ab0: 00c9             .word 0x00c9
015ab1: f136             .word 0xf136
015ab2: e53d             .word 0xe53d
015ab3: c8ba             .word 0xc8ba
015ab4: b165             .word 0xb165
015ab5: a267             .word 0xa267
015ab6: bd27             .word 0xbd27
015ab7: b547             .word 0xb547
015ab8: aa99             .word 0xaa99
015ab9: ba6e             .word 0xba6e
015aba: afce             .word 0xafce
015abb: c255             .word 0xc255
015abc: c8fc             .word 0xc8fc
015abd: cebb             .word 0xcebb
015abe: d904             .word 0xd904
015abf: d503             .word 0xd503
015ac0: f25a             .word 0xf25a
015ac1: fdc8             .word 0xfdc8
015ac2: f900             .word 0xf900
015ac3: ff79             .word 0xff79
015ac4: ff61             .word 0xff61
015ac5: ecee             .word 0xecee
015ac6: e2be             .word 0xe2be
015ac7: 028a             .word 0x028a
015ac8: 084e             .word 0x084e
015ac9: 02b4             .word 0x02b4
015aca: 1a2f             .word 0x1a2f
015acb: 1f14             .word 0x1f14
015acc: 25c4             .word 0x25c4
015acd: 2233             .word 0x2233
015ace: 1e9d             .word 0x1e9d
015acf: 27d3             .word 0x27d3
015ad0: 20ac             .word 0x20ac
015ad1: 2423             .word 0x2423
015ad2: 25d3             .word 0x25d3
015ad3: 1e66             .word 0x1e66
015ad4: 286f             .word 0x286f
015ad5: 4625             .word 0x4625
015ad6: 417b             .word 0x417b
015ad7: 2834             .word 0x2834
015ad8: 34eb             .word 0x34eb
015ad9: 43ca             .word 0x43ca
015ada: 3294             .word 0x3294
015adb: 2d42             .word 0x2d42
015adc: 2683             .word 0x2683
015add: 1081             .word 0x1081
015ade: 1987             .word 0x1987
015adf: 165a             .word 0x165a
015ae0: 0cd5             .word 0x0cd5
015ae1: fae2             .word 0xfae2
015ae2: ffce             .word 0xffce
015ae3: 08a6             .word 0x08a6
015ae4: f6fa             .word 0xf6fa
015ae5: f34c             .word 0xf34c
015ae6: daac             .word 0xdaac
015ae7: eab6             .word 0xeab6
015ae8: f8c5             .word 0xf8c5
015ae9: f246             .word 0xf246
015aea: e7ed             .word 0xe7ed
015aeb: cd7c             .word 0xcd7c
015aec: c72e             .word 0xc72e
015aed: d62f             .word 0xd62f
015aee: eb2f             .word 0xeb2f
015aef: e2e4             .word 0xe2e4
015af0: d7b4             .word 0xd7b4
015af1: ca2f             .word 0xca2f
015af2: ce8d             .word 0xce8d
015af3: d751             .word 0xd751
015af4: f2a3             .word 0xf2a3
015af5: 096c             .word 0x096c
015af6: 0b90             .word 0x0b90
015af7: 0024             .word 0x0024
015af8: f407             .word 0xf407
015af9: 05d1             .word 0x05d1
015afa: eeee             .word 0xeeee
015afb: f955             .word 0xf955
015afc: 06c9             .word 0x06c9
015afd: 13f5             .word 0x13f5
015afe: 189d             .word 0x189d
015aff: 0abf             .word 0x0abf
015b00: 0eb1             .word 0x0eb1
015b01: 0ab1             .word 0x0ab1
015b02: 08c2             .word 0x08c2
015b03: d433             .word 0xd433
015b04: d438             .word 0xd438
015b05: d76d             .word 0xd76d
015b06: d6b9             .word 0xd6b9
015b07: e6dd             .word 0xe6dd
015b08: f249             .word 0xf249
015b09: 05f3             .word 0x05f3
015b0a: 1249             .word 0x1249
015b0b: 2c58             .word 0x2c58
015b0c: 0260             .word 0x0260
015b0d: 04d8             .word 0x04d8
015b0e: fbed             .word 0xfbed
015b0f: e79a             .word 0xe79a
015b10: f3c5             .word 0xf3c5
015b11: fd37             .word 0xfd37
015b12: 12bb             .word 0x12bb
015b13: 149a             .word 0x149a
015b14: 3700             .word 0x3700
015b15: 27de             .word 0x27de
015b16: 3291             .word 0x3291
015b17: 1fc2             .word 0x1fc2
015b18: f35a             .word 0xf35a
015b19: 017a             .word 0x017a
015b1a: 037d             .word 0x037d
015b1b: 0c3e             .word 0x0c3e
015b1c: 069e             .word 0x069e
015b1d: 1a69             .word 0x1a69
015b1e: 0956             .word 0x0956
015b1f: 0469             .word 0x0469
015b20: 188a             .word 0x188a
015b21: 0fde             .word 0x0fde
015b22: 0f01             .word 0x0f01
015b23: 06c5             .word 0x06c5
015b24: 0e49             .word 0x0e49
015b25: 1639             .word 0x1639
015b26: 0cb4             .word 0x0cb4
015b27: f2a4             .word 0xf2a4
015b28: 020e             .word 0x020e
015b29: 05f9             .word 0x05f9
015b2a: e139             .word 0xe139
015b2b: f8fa             .word 0xf8fa
015b2c: 18ec             .word 0x18ec
015b2d: 0dcb             .word 0x0dcb
015b2e: 04dd             .word 0x04dd
015b2f: e8ce             .word 0xe8ce
015b30: d71c             .word 0xd71c
015b31: e5cc             .word 0xe5cc
015b32: f63c             .word 0xf63c
015b33: 104f             .word 0x104f
015b34: 0bf3             .word 0x0bf3
015b35: 0385             .word 0x0385
015b36: fa6a             .word 0xfa6a
015b37: e876             .word 0xe876
015b38: e084             .word 0xe084
015b39: f91b             .word 0xf91b
015b3a: fe2f             .word 0xfe2f
015b3b: e566             .word 0xe566
015b3c: ef28             .word 0xef28
015b3d: e60e             .word 0xe60e
015b3e: ed8e             .word 0xed8e
015b3f: eebc             .word 0xeebc
015b40: fbfd             .word 0xfbfd
015b41: 1089             .word 0x1089
015b42: fa97             .word 0xfa97
015b43: ef3a             .word 0xef3a
015b44: fd48             .word 0xfd48
015b45: 2d73             .word 0x2d73
015b46: 33fd             .word 0x33fd
015b47: 26f1             .word 0x26f1
015b48: 21fe             .word 0x21fe
015b49: 01ca             .word 0x01ca
015b4a: e806             .word 0xe806
015b4b: eb8a             .word 0xeb8a
015b4c: dd75             .word 0xdd75
015b4d: dce6             .word 0xdce6
015b4e: 003c             .word 0x003c
015b4f: 0785             .word 0x0785
015b50: feea             .word 0xfeea
015b51: f5c0             .word 0xf5c0
015b52: 0c7d             .word 0x0c7d
015b53: 02ed             .word 0x02ed
015b54: e68f             .word 0xe68f
015b55: d807             .word 0xd807
015b56: dcde             .word 0xdcde
015b57: f670             .word 0xf670
015b58: e327             .word 0xe327
015b59: e560             .word 0xe560
015b5a: ef66             .word 0xef66
015b5b: f2de             .word 0xf2de
015b5c: e60e             .word 0xe60e
015b5d: deb7             .word 0xdeb7
015b5e: f8e9             .word 0xf8e9
015b5f: f472             .word 0xf472
015b60: e46e             .word 0xe46e
015b61: edbc             .word 0xedbc
015b62: 08a3             .word 0x08a3
015b63: 12ba             .word 0x12ba
015b64: 141e             .word 0x141e
015b65: 194b             .word 0x194b
015b66: 2e78             .word 0x2e78
015b67: 2b96             .word 0x2b96
015b68: 1a18             .word 0x1a18
015b69: 3621             .word 0x3621
015b6a: 3e94             .word 0x3e94
015b6b: 2604             .word 0x2604
015b6c: 3111             .word 0x3111
015b6d: 3561             .word 0x3561
015b6e: 1f1c             .word 0x1f1c
015b6f: 2d84             .word 0x2d84
015b70: 38d4             .word 0x38d4
015b71: 28a9             .word 0x28a9
015b72: 106e             .word 0x106e
015b73: 0643             .word 0x0643
015b74: e120             .word 0xe120
015b75: c654             .word 0xc654
015b76: d648             .word 0xd648
015b77: d70e             .word 0xd70e
015b78: e2f1             .word 0xe2f1
015b79: d772             .word 0xd772
015b7a: ded0             .word 0xded0
015b7b: fba8             .word 0xfba8
015b7c: 1dd1             .word 0x1dd1
015b7d: 25b5             .word 0x25b5
015b7e: 0ed6             .word 0x0ed6
015b7f: 2150             .word 0x2150
015b80: 1d8f             .word 0x1d8f
015b81: 1049             .word 0x1049
015b82: 0b17             .word 0x0b17
015b83: 0998             .word 0x0998
015b84: ff0d             .word 0xff0d
015b85: 0417             .word 0x0417
015b86: ff60             .word 0xff60
015b87: f630             .word 0xf630
015b88: fce9             .word 0xfce9
015b89: df18             .word 0xdf18
015b8a: f03e             .word 0xf03e
015b8b: e295             .word 0xe295
015b8c: da38             .word 0xda38
015b8d: fa92             .word 0xfa92
015b8e: d374             .word 0xd374
015b8f: d390             .word 0xd390
015b90: fb42             .word 0xfb42
015b91: e9a3             .word 0xe9a3
015b92: e228             .word 0xe228
015b93: 0023             .word 0x0023
015b94: 0482             .word 0x0482
015b95: fe45             .word 0xfe45
015b96: f68b             .word 0xf68b
015b97: f8ee             .word 0xf8ee
015b98: fd27             .word 0xfd27
015b99: ff86             .word 0xff86
015b9a: f2cb             .word 0xf2cb
015b9b: f0e5             .word 0xf0e5
015b9c: 0750             .word 0x0750
015b9d: 029a             .word 0x029a
015b9e: 0495             .word 0x0495
015b9f: fcf4             .word 0xfcf4
015ba0: f07d             .word 0xf07d
015ba1: d234             .word 0xd234
015ba2: e236             .word 0xe236
015ba3: 02e8             .word 0x02e8
015ba4: f0ff             .word 0xf0ff
015ba5: 023a             .word 0x023a
015ba6: 0134             .word 0x0134
015ba7: 1483             .word 0x1483
015ba8: 1926             .word 0x1926
015ba9: f5ce             .word 0xf5ce
015baa: ed53             .word 0xed53
015bab: ea61             .word 0xea61
015bac: e48f             .word 0xe48f
015bad: c7dc             .word 0xc7dc
015bae: dece             .word 0xdece
015baf: f693             .word 0xf693
015bb0: e539             .word 0xe539
015bb1: 029a             .word 0x029a
015bb2: 153f             .word 0x153f
015bb3: 1f1d             .word 0x1f1d
015bb4: 2bc5             .word 0x2bc5
015bb5: 27de             .word 0x27de
015bb6: 3394             .word 0x3394
015bb7: 134d             .word 0x134d
015bb8: 00f5             .word 0x00f5
015bb9: 11f5             .word 0x11f5
015bba: 0ddb             .word 0x0ddb
015bbb: 1e9d             .word 0x1e9d
015bbc: 1776             .word 0x1776
015bbd: 1716             .word 0x1716
015bbe: 38bc             .word 0x38bc
015bbf: 36a9             .word 0x36a9
015bc0: 28c8             .word 0x28c8
015bc1: 30d9             .word 0x30d9
015bc2: 22ee             .word 0x22ee
015bc3: 1508             .word 0x1508
015bc4: 2499             .word 0x2499
015bc5: 15d3             .word 0x15d3
015bc6: 065c             .word 0x065c
015bc7: 1aeb             .word 0x1aeb
015bc8: 2351             .word 0x2351
015bc9: 0885             .word 0x0885
015bca: f92c             .word 0xf92c
015bcb: feb2             .word 0xfeb2
015bcc: ed96             .word 0xed96
015bcd: e6f2             .word 0xe6f2
015bce: eb7f             .word 0xeb7f
015bcf: eb61             .word 0xeb61
015bd0: 05be             .word 0x05be
015bd1: 083e             .word 0x083e
015bd2: 08fe             .word 0x08fe
015bd3: 0f99             .word 0x0f99
015bd4: fac6             .word 0xfac6
015bd5: f831             .word 0xf831
015bd6: f73e             .word 0xf73e
015bd7: 0387             .word 0x0387
015bd8: f380             .word 0xf380
015bd9: df21             .word 0xdf21
015bda: ec5e             .word 0xec5e
015bdb: eb9e             .word 0xeb9e
015bdc: f894             .word 0xf894
015bdd: e6e1             .word 0xe6e1
015bde: c0f1             .word 0xc0f1
015bdf: c2e3             .word 0xc2e3
015be0: dd39             .word 0xdd39
015be1: d2cd             .word 0xd2cd
015be2: bfe0             .word 0xbfe0
015be3: b967             .word 0xb967
015be4: bf7d             .word 0xbf7d
015be5: f2af             .word 0xf2af
015be6: ed6e             .word 0xed6e
015be7: da8d             .word 0xda8d
015be8: dc34             .word 0xdc34
015be9: c8fc             .word 0xc8fc
015bea: d59e             .word 0xd59e
015beb: d79c             .word 0xd79c
015bec: e042             .word 0xe042
015bed: f617             .word 0xf617
015bee: f272             .word 0xf272
015bef: 0a0a             .word 0x0a0a
015bf0: 0284             .word 0x0284
015bf1: f19b             .word 0xf19b
015bf2: 120d             .word 0x120d
015bf3: 274f             .word 0x274f
015bf4: 3205             .word 0x3205
015bf5: 1ab3             .word 0x1ab3
015bf6: 29fd             .word 0x29fd
015bf7: 3a1c             .word 0x3a1c
015bf8: 273c             .word 0x273c
015bf9: 3c85             .word 0x3c85
015bfa: 421e             .word 0x421e
015bfb: 54e9             .word 0x54e9
015bfc: 4ac8             .word 0x4ac8
015bfd: 4162             .word 0x4162
015bfe: 43c5             .word 0x43c5
015bff: 3feb             .word 0x3feb
015c00: 6511             .word 0x6511
015c01: 4786             .word 0x4786
015c02: 1b85             .word 0x1b85
015c03: 0a41             .word 0x0a41
015c04: fe4d             .word 0xfe4d
015c05: f65c             .word 0xf65c
015c06: e6a3             .word 0xe6a3
015c07: f572             .word 0xf572
015c08: ee0f             .word 0xee0f
015c09: d839             .word 0xd839
015c0a: de8f             .word 0xde8f
015c0b: e6f3             .word 0xe6f3
015c0c: fbce             .word 0xfbce
015c0d: 0c8d             .word 0x0c8d
015c0e: 0116             .word 0x0116
015c0f: 0a98             .word 0x0a98
015c10: 0c6f             .word 0x0c6f
015c11: f0a9             .word 0xf0a9
015c12: ecee             .word 0xecee
015c13: f2e1             .word 0xf2e1
015c14: f53f             .word 0xf53f
015c15: f775             .word 0xf775
015c16: f8a7             .word 0xf8a7
015c17: fc03             .word 0xfc03
015c18: f15a             .word 0xf15a
015c19: e9fd             .word 0xe9fd
015c1a: e0a5             .word 0xe0a5
015c1b: c12d             .word 0xc12d
015c1c: caed             .word 0xcaed
015c1d: eea4             .word 0xeea4
015c1e: fe29             .word 0xfe29
015c1f: 0679             .word 0x0679
015c20: 0ad8             .word 0x0ad8
015c21: ff68             .word 0xff68
015c22: e48a             .word 0xe48a
015c23: d8ff             .word 0xd8ff
015c24: dd0d             .word 0xdd0d
015c25: efdd             .word 0xefdd
015c26: eb0f             .word 0xeb0f
015c27: f825             .word 0xf825
015c28: 03ad             .word 0x03ad
015c29: e086             .word 0xe086
015c2a: e85d             .word 0xe85d
015c2b: e6c9             .word 0xe6c9
015c2c: d38a             .word 0xd38a
015c2d: c333             .word 0xc333
015c2e: bdd2             .word 0xbdd2
015c2f: c6f5             .word 0xc6f5
015c30: c040             .word 0xc040
015c31: dafc             .word 0xdafc
015c32: ec96             .word 0xec96
015c33: e154             .word 0xe154
015c34: edee             .word 0xedee
015c35: 0eca             .word 0x0eca
015c36: 22e2             .word 0x22e2
015c37: 208a             .word 0x208a
015c38: 1861             .word 0x1861
015c39: 0fff             .word 0x0fff
015c3a: 0c43             .word 0x0c43
015c3b: 1f98             .word 0x1f98
015c3c: 36fb             .word 0x36fb
015c3d: 2e76             .word 0x2e76
015c3e: 35c4             .word 0x35c4
015c3f: 53ba             .word 0x53ba
015c40: 5443             .word 0x5443
015c41: 40d2             .word 0x40d2
015c42: 2ffa             .word 0x2ffa
015c43: 2bcd             .word 0x2bcd
015c44: 434e             .word 0x434e
015c45: 53a9             .word 0x53a9
015c46: 4799             .word 0x4799
015c47: 327f             .word 0x327f
015c48: 17e4             .word 0x17e4
015c49: 1a40             .word 0x1a40
015c4a: 213b             .word 0x213b
015c4b: 0954             .word 0x0954
015c4c: f330             .word 0xf330
015c4d: f233             .word 0xf233
015c4e: ead4             .word 0xead4
015c4f: cb77             .word 0xcb77
015c50: c691             .word 0xc691
015c51: e7cf             .word 0xe7cf
015c52: 03b3             .word 0x03b3
015c53: 00da             .word 0x00da
015c54: feb0             .word 0xfeb0
015c55: f3cd             .word 0xf3cd
015c56: e6a0             .word 0xe6a0
015c57: e9fb             .word 0xe9fb
015c58: e845             .word 0xe845
015c59: fffb             .word 0xfffb
015c5a: f878             .word 0xf878
015c5b: fd89             .word 0xfd89
015c5c: 15f2             .word 0x15f2
015c5d: ff1e             .word 0xff1e
015c5e: ee24             .word 0xee24
015c5f: dee7             .word 0xdee7
015c60: e2db             .word 0xe2db
015c61: e3dc             .word 0xe3dc
015c62: f71e             .word 0xf71e
015c63: 0612             .word 0x0612
015c64: 061a             .word 0x061a
015c65: 15c8             .word 0x15c8
015c66: 0f1e             .word 0x0f1e
015c67: faa7             .word 0xfaa7
015c68: dde7             .word 0xdde7
015c69: fc41             .word 0xfc41
015c6a: 1350             .word 0x1350
015c6b: 22a6             .word 0x22a6
015c6c: 242b             .word 0x242b
015c6d: 01e0             .word 0x01e0
015c6e: fef0             .word 0xfef0
015c6f: dce4             .word 0xdce4
015c70: c202             .word 0xc202
015c71: b4b5             .word 0xb4b5
015c72: b64a             .word 0xb64a
015c73: b3ec             .word 0xb3ec
015c74: bc4b             .word 0xbc4b
015c75: cab6             .word 0xcab6
015c76: ce1c             .word 0xce1c
015c77: ed1c             .word 0xed1c
015c78: e5f5             .word 0xe5f5
015c79: db93             .word 0xdb93
015c7a: cf3a             .word 0xcf3a
015c7b: da3e             .word 0xda3e
015c7c: f06d             .word 0xf06d
015c7d: 05f3             .word 0x05f3
015c7e: 25e8             .word 0x25e8
015c7f: 2c05             .word 0x2c05
015c80: 3c86             .word 0x3c86
015c81: 3efb             .word 0x3efb
015c82: 36f0             .word 0x36f0
015c83: 2a25             .word 0x2a25
015c84: 378f             .word 0x378f
015c85: 3247             .word 0x3247
015c86: 0b1a             .word 0x0b1a
015c87: 0f5c             .word 0x0f5c
015c88: 1257             .word 0x1257
015c89: ffae             .word 0xffae
015c8a: fa70             .word 0xfa70
015c8b: 02fb             .word 0x02fb
015c8c: 1d9a             .word 0x1d9a
015c8d: 3c9c             .word 0x3c9c
015c8e: 3e35             .word 0x3e35
015c8f: 378a             .word 0x378a
015c90: 1894             .word 0x1894
015c91: f689             .word 0xf689
015c92: ddce             .word 0xddce
015c93: d709             .word 0xd709
015c94: daef             .word 0xdaef
015c95: e29f             .word 0xe29f
015c96: f118             .word 0xf118
015c97: f891             .word 0xf891
015c98: 13c3             .word 0x13c3
015c99: f5d2             .word 0xf5d2
015c9a: e366             .word 0xe366
015c9b: f693             .word 0xf693
015c9c: 0d10             .word 0x0d10
015c9d: 1ed4             .word 0x1ed4
015c9e: 1223             .word 0x1223
015c9f: 1460             .word 0x1460
015ca0: 165e             .word 0x165e
015ca1: 27ce             .word 0x27ce
015ca2: 2b18             .word 0x2b18
015ca3: 22b9             .word 0x22b9
015ca4: 0e64             .word 0x0e64
015ca5: 118c             .word 0x118c
015ca6: 0ee4             .word 0x0ee4
015ca7: fac8             .word 0xfac8
015ca8: ed4b             .word 0xed4b
015ca9: d122             .word 0xd122
015caa: d795             .word 0xd795
015cab: d61d             .word 0xd61d
015cac: 0a01             .word 0x0a01
015cad: 2df2             .word 0x2df2
015cae: 1d24             .word 0x1d24
015caf: 0b77             .word 0x0b77
015cb0: f227             .word 0xf227
015cb1: f268             .word 0xf268
015cb2: 06a0             .word 0x06a0
015cb3: 140b             .word 0x140b
015cb4: e8ed             .word 0xe8ed
015cb5: e692             .word 0xe692
015cb6: e46c             .word 0xe46c
015cb7: ed7f             .word 0xed7f
015cb8: 0fa2             .word 0x0fa2
015cb9: 0039             .word 0x0039
015cba: ff9d             .word 0xff9d
015cbb: 0b17             .word 0x0b17
015cbc: 15c8             .word 0x15c8
015cbd: 0d62             .word 0x0d62
015cbe: fb4a             .word 0xfb4a
015cbf: f9e6             .word 0xf9e6
015cc0: febe             .word 0xfebe
015cc1: db30             .word 0xdb30
015cc2: e4c4             .word 0xe4c4
015cc3: fa12             .word 0xfa12
015cc4: d0ea             .word 0xd0ea
015cc5: c328             .word 0xc328
015cc6: b052             .word 0xb052
015cc7: db76             .word 0xdb76
015cc8: 1415             .word 0x1415
015cc9: 074b             .word 0x074b
015cca: 132b             .word 0x132b
015ccb: 12c8             .word 0x12c8
015ccc: f7aa             .word 0xf7aa
015ccd: e89e             .word 0xe89e
015cce: f691             .word 0xf691
015ccf: f6c6             .word 0xf6c6
015cd0: e5cc             .word 0xe5cc
015cd1: 116e             .word 0x116e
015cd2: 0554             .word 0x0554
015cd3: eb43             .word 0xeb43
015cd4: eff3             .word 0xeff3
015cd5: d435             .word 0xd435
015cd6: f6e3             .word 0xf6e3
015cd7: fa5b             .word 0xfa5b
015cd8: ec30             .word 0xec30
015cd9: f218             .word 0xf218
015cda: e755             .word 0xe755
015cdb: e9d4             .word 0xe9d4
015cdc: f559             .word 0xf559
015cdd: 0161             .word 0x0161
015cde: 067c             .word 0x067c
015cdf: 1434             .word 0x1434
015ce0: 095e             .word 0x095e
015ce1: 0e97             .word 0x0e97
015ce2: 190d             .word 0x190d
015ce3: 2aeb             .word 0x2aeb
015ce4: 32bb             .word 0x32bb
015ce5: 23f4             .word 0x23f4
015ce6: 1bf2             .word 0x1bf2
015ce7: 106d             .word 0x106d
015ce8: 1afe             .word 0x1afe
015ce9: 27e0             .word 0x27e0
015cea: 488c             .word 0x488c
015ceb: 43d3             .word 0x43d3
015cec: 174d             .word 0x174d
015ced: f6c2             .word 0xf6c2
015cee: fef7             .word 0xfef7
015cef: f1b1             .word 0xf1b1
015cf0: deac             .word 0xdeac
015cf1: 029b             .word 0x029b
015cf2: 0dbc             .word 0x0dbc
015cf3: 18d9             .word 0x18d9
015cf4: 1f98             .word 0x1f98
015cf5: 211f             .word 0x211f
015cf6: fa50             .word 0xfa50
015cf7: 06eb             .word 0x06eb
015cf8: 0d28             .word 0x0d28
015cf9: e8c4             .word 0xe8c4
015cfa: 057a             .word 0x057a
015cfb: fd47             .word 0xfd47
015cfc: 1231             .word 0x1231
015cfd: 0c3b             .word 0x0c3b
015cfe: f1f1             .word 0xf1f1
015cff: ec79             .word 0xec79
015d00: e434             .word 0xe434
015d01: f31a             .word 0xf31a
015d02: ec1d             .word 0xec1d
015d03: e14d             .word 0xe14d
015d04: d0f9             .word 0xd0f9
015d05: dd05             .word 0xdd05
015d06: f53b             .word 0xf53b
015d07: 01f3             .word 0x01f3
015d08: ff4f             .word 0xff4f
015d09: 0658             .word 0x0658
015d0a: 0e09             .word 0x0e09
015d0b: 19c1             .word 0x19c1
015d0c: 21ee             .word 0x21ee
015d0d: 1979             .word 0x1979
015d0e: 2111             .word 0x2111
015d0f: ff7f             .word 0xff7f
015d10: e315             .word 0xe315
015d11: ed00             .word 0xed00
015d12: f718             .word 0xf718
015d13: e68c             .word 0xe68c
015d14: f83f             .word 0xf83f
015d15: 0287             .word 0x0287
015d16: ec1f             .word 0xec1f
015d17: f7ee             .word 0xf7ee
015d18: ec17             .word 0xec17
015d19: f39c             .word 0xf39c
015d1a: facc             .word 0xfacc
015d1b: eb75             .word 0xeb75
015d1c: e436             .word 0xe436
015d1d: ee17             .word 0xee17
015d1e: eb17             .word 0xeb17
015d1f: ef9e             .word 0xef9e
015d20: 0dd3             .word 0x0dd3
015d21: 0b9f             .word 0x0b9f
015d22: 11d9             .word 0x11d9
015d23: 0f5d             .word 0x0f5d
015d24: 1178             .word 0x1178
015d25: 2161             .word 0x2161
015d26: 1da3             .word 0x1da3
015d27: 1423             .word 0x1423
015d28: 1998             .word 0x1998
015d29: fc8c             .word 0xfc8c
015d2a: e376             .word 0xe376
015d2b: f8ad             .word 0xf8ad
015d2c: ef99             .word 0xef99
015d2d: f162             .word 0xf162
015d2e: ec7f             .word 0xec7f
015d2f: ff8a             .word 0xff8a
015d30: 07ab             .word 0x07ab
015d31: 096f             .word 0x096f
015d32: 296d             .word 0x296d
015d33: 1744             .word 0x1744
015d34: 17bb             .word 0x17bb
015d35: f0de             .word 0xf0de
015d36: d923             .word 0xd923
015d37: e394             .word 0xe394
015d38: c9f2             .word 0xc9f2
015d39: d7c2             .word 0xd7c2
015d3a: d4a8             .word 0xd4a8
015d3b: d901             .word 0xd901
015d3c: f165             .word 0xf165
015d3d: f688             .word 0xf688
015d3e: e484             .word 0xe484
015d3f: d9af             .word 0xd9af
015d40: eeb6             .word 0xeeb6
015d41: f207             .word 0xf207
015d42: 0c9b             .word 0x0c9b
015d43: 1f43             .word 0x1f43
015d44: 1e87             .word 0x1e87
015d45: 1826             .word 0x1826
015d46: f4de             .word 0xf4de
015d47: 0e28             .word 0x0e28
015d48: 1abe             .word 0x1abe
015d49: f9c3             .word 0xf9c3
015d4a: 103b             .word 0x103b
015d4b: 2890             .word 0x2890
015d4c: 1c3d             .word 0x1c3d
015d4d: 055b             .word 0x055b
015d4e: 082d             .word 0x082d
015d4f: 1c47             .word 0x1c47
015d50: 31da             .word 0x31da
015d51: 49a5             .word 0x49a5
015d52: 3a75             .word 0x3a75
015d53: 278c             .word 0x278c
015d54: 2e8e             .word 0x2e8e
015d55: 493c             .word 0x493c
015d56: 3a99             .word 0x3a99
015d57: 08a0             .word 0x08a0
015d58: 126e             .word 0x126e
015d59: fd84             .word 0xfd84
015d5a: e7b1             .word 0xe7b1
015d5b: 015d             .word 0x015d
015d5c: fb3a             .word 0xfb3a
015d5d: fb7b             .word 0xfb7b
015d5e: fb6d             .word 0xfb6d
015d5f: ecc9             .word 0xecc9
015d60: d69b             .word 0xd69b
015d61: d6cf             .word 0xd6cf
015d62: eb72             .word 0xeb72
015d63: dd5c             .word 0xdd5c
015d64: cefb             .word 0xcefb
015d65: dc55             .word 0xdc55
015d66: e5d2             .word 0xe5d2
015d67: db81             .word 0xdb81
015d68: db85             .word 0xdb85
015d69: dc5d             .word 0xdc5d
015d6a: cac1             .word 0xcac1
015d6b: cee2             .word 0xcee2
015d6c: d375             .word 0xd375
015d6d: caed             .word 0xcaed
015d6e: e0a5             .word 0xe0a5
015d6f: e23e             .word 0xe23e
015d70: e6ed             .word 0xe6ed
015d71: f4e9             .word 0xf4e9
015d72: ed32             .word 0xed32
015d73: 0f4e             .word 0x0f4e
015d74: 0ec2             .word 0x0ec2
015d75: fd2b             .word 0xfd2b
015d76: 0111             .word 0x0111
015d77: f39c             .word 0xf39c
015d78: e5b0             .word 0xe5b0
015d79: dbad             .word 0xdbad
015d7a: e800             .word 0xe800
015d7b: ef45             .word 0xef45
015d7c: 0073             .word 0x0073
015d7d: 00fe             .word 0x00fe
015d7e: 0ead             .word 0x0ead
015d7f: 3af3             .word 0x3af3
015d80: 49b5             .word 0x49b5
015d81: 4a6c             .word 0x4a6c
015d82: 436a             .word 0x436a
015d83: 5959             .word 0x5959
015d84: 4f6b             .word 0x4f6b
015d85: 31be             .word 0x31be
015d86: 2ba1             .word 0x2ba1
015d87: 2bde             .word 0x2bde
015d88: 354b             .word 0x354b
015d89: 2986             .word 0x2986
015d8a: 23de             .word 0x23de
015d8b: 11f1             .word 0x11f1
015d8c: 190d             .word 0x190d
015d8d: 266f             .word 0x266f
015d8e: 16c1             .word 0x16c1
015d8f: 186c             .word 0x186c
015d90: f11c             .word 0xf11c
015d91: e44a             .word 0xe44a
015d92: 01fb             .word 0x01fb
015d93: f693             .word 0xf693
015d94: 10bf             .word 0x10bf
015d95: 27f6             .word 0x27f6
015d96: 1a0d             .word 0x1a0d
015d97: 10ce             .word 0x10ce
015d98: e6ce             .word 0xe6ce
015d99: f4c3             .word 0xf4c3
015d9a: 09d0             .word 0x09d0
015d9b: e609             .word 0xe609
015d9c: d4d8             .word 0xd4d8
015d9d: b798             .word 0xb798
015d9e: 9f1c             .word 0x9f1c
015d9f: a4a1             .word 0xa4a1
015da0: ac00             .word 0xac00
015da1: a7eb             .word 0xa7eb
015da2: b797             .word 0xb797
015da3: bd40             .word 0xbd40
015da4: cb69             .word 0xcb69
015da5: ea9d             .word 0xea9d
015da6: deac             .word 0xdeac
015da7: ec7a             .word 0xec7a
015da8: f7f6             .word 0xf7f6
015da9: eded             .word 0xeded
015daa: e6f2             .word 0xe6f2
015dab: f7fc             .word 0xf7fc
015dac: 0d73             .word 0x0d73
015dad: fe63             .word 0xfe63
015dae: 055e             .word 0x055e
015daf: 1350             .word 0x1350
015db0: 29b8             .word 0x29b8
015db1: 16c8             .word 0x16c8
015db2: f233             .word 0xf233
015db3: 0c0c             .word 0x0c0c
015db4: 2428             .word 0x2428
015db5: 226f             .word 0x226f
015db6: 1be8             .word 0x1be8
015db7: 226a             .word 0x226a
015db8: 1b6c             .word 0x1b6c
015db9: 0bf1             .word 0x0bf1
015dba: 14fd             .word 0x14fd
015dbb: 31bb             .word 0x31bb
015dbc: 2296             .word 0x2296
015dbd: 1558             .word 0x1558
015dbe: 2fc9             .word 0x2fc9
015dbf: 2a0a             .word 0x2a0a
015dc0: 3527             .word 0x3527
015dc1: 314d             .word 0x314d
015dc2: 2886             .word 0x2886
015dc3: 2fa4             .word 0x2fa4
015dc4: 1168             .word 0x1168
015dc5: ff18             .word 0xff18
015dc6: ffbb             .word 0xffbb
015dc7: 0b02             .word 0x0b02
015dc8: 1b05             .word 0x1b05
015dc9: 2206             .word 0x2206
015dca: 0e12             .word 0x0e12
015dcb: d43e             .word 0xd43e
015dcc: ca2f             .word 0xca2f
015dcd: df12             .word 0xdf12
015dce: bb9d             .word 0xbb9d
015dcf: c418             .word 0xc418
015dd0: d677             .word 0xd677
015dd1: c655             .word 0xc655
015dd2: d97b             .word 0xd97b
015dd3: c86a             .word 0xc86a
015dd4: bc19             .word 0xbc19
015dd5: e1dc             .word 0xe1dc
015dd6: fdf0             .word 0xfdf0
015dd7: 0010             .word 0x0010
015dd8: f141             .word 0xf141
015dd9: e0e1             .word 0xe0e1
015dda: c716             .word 0xc716
015ddb: cb2e             .word 0xcb2e
015ddc: fb0d             .word 0xfb0d
015ddd: ea08             .word 0xea08
015dde: f507             .word 0xf507
015ddf: 37ae             .word 0x37ae
015de0: 1c4e             .word 0x1c4e
015de1: 0aae             .word 0x0aae
015de2: 0862             .word 0x0862
015de3: 07a4             .word 0x07a4
015de4: 1221             .word 0x1221
015de5: 0fb4             .word 0x0fb4
015de6: 1dda             .word 0x1dda
015de7: 2162             .word 0x2162
015de8: 26e4             .word 0x26e4
015de9: 1c72             .word 0x1c72
015dea: 113c             .word 0x113c
015deb: 1ea6             .word 0x1ea6
015dec: 35eb             .word 0x35eb
015ded: 1686             .word 0x1686
015dee: 0338             .word 0x0338
015def: 00ec             .word 0x00ec
015df0: fafa             .word 0xfafa
015df1: 1ff3             .word 0x1ff3
015df2: 05a3             .word 0x05a3
015df3: 0843             .word 0x0843
015df4: 0bb7             .word 0x0bb7
015df5: f64a             .word 0xf64a
015df6: 0150             .word 0x0150
015df7: 0eb5             .word 0x0eb5
015df8: 1ab8             .word 0x1ab8
015df9: fdbe             .word 0xfdbe
015dfa: 0e7d             .word 0x0e7d
015dfb: 19fd             .word 0x19fd
015dfc: fe4a             .word 0xfe4a
015dfd: fc03             .word 0xfc03
015dfe: 03d1             .word 0x03d1
015dff: ff42             .word 0xff42
015e00: ee7f             .word 0xee7f
015e01: e711             .word 0xe711
015e02: f47a             .word 0xf47a
015e03: 1503             .word 0x1503
015e04: 1444             .word 0x1444
015e05: f328             .word 0xf328
015e06: e88c             .word 0xe88c
015e07: e901             .word 0xe901
015e08: ce21             .word 0xce21
015e09: d556             .word 0xd556
015e0a: dbcb             .word 0xdbcb
015e0b: dd20             .word 0xdd20
015e0c: ed8e             .word 0xed8e
015e0d: e58a             .word 0xe58a
015e0e: e481             .word 0xe481
015e0f: d936             .word 0xd936
015e10: eb19             .word 0xeb19
015e11: 0279             .word 0x0279
015e12: 092b             .word 0x092b
015e13: f8a1             .word 0xf8a1
015e14: 09b9             .word 0x09b9
015e15: 2e4a             .word 0x2e4a
015e16: 0f22             .word 0x0f22
015e17: 2b0a             .word 0x2b0a
015e18: 54f1             .word 0x54f1
015e19: 3697             .word 0x3697
015e1a: 1916             .word 0x1916
015e1b: 2731             .word 0x2731
015e1c: 17f5             .word 0x17f5
015e1d: 08cc             .word 0x08cc
015e1e: 05ac             .word 0x05ac
015e1f: fe24             .word 0xfe24
015e20: 1932             .word 0x1932
015e21: 1765             .word 0x1765
015e22: 14b5             .word 0x14b5
015e23: eb72             .word 0xeb72
015e24: d738             .word 0xd738
015e25: dc3c             .word 0xdc3c
015e26: e163             .word 0xe163
015e27: 063e             .word 0x063e
015e28: fc74             .word 0xfc74
015e29: fffa             .word 0xfffa
015e2a: decd             .word 0xdecd
015e2b: c718             .word 0xc718
015e2c: e0f7             .word 0xe0f7
015e2d: dbdd             .word 0xdbdd
015e2e: dc1a             .word 0xdc1a
015e2f: eefe             .word 0xeefe
015e30: 1cd1             .word 0x1cd1
015e31: 343a             .word 0x343a
015e32: 1929             .word 0x1929
015e33: 0bcb             .word 0x0bcb
015e34: 17ff             .word 0x17ff
015e35: 06e8             .word 0x06e8
015e36: f64c             .word 0xf64c
015e37: f364             .word 0xf364
015e38: f3ac             .word 0xf3ac
015e39: 05a5             .word 0x05a5
015e3a: 1ada             .word 0x1ada
015e3b: 1aab             .word 0x1aab
015e3c: f9fa             .word 0xf9fa
015e3d: f14b             .word 0xf14b
015e3e: f389             .word 0xf389
015e3f: edd7             .word 0xedd7
015e40: ea34             .word 0xea34
015e41: e0b7             .word 0xe0b7
015e42: e4ad             .word 0xe4ad
015e43: dfbb             .word 0xdfbb
015e44: cc5b             .word 0xcc5b
015e45: bab9             .word 0xbab9
015e46: ab31             .word 0xab31
015e47: bc0c             .word 0xbc0c
015e48: e942             .word 0xe942
015e49: 00ce             .word 0x00ce
015e4a: 0f59             .word 0x0f59
015e4b: 27dd             .word 0x27dd
015e4c: 1e96             .word 0x1e96
015e4d: 0564             .word 0x0564
015e4e: 08e0             .word 0x08e0
015e4f: 04e7             .word 0x04e7
015e50: fe10             .word 0xfe10
015e51: 0acf             .word 0x0acf
015e52: 0da2             .word 0x0da2
015e53: 0119             .word 0x0119
015e54: 0bd6             .word 0x0bd6
015e55: 2967             .word 0x2967
015e56: 37dd             .word 0x37dd
015e57: 4441             .word 0x4441
015e58: 362c             .word 0x362c
015e59: 30c4             .word 0x30c4
015e5a: 490a             .word 0x490a
015e5b: 40bc             .word 0x40bc
015e5c: 2b68             .word 0x2b68
015e5d: 0e97             .word 0x0e97
015e5e: fd7e             .word 0xfd7e
015e5f: 0102             .word 0x0102
015e60: f681             .word 0xf681
015e61: f844             .word 0xf844
015e62: fa23             .word 0xfa23
015e63: f622             .word 0xf622
015e64: fd19             .word 0xfd19
015e65: 039d             .word 0x039d
015e66: 0592             .word 0x0592
015e67: f75a             .word 0xf75a
015e68: f15e             .word 0xf15e
015e69: f9d8             .word 0xf9d8
015e6a: 03fb             .word 0x03fb
015e6b: f4f6             .word 0xf4f6
015e6c: ebf0             .word 0xebf0
015e6d: 0cf9             .word 0x0cf9
015e6e: 0f36             .word 0x0f36
015e6f: 0c90             .word 0x0c90
015e70: 0053             .word 0x0053
015e71: f1fc             .word 0xf1fc
015e72: 00f7             .word 0x00f7
015e73: df4f             .word 0xdf4f
015e74: c43e             .word 0xc43e
015e75: e3c6             .word 0xe3c6
015e76: e210             .word 0xe210
015e77: c807             .word 0xc807
015e78: e624             .word 0xe624
015e79: fd97             .word 0xfd97
015e7a: f64f             .word 0xf64f
015e7b: efe3             .word 0xefe3
015e7c: eda9             .word 0xeda9
015e7d: ef28             .word 0xef28
015e7e: ef6d             .word 0xef6d
015e7f: 13b7             .word 0x13b7
015e80: 18cf             .word 0x18cf
015e81: 1157             .word 0x1157
015e82: 2ec5             .word 0x2ec5
015e83: 26e8             .word 0x26e8
015e84: 1158             .word 0x1158
015e85: 0fac             .word 0x0fac
015e86: 0c3b             .word 0x0c3b
015e87: 0c85             .word 0x0c85
015e88: 098d             .word 0x098d
015e89: fb3a             .word 0xfb3a
015e8a: f4aa             .word 0xf4aa
015e8b: e7fe             .word 0xe7fe
015e8c: f02d             .word 0xf02d
015e8d: ee83             .word 0xee83
015e8e: e787             .word 0xe787
015e8f: 0574             .word 0x0574
015e90: f6b4             .word 0xf6b4
015e91: f02d             .word 0xf02d
015e92: ff4b             .word 0xff4b
015e93: 0904             .word 0x0904
015e94: 1cab             .word 0x1cab
015e95: 0be6             .word 0x0be6
015e96: 09b4             .word 0x09b4
015e97: 189a             .word 0x189a
015e98: 0a54             .word 0x0a54
015e99: 0b12             .word 0x0b12
015e9a: 09eb             .word 0x09eb
015e9b: fb23             .word 0xfb23
015e9c: 08b7             .word 0x08b7
015e9d: 0322             .word 0x0322
015e9e: eb48             .word 0xeb48
015e9f: dbfe             .word 0xdbfe
015ea0: d604             .word 0xd604
015ea1: e1f5             .word 0xe1f5
015ea2: f435             .word 0xf435
015ea3: 0a77             .word 0x0a77
015ea4: 0150             .word 0x0150
015ea5: fedf             .word 0xfedf
015ea6: 0e36             .word 0x0e36
015ea7: 077c             .word 0x077c
015ea8: 11aa             .word 0x11aa
015ea9: 1578             .word 0x1578
015eaa: 04e7             .word 0x04e7
015eab: 1641             .word 0x1641
015eac: 16f7             .word 0x16f7
015ead: 02a9             .word 0x02a9
015eae: fae4             .word 0xfae4
015eaf: ecb0             .word 0xecb0
015eb0: 026c             .word 0x026c
015eb1: fa19             .word 0xfa19
015eb2: e4b2             .word 0xe4b2
015eb3: f43e             .word 0xf43e
015eb4: e9a2             .word 0xe9a2
015eb5: ed17             .word 0xed17
015eb6: f762             .word 0xf762
015eb7: 00b8             .word 0x00b8
015eb8: 0cf3             .word 0x0cf3
015eb9: 0b54             .word 0x0b54
015eba: 0e31             .word 0x0e31
015ebb: 0f75             .word 0x0f75
015ebc: 17a8             .word 0x17a8
015ebd: 3021             .word 0x3021
015ebe: 22e0             .word 0x22e0
015ebf: 0ec3             .word 0x0ec3
015ec0: 1e25             .word 0x1e25
015ec1: 0293             .word 0x0293
015ec2: ebf6             .word 0xebf6
015ec3: f011             .word 0xf011
015ec4: ed01             .word 0xed01
015ec5: f2b7             .word 0xf2b7
015ec6: f9ce             .word 0xf9ce
015ec7: f9b0             .word 0xf9b0
015ec8: d446             .word 0xd446
015ec9: ce4e             .word 0xce4e
015eca: eaf2             .word 0xeaf2
015ecb: d48b             .word 0xd48b
015ecc: c702             .word 0xc702
015ecd: f3ec             .word 0xf3ec
015ece: fc6d             .word 0xfc6d
015ecf: f2e1             .word 0xf2e1
015ed0: 0986             .word 0x0986
015ed1: 0baa             .word 0x0baa
015ed2: 12db             .word 0x12db
015ed3: fefd             .word 0xfefd
015ed4: e938             .word 0xe938
015ed5: ff27             .word 0xff27
015ed6: 00df             .word 0x00df
015ed7: f572             .word 0xf572
015ed8: f153             .word 0xf153
015ed9: fe61             .word 0xfe61
015eda: 0672             .word 0x0672
015edb: 0100             .word 0x0100
015edc: f9b2             .word 0xf9b2
015edd: f680             .word 0xf680
015ede: fb6e             .word 0xfb6e
015edf: f536             .word 0xf536
015ee0: fb8c             .word 0xfb8c
015ee1: 0056             .word 0x0056
015ee2: 005d             .word 0x005d
015ee3: 1be5             .word 0x1be5
015ee4: 3438             .word 0x3438
015ee5: 486b             .word 0x486b
015ee6: 402e             .word 0x402e
015ee7: 2d1e             .word 0x2d1e
015ee8: 3fa7             .word 0x3fa7
015ee9: 4041             .word 0x4041
015eea: 32cc             .word 0x32cc
015eeb: 1e35             .word 0x1e35
015eec: 02ae             .word 0x02ae
015eed: 060b             .word 0x060b
015eee: 0f5f             .word 0x0f5f
015eef: 048f             .word 0x048f
015ef0: fe63             .word 0xfe63
015ef1: 0949             .word 0x0949
015ef2: 0563             .word 0x0563
015ef3: 0d25             .word 0x0d25
015ef4: 2810             .word 0x2810
015ef5: 1ee7             .word 0x1ee7
015ef6: 075f             .word 0x075f
015ef7: fabe             .word 0xfabe
015ef8: d68d             .word 0xd68d
015ef9: af5a             .word 0xaf5a
015efa: affa             .word 0xaffa
015efb: c236             .word 0xc236
015efc: d47c             .word 0xd47c
015efd: e4b6             .word 0xe4b6
015efe: e1d1             .word 0xe1d1
015eff: e3ef             .word 0xe3ef
015f00: ecb3             .word 0xecb3
015f01: ef90             .word 0xef90
015f02: f472             .word 0xf472
015f03: f05e             .word 0xf05e
015f04: 0828             .word 0x0828
015f05: 1fda             .word 0x1fda
015f06: 129a             .word 0x129a
015f07: fcc3             .word 0xfcc3
015f08: f18d             .word 0xf18d
015f09: f4f3             .word 0xf4f3
015f0a: fa1d             .word 0xfa1d
015f0b: 11a7             .word 0x11a7
015f0c: 1419             .word 0x1419
015f0d: 0bf4             .word 0x0bf4
015f0e: 2740             .word 0x2740
015f0f: 31b3             .word 0x31b3
015f10: 07d0             .word 0x07d0
015f11: e423             .word 0xe423
015f12: d996             .word 0xd996
015f13: e08f             .word 0xe08f
015f14: d79c             .word 0xd79c
015f15: c71d             .word 0xc71d
015f16: f3ee             .word 0xf3ee
015f17: fcf2             .word 0xfcf2
015f18: 0353             .word 0x0353
015f19: fa2c             .word 0xfa2c
015f1a: d8ec             .word 0xd8ec
015f1b: ddb0             .word 0xddb0
015f1c: d709             .word 0xd709
015f1d: 01a6             .word 0x01a6
015f1e: 16bb             .word 0x16bb
015f1f: 1ad2             .word 0x1ad2
015f20: 0e73             .word 0x0e73
015f21: fc5b             .word 0xfc5b
015f22: 0a49             .word 0x0a49
015f23: 0a1f             .word 0x0a1f
015f24: 23d3             .word 0x23d3
015f25: 2019             .word 0x2019
015f26: 1f45             .word 0x1f45
015f27: 492c             .word 0x492c
015f28: 4bcb             .word 0x4bcb
015f29: 148c             .word 0x148c
015f2a: 1d74             .word 0x1d74
015f2b: 275c             .word 0x275c
015f2c: f91b             .word 0xf91b
015f2d: 0194             .word 0x0194
015f2e: 082f             .word 0x082f
015f2f: fb63             .word 0xfb63
015f30: df12             .word 0xdf12
015f31: dd96             .word 0xdd96
015f32: e52f             .word 0xe52f
015f33: e959             .word 0xe959
015f34: e971             .word 0xe971
015f35: d87a             .word 0xd87a
015f36: dd7b             .word 0xdd7b
015f37: cd26             .word 0xcd26
015f38: d933             .word 0xd933
015f39: ec49             .word 0xec49
015f3a: e837             .word 0xe837
015f3b: 0148             .word 0x0148
015f3c: 1ad4             .word 0x1ad4
015f3d: 0838             .word 0x0838
015f3e: eb25             .word 0xeb25
015f3f: e88c             .word 0xe88c
015f40: f534             .word 0xf534
015f41: 03ab             .word 0x03ab
015f42: 00f0             .word 0x00f0
015f43: f9f1             .word 0xf9f1
015f44: 08c5             .word 0x08c5
015f45: 1d48             .word 0x1d48
015f46: 002c             .word 0x002c
015f47: 0a28             .word 0x0a28
015f48: 1aa3             .word 0x1aa3
015f49: 074e             .word 0x074e
015f4a: fbff             .word 0xfbff
015f4b: faf8             .word 0xfaf8
015f4c: 1229             .word 0x1229
015f4d: fec1             .word 0xfec1
015f4e: 162f             .word 0x162f
015f4f: 1380             .word 0x1380
015f50: f641             .word 0xf641
015f51: 067c             .word 0x067c
015f52: 03ca             .word 0x03ca
015f53: 29a9             .word 0x29a9
015f54: 2fc5             .word 0x2fc5
015f55: 156d             .word 0x156d
015f56: 13a7             .word 0x13a7
015f57: 2346             .word 0x2346
015f58: 24c2             .word 0x24c2
015f59: 20cc             .word 0x20cc
015f5a: 17ce             .word 0x17ce
015f5b: 0f1d             .word 0x0f1d
015f5c: 1055             .word 0x1055
015f5d: 041a             .word 0x041a
015f5e: 0c2a             .word 0x0c2a
015f5f: 0b07             .word 0x0b07
015f60: 2ffd             .word 0x2ffd
015f61: 22e3             .word 0x22e3
015f62: e1e9             .word 0xe1e9
015f63: f965             .word 0xf965
015f64: e94a             .word 0xe94a
015f65: c102             .word 0xc102
015f66: d28f             .word 0xd28f
015f67: e831             .word 0xe831
015f68: f821             .word 0xf821
015f69: 0222             .word 0x0222
015f6a: f57b             .word 0xf57b
015f6b: d011             .word 0xd011
015f6c: b99e             .word 0xb99e
015f6d: d5e0             .word 0xd5e0
015f6e: d084             .word 0xd084
015f6f: ca34             .word 0xca34
015f70: d636             .word 0xd636
015f71: b753             .word 0xb753
015f72: ccab             .word 0xccab
015f73: dc31             .word 0xdc31
015f74: c3eb             .word 0xc3eb
015f75: ed00             .word 0xed00
015f76: 1c13             .word 0x1c13
015f77: 20a0             .word 0x20a0
015f78: 14fd             .word 0x14fd
015f79: 04c9             .word 0x04c9
015f7a: fe73             .word 0xfe73
015f7b: 0305             .word 0x0305
015f7c: 2054             .word 0x2054
015f7d: 3042             .word 0x3042
015f7e: 2751             .word 0x2751
015f7f: 3866             .word 0x3866
015f80: 2d2f             .word 0x2d2f
015f81: 2ec8             .word 0x2ec8
015f82: 2623             .word 0x2623
015f83: 11e4             .word 0x11e4
015f84:               _sgn_dtk_n_samples_16k:
015f84:               .const:_sgn_dtk_n_samples_16k:
015f84: f9b5             .word 0xf9b5
015f85: f4ce             .word 0xf4ce
015f86: e7f1             .word 0xe7f1
015f87: dd4a             .word 0xdd4a
015f88: f1c3             .word 0xf1c3
015f89: f2f9             .word 0xf2f9
015f8a: db8a             .word 0xdb8a
015f8b: e796             .word 0xe796
015f8c: 0dec             .word 0x0dec
015f8d: fc04             .word 0xfc04
015f8e: ef32             .word 0xef32
015f8f: de77             .word 0xde77
015f90: d720             .word 0xd720
015f91: dd93             .word 0xdd93
015f92: df97             .word 0xdf97
015f93: e095             .word 0xe095
015f94: c5cc             .word 0xc5cc
015f95: d112             .word 0xd112
015f96: dcbc             .word 0xdcbc
015f97: d691             .word 0xd691
015f98: f6c9             .word 0xf6c9
015f99: 2e07             .word 0x2e07
015f9a: 3ad4             .word 0x3ad4
015f9b: 2431             .word 0x2431
015f9c: 0fac             .word 0x0fac
015f9d: fd09             .word 0xfd09
015f9e: 10bc             .word 0x10bc
015f9f: 0277             .word 0x0277
015fa0: f63d             .word 0xf63d
015fa1: 02ef             .word 0x02ef
015fa2: 151d             .word 0x151d
015fa3: 25d2             .word 0x25d2
015fa4: 1164             .word 0x1164
015fa5: 0cb4             .word 0x0cb4
015fa6: 1050             .word 0x1050
015fa7: 1ad0             .word 0x1ad0
015fa8: 0c84             .word 0x0c84
015fa9: 06c3             .word 0x06c3
015faa: 25e5             .word 0x25e5
015fab: 3f26             .word 0x3f26
015fac: 2f2c             .word 0x2f2c
015fad: 1a60             .word 0x1a60
015fae: 0a4e             .word 0x0a4e
015faf: ff39             .word 0xff39
015fb0: 133f             .word 0x133f
015fb1: fe93             .word 0xfe93
015fb2: 185f             .word 0x185f
015fb3: 1682             .word 0x1682
015fb4: f9c5             .word 0xf9c5
015fb5: 09bb             .word 0x09bb
015fb6: e926             .word 0xe926
015fb7: f4a6             .word 0xf4a6
015fb8: 1339             .word 0x1339
015fb9: fe08             .word 0xfe08
015fba: fe17             .word 0xfe17
015fbb: 0bd8             .word 0x0bd8
015fbc: 08b5             .word 0x08b5
015fbd: 14a7             .word 0x14a7
015fbe: ef13             .word 0xef13
015fbf: da96             .word 0xda96
015fc0: dd16             .word 0xdd16
015fc1: e1b8             .word 0xe1b8
015fc2: f66f             .word 0xf66f
015fc3: db61             .word 0xdb61
015fc4: e5eb             .word 0xe5eb
015fc5: f263             .word 0xf263
015fc6: 0025             .word 0x0025
015fc7: 01f4             .word 0x01f4
015fc8: 09a1             .word 0x09a1
015fc9: f5a6             .word 0xf5a6
015fca: cf76             .word 0xcf76
015fcb: f620             .word 0xf620
015fcc: fdcc             .word 0xfdcc
015fcd: fd87             .word 0xfd87
015fce: dd84             .word 0xdd84
015fcf: d638             .word 0xd638
015fd0: fa5c             .word 0xfa5c
015fd1: 0798             .word 0x0798
015fd2: 08f8             .word 0x08f8
015fd3: f787             .word 0xf787
015fd4: 053a             .word 0x053a
015fd5: 004c             .word 0x004c
015fd6: e6ee             .word 0xe6ee
015fd7: dc73             .word 0xdc73
015fd8: e9d9             .word 0xe9d9
015fd9: eae4             .word 0xeae4
015fda: ddb6             .word 0xddb6
015fdb: e298             .word 0xe298
015fdc: ebdf             .word 0xebdf
015fdd: 0c3e             .word 0x0c3e
015fde: 1944             .word 0x1944
015fdf: 1b61             .word 0x1b61
015fe0: 1dd9             .word 0x1dd9
015fe1: 1b24             .word 0x1b24
015fe2: 2f6d             .word 0x2f6d
015fe3: 267f             .word 0x267f
015fe4: 136c             .word 0x136c
015fe5: fa63             .word 0xfa63
015fe6: e1e9             .word 0xe1e9
015fe7: ff81             .word 0xff81
015fe8: 0ca5             .word 0x0ca5
015fe9: 09e2             .word 0x09e2
015fea: 1d24             .word 0x1d24
015feb: 300a             .word 0x300a
015fec: 25aa             .word 0x25aa
015fed: 339a             .word 0x339a
015fee: 3c83             .word 0x3c83
015fef: 0e09             .word 0x0e09
015ff0: 12dc             .word 0x12dc
015ff1: 1228             .word 0x1228
015ff2: 0fbe             .word 0x0fbe
015ff3: 2078             .word 0x2078
015ff4: 123e             .word 0x123e
015ff5: 187e             .word 0x187e
015ff6: 1409             .word 0x1409
015ff7: f2a8             .word 0xf2a8
015ff8: ef6f             .word 0xef6f
015ff9: e6cf             .word 0xe6cf
015ffa: d0ea             .word 0xd0ea
015ffb: e04c             .word 0xe04c
015ffc: cebf             .word 0xcebf
015ffd: cb21             .word 0xcb21
015ffe: e210             .word 0xe210
015fff: db22             .word 0xdb22
016000: ee4b             .word 0xee4b
016001: fbcb             .word 0xfbcb
016002: f72d             .word 0xf72d
016003: 0373             .word 0x0373
016004: 05d9             .word 0x05d9
016005: 01e1             .word 0x01e1
016006: 07c9             .word 0x07c9
016007: 0654             .word 0x0654
016008: 036a             .word 0x036a
016009: eb7a             .word 0xeb7a
01600a: e814             .word 0xe814
01600b: e8f7             .word 0xe8f7
01600c: e037             .word 0xe037
01600d: ebaf             .word 0xebaf
01600e: f414             .word 0xf414
01600f: 0845             .word 0x0845
016010: f15f             .word 0xf15f
016011: ee9a             .word 0xee9a
016012: fbf7             .word 0xfbf7
016013: ebd2             .word 0xebd2
016014: e928             .word 0xe928
016015: e914             .word 0xe914
016016: fc51             .word 0xfc51
016017: 0e02             .word 0x0e02
016018: 2c3f             .word 0x2c3f
016019: 3ae3             .word 0x3ae3
01601a: 3979             .word 0x3979
01601b: 30a3             .word 0x30a3
01601c: 107e             .word 0x107e
01601d: 0577             .word 0x0577
01601e: 0471             .word 0x0471
01601f: 05de             .word 0x05de
016020: 156f             .word 0x156f
016021: 19d2             .word 0x19d2
016022: 081d             .word 0x081d
016023: 0876             .word 0x0876
016024: 1e74             .word 0x1e74
016025: 1d21             .word 0x1d21
016026: 0b08             .word 0x0b08
016027: 2180             .word 0x2180
016028: 250f             .word 0x250f
016029: 1b28             .word 0x1b28
01602a: 14c4             .word 0x14c4
01602b: efdf             .word 0xefdf
01602c: f398             .word 0xf398
01602d: f1bb             .word 0xf1bb
01602e: 0428             .word 0x0428
01602f: fb6d             .word 0xfb6d
016030: bb3e             .word 0xbb3e
016031: cc9d             .word 0xcc9d
016032: d45f             .word 0xd45f
016033: d9ab             .word 0xd9ab
016034: f447             .word 0xf447
016035: f00c             .word 0xf00c
016036: f7b4             .word 0xf7b4
016037: e2d6             .word 0xe2d6
016038: d785             .word 0xd785
016039: dd09             .word 0xdd09
01603a: f2d8             .word 0xf2d8
01603b: 18e3             .word 0x18e3
01603c: 0e05             .word 0x0e05
01603d: 2191             .word 0x2191
01603e: 0ae6             .word 0x0ae6
01603f: f0bb             .word 0xf0bb
016040: 1191             .word 0x1191
016041: f779             .word 0xf779
016042: e0b1             .word 0xe0b1
016043: d228             .word 0xd228
016044: dd17             .word 0xdd17
016045: efcf             .word 0xefcf
016046: e90e             .word 0xe90e
016047: e87d             .word 0xe87d
016048: e5d8             .word 0xe5d8
016049: e19c             .word 0xe19c
01604a: f0c7             .word 0xf0c7
01604b: 0348             .word 0x0348
01604c: ec75             .word 0xec75
01604d: 0075             .word 0x0075
01604e: 04a6             .word 0x04a6
01604f: f83b             .word 0xf83b
016050: 0a99             .word 0x0a99
016051: 0c38             .word 0x0c38
016052: 31fd             .word 0x31fd
016053: 2e6a             .word 0x2e6a
016054: 10fa             .word 0x10fa
016055: 1737             .word 0x1737
016056: 0de1             .word 0x0de1
016057: ef88             .word 0xef88
016058: e2ea             .word 0xe2ea
016059: f40d             .word 0xf40d
01605a: ef91             .word 0xef91
01605b: eac7             .word 0xeac7
01605c: f251             .word 0xf251
01605d: 0112             .word 0x0112
01605e: 0313             .word 0x0313
01605f: f84f             .word 0xf84f
016060: 2351             .word 0x2351
016061: 37b0             .word 0x37b0
016062: 3e18             .word 0x3e18
016063: 5d91             .word 0x5d91
016064: 5391             .word 0x5391
016065: 4f48             .word 0x4f48
016066: 4f7b             .word 0x4f7b
016067: 4081             .word 0x4081
016068: 1876             .word 0x1876
016069: 1615             .word 0x1615
01606a: 2c81             .word 0x2c81
01606b: 0869             .word 0x0869
01606c: 0b5f             .word 0x0b5f
01606d: 05df             .word 0x05df
01606e: f72b             .word 0xf72b
01606f: eebf             .word 0xeebf
016070: c1c1             .word 0xc1c1
016071: d0c0             .word 0xd0c0
016072: e1a2             .word 0xe1a2
016073: d63b             .word 0xd63b
016074: da5c             .word 0xda5c
016075: e638             .word 0xe638
016076: f4c1             .word 0xf4c1
016077: f130             .word 0xf130
016078: 0f6b             .word 0x0f6b
016079: 25c4             .word 0x25c4
01607a: 15a9             .word 0x15a9
01607b: 12c2             .word 0x12c2
01607c: 02df             .word 0x02df
01607d: f577             .word 0xf577
01607e: f01a             .word 0xf01a
01607f: f1dd             .word 0xf1dd
016080: e516             .word 0xe516
016081: d72d             .word 0xd72d
016082: e0a3             .word 0xe0a3
016083: cbd1             .word 0xcbd1
016084: c7e7             .word 0xc7e7
016085: e596             .word 0xe596
016086: e7a8             .word 0xe7a8
016087: dc19             .word 0xdc19
016088: dce4             .word 0xdce4
016089: e1e6             .word 0xe1e6
01608a: fb87             .word 0xfb87
01608b: 0670             .word 0x0670
01608c: f2fb             .word 0xf2fb
01608d: e0b2             .word 0xe0b2
01608e: dcd7             .word 0xdcd7
01608f: da53             .word 0xda53
016090: cab9             .word 0xcab9
016091: ed2f             .word 0xed2f
016092: fe5d             .word 0xfe5d
016093: ee1e             .word 0xee1e
016094: ffb2             .word 0xffb2
016095: 0809             .word 0x0809
016096: 0763             .word 0x0763
016097: 160a             .word 0x160a
016098: 1599             .word 0x1599
016099: 168a             .word 0x168a
01609a: 1919             .word 0x1919
01609b: f866             .word 0xf866
01609c: 16bf             .word 0x16bf
01609d: 20d4             .word 0x20d4
01609e: 175a             .word 0x175a
01609f: 3f94             .word 0x3f94
0160a0: 2b29             .word 0x2b29
0160a1: 2902             .word 0x2902
0160a2: 31a6             .word 0x31a6
0160a3: 2901             .word 0x2901
0160a4: 2657             .word 0x2657
0160a5: 0c88             .word 0x0c88
0160a6: eeda             .word 0xeeda
0160a7: f658             .word 0xf658
0160a8: 0b12             .word 0x0b12
0160a9: 0918             .word 0x0918
0160aa: 2926             .word 0x2926
0160ab: 31b1             .word 0x31b1
0160ac: 2a5f             .word 0x2a5f
0160ad: 25ea             .word 0x25ea
0160ae: 0e3b             .word 0x0e3b
0160af: 159f             .word 0x159f
0160b0: ffbc             .word 0xffbc
0160b1: f21a             .word 0xf21a
0160b2: fa01             .word 0xfa01
0160b3: e514             .word 0xe514
0160b4: e4e9             .word 0xe4e9
0160b5: f292             .word 0xf292
0160b6: f856             .word 0xf856
0160b7: f210             .word 0xf210
0160b8: 0030             .word 0x0030
0160b9: 117c             .word 0x117c
0160ba: 0345             .word 0x0345
0160bb: ede1             .word 0xede1
0160bc: d856             .word 0xd856
0160bd: d593             .word 0xd593
0160be: ec7c             .word 0xec7c
0160bf: fa5c             .word 0xfa5c
0160c0: f71e             .word 0xf71e
0160c1: 0612             .word 0x0612
0160c2: 07c6             .word 0x07c6
0160c3: 0870             .word 0x0870
0160c4: 026d             .word 0x026d
0160c5: f29c             .word 0xf29c
0160c6: 0a57             .word 0x0a57
0160c7: facb             .word 0xfacb
0160c8: deaf             .word 0xdeaf
0160c9: 02c5             .word 0x02c5
0160ca: 21f1             .word 0x21f1
0160cb: 1316             .word 0x1316
0160cc: 0565             .word 0x0565
0160cd: f87e             .word 0xf87e
0160ce: e727             .word 0xe727
0160cf: cf3d             .word 0xcf3d
0160d0: beda             .word 0xbeda
0160d1: d153             .word 0xd153
0160d2: e392             .word 0xe392
0160d3: f98b             .word 0xf98b
0160d4: 059b             .word 0x059b
0160d5: 0a95             .word 0x0a95
0160d6: ff41             .word 0xff41
0160d7: e6b8             .word 0xe6b8
0160d8: e8f7             .word 0xe8f7
0160d9: f73c             .word 0xf73c
0160da: ff23             .word 0xff23
0160db: 02b6             .word 0x02b6
0160dc: faf1             .word 0xfaf1
0160dd: f713             .word 0xf713
0160de: 0620             .word 0x0620
0160df: f354             .word 0xf354
0160e0: edd1             .word 0xedd1
0160e1: f22a             .word 0xf22a
0160e2: eba8             .word 0xeba8
0160e3: f3e7             .word 0xf3e7
0160e4: 094f             .word 0x094f
0160e5: 060b             .word 0x060b
0160e6: d91e             .word 0xd91e
0160e7: f851             .word 0xf851
0160e8: 0a6e             .word 0x0a6e
0160e9: 0072             .word 0x0072
0160ea: 0618             .word 0x0618
0160eb: edb0             .word 0xedb0
0160ec: 0008             .word 0x0008
0160ed: 0c1f             .word 0x0c1f
0160ee: 11d1             .word 0x11d1
0160ef: 3586             .word 0x3586
0160f0: 36e8             .word 0x36e8
0160f1: 2295             .word 0x2295
0160f2: 2858             .word 0x2858
0160f3: 2637             .word 0x2637
0160f4: 1217             .word 0x1217
0160f5: 0287             .word 0x0287
0160f6: 0ca7             .word 0x0ca7
0160f7: 3071             .word 0x3071
0160f8: 40ed             .word 0x40ed
0160f9: 33a7             .word 0x33a7
0160fa: 2602             .word 0x2602
0160fb: 451f             .word 0x451f
0160fc: 4935             .word 0x4935
0160fd: 1b92             .word 0x1b92
0160fe: 0e03             .word 0x0e03
0160ff: 06d4             .word 0x06d4
016100: 0582             .word 0x0582
016101: 17d6             .word 0x17d6
016102: 02a4             .word 0x02a4
016103: fbb1             .word 0xfbb1
016104: 19e5             .word 0x19e5
016105: fd6b             .word 0xfd6b
016106: e9cb             .word 0xe9cb
016107: f62e             .word 0xf62e
016108: d842             .word 0xd842
016109: bf4c             .word 0xbf4c
01610a: d164             .word 0xd164
01610b: c7fb             .word 0xc7fb
01610c: be6d             .word 0xbe6d
01610d: daec             .word 0xdaec
01610e: cf49             .word 0xcf49
01610f: d8ac             .word 0xd8ac
016110: e379             .word 0xe379
016111: ee53             .word 0xee53
016112: 05b1             .word 0x05b1
016113: e43a             .word 0xe43a
016114: d2c1             .word 0xd2c1
016115: cd8d             .word 0xcd8d
016116: d39b             .word 0xd39b
016117: ca7e             .word 0xca7e
016118: d6e1             .word 0xd6e1
016119: f94e             .word 0xf94e
01611a: f78b             .word 0xf78b
01611b: 03b6             .word 0x03b6
01611c: f0e3             .word 0xf0e3
01611d: ed28             .word 0xed28
01611e: ef20             .word 0xef20
01611f: 027e             .word 0x027e
016120: 240c             .word 0x240c
016121: 1d50             .word 0x1d50
016122: 175b             .word 0x175b
016123: fce9             .word 0xfce9
016124: 0f6d             .word 0x0f6d
016125: 1f2a             .word 0x1f2a
016126: 0dd4             .word 0x0dd4
016127: 0e5d             .word 0x0e5d
016128: 0f63             .word 0x0f63
016129: 19d6             .word 0x19d6
01612a: 0f5c             .word 0x0f5c
01612b: faf8             .word 0xfaf8
01612c: f98e             .word 0xf98e
01612d: 1707             .word 0x1707
01612e: 281e             .word 0x281e
01612f: 1d92             .word 0x1d92
016130: 1ced             .word 0x1ced
016131: 1c00             .word 0x1c00
016132: 13b7             .word 0x13b7
016133: 0e43             .word 0x0e43
016134: 0cd9             .word 0x0cd9
016135: fbbc             .word 0xfbbc
016136: f5ec             .word 0xf5ec
016137: f2ff             .word 0xf2ff
016138: e64b             .word 0xe64b
016139: f295             .word 0xf295
01613a: f7fb             .word 0xf7fb
01613b: 0917             .word 0x0917
01613c: 101c             .word 0x101c
01613d: 089c             .word 0x089c
01613e: 1554             .word 0x1554
01613f: 10c1             .word 0x10c1
016140: 0db1             .word 0x0db1
016141: e4c2             .word 0xe4c2
016142: eafd             .word 0xeafd
016143: fbbb             .word 0xfbbb
016144: d4da             .word 0xd4da
016145: f7d5             .word 0xf7d5
016146: 00c7             .word 0x00c7
016147: 18b3             .word 0x18b3
016148: 273b             .word 0x273b
016149: fc02             .word 0xfc02
01614a: f5ec             .word 0xf5ec
01614b: de5b             .word 0xde5b
01614c: ecc8             .word 0xecc8
01614d: 0da8             .word 0x0da8
01614e: 1d64             .word 0x1d64
01614f: 2f0d             .word 0x2f0d
016150: 32dd             .word 0x32dd
016151: 33d3             .word 0x33d3
016152: 2d60             .word 0x2d60
016153: 1d63             .word 0x1d63
016154: fb27             .word 0xfb27
016155: 04ac             .word 0x04ac
016156: 1736             .word 0x1736
016157: fb0f             .word 0xfb0f
016158: f32c             .word 0xf32c
016159: f1c7             .word 0xf1c7
01615a: e803             .word 0xe803
01615b: d1bd             .word 0xd1bd
01615c: b6a2             .word 0xb6a2
01615d: cacf             .word 0xcacf
01615e: eddb             .word 0xeddb
01615f: fd48             .word 0xfd48
016160: fc2c             .word 0xfc2c
016161: 09fb             .word 0x09fb
016162: 0bf7             .word 0x0bf7
016163: e9d1             .word 0xe9d1
016164: fa14             .word 0xfa14
016165: 00c2             .word 0x00c2
016166: e83c             .word 0xe83c
016167: 04a6             .word 0x04a6
016168: 061c             .word 0x061c
016169: e44d             .word 0xe44d
01616a: ece9             .word 0xece9
01616b: e874             .word 0xe874
01616c: d214             .word 0xd214
01616d: d87d             .word 0xd87d
01616e: d5ea             .word 0xd5ea
01616f: d11e             .word 0xd11e
016170: ec18             .word 0xec18
016171: 0b02             .word 0x0b02
016172: 0412             .word 0x0412
016173: fa5e             .word 0xfa5e
016174: fb9e             .word 0xfb9e
016175: f68f             .word 0xf68f
016176: 034d             .word 0x034d
016177: 1208             .word 0x1208
016178: 1d7d             .word 0x1d7d
016179: 2dea             .word 0x2dea
01617a: 42a4             .word 0x42a4
01617b: 351b             .word 0x351b
01617c: 18fb             .word 0x18fb
01617d: 1e62             .word 0x1e62
01617e: 1c4a             .word 0x1c4a
01617f: 083b             .word 0x083b
016180: 0185             .word 0x0185
016181: 0d56             .word 0x0d56
016182: ecc9             .word 0xecc9
016183: d2bd             .word 0xd2bd
016184: f3f8             .word 0xf3f8
016185: 11d0             .word 0x11d0
016186: 1201             .word 0x1201
016187: fe78             .word 0xfe78
016188: fe17             .word 0xfe17
016189: eeee             .word 0xeeee
01618a: e9b6             .word 0xe9b6
01618b: fa0d             .word 0xfa0d
01618c: f370             .word 0xf370
01618d: fc18             .word 0xfc18
01618e: fd09             .word 0xfd09
01618f: f280             .word 0xf280
016190: 03cd             .word 0x03cd
016191: 0916             .word 0x0916
016192: 06bc             .word 0x06bc
016193: 20ac             .word 0x20ac
016194: 2d75             .word 0x2d75
016195: 2e76             .word 0x2e76
016196: 22ed             .word 0x22ed
016197: 29b3             .word 0x29b3
016198: 302b             .word 0x302b
016199: 1f18             .word 0x1f18
01619a: 307b             .word 0x307b
01619b: 1d4b             .word 0x1d4b
01619c: 14ea             .word 0x14ea
01619d: 1d71             .word 0x1d71
01619e: ff01             .word 0xff01
01619f: f7a6             .word 0xf7a6
0161a0: f998             .word 0xf998
0161a1: f4cb             .word 0xf4cb
0161a2: dfbd             .word 0xdfbd
0161a3: d7f5             .word 0xd7f5
0161a4: dcad             .word 0xdcad
0161a5: d4f2             .word 0xd4f2
0161a6: e0a7             .word 0xe0a7
0161a7: 01f4             .word 0x01f4
0161a8: 0c0c             .word 0x0c0c
0161a9: 00be             .word 0x00be
0161aa: fe0f             .word 0xfe0f
0161ab: 02d6             .word 0x02d6
0161ac: 0fd9             .word 0x0fd9
0161ad: f9b3             .word 0xf9b3
0161ae: e435             .word 0xe435
0161af: ed3e             .word 0xed3e
0161b0: f244             .word 0xf244
0161b1: fcee             .word 0xfcee
0161b2: e842             .word 0xe842
0161b3: d1fb             .word 0xd1fb
0161b4: e814             .word 0xe814
0161b5: de9c             .word 0xde9c
0161b6: c3f0             .word 0xc3f0
0161b7: c7f2             .word 0xc7f2
0161b8: cd05             .word 0xcd05
0161b9: d8c3             .word 0xd8c3
0161ba: cf64             .word 0xcf64
0161bb: c71f             .word 0xc71f
0161bc: d20e             .word 0xd20e
0161bd: e63b             .word 0xe63b
0161be: 00a1             .word 0x00a1
0161bf: f631             .word 0xf631
0161c0: 0301             .word 0x0301
0161c1: 0eb6             .word 0x0eb6
0161c2: fb79             .word 0xfb79
0161c3: f59e             .word 0xf59e
0161c4: feb2             .word 0xfeb2
0161c5: ffc8             .word 0xffc8
0161c6: f540             .word 0xf540
0161c7: 1e49             .word 0x1e49
0161c8: 231e             .word 0x231e
0161c9: 01db             .word 0x01db
0161ca: 079e             .word 0x079e
0161cb: f95f             .word 0xf95f
0161cc: fbd4             .word 0xfbd4
0161cd: 1978             .word 0x1978
0161ce: 2726             .word 0x2726
0161cf: 38e8             .word 0x38e8
0161d0: 3b4a             .word 0x3b4a
0161d1: 3614             .word 0x3614
0161d2: 4bc3             .word 0x4bc3
0161d3: 5385             .word 0x5385
0161d4: 5b21             .word 0x5b21
0161d5: 560e             .word 0x560e
0161d6: 3af2             .word 0x3af2
0161d7: 1adc             .word 0x1adc
0161d8: f39d             .word 0xf39d
0161d9: fde2             .word 0xfde2
0161da: f855             .word 0xf855
0161db: fb11             .word 0xfb11
0161dc: 1c74             .word 0x1c74
0161dd: 04c4             .word 0x04c4
0161de: 0087             .word 0x0087
0161df: 164c             .word 0x164c
0161e0: 0e90             .word 0x0e90
0161e1: 0246             .word 0x0246
0161e2: 035a             .word 0x035a
0161e3: 013f             .word 0x013f
0161e4: 01cf             .word 0x01cf
0161e5: 05f4             .word 0x05f4
0161e6: 05dc             .word 0x05dc
0161e7: 1ce1             .word 0x1ce1
0161e8: 19ee             .word 0x19ee
0161e9: fe61             .word 0xfe61
0161ea: 0bdd             .word 0x0bdd
0161eb: fec0             .word 0xfec0
0161ec: dbe8             .word 0xdbe8
0161ed: d3e5             .word 0xd3e5
0161ee: c1f0             .word 0xc1f0
0161ef: c77a             .word 0xc77a
0161f0: e3e5             .word 0xe3e5
0161f1: f9fd             .word 0xf9fd
0161f2: fc9b             .word 0xfc9b
0161f3: f331             .word 0xf331
0161f4: d1ed             .word 0xd1ed
0161f5: b25f             .word 0xb25f
0161f6: c8f2             .word 0xc8f2
0161f7: c32d             .word 0xc32d
0161f8: b14b             .word 0xb14b
0161f9: b093             .word 0xb093
0161fa: bb9c             .word 0xbb9c
0161fb: cab9             .word 0xcab9
0161fc: d17d             .word 0xd17d
0161fd: cd79             .word 0xcd79
0161fe: cd15             .word 0xcd15
0161ff: 02c7             .word 0x02c7
016200: fbce             .word 0xfbce
016201: fe93             .word 0xfe93
016202: 2243             .word 0x2243
016203: ff3c             .word 0xff3c
016204: 0839             .word 0x0839
016205: 23dd             .word 0x23dd
016206: 142a             .word 0x142a
016207: 0b4e             .word 0x0b4e
016208: 1b49             .word 0x1b49
016209: 1395             .word 0x1395
01620a: 18e8             .word 0x18e8
01620b: 2863             .word 0x2863
01620c: 23e3             .word 0x23e3
01620d: 3d69             .word 0x3d69
01620e: 42ff             .word 0x42ff
01620f: 430d             .word 0x430d
016210: 3f3d             .word 0x3f3d
016211: 1d56             .word 0x1d56
016212: 11e5             .word 0x11e5
016213: 1620             .word 0x1620
016214: 0d91             .word 0x0d91
016215: 1ad4             .word 0x1ad4
016216: 3a4f             .word 0x3a4f
016217: 3fc4             .word 0x3fc4
016218: 3529             .word 0x3529
016219: 11cf             .word 0x11cf
01621a: 0d40             .word 0x0d40
01621b: 148f             .word 0x148f
01621c: f785             .word 0xf785
01621d: 0c3c             .word 0x0c3c
01621e: 194a             .word 0x194a
01621f: 1b25             .word 0x1b25
016220: 19b6             .word 0x19b6
016221: f843             .word 0xf843
016222: edaf             .word 0xedaf
016223: cfa3             .word 0xcfa3
016224: c99a             .word 0xc99a
016225: dadf             .word 0xdadf
016226: e4f1             .word 0xe4f1
016227: eaf5             .word 0xeaf5
016228: e219             .word 0xe219
016229: e2c9             .word 0xe2c9
01622a: dbf7             .word 0xdbf7
01622b: e449             .word 0xe449
01622c: d1c6             .word 0xd1c6
01622d: d1fa             .word 0xd1fa
01622e: e191             .word 0xe191
01622f: c797             .word 0xc797
016230: e5fe             .word 0xe5fe
016231: 170a             .word 0x170a
016232: 0cbc             .word 0x0cbc
016233: f05c             .word 0xf05c
016234: f3c9             .word 0xf3c9
016235: ff5d             .word 0xff5d
016236: fe47             .word 0xfe47
016237: edff             .word 0xedff
016238: e8c8             .word 0xe8c8
016239: ec46             .word 0xec46
01623a: f340             .word 0xf340
01623b: 10c6             .word 0x10c6
01623c: 2adb             .word 0x2adb
01623d: 22d5             .word 0x22d5
01623e: 0045             .word 0x0045
01623f: f57f             .word 0xf57f
016240: e9e8             .word 0xe9e8
016241: e465             .word 0xe465
016242: ee5e             .word 0xee5e
016243: ff8a             .word 0xff8a
016244: f1eb             .word 0xf1eb
016245: e580             .word 0xe580
016246: 0ab6             .word 0x0ab6
016247: 0bb5             .word 0x0bb5
016248: 096e             .word 0x096e
016249: 09d6             .word 0x09d6
01624a: 0f90             .word 0x0f90
01624b: ff03             .word 0xff03
01624c: df51             .word 0xdf51
01624d: e867             .word 0xe867
01624e: ed6b             .word 0xed6b
01624f: 0628             .word 0x0628
016250: 26ae             .word 0x26ae
016251: 2668             .word 0x2668
016252: 035e             .word 0x035e
016253: fcdc             .word 0xfcdc
016254: 056a             .word 0x056a
016255: 093b             .word 0x093b
016256: 1e74             .word 0x1e74
016257: 1bdd             .word 0x1bdd
016258: 14a4             .word 0x14a4
016259: 0170             .word 0x0170
01625a: da8d             .word 0xda8d
01625b: b1fd             .word 0xb1fd
01625c: ba3e             .word 0xba3e
01625d: e6ed             .word 0xe6ed
01625e: f139             .word 0xf139
01625f: 081d             .word 0x081d
016260: 1b90             .word 0x1b90
016261: 0689             .word 0x0689
016262: 14f7             .word 0x14f7
016263: 3d22             .word 0x3d22
016264: 4ed8             .word 0x4ed8
016265: 4934             .word 0x4934
016266: 332a             .word 0x332a
016267: 24a0             .word 0x24a0
016268: 1308             .word 0x1308
016269: 1690             .word 0x1690
01626a: 2573             .word 0x2573
01626b: 16f7             .word 0x16f7
01626c: 0e87             .word 0x0e87
01626d: 04ca             .word 0x04ca
01626e: f1b2             .word 0xf1b2
01626f: 0213             .word 0x0213
016270: 1c84             .word 0x1c84
016271: 1ffd             .word 0x1ffd
016272: 2c5d             .word 0x2c5d
016273: 29ef             .word 0x29ef
016274: 132b             .word 0x132b
016275: 0717             .word 0x0717
016276: ffde             .word 0xffde
016277: 068f             .word 0x068f
016278: f64d             .word 0xf64d
016279: deb3             .word 0xdeb3
01627a: ea20             .word 0xea20
01627b: f2c8             .word 0xf2c8
01627c: f3ec             .word 0xf3ec
01627d: f001             .word 0xf001
01627e: f30d             .word 0xf30d
01627f: ee2e             .word 0xee2e
016280: 0497             .word 0x0497
016281: 05c1             .word 0x05c1
016282: df78             .word 0xdf78
016283: 0066             .word 0x0066
016284: e644             .word 0xe644
016285: dd4b             .word 0xdd4b
016286: f60b             .word 0xf60b
016287: c6af             .word 0xc6af
016288: d0f2             .word 0xd0f2
016289: d000             .word 0xd000
01628a: cdcf             .word 0xcdcf
01628b: dd6d             .word 0xdd6d
01628c: d101             .word 0xd101
01628d: e03a             .word 0xe03a
01628e: e668             .word 0xe668
01628f: dda3             .word 0xdda3
016290: de6a             .word 0xde6a
016291: e204             .word 0xe204
016292: f675             .word 0xf675
016293: e994             .word 0xe994
016294: cda9             .word 0xcda9
016295: d731             .word 0xd731
016296: e15d             .word 0xe15d
016297: f05b             .word 0xf05b
016298: ef27             .word 0xef27
016299: f95e             .word 0xf95e
01629a: fb3f             .word 0xfb3f
01629b: f6af             .word 0xf6af
01629c: 070c             .word 0x070c
01629d: 18d0             .word 0x18d0
01629e: 2bdf             .word 0x2bdf
01629f: 1915             .word 0x1915
0162a0: 23fb             .word 0x23fb
0162a1: 3271             .word 0x3271
0162a2: 2d25             .word 0x2d25
0162a3: 0ed5             .word 0x0ed5
0162a4: f75f             .word 0xf75f
0162a5: 0cf5             .word 0x0cf5
0162a6: 0637             .word 0x0637
0162a7: 1009             .word 0x1009
0162a8: 1c95             .word 0x1c95
0162a9: 16d9             .word 0x16d9
0162aa: 1b0f             .word 0x1b0f
0162ab: 3c81             .word 0x3c81
0162ac: 4d6f             .word 0x4d6f
0162ad: 48ca             .word 0x48ca
0162ae: 369a             .word 0x369a
0162af: 0d7a             .word 0x0d7a
0162b0: 19b7             .word 0x19b7
0162b1: 2044             .word 0x2044
0162b2: 160b             .word 0x160b
0162b3: 0e2f             .word 0x0e2f
0162b4: fd06             .word 0xfd06
0162b5: 10b6             .word 0x10b6
0162b6: 181c             .word 0x181c
0162b7: 155d             .word 0x155d
0162b8: 2311             .word 0x2311
0162b9: 021e             .word 0x021e
0162ba: f9cc             .word 0xf9cc
0162bb: 0ea4             .word 0x0ea4
0162bc: 0bcb             .word 0x0bcb
0162bd: 0276             .word 0x0276
0162be: f41e             .word 0xf41e
0162bf: 0202             .word 0x0202
0162c0: f551             .word 0xf551
0162c1: 0fdc             .word 0x0fdc
0162c2: 2426             .word 0x2426
0162c3: f49e             .word 0xf49e
0162c4: f943             .word 0xf943
0162c5: 0ed4             .word 0x0ed4
0162c6: 1ca0             .word 0x1ca0
0162c7: 0ba7             .word 0x0ba7
0162c8: ea47             .word 0xea47
0162c9: cbd6             .word 0xcbd6
0162ca: b17a             .word 0xb17a
0162cb: c5f6             .word 0xc5f6
0162cc: c7e0             .word 0xc7e0
0162cd: b1c4             .word 0xb1c4
0162ce: d189             .word 0xd189
0162cf: d064             .word 0xd064
0162d0: d57f             .word 0xd57f
0162d1: e774             .word 0xe774
0162d2: c742             .word 0xc742
0162d3: e906             .word 0xe906
0162d4: dff9             .word 0xdff9
0162d5: c6cb             .word 0xc6cb
0162d6: d5da             .word 0xd5da
0162d7: e5c1             .word 0xe5c1
0162d8: 10cf             .word 0x10cf
0162d9: fbd1             .word 0xfbd1
0162da: e0e0             .word 0xe0e0
0162db: ef3b             .word 0xef3b
0162dc: edea             .word 0xedea
0162dd: ef90             .word 0xef90
0162de: 0ccf             .word 0x0ccf
0162df: fcd7             .word 0xfcd7
0162e0: df8b             .word 0xdf8b
0162e1: dff2             .word 0xdff2
0162e2: e8d6             .word 0xe8d6
0162e3: f3a6             .word 0xf3a6
0162e4: 06f7             .word 0x06f7
0162e5: 2dc7             .word 0x2dc7
0162e6: 2de4             .word 0x2de4
0162e7: 25f4             .word 0x25f4
0162e8: 19e1             .word 0x19e1
0162e9: 1507             .word 0x1507
0162ea: 0078             .word 0x0078
0162eb: 06d1             .word 0x06d1
0162ec: 3b02             .word 0x3b02
0162ed: 4282             .word 0x4282
0162ee: 345e             .word 0x345e
0162ef: 242e             .word 0x242e
0162f0: 3aad             .word 0x3aad
0162f1: 2b15             .word 0x2b15
0162f2: 1960             .word 0x1960
0162f3: 2633             .word 0x2633
0162f4: 105b             .word 0x105b
0162f5: 0849             .word 0x0849
0162f6: fcf7             .word 0xfcf7
0162f7: e89e             .word 0xe89e
0162f8: f542             .word 0xf542
0162f9: 13e3             .word 0x13e3
0162fa: 0d3f             .word 0x0d3f
0162fb: 0935             .word 0x0935
0162fc: 110d             .word 0x110d
0162fd: 2a37             .word 0x2a37
0162fe: 3f45             .word 0x3f45
0162ff: 4be7             .word 0x4be7
016300: 49c9             .word 0x49c9
016301: 3214             .word 0x3214
016302: 2a84             .word 0x2a84
016303: 0663             .word 0x0663
016304: 05a8             .word 0x05a8
016305: fec9             .word 0xfec9
016306: eb7c             .word 0xeb7c
016307: e7a2             .word 0xe7a2
016308: d14b             .word 0xd14b
016309: e765             .word 0xe765
01630a: f470             .word 0xf470
01630b: ec5d             .word 0xec5d
01630c: fd5c             .word 0xfd5c
01630d: f18e             .word 0xf18e
01630e: d50f             .word 0xd50f
01630f: d5f3             .word 0xd5f3
016310: c470             .word 0xc470
016311: dd51             .word 0xdd51
016312: eed0             .word 0xeed0
016313: df96             .word 0xdf96
016314: faff             .word 0xfaff
016315: f7d2             .word 0xf7d2
016316: da7c             .word 0xda7c
016317: cab1             .word 0xcab1
016318: cc69             .word 0xcc69
016319: b7de             .word 0xb7de
01631a: c32a             .word 0xc32a
01631b: d336             .word 0xd336
01631c: dbbd             .word 0xdbbd
01631d: f989             .word 0xf989
01631e: fba0             .word 0xfba0
01631f: 0001             .word 0x0001
016320: e9d4             .word 0xe9d4
016321: f3bc             .word 0xf3bc
016322: fda8             .word 0xfda8
016323: fed9             .word 0xfed9
016324: 1411             .word 0x1411
016325: 0688             .word 0x0688
016326: f90d             .word 0xf90d
016327: fa65             .word 0xfa65
016328: 04f3             .word 0x04f3
016329: f8c8             .word 0xf8c8
01632a: ff5a             .word 0xff5a
01632b: 0ca2             .word 0x0ca2
01632c: 0de6             .word 0x0de6
01632d: 0799             .word 0x0799
01632e: fc9e             .word 0xfc9e
01632f: 048e             .word 0x048e
016330: 0131             .word 0x0131
016331: 0a37             .word 0x0a37
016332: 0f50             .word 0x0f50
016333: 05fd             .word 0x05fd
016334: 02ad             .word 0x02ad
016335: 0fc9             .word 0x0fc9
016336: 0246             .word 0x0246
016337: eaa0             .word 0xeaa0
016338: 0a19             .word 0x0a19
016339: 17b0             .word 0x17b0
01633a: 1323             .word 0x1323
01633b: 199f             .word 0x199f
01633c: 21be             .word 0x21be
01633d: 3d1f             .word 0x3d1f
01633e: 4b54             .word 0x4b54
01633f: 3a1d             .word 0x3a1d
016340: 2191             .word 0x2191
016341: 1564             .word 0x1564
016342: 1c61             .word 0x1c61
016343: 2b48             .word 0x2b48
016344: 447d             .word 0x447d
016345: 5b1d             .word 0x5b1d
016346: 5636             .word 0x5636
016347: 4150             .word 0x4150
016348: 238e             .word 0x238e
016349: 14d4             .word 0x14d4
01634a: 1fa0             .word 0x1fa0
01634b: 0004             .word 0x0004
01634c: dd3f             .word 0xdd3f
01634d: da73             .word 0xda73
01634e: c31e             .word 0xc31e
01634f: d586             .word 0xd586
016350: d9db             .word 0xd9db
016351: cb09             .word 0xcb09
016352: d129             .word 0xd129
016353: c8fc             .word 0xc8fc
016354: c462             .word 0xc462
016355: a7e9             .word 0xa7e9
016356: b7ed             .word 0xb7ed
016357: bd67             .word 0xbd67
016358: d8b5             .word 0xd8b5
016359: 0ec0             .word 0x0ec0
01635a: faf6             .word 0xfaf6
01635b: f9dc             .word 0xf9dc
01635c: f16a             .word 0xf16a
01635d: 0107             .word 0x0107
01635e: febe             .word 0xfebe
01635f: e385             .word 0xe385
016360: e36c             .word 0xe36c
016361: ea09             .word 0xea09
016362: f482             .word 0xf482
016363: dba7             .word 0xdba7
016364: e529             .word 0xe529
016365: fde3             .word 0xfde3
016366: 1f62             .word 0x1f62
016367: 18c1             .word 0x18c1
016368: fa32             .word 0xfa32
016369: f6f0             .word 0xf6f0
01636a: e876             .word 0xe876
01636b: 0928             .word 0x0928
01636c: 135a             .word 0x135a
01636d: 0723             .word 0x0723
01636e: 08b7             .word 0x08b7
01636f: 07ae             .word 0x07ae
016370: 03c2             .word 0x03c2
016371: 1a6a             .word 0x1a6a
016372: 32b5             .word 0x32b5
016373: 15cc             .word 0x15cc
016374: 0e3e             .word 0x0e3e
016375: fa3f             .word 0xfa3f
016376: e66a             .word 0xe66a
016377: ea70             .word 0xea70
016378: ecac             .word 0xecac
016379: f6a1             .word 0xf6a1
01637a: f354             .word 0xf354
01637b: fa9c             .word 0xfa9c
01637c: 0510             .word 0x0510
01637d: 06d6             .word 0x06d6
01637e: 0402             .word 0x0402
01637f: 1277             .word 0x1277
016380: 13fc             .word 0x13fc
016381: 0212             .word 0x0212
016382: 0db3             .word 0x0db3
016383: 1527             .word 0x1527
016384: 2312             .word 0x2312
016385: 2d6c             .word 0x2d6c
016386: 2f99             .word 0x2f99
016387: 4a8f             .word 0x4a8f
016388: 463b             .word 0x463b
016389: 3702             .word 0x3702
01638a: 2d9a             .word 0x2d9a
01638b: 0978             .word 0x0978
01638c: 0bb9             .word 0x0bb9
01638d: 0de3             .word 0x0de3
01638e: 00b3             .word 0x00b3
01638f: 1616             .word 0x1616
016390: 0d1c             .word 0x0d1c
016391: f7fc             .word 0xf7fc
016392: f930             .word 0xf930
016393: fd90             .word 0xfd90
016394: fe9d             .word 0xfe9d
016395: 062f             .word 0x062f
016396: fd1a             .word 0xfd1a
016397: e275             .word 0xe275
016398: d4e7             .word 0xd4e7
016399: cdba             .word 0xcdba
01639a: e648             .word 0xe648
01639b: e097             .word 0xe097
01639c: d6dd             .word 0xd6dd
01639d: e7bc             .word 0xe7bc
01639e: f1b4             .word 0xf1b4
01639f: f0ef             .word 0xf0ef
0163a0: d1ff             .word 0xd1ff
0163a1: bfe7             .word 0xbfe7
0163a2: ab95             .word 0xab95
0163a3: d0ec             .word 0xd0ec
0163a4: e278             .word 0xe278
0163a5: de26             .word 0xde26
0163a6: f437             .word 0xf437
0163a7: ddae             .word 0xddae
0163a8: 00c3             .word 0x00c3
0163a9: 05ce             .word 0x05ce
0163aa: 05ed             .word 0x05ed
0163ab: 1c39             .word 0x1c39
0163ac: 1ead             .word 0x1ead
0163ad: 2c30             .word 0x2c30
0163ae: 0601             .word 0x0601
0163af: 042a             .word 0x042a
0163b0: 17d2             .word 0x17d2
0163b1: 00f2             .word 0x00f2
0163b2: e82f             .word 0xe82f
0163b3: f316             .word 0xf316
0163b4: f6c4             .word 0xf6c4
0163b5: e29d             .word 0xe29d
0163b6: eb9f             .word 0xeb9f
0163b7: ec7c             .word 0xec7c
0163b8: e578             .word 0xe578
0163b9: e7f0             .word 0xe7f0
0163ba: df57             .word 0xdf57
0163bb: dd29             .word 0xdd29
0163bc: e48b             .word 0xe48b
0163bd: dd98             .word 0xdd98
0163be: ee9c             .word 0xee9c
0163bf: 15e2             .word 0x15e2
0163c0: 2526             .word 0x2526
0163c1: 20c4             .word 0x20c4
0163c2: 32bb             .word 0x32bb
0163c3: 4dd1             .word 0x4dd1
0163c4: 459d             .word 0x459d
0163c5: 4642             .word 0x4642
0163c6: 5640             .word 0x5640
0163c7: 565e             .word 0x565e
0163c8: 58f9             .word 0x58f9
0163c9: 5060             .word 0x5060
0163ca: 2400             .word 0x2400
0163cb: 14ab             .word 0x14ab
0163cc: 1ff7             .word 0x1ff7
0163cd: 1aa7             .word 0x1aa7
0163ce: 1ef8             .word 0x1ef8
0163cf: 27f2             .word 0x27f2
0163d0: 1a4e             .word 0x1a4e
0163d1: 1414             .word 0x1414
0163d2: 2d9a             .word 0x2d9a
0163d3: 161e             .word 0x161e
0163d4: e573             .word 0xe573
0163d5: ee31             .word 0xee31
0163d6: 01db             .word 0x01db
0163d7: fa18             .word 0xfa18
0163d8: fb2d             .word 0xfb2d
0163d9: f518             .word 0xf518
0163da: e447             .word 0xe447
0163db: d2be             .word 0xd2be
0163dc: b8bd             .word 0xb8bd
0163dd: ba33             .word 0xba33
0163de: c8e5             .word 0xc8e5
0163df: e5f3             .word 0xe5f3
0163e0: e38a             .word 0xe38a
0163e1: d3c9             .word 0xd3c9
0163e2: c556             .word 0xc556
0163e3: aeb3             .word 0xaeb3
0163e4: ce50             .word 0xce50
0163e5: d5ab             .word 0xd5ab
0163e6: e706             .word 0xe706
0163e7: fdb8             .word 0xfdb8
0163e8: e738             .word 0xe738
0163e9: e3fe             .word 0xe3fe
0163ea: d13f             .word 0xd13f
0163eb: d212             .word 0xd212
0163ec: e80e             .word 0xe80e
0163ed: eaed             .word 0xeaed
0163ee: f540             .word 0xf540
0163ef: f790             .word 0xf790
0163f0: fec4             .word 0xfec4
0163f1: f08e             .word 0xf08e
0163f2: dedd             .word 0xdedd
0163f3: ee28             .word 0xee28
0163f4: f921             .word 0xf921
0163f5: 01b7             .word 0x01b7
0163f6: 0b94             .word 0x0b94
0163f7: 271a             .word 0x271a
0163f8: 25bf             .word 0x25bf
0163f9: 15aa             .word 0x15aa
0163fa: 130d             .word 0x130d
0163fb: 0631             .word 0x0631
0163fc: fe5e             .word 0xfe5e
0163fd: f32a             .word 0xf32a
0163fe: ff16             .word 0xff16
0163ff: 0473             .word 0x0473
016400: 0001             .word 0x0001
016401: f51c             .word 0xf51c
016402: f076             .word 0xf076
016403: 05ba             .word 0x05ba
016404: 189d             .word 0x189d
016405: 2085             .word 0x2085
016406: 116f             .word 0x116f
016407: 2567             .word 0x2567
016408: 31e8             .word 0x31e8
016409: 1dc4             .word 0x1dc4
01640a: 2dfd             .word 0x2dfd
01640b: 3e4f             .word 0x3e4f
01640c: 3e0c             .word 0x3e0c
01640d: 3091             .word 0x3091
01640e: 146b             .word 0x146b
01640f: 1317             .word 0x1317
016410: 1b15             .word 0x1b15
016411: 191c             .word 0x191c
016412: 1f9c             .word 0x1f9c
016413: 1b77             .word 0x1b77
016414: ffab             .word 0xffab
016415: fed7             .word 0xfed7
016416: 27fd             .word 0x27fd
016417: 172d             .word 0x172d
016418: f606             .word 0xf606
016419: ee7e             .word 0xee7e
01641a: f02a             .word 0xf02a
01641b: 0d03             .word 0x0d03
01641c: 2c28             .word 0x2c28
01641d: 3cec             .word 0x3cec
01641e: 20c0             .word 0x20c0
01641f: 2977             .word 0x2977
016420: 23a5             .word 0x23a5
016421: 0205             .word 0x0205
016422: 1331             .word 0x1331
016423: 0106             .word 0x0106
016424: f6f5             .word 0xf6f5
016425: 06ff             .word 0x06ff
016426: f054             .word 0xf054
016427: ca4a             .word 0xca4a
016428: d1da             .word 0xd1da
016429: e53d             .word 0xe53d
01642a: e26a             .word 0xe26a
01642b: e121             .word 0xe121
01642c: e58e             .word 0xe58e
01642d: e6af             .word 0xe6af
01642e: d975             .word 0xd975
01642f: d92a             .word 0xd92a
016430: d516             .word 0xd516
016431: cd83             .word 0xcd83
016432: c384             .word 0xc384
016433: b2f4             .word 0xb2f4
016434: aa9b             .word 0xaa9b
016435: b006             .word 0xb006
016436: ab5d             .word 0xab5d
016437: acec             .word 0xacec
016438: c604             .word 0xc604
016439: c151             .word 0xc151
01643a: d9dd             .word 0xd9dd
01643b: d81b             .word 0xd81b
01643c: cdfb             .word 0xcdfb
01643d: 0f8a             .word 0x0f8a
01643e: 1f4b             .word 0x1f4b
01643f: 1464             .word 0x1464
016440: 1734             .word 0x1734
016441: 0981             .word 0x0981
016442: 04bb             .word 0x04bb
016443: 2274             .word 0x2274
016444: 2ae1             .word 0x2ae1
016445: 13d4             .word 0x13d4
016446: 3c1a             .word 0x3c1a
016447: 5c4a             .word 0x5c4a
016448: 3e9a             .word 0x3e9a
016449: 3ff5             .word 0x3ff5
01644a: 493e             .word 0x493e
01644b: 3017             .word 0x3017
01644c: 0dd7             .word 0x0dd7
01644d: e293             .word 0xe293
01644e: df43             .word 0xdf43
01644f: fc1e             .word 0xfc1e
016450: 16e8             .word 0x16e8
016451: 2a03             .word 0x2a03
016452: 1993             .word 0x1993
016453: 2a16             .word 0x2a16
016454: 4a7b             .word 0x4a7b
016455: 2cd1             .word 0x2cd1
016456: 1f5b             .word 0x1f5b
016457: 337a             .word 0x337a
016458: 3e2f             .word 0x3e2f
016459: 3772             .word 0x3772
01645a: 1568             .word 0x1568
01645b: 11a4             .word 0x11a4
01645c: 01ce             .word 0x01ce
01645d: f5af             .word 0xf5af
01645e: fd80             .word 0xfd80
01645f: d431             .word 0xd431
016460: cb19             .word 0xcb19
016461: cab3             .word 0xcab3
016462: d302             .word 0xd302
016463: d53a             .word 0xd53a
016464: b6a0             .word 0xb6a0
016465: c147             .word 0xc147
016466: cf58             .word 0xcf58
016467: deb8             .word 0xdeb8
016468: e331             .word 0xe331
016469: dfeb             .word 0xdfeb
01646a: 0010             .word 0x0010
01646b: 0007             .word 0x0007
01646c: 0593             .word 0x0593
01646d: 4325             .word 0x4325
01646e: 3a07             .word 0x3a07
01646f: 26fd             .word 0x26fd
016470: 29ab             .word 0x29ab
016471: 0d0c             .word 0x0d0c
016472: fc49             .word 0xfc49
016473: e222             .word 0xe222
016474: e614             .word 0xe614
016475: e80c             .word 0xe80c
016476: f2ee             .word 0xf2ee
016477: 081d             .word 0x081d
016478: fc14             .word 0xfc14
016479: eea2             .word 0xeea2
01647a: ee4f             .word 0xee4f
01647b: f6e9             .word 0xf6e9
01647c: eaf1             .word 0xeaf1
01647d: ee71             .word 0xee71
01647e: e64b             .word 0xe64b
01647f: d8f2             .word 0xd8f2
016480: d4e0             .word 0xd4e0
016481: ee70             .word 0xee70
016482: 0a0d             .word 0x0a0d
016483: 0eef             .word 0x0eef
016484: 293f             .word 0x293f
016485: 077e             .word 0x077e
016486: e910             .word 0xe910
016487: e59a             .word 0xe59a
016488: e763             .word 0xe763
016489: efe7             .word 0xefe7
01648a: f32a             .word 0xf32a
01648b: f71c             .word 0xf71c
01648c: df28             .word 0xdf28
01648d: efb9             .word 0xefb9
01648e: ff22             .word 0xff22
01648f: ea67             .word 0xea67
016490: ecf8             .word 0xecf8
016491: ff15             .word 0xff15
016492: f877             .word 0xf877
016493: f72d             .word 0xf72d
016494: 12c5             .word 0x12c5
016495: 2f5d             .word 0x2f5d
016496: 2cd1             .word 0x2cd1
016497: 17f0             .word 0x17f0
016498: 33a4             .word 0x33a4
016499: 4438             .word 0x4438
01649a: 347c             .word 0x347c
01649b: 2f0d             .word 0x2f0d
01649c: 3f10             .word 0x3f10
01649d: 3d94             .word 0x3d94
01649e: 3d4f             .word 0x3d4f
01649f: 3648             .word 0x3648
0164a0: 0693             .word 0x0693
0164a1: 128b             .word 0x128b
0164a2: 1613             .word 0x1613
0164a3: 15d7             .word 0x15d7
0164a4: 2b41             .word 0x2b41
0164a5: 147c             .word 0x147c
0164a6: 0bac             .word 0x0bac
0164a7: 1a27             .word 0x1a27
0164a8: 1cb4             .word 0x1cb4
0164a9: 0ed0             .word 0x0ed0
0164aa: ff3e             .word 0xff3e
0164ab: 0258             .word 0x0258
0164ac: 1561             .word 0x1561
0164ad: 0848             .word 0x0848
0164ae: f768             .word 0xf768
0164af: eea3             .word 0xeea3
0164b0: 00d2             .word 0x00d2
0164b1: fe8f             .word 0xfe8f
0164b2: d0a3             .word 0xd0a3
0164b3: be15             .word 0xbe15
0164b4: b103             .word 0xb103
0164b5: d39d             .word 0xd39d
0164b6: c5a2             .word 0xc5a2
0164b7: b7d6             .word 0xb7d6
0164b8: d60b             .word 0xd60b
0164b9: d674             .word 0xd674
0164ba: e0cc             .word 0xe0cc
0164bb: b7b3             .word 0xb7b3
0164bc: c199             .word 0xc199
0164bd: de13             .word 0xde13
0164be: df0c             .word 0xdf0c
0164bf: ea14             .word 0xea14
0164c0: d0af             .word 0xd0af
0164c1: ddab             .word 0xddab
0164c2: e90c             .word 0xe90c
0164c3: d873             .word 0xd873
0164c4: ee2a             .word 0xee2a
0164c5: f7f2             .word 0xf7f2
0164c6: f857             .word 0xf857
0164c7: 17f2             .word 0x17f2
0164c8: 04f2             .word 0x04f2
0164c9: fe31             .word 0xfe31
0164ca: 0669             .word 0x0669
0164cb: eec9             .word 0xeec9
0164cc: f446             .word 0xf446
0164cd: 0863             .word 0x0863
0164ce: 25f7             .word 0x25f7
0164cf: 2571             .word 0x2571
0164d0: 2517             .word 0x2517
0164d1: 0f7f             .word 0x0f7f
0164d2: f550             .word 0xf550
0164d3: e513             .word 0xe513
0164d4: de71             .word 0xde71
0164d5: 0c0e             .word 0x0c0e
0164d6: 0c2d             .word 0x0c2d
0164d7: 0026             .word 0x0026
0164d8: fca1             .word 0xfca1
0164d9: 18bd             .word 0x18bd
0164da: 2105             .word 0x2105
0164db: 0fa8             .word 0x0fa8
0164dc: 2143             .word 0x2143
0164dd: 2674             .word 0x2674
0164de: 4d06             .word 0x4d06
0164df: 3f03             .word 0x3f03
0164e0: 2c6f             .word 0x2c6f
0164e1: 4052             .word 0x4052
0164e2: 2943             .word 0x2943
0164e3: 1a5d             .word 0x1a5d
0164e4: 2b3c             .word 0x2b3c
0164e5: 22ff             .word 0x22ff
0164e6: fe44             .word 0xfe44
0164e7: f9f0             .word 0xf9f0
0164e8: f279             .word 0xf279
0164e9: eae0             .word 0xeae0
0164ea: d8b7             .word 0xd8b7
0164eb: da4a             .word 0xda4a
0164ec: e068             .word 0xe068
0164ed: e011             .word 0xe011
0164ee: f510             .word 0xf510
0164ef: 0289             .word 0x0289
0164f0: 23ba             .word 0x23ba
0164f1: 17a2             .word 0x17a2
0164f2: 2456             .word 0x2456
0164f3: 30b2             .word 0x30b2
0164f4: 0df0             .word 0x0df0
0164f5: 162e             .word 0x162e
0164f6: 0ef9             .word 0x0ef9
0164f7: 04cf             .word 0x04cf
0164f8: 02a6             .word 0x02a6
0164f9: 0e34             .word 0x0e34
0164fa: 1db0             .word 0x1db0
0164fb: 0c74             .word 0x0c74
0164fc: fc2f             .word 0xfc2f
0164fd: f54c             .word 0xf54c
0164fe: 0008             .word 0x0008
0164ff: 11aa             .word 0x11aa
016500: 1196             .word 0x1196
016501: 20c4             .word 0x20c4
016502: 1847             .word 0x1847
016503: f214             .word 0xf214
016504: ed4c             .word 0xed4c
016505: e59f             .word 0xe59f
016506: e1fd             .word 0xe1fd
016507: e525             .word 0xe525
016508: e5cb             .word 0xe5cb
016509: e224             .word 0xe224
01650a: d9db             .word 0xd9db
01650b: dcb5             .word 0xdcb5
01650c: ceb8             .word 0xceb8
01650d: dbff             .word 0xdbff
01650e: ea2a             .word 0xea2a
01650f: da59             .word 0xda59
016510: e6f8             .word 0xe6f8
016511: df1e             .word 0xdf1e
016512: e037             .word 0xe037
016513: e16c             .word 0xe16c
016514: c791             .word 0xc791
016515: e807             .word 0xe807
016516: f990             .word 0xf990
016517: f10a             .word 0xf10a
016518: db46             .word 0xdb46
016519: cad5             .word 0xcad5
01651a: dbd5             .word 0xdbd5
01651b: dcaf             .word 0xdcaf
01651c: df6c             .word 0xdf6c
01651d: d77d             .word 0xd77d
01651e: f6f0             .word 0xf6f0
01651f: 133b             .word 0x133b
016520: 1d38             .word 0x1d38
016521: 3b64             .word 0x3b64
016522: 434f             .word 0x434f
016523: 3b4f             .word 0x3b4f
016524: 0e1e             .word 0x0e1e
016525: f988             .word 0xf988
016526: 0f04             .word 0x0f04
016527: 22c3             .word 0x22c3
016528: 1353             .word 0x1353
016529: 14e5             .word 0x14e5
01652a: 327d             .word 0x327d
01652b: 3136             .word 0x3136
01652c: 2015             .word 0x2015
01652d: f78e             .word 0xf78e
01652e: f12e             .word 0xf12e
01652f: ee69             .word 0xee69
016530: f973             .word 0xf973
016531: 14af             .word 0x14af
016532: 03e2             .word 0x03e2
016533: fd89             .word 0xfd89
016534: 0f32             .word 0x0f32
016535: 166a             .word 0x166a
016536: 0f13             .word 0x0f13
016537: 30cb             .word 0x30cb
016538: 2061             .word 0x2061
016539: f9af             .word 0xf9af
01653a: 0a06             .word 0x0a06
01653b: 0774             .word 0x0774
01653c: 1138             .word 0x1138
01653d: 12ba             .word 0x12ba
01653e: 1f99             .word 0x1f99
01653f: 2a12             .word 0x2a12
016540: 198b             .word 0x198b
016541: 14a6             .word 0x14a6
016542: 19bc             .word 0x19bc
016543: 2b1d             .word 0x2b1d
016544: 14ed             .word 0x14ed
016545: 0089             .word 0x0089
016546: 02bf             .word 0x02bf
016547: eb4b             .word 0xeb4b
016548: dcea             .word 0xdcea
016549: f029             .word 0xf029
01654a: ffe7             .word 0xffe7
01654b: f637             .word 0xf637
01654c: ec74             .word 0xec74
01654d: f3d9             .word 0xf3d9
01654e: f64f             .word 0xf64f
01654f: ef65             .word 0xef65
016550: f719             .word 0xf719
016551: f7bc             .word 0xf7bc
016552: 020b             .word 0x020b
016553: f87d             .word 0xf87d
016554: e0b6             .word 0xe0b6
016555: e0ef             .word 0xe0ef
016556: d067             .word 0xd067
016557: d51d             .word 0xd51d
016558: d779             .word 0xd779
016559: d3f1             .word 0xd3f1
01655a: ef86             .word 0xef86
01655b: 0665             .word 0x0665
01655c: ff34             .word 0xff34
01655d: f1a7             .word 0xf1a7
01655e: e4d3             .word 0xe4d3
01655f: d2ae             .word 0xd2ae
016560: db6b             .word 0xdb6b
016561: eeb8             .word 0xeeb8
016562: 029e             .word 0x029e
016563: ff38             .word 0xff38
016564: f2a5             .word 0xf2a5
016565: ed08             .word 0xed08
016566: f219             .word 0xf219
016567: e821             .word 0xe821
016568: ddd9             .word 0xddd9
016569: 082e             .word 0x082e
01656a: 0de6             .word 0x0de6
01656b: 1e26             .word 0x1e26
01656c: 33aa             .word 0x33aa
01656d: 36f2             .word 0x36f2
01656e: 2d0c             .word 0x2d0c
01656f: fc87             .word 0xfc87
016570: f7bd             .word 0xf7bd
016571: ec46             .word 0xec46
016572: eeaf             .word 0xeeaf
016573: 03e4             .word 0x03e4
016574: 0e6d             .word 0x0e6d
016575: 1972             .word 0x1972
016576: 13fe             .word 0x13fe
016577: 2276             .word 0x2276
016578: 169a             .word 0x169a
016579: 0352             .word 0x0352
01657a: 0e9f             .word 0x0e9f
01657b: 0f9d             .word 0x0f9d
01657c: 101e             .word 0x101e
01657d: 12fb             .word 0x12fb
01657e: 07f7             .word 0x07f7
01657f: 0439             .word 0x0439
016580: ffa5             .word 0xffa5
016581: e1c6             .word 0xe1c6
016582: eb92             .word 0xeb92
016583: 15e2             .word 0x15e2
016584: 03cb             .word 0x03cb
016585: 0512             .word 0x0512
016586: 0fc4             .word 0x0fc4
016587: f443             .word 0xf443
016588: 03eb             .word 0x03eb
016589: f7e2             .word 0xf7e2
01658a: fe03             .word 0xfe03
01658b: 0a8f             .word 0x0a8f
01658c: eb5a             .word 0xeb5a
01658d: 02fe             .word 0x02fe
01658e: 117e             .word 0x117e
01658f: f725             .word 0xf725
016590: df30             .word 0xdf30
016591: 0526             .word 0x0526
016592: 2619             .word 0x2619
016593: f4be             .word 0xf4be
016594: d6ab             .word 0xd6ab
016595: ef1a             .word 0xef1a
016596: 048c             .word 0x048c
016597: 04e1             .word 0x04e1
016598: 0943             .word 0x0943
016599: f97d             .word 0xf97d
01659a: fa6a             .word 0xfa6a
01659b: 1209             .word 0x1209
01659c: 1045             .word 0x1045
01659d: 18e2             .word 0x18e2
01659e: 23a9             .word 0x23a9
01659f: 27d2             .word 0x27d2
0165a0: 261a             .word 0x261a
0165a1: 18de             .word 0x18de
0165a2: 11f6             .word 0x11f6
0165a3: 0352             .word 0x0352
0165a4: 0b9a             .word 0x0b9a
0165a5: 15ea             .word 0x15ea
0165a6: 031d             .word 0x031d
0165a7: fb59             .word 0xfb59
0165a8: efd0             .word 0xefd0
0165a9: ebb3             .word 0xebb3
0165aa: d9ef             .word 0xd9ef
0165ab: d7b1             .word 0xd7b1
0165ac: ec89             .word 0xec89
0165ad: ffd4             .word 0xffd4
0165ae: 09d1             .word 0x09d1
0165af: e8c8             .word 0xe8c8
0165b0: ed4e             .word 0xed4e
0165b1: ec8b             .word 0xec8b
0165b2: e84f             .word 0xe84f
0165b3: edca             .word 0xedca
0165b4: fc5e             .word 0xfc5e
0165b5: 1c34             .word 0x1c34
0165b6: 060d             .word 0x060d
0165b7: f464             .word 0xf464
0165b8: d899             .word 0xd899
0165b9: d1b8             .word 0xd1b8
0165ba: cc8f             .word 0xcc8f
0165bb: c8c9             .word 0xc8c9
0165bc: f1ed             .word 0xf1ed
0165bd: f067             .word 0xf067
0165be: e59e             .word 0xe59e
0165bf: df4d             .word 0xdf4d
0165c0: e027             .word 0xe027
0165c1: f170             .word 0xf170
0165c2: f259             .word 0xf259
0165c3: eafc             .word 0xeafc
0165c4: d784             .word 0xd784
0165c5: ca40             .word 0xca40
0165c6: fee4             .word 0xfee4
0165c7: 193d             .word 0x193d
0165c8: 2f91             .word 0x2f91
0165c9: 5935             .word 0x5935
0165ca: 44af             .word 0x44af
0165cb: 44f7             .word 0x44f7
0165cc: 3311             .word 0x3311
0165cd: 3c36             .word 0x3c36
0165ce: 3cc0             .word 0x3cc0
0165cf: 2a98             .word 0x2a98
0165d0: 264f             .word 0x264f
0165d1: 02ce             .word 0x02ce
0165d2: 1c01             .word 0x1c01
0165d3: 06af             .word 0x06af
0165d4: fa87             .word 0xfa87
0165d5: 0df2             .word 0x0df2
0165d6: f4dc             .word 0xf4dc
0165d7: f695             .word 0xf695
0165d8: 110c             .word 0x110c
0165d9: 0305             .word 0x0305
0165da: dbb2             .word 0xdbb2
0165db: ecbc             .word 0xecbc
0165dc: f5a1             .word 0xf5a1
0165dd: fd00             .word 0xfd00
0165de: e35b             .word 0xe35b
0165df: de0e             .word 0xde0e
0165e0: edce             .word 0xedce
0165e1: e829             .word 0xe829
0165e2: 23d8             .word 0x23d8
0165e3: 32f2             .word 0x32f2
0165e4: 2eab             .word 0x2eab
0165e5: 1b45             .word 0x1b45
0165e6: 0179             .word 0x0179
0165e7: 021e             .word 0x021e
0165e8: fc5a             .word 0xfc5a
0165e9: 0ccd             .word 0x0ccd
0165ea: 0100             .word 0x0100
0165eb: 159c             .word 0x159c
0165ec: 0092             .word 0x0092
0165ed: c754             .word 0xc754
0165ee: df42             .word 0xdf42
0165ef: cdb7             .word 0xcdb7
0165f0: db50             .word 0xdb50
0165f1: f607             .word 0xf607
0165f2: ebca             .word 0xebca
0165f3: 0c2d             .word 0x0c2d
0165f4: fbd9             .word 0xfbd9
0165f5: f7ae             .word 0xf7ae
0165f6: fb7f             .word 0xfb7f
0165f7: 01a3             .word 0x01a3
0165f8: 2140             .word 0x2140
0165f9: 0b62             .word 0x0b62
0165fa: 0c21             .word 0x0c21
0165fb: 13b2             .word 0x13b2
0165fc: 10da             .word 0x10da
0165fd: fa09             .word 0xfa09
0165fe: eecf             .word 0xeecf
0165ff: f95f             .word 0xf95f
016600: d960             .word 0xd960
016601: e463             .word 0xe463
016602: ec30             .word 0xec30
016603: de3a             .word 0xde3a
016604: ea3f             .word 0xea3f
016605: f487             .word 0xf487
016606: f806             .word 0xf806
016607: e96b             .word 0xe96b
016608: e5eb             .word 0xe5eb
016609: ea12             .word 0xea12
01660a: 01eb             .word 0x01eb
01660b: 0e60             .word 0x0e60
01660c: f26a             .word 0xf26a
01660d: fdc8             .word 0xfdc8
01660e: 1362             .word 0x1362
01660f: 0f35             .word 0x0f35
016610: fe3b             .word 0xfe3b
016611: fd73             .word 0xfd73
016612: 12b0             .word 0x12b0
016613: 049f             .word 0x049f
016614: 0b60             .word 0x0b60
016615: 2a58             .word 0x2a58
016616: 41d9             .word 0x41d9
016617: 4550             .word 0x4550
016618: 2fcd             .word 0x2fcd
016619: 2f9c             .word 0x2f9c
01661a: 1743             .word 0x1743
01661b: 0b86             .word 0x0b86
01661c: 0c53             .word 0x0c53
01661d: 01cb             .word 0x01cb
01661e: 0e42             .word 0x0e42
01661f: 06a9             .word 0x06a9
016620: fe06             .word 0xfe06
016621: fc98             .word 0xfc98
016622: 0ee6             .word 0x0ee6
016623: 1433             .word 0x1433
016624: f8ef             .word 0xf8ef
016625: 02cf             .word 0x02cf
016626: 0674             .word 0x0674
016627: e842             .word 0xe842
016628: d2ea             .word 0xd2ea
016629: c6af             .word 0xc6af
01662a: beb6             .word 0xbeb6
01662b: cf5c             .word 0xcf5c
01662c: d370             .word 0xd370
01662d: bbd6             .word 0xbbd6
01662e: c9ea             .word 0xc9ea
01662f: df39             .word 0xdf39
016630: d3c8             .word 0xd3c8
016631: d121             .word 0xd121
016632: d395             .word 0xd395
016633: d2f4             .word 0xd2f4
016634: e61d             .word 0xe61d
016635: f959             .word 0xf959
016636: 0e20             .word 0x0e20
016637: 240c             .word 0x240c
016638: 1938             .word 0x1938
016639: 1a70             .word 0x1a70
01663a: 2760             .word 0x2760
01663b: 1983             .word 0x1983
01663c: 28bb             .word 0x28bb
01663d: 24c8             .word 0x24c8
01663e: 053a             .word 0x053a
01663f: 2c9e             .word 0x2c9e
016640: 38f6             .word 0x38f6
016641: 269a             .word 0x269a
016642: 38bf             .word 0x38bf
016643: 3a9b             .word 0x3a9b
016644: 367b             .word 0x367b
016645: 16f5             .word 0x16f5
016646: 171d             .word 0x171d
016647: 3599             .word 0x3599
016648: 2be6             .word 0x2be6
016649: 35b7             .word 0x35b7
01664a: 2d83             .word 0x2d83
01664b: 0e04             .word 0x0e04
01664c: 033f             .word 0x033f
01664d: f9a0             .word 0xf9a0
01664e: f9c5             .word 0xf9c5
01664f: fff5             .word 0xfff5
016650: f9b2             .word 0xf9b2
016651: fe67             .word 0xfe67
016652: fa33             .word 0xfa33
016653: e4a8             .word 0xe4a8
016654: dd35             .word 0xdd35
016655: bf73             .word 0xbf73
016656: 9ce0             .word 0x9ce0
016657: a7f4             .word 0xa7f4
016658: d1ce             .word 0xd1ce
016659: d930             .word 0xd930
01665a: d6d0             .word 0xd6d0
01665b: dca9             .word 0xdca9
01665c: e559             .word 0xe559
01665d: 048b             .word 0x048b
01665e: 0b5a             .word 0x0b5a
01665f: 11ed             .word 0x11ed
016660: 098b             .word 0x098b
016661: 1044             .word 0x1044
016662: 161f             .word 0x161f
016663: f443             .word 0xf443
016664: dee2             .word 0xdee2
016665: c628             .word 0xc628
016666: ce45             .word 0xce45
016667: e402             .word 0xe402
016668: ef5c             .word 0xef5c
016669: eead             .word 0xeead
01666a: fd76             .word 0xfd76
01666b: 0e88             .word 0x0e88
01666c: 0563             .word 0x0563
01666d: 167c             .word 0x167c
01666e: 240b             .word 0x240b
01666f: 18ab             .word 0x18ab
016670: 0d9b             .word 0x0d9b
016671: 1a87             .word 0x1a87
016672: 0849             .word 0x0849
016673: f97e             .word 0xf97e
016674: f94b             .word 0xf94b
016675: f1f0             .word 0xf1f0
016676: 1166             .word 0x1166
016677: 0d14             .word 0x0d14
016678: fd0d             .word 0xfd0d
016679: fbe2             .word 0xfbe2
01667a: 0820             .word 0x0820
01667b: 1d66             .word 0x1d66
01667c: 10a9             .word 0x10a9
01667d: 00f4             .word 0x00f4
01667e: 066c             .word 0x066c
01667f: f83c             .word 0xf83c
016680: e25b             .word 0xe25b
016681: ef38             .word 0xef38
016682: ed48             .word 0xed48
016683: f0dd             .word 0xf0dd
016684: e78f             .word 0xe78f
016685: e3dc             .word 0xe3dc
016686: fd87             .word 0xfd87
016687: fb69             .word 0xfb69
016688: 0262             .word 0x0262
016689: 0053             .word 0x0053
01668a: e91b             .word 0xe91b
01668b: d898             .word 0xd898
01668c: f41e             .word 0xf41e
01668d: 0722             .word 0x0722
01668e: 0dd6             .word 0x0dd6
01668f: 3437             .word 0x3437
016690: 28a4             .word 0x28a4
016691: 273b             .word 0x273b
016692: 38bb             .word 0x38bb
016693: 419a             .word 0x419a
016694: 634a             .word 0x634a
016695: 544c             .word 0x544c
016696: 3891             .word 0x3891
016697: 3c2b             .word 0x3c2b
016698: 3332             .word 0x3332
016699: 1c05             .word 0x1c05
01669a: 071b             .word 0x071b
01669b: 02d6             .word 0x02d6
01669c: f342             .word 0xf342
01669d: f7f1             .word 0xf7f1
01669e: 06af             .word 0x06af
01669f: 05e2             .word 0x05e2
0166a0: 1bcb             .word 0x1bcb
0166a1: 25c4             .word 0x25c4
0166a2: 1db1             .word 0x1db1
0166a3: f6a3             .word 0xf6a3
0166a4: e669             .word 0xe669
0166a5: e020             .word 0xe020
0166a6: cb46             .word 0xcb46
0166a7: e3d2             .word 0xe3d2
0166a8: f05f             .word 0xf05f
0166a9: dac7             .word 0xdac7
0166aa: b56a             .word 0xb56a
0166ab: be78             .word 0xbe78
0166ac: c5eb             .word 0xc5eb
0166ad: bbf9             .word 0xbbf9
0166ae: e710             .word 0xe710
0166af: e8cf             .word 0xe8cf
0166b0: ceb5             .word 0xceb5
0166b1: e526             .word 0xe526
0166b2: e1d3             .word 0xe1d3
0166b3: e4d8             .word 0xe4d8
0166b4: fc03             .word 0xfc03
0166b5: e5ca             .word 0xe5ca
0166b6: 0482             .word 0x0482
0166b7: 0d03             .word 0x0d03
0166b8: f625             .word 0xf625
0166b9: ec15             .word 0xec15
0166ba: d4ec             .word 0xd4ec
0166bb: d80f             .word 0xd80f
0166bc: cb56             .word 0xcb56
0166bd: dac0             .word 0xdac0
0166be: d5e8             .word 0xd5e8
0166bf: e96f             .word 0xe96f
0166c0: fb14             .word 0xfb14
0166c1: dc66             .word 0xdc66
0166c2: f293             .word 0xf293
0166c3: f78d             .word 0xf78d
0166c4: 06cb             .word 0x06cb
0166c5: 1e63             .word 0x1e63
0166c6: 32b0             .word 0x32b0
0166c7: 384e             .word 0x384e
0166c8: 27eb             .word 0x27eb
0166c9: 2a12             .word 0x2a12
0166ca: 1c33             .word 0x1c33
0166cb: 14ea             .word 0x14ea
0166cc: 10ff             .word 0x10ff
0166cd: 2160             .word 0x2160
0166ce: 388d             .word 0x388d
0166cf: 34d3             .word 0x34d3
0166d0: 5471             .word 0x5471
0166d1: 66b1             .word 0x66b1
0166d2: 4ebd             .word 0x4ebd
0166d3: 3dc2             .word 0x3dc2
0166d4: 1c7e             .word 0x1c7e
0166d5: 041f             .word 0x041f
0166d6: 06d6             .word 0x06d6
0166d7: 1385             .word 0x1385
0166d8: 1791             .word 0x1791
0166d9: 15fe             .word 0x15fe
0166da: 2523             .word 0x2523
0166db: 1f06             .word 0x1f06
0166dc: fbba             .word 0xfbba
0166dd: e7a5             .word 0xe7a5
0166de: e12c             .word 0xe12c
0166df: d171             .word 0xd171
0166e0: d095             .word 0xd095
0166e1: d438             .word 0xd438
0166e2: e0a1             .word 0xe0a1
0166e3: e10d             .word 0xe10d
0166e4: cafe             .word 0xcafe
0166e5: c6bc             .word 0xc6bc
0166e6: bb85             .word 0xbb85
0166e7: c660             .word 0xc660
0166e8: d4d7             .word 0xd4d7
0166e9: d827             .word 0xd827
0166ea: f727             .word 0xf727
0166eb: 1636             .word 0x1636
0166ec: 2a6b             .word 0x2a6b
0166ed: 259a             .word 0x259a
0166ee: 025e             .word 0x025e
0166ef: f3d6             .word 0xf3d6
0166f0: ff48             .word 0xff48
0166f1: fe7f             .word 0xfe7f
0166f2: ff2e             .word 0xff2e
0166f3: f4ae             .word 0xf4ae
0166f4: e7b9             .word 0xe7b9
0166f5: e978             .word 0xe978
0166f6: f218             .word 0xf218
0166f7: fa14             .word 0xfa14
0166f8: fe99             .word 0xfe99
0166f9: 1f14             .word 0x1f14
0166fa: 3223             .word 0x3223
0166fb: 25bf             .word 0x25bf
0166fc: 0f37             .word 0x0f37
0166fd: 2310             .word 0x2310
0166fe: 30ab             .word 0x30ab
0166ff: 110c             .word 0x110c
016700: 1126             .word 0x1126
016701: ef8f             .word 0xef8f
016702: e4d5             .word 0xe4d5
016703: f1f8             .word 0xf1f8
016704: fe4c             .word 0xfe4c
016705: 10d8             .word 0x10d8
016706: 0685             .word 0x0685
016707: 28fe             .word 0x28fe
016708: 1f08             .word 0x1f08
016709: 03dc             .word 0x03dc
01670a: f985             .word 0xf985
01670b: e5e8             .word 0xe5e8
01670c: d8ee             .word 0xd8ee
01670d: e1c4             .word 0xe1c4
01670e: 1791             .word 0x1791
01670f: 1fdd             .word 0x1fdd
016710: 1e09             .word 0x1e09
016711: 0a1f             .word 0x0a1f
016712: f429             .word 0xf429
016713: f33a             .word 0xf33a
016714: e642             .word 0xe642
016715: e339             .word 0xe339
016716: e73e             .word 0xe73e
016717: eafd             .word 0xeafd
016718: dd40             .word 0xdd40
016719: eb1a             .word 0xeb1a
01671a: f3d0             .word 0xf3d0
01671b: ffff             .word 0xffff
01671c: fe65             .word 0xfe65
01671d: e7b2             .word 0xe7b2
01671e: f410             .word 0xf410
01671f: 0255             .word 0x0255
016720: 0b7a             .word 0x0b7a
016721: 03d3             .word 0x03d3
016722: 0c21             .word 0x0c21
016723: 0526             .word 0x0526
016724: ff00             .word 0xff00
016725: f277             .word 0xf277
016726: eacd             .word 0xeacd
016727: 0f0f             .word 0x0f0f
016728: 0052             .word 0x0052
016729: fc79             .word 0xfc79
01672a: e6d0             .word 0xe6d0
01672b: de2e             .word 0xde2e
01672c: f8bc             .word 0xf8bc
01672d: df44             .word 0xdf44
01672e: e1ec             .word 0xe1ec
01672f: df62             .word 0xdf62
016730: ebb1             .word 0xebb1
016731: 0072             .word 0x0072
016732: 10f2             .word 0x10f2
016733: 2a89             .word 0x2a89
016734: 190f             .word 0x190f
016735: 1b3c             .word 0x1b3c
016736: 1c8b             .word 0x1c8b
016737: 0f51             .word 0x0f51
016738: f83d             .word 0xf83d
016739: effc             .word 0xeffc
01673a: 005a             .word 0x005a
01673b: 0561             .word 0x0561
01673c: 09cd             .word 0x09cd
01673d: 051a             .word 0x051a
01673e: 0646             .word 0x0646
01673f: 0c06             .word 0x0c06
016740: 1647             .word 0x1647
016741: 09d4             .word 0x09d4
016742: 06bd             .word 0x06bd
016743: 1366             .word 0x1366
016744: 1b22             .word 0x1b22
016745: 1d1a             .word 0x1d1a
016746: 14e6             .word 0x14e6
016747: 3522             .word 0x3522
016748: 419c             .word 0x419c
016749: 32b9             .word 0x32b9
01674a: 260a             .word 0x260a
01674b: 15fb             .word 0x15fb
01674c: 099e             .word 0x099e
01674d: 0c04             .word 0x0c04
01674e: 025e             .word 0x025e
01674f: 0323             .word 0x0323
016750: 1f94             .word 0x1f94
016751: 114f             .word 0x114f
016752: 07f2             .word 0x07f2
016753: f83a             .word 0xf83a
016754: ea0d             .word 0xea0d
016755: ea60             .word 0xea60
016756: d2e8             .word 0xd2e8
016757: bc7d             .word 0xbc7d
016758: dfe4             .word 0xdfe4
016759: f698             .word 0xf698
01675a: de9e             .word 0xde9e
01675b: f558             .word 0xf558
01675c: df6c             .word 0xdf6c
01675d: d4b7             .word 0xd4b7
01675e: e7ff             .word 0xe7ff
01675f: cc5f             .word 0xcc5f
016760: b8e6             .word 0xb8e6
016761: d530             .word 0xd530
016762: fbe3             .word 0xfbe3
016763: f6dd             .word 0xf6dd
016764: fa45             .word 0xfa45
016765: faa5             .word 0xfaa5
016766: ec7a             .word 0xec7a
016767: e02c             .word 0xe02c
016768: f470             .word 0xf470
016769: fb70             .word 0xfb70
01676a: f773             .word 0xf773
01676b: 0a97             .word 0x0a97
01676c: 0fcf             .word 0x0fcf
01676d: f8f5             .word 0xf8f5
01676e: dd7e             .word 0xdd7e
01676f: ebbf             .word 0xebbf
016770: e406             .word 0xe406
016771: fa06             .word 0xfa06
016772: 045b             .word 0x045b
016773: 0efd             .word 0x0efd
016774: 2155             .word 0x2155
016775: 0ad0             .word 0x0ad0
016776: 24c1             .word 0x24c1
016777: 23be             .word 0x23be
016778: 269e             .word 0x269e
016779: 235e             .word 0x235e
01677a: 1fa0             .word 0x1fa0
01677b: 06b4             .word 0x06b4
01677c: da38             .word 0xda38
01677d: ff59             .word 0xff59
01677e: 1bb8             .word 0x1bb8
01677f: 2a62             .word 0x2a62
016780: 2b73             .word 0x2b73
016781: 19d1             .word 0x19d1
016782: 1ee1             .word 0x1ee1
016783: 38dd             .word 0x38dd
016784: 3203             .word 0x3203
016785: 18f9             .word 0x18f9
016786: 13c8             .word 0x13c8
016787: 0f9c             .word 0x0f9c
016788: 0ef6             .word 0x0ef6
016789: 0438             .word 0x0438
01678a: fe1b             .word 0xfe1b
01678b: ef95             .word 0xef95
01678c: dd13             .word 0xdd13
01678d: eb5f             .word 0xeb5f
01678e: 0b28             .word 0x0b28
01678f: 0498             .word 0x0498
016790: f839             .word 0xf839
016791: f44f             .word 0xf44f
016792: f0b9             .word 0xf0b9
016793: f30a             .word 0xf30a
016794: e15e             .word 0xe15e
016795: f7b4             .word 0xf7b4
016796: eb37             .word 0xeb37
016797: dcbf             .word 0xdcbf
016798: ef0d             .word 0xef0d
016799: c8c7             .word 0xc8c7
01679a: ee08             .word 0xee08
01679b: 1687             .word 0x1687
01679c: 0706             .word 0x0706
01679d: 143b             .word 0x143b
01679e: 2805             .word 0x2805
01679f: 3b7f             .word 0x3b7f
0167a0: 2321             .word 0x2321
0167a1: 2df2             .word 0x2df2
0167a2: 2239             .word 0x2239
0167a3: ebbb             .word 0xebbb
0167a4: f52c             .word 0xf52c
0167a5: eddc             .word 0xeddc
0167a6: e78f             .word 0xe78f
0167a7: e25e             .word 0xe25e
0167a8: e682             .word 0xe682
0167a9: eae1             .word 0xeae1
0167aa: ee63             .word 0xee63
0167ab: f205             .word 0xf205
0167ac: d918             .word 0xd918
0167ad: d979             .word 0xd979
0167ae: deee             .word 0xdeee
0167af: fa3e             .word 0xfa3e
0167b0: ec79             .word 0xec79
0167b1: ced4             .word 0xced4
0167b2: d336             .word 0xd336
0167b3: e932             .word 0xe932
0167b4: 1a69             .word 0x1a69
0167b5: 041b             .word 0x041b
0167b6: f092             .word 0xf092
0167b7: 06eb             .word 0x06eb
0167b8: 1689             .word 0x1689
0167b9: 1047             .word 0x1047
0167ba: 09c2             .word 0x09c2
0167bb: 14c2             .word 0x14c2
0167bc: 003f             .word 0x003f
0167bd: 0830             .word 0x0830
0167be: 064c             .word 0x064c
0167bf: f8f5             .word 0xf8f5
0167c0: f584             .word 0xf584
0167c1: e8c0             .word 0xe8c0
0167c2: 0438             .word 0x0438
0167c3: f6ce             .word 0xf6ce
0167c4: ef39             .word 0xef39
0167c5: f12e             .word 0xf12e
0167c6: f1c6             .word 0xf1c6
0167c7: 19ac             .word 0x19ac
0167c8: 1b9c             .word 0x1b9c
0167c9: 32a9             .word 0x32a9
0167ca: 2d01             .word 0x2d01
0167cb: 1997             .word 0x1997
0167cc: 2bb2             .word 0x2bb2
0167cd: 2829             .word 0x2829
0167ce: 1bc2             .word 0x1bc2
0167cf: 15dc             .word 0x15dc
0167d0: 183a             .word 0x183a
0167d1: f93c             .word 0xf93c
0167d2: 044a             .word 0x044a
0167d3: 08f6             .word 0x08f6
0167d4: ec9d             .word 0xec9d
0167d5: fc16             .word 0xfc16
0167d6: ffd1             .word 0xffd1
0167d7: fa35             .word 0xfa35
0167d8: fba5             .word 0xfba5
0167d9: 001f             .word 0x001f
0167da: ea0c             .word 0xea0c
0167db: e9fe             .word 0xe9fe
0167dc: f504             .word 0xf504
0167dd: fec7             .word 0xfec7
0167de: 1fe1             .word 0x1fe1
0167df: 190f             .word 0x190f
0167e0: 1927             .word 0x1927
0167e1: 1123             .word 0x1123
0167e2: 0e4f             .word 0x0e4f
0167e3: 1480             .word 0x1480
0167e4: efa4             .word 0xefa4
0167e5: e8c2             .word 0xe8c2
0167e6: f759             .word 0xf759
0167e7: f0a7             .word 0xf0a7
0167e8: e33b             .word 0xe33b
0167e9: fe88             .word 0xfe88
0167ea: ee2c             .word 0xee2c
0167eb: b293             .word 0xb293
0167ec: d539             .word 0xd539
0167ed: e857             .word 0xe857
0167ee: ec5e             .word 0xec5e
0167ef: 0f91             .word 0x0f91
0167f0: 14bd             .word 0x14bd
0167f1: 1759             .word 0x1759
0167f2: 138e             .word 0x138e
0167f3: 04c7             .word 0x04c7
0167f4: ffa8             .word 0xffa8
0167f5: 0fa5             .word 0x0fa5
0167f6: 22e5             .word 0x22e5
0167f7: 26f6             .word 0x26f6
0167f8: 18a4             .word 0x18a4
0167f9: 02f2             .word 0x02f2
0167fa: e4f9             .word 0xe4f9
0167fb: cf6d             .word 0xcf6d
0167fc: cfb5             .word 0xcfb5
0167fd: eade             .word 0xeade
0167fe: 06c6             .word 0x06c6
0167ff: 039c             .word 0x039c
016800: 09e1             .word 0x09e1
016801: f97c             .word 0xf97c
016802: f178             .word 0xf178
016803: f200             .word 0xf200
016804: e352             .word 0xe352
016805: f778             .word 0xf778
016806: f8df             .word 0xf8df
016807: f3f9             .word 0xf3f9
016808: 00e0             .word 0x00e0
016809: 0910             .word 0x0910
01680a: 1151             .word 0x1151
01680b: 2253             .word 0x2253
01680c: 2f08             .word 0x2f08
01680d: 0be9             .word 0x0be9
01680e: f3f4             .word 0xf3f4
01680f: f8db             .word 0xf8db
016810: f5a1             .word 0xf5a1
016811: 0b8f             .word 0x0b8f
016812: fbcc             .word 0xfbcc
016813: f3c3             .word 0xf3c3
016814: 058b             .word 0x058b
016815: e2a9             .word 0xe2a9
016816: e0a5             .word 0xe0a5
016817: f23d             .word 0xf23d
016818: f8e7             .word 0xf8e7
016819: 0e92             .word 0x0e92
01681a: 12fe             .word 0x12fe
01681b: f75f             .word 0xf75f
01681c: 0075             .word 0x0075
01681d: 1aaa             .word 0x1aaa
01681e: 08d5             .word 0x08d5
01681f: fc42             .word 0xfc42
016820: 11d1             .word 0x11d1
016821: 2d29             .word 0x2d29
016822: 1a2c             .word 0x1a2c
016823: 0f7c             .word 0x0f7c
016824: 1168             .word 0x1168
016825: 07ca             .word 0x07ca
016826: ef45             .word 0xef45
016827: f76e             .word 0xf76e
016828: 1483             .word 0x1483
016829: f891             .word 0xf891
01682a: 070c             .word 0x070c
01682b: 0086             .word 0x0086
01682c: ec81             .word 0xec81
01682d: 003f             .word 0x003f
01682e: f91b             .word 0xf91b
01682f: 0731             .word 0x0731
016830: 03dd             .word 0x03dd
016831: f961             .word 0xf961
016832: 05eb             .word 0x05eb
016833: fd83             .word 0xfd83
016834: 0956             .word 0x0956
016835: 1565             .word 0x1565
016836: fb96             .word 0xfb96
016837: d6da             .word 0xd6da
016838: cb27             .word 0xcb27
016839: dd08             .word 0xdd08
01683a: dd10             .word 0xdd10
01683b: eb5a             .word 0xeb5a
01683c: edef             .word 0xedef
01683d: e036             .word 0xe036
01683e: c995             .word 0xc995
01683f: ba3b             .word 0xba3b
016840: d7f5             .word 0xd7f5
016841: d866             .word 0xd866
016842: f0e1             .word 0xf0e1
016843: fc26             .word 0xfc26
016844: f933             .word 0xf933
016845: 1706             .word 0x1706
016846: 2148             .word 0x2148
016847: 20ea             .word 0x20ea
016848: 1777             .word 0x1777
016849: 1a43             .word 0x1a43
01684a: 20b7             .word 0x20b7
01684b: 3c0b             .word 0x3c0b
01684c: 533b             .word 0x533b
01684d: 66ec             .word 0x66ec
01684e: 5e83             .word 0x5e83
01684f: 34ef             .word 0x34ef
016850: 23ce             .word 0x23ce
016851: 0c65             .word 0x0c65
016852: fea3             .word 0xfea3
016853: 07b8             .word 0x07b8
016854: 1637             .word 0x1637
016855: 0494             .word 0x0494
016856: 088c             .word 0x088c
016857: 2541             .word 0x2541
016858: 31ef             .word 0x31ef
016859: 20da             .word 0x20da
01685a: f19a             .word 0xf19a
01685b: f335             .word 0xf335
01685c: ef7f             .word 0xef7f
01685d: e04c             .word 0xe04c
01685e: e4d8             .word 0xe4d8
01685f: e40e             .word 0xe40e
016860: ea81             .word 0xea81
016861: f87c             .word 0xf87c
016862: e5dd             .word 0xe5dd
016863: d1dc             .word 0xd1dc
016864: de32             .word 0xde32
016865: d6be             .word 0xd6be
016866: ed45             .word 0xed45
016867: f6e4             .word 0xf6e4
016868: e632             .word 0xe632
016869: f746             .word 0xf746
01686a: eadb             .word 0xeadb
01686b: c4b0             .word 0xc4b0
01686c: dade             .word 0xdade
01686d: f865             .word 0xf865
01686e: d728             .word 0xd728
01686f: df21             .word 0xdf21
016870: cdc0             .word 0xcdc0
016871: bc7d             .word 0xbc7d
016872: ddb4             .word 0xddb4
016873: d317             .word 0xd317
016874: f37c             .word 0xf37c
016875: 0509             .word 0x0509
016876: 05b8             .word 0x05b8
016877: 171e             .word 0x171e
016878: 09bf             .word 0x09bf
016879: 1ad7             .word 0x1ad7
01687a: 2c39             .word 0x2c39
01687b: 3129             .word 0x3129
01687c: 3184             .word 0x3184
01687d: 360e             .word 0x360e
01687e: 3666             .word 0x3666
01687f: 24e3             .word 0x24e3
016880: 1864             .word 0x1864
016881: 06d9             .word 0x06d9
016882: 10fb             .word 0x10fb
016883: 232d             .word 0x232d
016884: 2f0f             .word 0x2f0f
016885: 2528             .word 0x2528
016886: 0fa1             .word 0x0fa1
016887: 21fa             .word 0x21fa
016888: 0d80             .word 0x0d80
016889: 03aa             .word 0x03aa
01688a: 1a28             .word 0x1a28
01688b: 0793             .word 0x0793
01688c: f991             .word 0xf991
01688d: ef7d             .word 0xef7d
01688e: ea8d             .word 0xea8d
01688f: f278             .word 0xf278
016890: f484             .word 0xf484
016891: e645             .word 0xe645
016892: d92a             .word 0xd92a
016893: dbc1             .word 0xdbc1
016894: d76d             .word 0xd76d
016895: cdf1             .word 0xcdf1
016896: df20             .word 0xdf20
016897: e9c7             .word 0xe9c7
016898: d58b             .word 0xd58b
016899: d5a8             .word 0xd5a8
01689a: e637             .word 0xe637
01689b: f250             .word 0xf250
01689c: f707             .word 0xf707
01689d: f6fe             .word 0xf6fe
01689e: e77a             .word 0xe77a
01689f: ef2b             .word 0xef2b
0168a0: e80f             .word 0xe80f
0168a1: e42e             .word 0xe42e
0168a2: 0f07             .word 0x0f07
0168a3: f67c             .word 0xf67c
0168a4: eb11             .word 0xeb11
0168a5: ff97             .word 0xff97
0168a6: 1d81             .word 0x1d81
0168a7: 2419             .word 0x2419
0168a8: 0a89             .word 0x0a89
0168a9: 0c26             .word 0x0c26
0168aa: f98b             .word 0xf98b
0168ab: 1990             .word 0x1990
0168ac: 29b6             .word 0x29b6
0168ad: 3272             .word 0x3272
0168ae: 3b73             .word 0x3b73
0168af: 1104             .word 0x1104
0168b0: 1bec             .word 0x1bec
0168b1: 1a32             .word 0x1a32
0168b2: 0ff7             .word 0x0ff7
0168b3: 031a             .word 0x031a
0168b4: f9c4             .word 0xf9c4
0168b5: 188a             .word 0x188a
0168b6: 078d             .word 0x078d
0168b7: f87e             .word 0xf87e
0168b8: 15c4             .word 0x15c4
0168b9: 1859             .word 0x1859
0168ba: 062e             .word 0x062e
0168bb: fe2b             .word 0xfe2b
0168bc: fd32             .word 0xfd32
0168bd: 09ef             .word 0x09ef
0168be: 0a7e             .word 0x0a7e
0168bf: 0fad             .word 0x0fad
0168c0: 1700             .word 0x1700
0168c1: 078e             .word 0x078e
0168c2: 112c             .word 0x112c
0168c3: 0338             .word 0x0338
0168c4: eb73             .word 0xeb73
0168c5: e76b             .word 0xe76b
0168c6: f09d             .word 0xf09d
0168c7: 03d5             .word 0x03d5
0168c8: f875             .word 0xf875
0168c9: 009b             .word 0x009b
0168ca: 0a1b             .word 0x0a1b
0168cb: 18a5             .word 0x18a5
0168cc: 1495             .word 0x1495
0168cd: 0c45             .word 0x0c45
0168ce: 2493             .word 0x2493
0168cf: 222d             .word 0x222d
0168d0: 2807             .word 0x2807
0168d1: 19c4             .word 0x19c4
0168d2: 1377             .word 0x1377
0168d3: 1118             .word 0x1118
0168d4: eba2             .word 0xeba2
0168d5: d64c             .word 0xd64c
0168d6: cf20             .word 0xcf20
0168d7: c52e             .word 0xc52e
0168d8: c21e             .word 0xc21e
0168d9: cd3a             .word 0xcd3a
0168da: c179             .word 0xc179
0168db: c59c             .word 0xc59c
0168dc: d369             .word 0xd369
0168dd: e205             .word 0xe205
0168de: 0fe6             .word 0x0fe6
0168df: 26f6             .word 0x26f6
0168e0: 2048             .word 0x2048
0168e1: 117d             .word 0x117d
0168e2: fcd3             .word 0xfcd3
0168e3: 1460             .word 0x1460
0168e4: 30b5             .word 0x30b5
0168e5: 172f             .word 0x172f
0168e6: 1c42             .word 0x1c42
0168e7: 1200             .word 0x1200
0168e8: f94a             .word 0xf94a
0168e9: fe53             .word 0xfe53
0168ea: f0f2             .word 0xf0f2
0168eb: e9c4             .word 0xe9c4
0168ec: d75c             .word 0xd75c
0168ed: d8e8             .word 0xd8e8
0168ee: df22             .word 0xdf22
0168ef: bdf3             .word 0xbdf3
0168f0: b5ca             .word 0xb5ca
0168f1: b6ff             .word 0xb6ff
0168f2: a413             .word 0xa413
0168f3: ac40             .word 0xac40
0168f4: d56b             .word 0xd56b
0168f5: f077             .word 0xf077
0168f6: fb9b             .word 0xfb9b
0168f7: 0807             .word 0x0807
0168f8: ed03             .word 0xed03
0168f9: d485             .word 0xd485
0168fa: fc48             .word 0xfc48
0168fb: 01bd             .word 0x01bd
0168fc: f5e1             .word 0xf5e1
0168fd: 19f6             .word 0x19f6
0168fe: 332e             .word 0x332e
0168ff: 34f6             .word 0x34f6
016900: 2642             .word 0x2642
016901: 36bf             .word 0x36bf
016902: 501c             .word 0x501c
016903: 44b5             .word 0x44b5
016904: 3768             .word 0x3768
016905: 2f22             .word 0x2f22
016906: 4763             .word 0x4763
016907: 3ff4             .word 0x3ff4
016908: 0d82             .word 0x0d82
016909: f7a6             .word 0xf7a6
01690a: fd2b             .word 0xfd2b
01690b: ff79             .word 0xff79
01690c: fb48             .word 0xfb48
01690d: 2862             .word 0x2862
01690e: 3388             .word 0x3388
01690f: 26bd             .word 0x26bd
016910: 30fc             .word 0x30fc
016911: 26b3             .word 0x26b3
016912: 24da             .word 0x24da
016913: 0c13             .word 0x0c13
016914: 051a             .word 0x051a
016915: 0c64             .word 0x0c64
016916: 0890             .word 0x0890
016917: 12e1             .word 0x12e1
016918: 0168             .word 0x0168
016919: f618             .word 0xf618
01691a: f3de             .word 0xf3de
01691b: dd61             .word 0xdd61
01691c: d105             .word 0xd105
01691d: ce5e             .word 0xce5e
01691e: d545             .word 0xd545
01691f: f7a0             .word 0xf7a0
016920: 137d             .word 0x137d
016921: 0260             .word 0x0260
016922: 085a             .word 0x085a
016923: 15c6             .word 0x15c6
016924: f435             .word 0xf435
016925: f68e             .word 0xf68e
016926: f4b1             .word 0xf4b1
016927: ef0c             .word 0xef0c
016928: f8e7             .word 0xf8e7
016929: 026e             .word 0x026e
01692a: 2044             .word 0x2044
01692b: 0b05             .word 0x0b05
01692c: f1a0             .word 0xf1a0
01692d: d5f7             .word 0xd5f7
01692e: d87f             .word 0xd87f
01692f: ea84             .word 0xea84
016930: d0e5             .word 0xd0e5
016931: e525             .word 0xe525
016932: e123             .word 0xe123
016933: d0c1             .word 0xd0c1
016934: ca28             .word 0xca28
016935: c4a1             .word 0xc4a1
016936: e73e             .word 0xe73e
016937: f686             .word 0xf686
016938: f901             .word 0xf901
016939: f271             .word 0xf271
01693a: 0340             .word 0x0340
01693b: 20a3             .word 0x20a3
01693c: 14af             .word 0x14af
01693d: fbe3             .word 0xfbe3
01693e: df8d             .word 0xdf8d
01693f: efdc             .word 0xefdc
016940: 1834             .word 0x1834
016941: 2127             .word 0x2127
016942: 1d05             .word 0x1d05
016943: 2d1d             .word 0x2d1d
016944: 3bdd             .word 0x3bdd
016945: 2816             .word 0x2816
016946: 24fe             .word 0x24fe
016947: 106c             .word 0x106c
016948: 08d4             .word 0x08d4
016949: 0aea             .word 0x0aea
01694a: e9d4             .word 0xe9d4
01694b: e7e3             .word 0xe7e3
01694c: e5c3             .word 0xe5c3
01694d: e6af             .word 0xe6af
01694e: dfa0             .word 0xdfa0
01694f: d3a4             .word 0xd3a4
016950: da2c             .word 0xda2c
016951: e41e             .word 0xe41e
016952: ee85             .word 0xee85
016953: fb1f             .word 0xfb1f
016954: 0981             .word 0x0981
016955: f776             .word 0xf776
016956: ec6c             .word 0xec6c
016957: f6b0             .word 0xf6b0
016958: f4a1             .word 0xf4a1
016959: f39a             .word 0xf39a
01695a: 0d1e             .word 0x0d1e
01695b: 16ad             .word 0x16ad
01695c: 1070             .word 0x1070
01695d: 019b             .word 0x019b
01695e: f9dd             .word 0xf9dd
01695f: 1a47             .word 0x1a47
016960: 2392             .word 0x2392
016961: 1d6f             .word 0x1d6f
016962: 2d30             .word 0x2d30
016963: 42e2             .word 0x42e2
016964: 19c5             .word 0x19c5
016965: 03b5             .word 0x03b5
016966: 0d54             .word 0x0d54
016967: 1d3b             .word 0x1d3b
016968: 4294             .word 0x4294
016969: 1998             .word 0x1998
01696a: 0f14             .word 0x0f14
01696b: 1e20             .word 0x1e20
01696c: 2131             .word 0x2131
01696d: 149f             .word 0x149f
01696e: fa65             .word 0xfa65
01696f: fba2             .word 0xfba2
016970: e5e2             .word 0xe5e2
016971: e07d             .word 0xe07d
016972: f7be             .word 0xf7be
016973: 102c             .word 0x102c
016974: f81e             .word 0xf81e
016975: ee99             .word 0xee99
016976: f63a             .word 0xf63a
016977: f3b0             .word 0xf3b0
016978: 1075             .word 0x1075
016979: 1840             .word 0x1840
01697a: 036a             .word 0x036a
01697b: fc20             .word 0xfc20
01697c: f3b0             .word 0xf3b0
01697d: c354             .word 0xc354
01697e: ce8b             .word 0xce8b
01697f: da63             .word 0xda63
016980: e3dd             .word 0xe3dd
016981: 1e60             .word 0x1e60
016982: 1680             .word 0x1680
016983: 0e13             .word 0x0e13
016984: 17a0             .word 0x17a0
016985: ffd1             .word 0xffd1
016986: f816             .word 0xf816
016987: f7ff             .word 0xf7ff
016988: d6e5             .word 0xd6e5
016989: d451             .word 0xd451
01698a: e774             .word 0xe774
01698b: e7e3             .word 0xe7e3
01698c: e128             .word 0xe128
01698d: e9a4             .word 0xe9a4
01698e: ebf4             .word 0xebf4
01698f: f476             .word 0xf476
016990: 07d4             .word 0x07d4
016991: d538             .word 0xd538
016992: c868             .word 0xc868
016993: cf91             .word 0xcf91
016994: dd33             .word 0xdd33
016995: e3e9             .word 0xe3e9
016996: daab             .word 0xdaab
016997: 0ccd             .word 0x0ccd
016998: 0cc4             .word 0x0cc4
016999: 074c             .word 0x074c
01699a: f03a             .word 0xf03a
01699b: eb47             .word 0xeb47
01699c: 07a6             .word 0x07a6
01699d: f71d             .word 0xf71d
01699e: 15b5             .word 0x15b5
01699f: 200d             .word 0x200d
0169a0: 02af             .word 0x02af
0169a1: 0ad3             .word 0x0ad3
0169a2: 1213             .word 0x1213
0169a3: 1699             .word 0x1699
0169a4: 22d1             .word 0x22d1
0169a5: 20c9             .word 0x20c9
0169a6: 1a4e             .word 0x1a4e
0169a7: 0d9b             .word 0x0d9b
0169a8: 1e0a             .word 0x1e0a
0169a9: 22d6             .word 0x22d6
0169aa: 2301             .word 0x2301
0169ab: 3889             .word 0x3889
0169ac: 1d4b             .word 0x1d4b
0169ad: 03ab             .word 0x03ab
0169ae: f41f             .word 0xf41f
0169af: f7ac             .word 0xf7ac
0169b0: fb8d             .word 0xfb8d
0169b1: fb3b             .word 0xfb3b
0169b2: 06ae             .word 0x06ae
0169b3: 0cd8             .word 0x0cd8
0169b4: 3270             .word 0x3270
0169b5: 5353             .word 0x5353
0169b6: 4cd9             .word 0x4cd9
0169b7: 2d2b             .word 0x2d2b
0169b8: 13dd             .word 0x13dd
0169b9: 1261             .word 0x1261
0169ba: 1ba5             .word 0x1ba5
0169bb: 1381             .word 0x1381
0169bc: 17ac             .word 0x17ac
0169bd: 12a7             .word 0x12a7
0169be: ffdf             .word 0xffdf
0169bf: ffb9             .word 0xffb9
0169c0: 033c             .word 0x033c
0169c1: 0fb5             .word 0x0fb5
0169c2: f2af             .word 0xf2af
0169c3: daea             .word 0xdaea
0169c4: e573             .word 0xe573
0169c5: fc63             .word 0xfc63
0169c6: ef7b             .word 0xef7b
0169c7: cde4             .word 0xcde4
0169c8: dfa0             .word 0xdfa0
0169c9: ed6f             .word 0xed6f
0169ca: fc64             .word 0xfc64
0169cb: f364             .word 0xf364
0169cc: e2e6             .word 0xe2e6
0169cd: e7a5             .word 0xe7a5
0169ce: e86c             .word 0xe86c
0169cf: eb1b             .word 0xeb1b
0169d0: cb7d             .word 0xcb7d
0169d1: bcee             .word 0xbcee
0169d2: d0f8             .word 0xd0f8
0169d3: d0f6             .word 0xd0f6
0169d4: d474             .word 0xd474
0169d5: deba             .word 0xdeba
0169d6: d59d             .word 0xd59d
0169d7: c33c             .word 0xc33c
0169d8: daeb             .word 0xdaeb
0169d9: fbd8             .word 0xfbd8
0169da: ed23             .word 0xed23
0169db: ea24             .word 0xea24
0169dc: ffde             .word 0xffde
0169dd: 07ec             .word 0x07ec
0169de: e843             .word 0xe843
0169df: d8be             .word 0xd8be
0169e0: e5a8             .word 0xe5a8
0169e1: f745             .word 0xf745
0169e2: 01a1             .word 0x01a1
0169e3: f472             .word 0xf472
0169e4: 0e82             .word 0x0e82
0169e5: 1c56             .word 0x1c56
0169e6: 2142             .word 0x2142
0169e7: 2631             .word 0x2631
0169e8: 387c             .word 0x387c
0169e9: 3beb             .word 0x3beb
0169ea: 113a             .word 0x113a
0169eb: 1943             .word 0x1943
0169ec: 0b4f             .word 0x0b4f
0169ed: 19cb             .word 0x19cb
0169ee: 2ffa             .word 0x2ffa
0169ef: 1850             .word 0x1850
0169f0: 2e26             .word 0x2e26
0169f1: 25d0             .word 0x25d0
0169f2: 0ca7             .word 0x0ca7
0169f3: 22d2             .word 0x22d2
0169f4: 2892             .word 0x2892
0169f5: 2040             .word 0x2040
0169f6: 43c4             .word 0x43c4
0169f7: 467c             .word 0x467c
0169f8: 112c             .word 0x112c
0169f9: ec3e             .word 0xec3e
0169fa: f58a             .word 0xf58a
0169fb: fbfb             .word 0xfbfb
0169fc: ee55             .word 0xee55
0169fd: f46d             .word 0xf46d
0169fe: ffed             .word 0xffed
0169ff: 1e1e             .word 0x1e1e
016a00: 2c2f             .word 0x2c2f
016a01: 2ec6             .word 0x2ec6
016a02: 2da4             .word 0x2da4
016a03: 1873             .word 0x1873
016a04: 236e             .word 0x236e
016a05: 2d21             .word 0x2d21
016a06: 17eb             .word 0x17eb
016a07: 0a75             .word 0x0a75
016a08: 03cf             .word 0x03cf
016a09: e9a0             .word 0xe9a0
016a0a: ca97             .word 0xca97
016a0b: b844             .word 0xb844
016a0c: bd73             .word 0xbd73
016a0d: d5bc             .word 0xd5bc
016a0e: dac8             .word 0xdac8
016a0f: cd92             .word 0xcd92
016a10: c341             .word 0xc341
016a11: be35             .word 0xbe35
016a12: be0c             .word 0xbe0c
016a13: b440             .word 0xb440
016a14: bff5             .word 0xbff5
016a15: e31b             .word 0xe31b
016a16: cf49             .word 0xcf49
016a17: b146             .word 0xb146
016a18: d2a1             .word 0xd2a1
016a19: f431             .word 0xf431
016a1a: ea48             .word 0xea48
016a1b: df52             .word 0xdf52
016a1c: df42             .word 0xdf42
016a1d: e3f4             .word 0xe3f4
016a1e: eb88             .word 0xeb88
016a1f: f260             .word 0xf260
016a20: f7d3             .word 0xf7d3
016a21: ff02             .word 0xff02
016a22: 1ad4             .word 0x1ad4
016a23: 20e5             .word 0x20e5
016a24: 1834             .word 0x1834
016a25: 16a5             .word 0x16a5
016a26: 1122             .word 0x1122
016a27: 2a29             .word 0x2a29
016a28: 2dca             .word 0x2dca
016a29: 0a4d             .word 0x0a4d
016a2a: 0282             .word 0x0282
016a2b: fd7e             .word 0xfd7e
016a2c: ed07             .word 0xed07
016a2d: fd99             .word 0xfd99
016a2e: 1264             .word 0x1264
016a2f: 23b2             .word 0x23b2
016a30: 2632             .word 0x2632
016a31: 0f7f             .word 0x0f7f
016a32: 2234             .word 0x2234
016a33: 37b8             .word 0x37b8
016a34: 4517             .word 0x4517
016a35: 43af             .word 0x43af
016a36: 22f7             .word 0x22f7
016a37: 3aa7             .word 0x3aa7
016a38: 3ad8             .word 0x3ad8
016a39: 1c79             .word 0x1c79
016a3a: 269a             .word 0x269a
016a3b: 17e7             .word 0x17e7
016a3c: 11bf             .word 0x11bf
016a3d: 0c17             .word 0x0c17
016a3e: 13b0             .word 0x13b0
016a3f: 3029             .word 0x3029
016a40: 2281             .word 0x2281
016a41: 140c             .word 0x140c
016a42: 036e             .word 0x036e
016a43: 01d4             .word 0x01d4
016a44: 118f             .word 0x118f
016a45: 0a96             .word 0x0a96
016a46: 0aa0             .word 0x0aa0
016a47: 20cc             .word 0x20cc
016a48: 2f3d             .word 0x2f3d
016a49: 21b2             .word 0x21b2
016a4a: f506             .word 0xf506
016a4b: e751             .word 0xe751
016a4c: f69d             .word 0xf69d
016a4d: d078             .word 0xd078
016a4e: db7d             .word 0xdb7d
016a4f: e825             .word 0xe825
016a50: bc7d             .word 0xbc7d
016a51: b795             .word 0xb795
016a52: d35c             .word 0xd35c
016a53: de3b             .word 0xde3b
016a54: be7e             .word 0xbe7e
016a55: e200             .word 0xe200
016a56: ee8b             .word 0xee8b
016a57: d434             .word 0xd434
016a58: d35f             .word 0xd35f
016a59: c67b             .word 0xc67b
016a5a: ce3d             .word 0xce3d
016a5b: c339             .word 0xc339
016a5c: ebe1             .word 0xebe1
016a5d: 0931             .word 0x0931
016a5e: fd86             .word 0xfd86
016a5f: ef95             .word 0xef95
016a60: e281             .word 0xe281
016a61: e982             .word 0xe982
016a62: de85             .word 0xde85
016a63: eaea             .word 0xeaea
016a64: e0ef             .word 0xe0ef
016a65: eeaa             .word 0xeeaa
016a66: fe24             .word 0xfe24
016a67: f5e5             .word 0xf5e5
016a68: 1285             .word 0x1285
016a69: 22fd             .word 0x22fd
016a6a: 19c2             .word 0x19c2
016a6b: 0709             .word 0x0709
016a6c: 032a             .word 0x032a
016a6d: 04d5             .word 0x04d5
016a6e: 1061             .word 0x1061
016a6f: fe18             .word 0xfe18
016a70: 08bd             .word 0x08bd
016a71: 2a38             .word 0x2a38
016a72: 1f3c             .word 0x1f3c
016a73: 100f             .word 0x100f
016a74: 0038             .word 0x0038
016a75: 0129             .word 0x0129
016a76: 03bb             .word 0x03bb
016a77: 0aa1             .word 0x0aa1
016a78: 0219             .word 0x0219
016a79: 0878             .word 0x0878
016a7a: 1619             .word 0x1619
016a7b: 1dd2             .word 0x1dd2
016a7c: 197e             .word 0x197e
016a7d: fe5c             .word 0xfe5c
016a7e: fec0             .word 0xfec0
016a7f: fe6f             .word 0xfe6f
016a80: 0453             .word 0x0453
016a81: ff81             .word 0xff81
016a82: 0d36             .word 0x0d36
016a83: 02c5             .word 0x02c5
016a84: e8cf             .word 0xe8cf
016a85: f71e             .word 0xf71e
016a86: f9fd             .word 0xf9fd
016a87: 1433             .word 0x1433
016a88: 1388             .word 0x1388
016a89: f626             .word 0xf626
016a8a: e92d             .word 0xe92d
016a8b: e8e2             .word 0xe8e2
016a8c: f394             .word 0xf394
016a8d: 0eff             .word 0x0eff
016a8e: 17d6             .word 0x17d6
016a8f: 0d45             .word 0x0d45
016a90: 180f             .word 0x180f
016a91: 0dc5             .word 0x0dc5
016a92: 105e             .word 0x105e
016a93: 1d36             .word 0x1d36
016a94: 2034             .word 0x2034
016a95: 2be6             .word 0x2be6
016a96: 18d1             .word 0x18d1
016a97: 0ff4             .word 0x0ff4
016a98: 24ce             .word 0x24ce
016a99: 1e0f             .word 0x1e0f
016a9a: 20b7             .word 0x20b7
016a9b: 32f6             .word 0x32f6
016a9c: 38a6             .word 0x38a6
016a9d: 2528             .word 0x2528
016a9e: 0c86             .word 0x0c86
016a9f: 08ac             .word 0x08ac
016aa0: f56f             .word 0xf56f
016aa1: f253             .word 0xf253
016aa2: dfff             .word 0xdfff
016aa3: c6b9             .word 0xc6b9
016aa4: d882             .word 0xd882
016aa5: d829             .word 0xd829
016aa6: c275             .word 0xc275
016aa7: c9cb             .word 0xc9cb
016aa8: d7b6             .word 0xd7b6
016aa9: d6d0             .word 0xd6d0
016aaa: d352             .word 0xd352
016aab: c647             .word 0xc647
016aac: d229             .word 0xd229
016aad: e36a             .word 0xe36a
016aae: f517             .word 0xf517
016aaf: f1b8             .word 0xf1b8
016ab0: eeb0             .word 0xeeb0
016ab1: fb67             .word 0xfb67
016ab2: f9dd             .word 0xf9dd
016ab3: 275e             .word 0x275e
016ab4: 301b             .word 0x301b
016ab5: 34c0             .word 0x34c0
016ab6: 51de             .word 0x51de
016ab7: 32d6             .word 0x32d6
016ab8: 23ae             .word 0x23ae
016ab9: 19e5             .word 0x19e5
016aba: fd19             .word 0xfd19
016abb: fa7f             .word 0xfa7f
016abc: 04d4             .word 0x04d4
016abd: f54f             .word 0xf54f
016abe: e410             .word 0xe410
016abf: e71e             .word 0xe71e
016ac0: dfbc             .word 0xdfbc
016ac1: ef67             .word 0xef67
016ac2: feb5             .word 0xfeb5
016ac3: f094             .word 0xf094
016ac4: f031             .word 0xf031
016ac5: eeae             .word 0xeeae
016ac6: ead2             .word 0xead2
016ac7: e77f             .word 0xe77f
016ac8: 0302             .word 0x0302
016ac9: 0b3b             .word 0x0b3b
016aca: e7b9             .word 0xe7b9
016acb: f05a             .word 0xf05a
016acc: 0efa             .word 0x0efa
016acd: 1afe             .word 0x1afe
016ace: 0e17             .word 0x0e17
016acf: 0cbe             .word 0x0cbe
016ad0: ed5c             .word 0xed5c
016ad1: cf5f             .word 0xcf5f
016ad2: ebb4             .word 0xebb4
016ad3: ecb0             .word 0xecb0
016ad4: da64             .word 0xda64
016ad5: dede             .word 0xdede
016ad6: f432             .word 0xf432
016ad7: e897             .word 0xe897
016ad8: f282             .word 0xf282
016ad9: 2639             .word 0x2639
016ada: 3b9c             .word 0x3b9c
016adb: 2310             .word 0x2310
016adc: 1adb             .word 0x1adb
016add: 3291             .word 0x3291
016ade: 0534             .word 0x0534
016adf: 0afa             .word 0x0afa
016ae0: 1c43             .word 0x1c43
016ae1: fa60             .word 0xfa60
016ae2: 1957             .word 0x1957
016ae3: f903             .word 0xf903
016ae4: e102             .word 0xe102
016ae5: 03db             .word 0x03db
016ae6: 1174             .word 0x1174
016ae7: 2b24             .word 0x2b24
016ae8: 2da0             .word 0x2da0
016ae9: 1a98             .word 0x1a98
016aea: f341             .word 0xf341
016aeb: f8cd             .word 0xf8cd
016aec: 16d9             .word 0x16d9
016aed: 2720             .word 0x2720
016aee: 2c16             .word 0x2c16
016aef: 1110             .word 0x1110
016af0: 1501             .word 0x1501
016af1: 0c27             .word 0x0c27
016af2: 0244             .word 0x0244
016af3: f634             .word 0xf634
016af4: f9fd             .word 0xf9fd
016af5: 15ae             .word 0x15ae
016af6: 0ab6             .word 0x0ab6
016af7: 0363             .word 0x0363
016af8: ec7b             .word 0xec7b
016af9: d76c             .word 0xd76c
016afa: d3fb             .word 0xd3fb
016afb: d568             .word 0xd568
016afc: d027             .word 0xd027
016afd: d820             .word 0xd820
016afe: f4a6             .word 0xf4a6
016aff: 05c6             .word 0x05c6
016b00: fc5b             .word 0xfc5b
016b01: d178             .word 0xd178
016b02: ce5a             .word 0xce5a
016b03: de7a             .word 0xde7a
016b04: e1c9             .word 0xe1c9
016b05: e88a             .word 0xe88a
016b06: 0245             .word 0x0245
016b07: 065e             .word 0x065e
016b08: 0a82             .word 0x0a82
016b09: 199c             .word 0x199c
016b0a: 0aaf             .word 0x0aaf
016b0b: 2eb7             .word 0x2eb7
016b0c: 2df1             .word 0x2df1
016b0d: 23da             .word 0x23da
016b0e: 1e13             .word 0x1e13
016b0f: f388             .word 0xf388
016b10: ec2d             .word 0xec2d
016b11: f03b             .word 0xf03b
016b12: 0b2a             .word 0x0b2a
016b13: 080d             .word 0x080d
016b14: 1234             .word 0x1234
016b15: 1097             .word 0x1097
016b16: dd8b             .word 0xdd8b
016b17: d924             .word 0xd924
016b18: ef04             .word 0xef04
016b19: fccc             .word 0xfccc
016b1a: 06fb             .word 0x06fb
016b1b: 16bc             .word 0x16bc
016b1c: 092e             .word 0x092e
016b1d: f136             .word 0xf136
016b1e: e273             .word 0xe273
016b1f: fa68             .word 0xfa68
016b20: 135a             .word 0x135a
016b21: 0454             .word 0x0454
016b22: 09bd             .word 0x09bd
016b23: 0068             .word 0x0068
016b24: da5e             .word 0xda5e
016b25: bb7a             .word 0xbb7a
016b26: b678             .word 0xb678
016b27: d010             .word 0xd010
016b28: f1b6             .word 0xf1b6
016b29: fb9f             .word 0xfb9f
016b2a: 19a1             .word 0x19a1
016b2b: 26c1             .word 0x26c1
016b2c: 0b4b             .word 0x0b4b
016b2d: 13b7             .word 0x13b7
016b2e: 1869             .word 0x1869
016b2f: 0bcf             .word 0x0bcf
016b30: f810             .word 0xf810
016b31: e5ee             .word 0xe5ee
016b32: e8ff             .word 0xe8ff
016b33: f34b             .word 0xf34b
016b34: f768             .word 0xf768
016b35: 0f15             .word 0x0f15
016b36: 288b             .word 0x288b
016b37: 2a5e             .word 0x2a5e
016b38: 1f9e             .word 0x1f9e
016b39: 15ac             .word 0x15ac
016b3a: 0d7b             .word 0x0d7b
016b3b: e628             .word 0xe628
016b3c: e451             .word 0xe451
016b3d: 00bf             .word 0x00bf
016b3e: fefd             .word 0xfefd
016b3f: 11a0             .word 0x11a0
016b40: 18df             .word 0x18df
016b41: fdf8             .word 0xfdf8
016b42: 301d             .word 0x301d
016b43: 36a4             .word 0x36a4
016b44: 046d             .word 0x046d
016b45: 1aa7             .word 0x1aa7
016b46: 0f76             .word 0x0f76
016b47: 191d             .word 0x191d
016b48: 2293             .word 0x2293
016b49: 1ad2             .word 0x1ad2
016b4a: 041b             .word 0x041b
016b4b: fb38             .word 0xfb38
016b4c: 1120             .word 0x1120
016b4d: f9ba             .word 0xf9ba
016b4e: 139e             .word 0x139e
016b4f: 0ba9             .word 0x0ba9
016b50: 0559             .word 0x0559
016b51: 143f             .word 0x143f
016b52: 1934             .word 0x1934
016b53: 2cbd             .word 0x2cbd
016b54: 230a             .word 0x230a
016b55: 2b6e             .word 0x2b6e
016b56: 0780             .word 0x0780
016b57: eea9             .word 0xeea9
016b58: 04ff             .word 0x04ff
016b59: 0197             .word 0x0197
016b5a: ef43             .word 0xef43
016b5b: e1fb             .word 0xe1fb
016b5c: b9ba             .word 0xb9ba
016b5d: 9afd             .word 0x9afd
016b5e: a050             .word 0xa050
016b5f: a9f7             .word 0xa9f7
016b60: c3a0             .word 0xc3a0
016b61: c544             .word 0xc544
016b62: e6f2             .word 0xe6f2
016b63: 0083             .word 0x0083
016b64: ea21             .word 0xea21
016b65: ec96             .word 0xec96
016b66: e83d             .word 0xe83d
016b67: e6e5             .word 0xe6e5
016b68: 00f1             .word 0x00f1
016b69: f3cd             .word 0xf3cd
016b6a: ec0f             .word 0xec0f
016b6b: 1134             .word 0x1134
016b6c: 1466             .word 0x1466
016b6d: 35c8             .word 0x35c8
016b6e: 4c44             .word 0x4c44
016b6f: 3da3             .word 0x3da3
016b70: 3176             .word 0x3176
016b71: 1117             .word 0x1117
016b72: 0e7b             .word 0x0e7b
016b73: 156a             .word 0x156a
016b74: 009d             .word 0x009d
016b75: f691             .word 0xf691
016b76: 11fe             .word 0x11fe
016b77: f062             .word 0xf062
016b78: e22c             .word 0xe22c
016b79: 02bd             .word 0x02bd
016b7a: ff9f             .word 0xff9f
016b7b: 1189             .word 0x1189
016b7c: 01fa             .word 0x01fa
016b7d: f5cd             .word 0xf5cd
016b7e: e360             .word 0xe360
016b7f: df3b             .word 0xdf3b
016b80: e24f             .word 0xe24f
016b81: bad3             .word 0xbad3
016b82: d002             .word 0xd002
016b83: c2f3             .word 0xc2f3
016b84: c45a             .word 0xc45a
016b85: dd51             .word 0xdd51
016b86: d073             .word 0xd073
016b87: fb59             .word 0xfb59
016b88: 0dd9             .word 0x0dd9
016b89: 0b20             .word 0x0b20
016b8a: 0a4d             .word 0x0a4d
016b8b: 1530             .word 0x1530
016b8c: 2576             .word 0x2576
016b8d: 3108             .word 0x3108
016b8e: 3cca             .word 0x3cca
016b8f: 1fac             .word 0x1fac
016b90: 2072             .word 0x2072
016b91: 1c97             .word 0x1c97
016b92: 0df0             .word 0x0df0
016b93: 11da             .word 0x11da
016b94: 1b5f             .word 0x1b5f
016b95: 1c6a             .word 0x1c6a
016b96: 1c47             .word 0x1c47
016b97: 2ccb             .word 0x2ccb
016b98: 2173             .word 0x2173
016b99: 320d             .word 0x320d
016b9a: 1927             .word 0x1927
016b9b: f3e4             .word 0xf3e4
016b9c: 0a64             .word 0x0a64
016b9d: 1c70             .word 0x1c70
016b9e: 2f30             .word 0x2f30
016b9f: 2244             .word 0x2244
016ba0: 1fe5             .word 0x1fe5
016ba1: 2120             .word 0x2120
016ba2: 21ca             .word 0x21ca
016ba3: 26f9             .word 0x26f9
016ba4: 1b86             .word 0x1b86
016ba5: 0d1a             .word 0x0d1a
016ba6: f6e2             .word 0xf6e2
016ba7: feb2             .word 0xfeb2
016ba8: 09b7             .word 0x09b7
016ba9: 04bc             .word 0x04bc
016baa: f018             .word 0xf018
016bab: e2c0             .word 0xe2c0
016bac: d42d             .word 0xd42d
016bad: c4cd             .word 0xc4cd
016bae: d38b             .word 0xd38b
016baf: a9e1             .word 0xa9e1
016bb0: a003             .word 0xa003
016bb1: cdcd             .word 0xcdcd
016bb2: d155             .word 0xd155
016bb3: d575             .word 0xd575
016bb4: ca04             .word 0xca04
016bb5: c445             .word 0xc445
016bb6: cd9c             .word 0xcd9c
016bb7: e66b             .word 0xe66b
016bb8: f071             .word 0xf071
016bb9: e3d5             .word 0xe3d5
016bba: daa6             .word 0xdaa6
016bbb: d185             .word 0xd185
016bbc: f95a             .word 0xf95a
016bbd: 0251             .word 0x0251
016bbe: 0041             .word 0x0041
016bbf: 0e34             .word 0x0e34
016bc0: 26f2             .word 0x26f2
016bc1: 429e             .word 0x429e
016bc2: 3832             .word 0x3832
016bc3: 3790             .word 0x3790
016bc4: 3245             .word 0x3245
016bc5: 2e8b             .word 0x2e8b
016bc6: fddb             .word 0xfddb
016bc7: ec6c             .word 0xec6c
016bc8: f7ed             .word 0xf7ed
016bc9: f3cf             .word 0xf3cf
016bca: 12e5             .word 0x12e5
016bcb: fc84             .word 0xfc84
016bcc: f4be             .word 0xf4be
016bcd: 00c4             .word 0x00c4
016bce: fd1b             .word 0xfd1b
016bcf: 03b7             .word 0x03b7
016bd0: f186             .word 0xf186
016bd1: e483             .word 0xe483
016bd2: df65             .word 0xdf65
016bd3: bb4c             .word 0xbb4c
016bd4: cc11             .word 0xcc11
016bd5: f3db             .word 0xf3db
016bd6: ff75             .word 0xff75
016bd7: 1ba0             .word 0x1ba0
016bd8: fe05             .word 0xfe05
016bd9: 0bd2             .word 0x0bd2
016bda: 1855             .word 0x1855
016bdb: f63f             .word 0xf63f
016bdc: 0a16             .word 0x0a16
016bdd: 0e89             .word 0x0e89
016bde: 0a9c             .word 0x0a9c
016bdf: 1406             .word 0x1406
016be0: 3049             .word 0x3049
016be1: 2e80             .word 0x2e80
016be2: 2c28             .word 0x2c28
016be3: 2d09             .word 0x2d09
016be4: 216b             .word 0x216b
016be5: 2c5c             .word 0x2c5c
016be6: 2889             .word 0x2889
016be7: 3205             .word 0x3205
016be8: 31b8             .word 0x31b8
016be9: 2dc7             .word 0x2dc7
016bea: 2a2a             .word 0x2a2a
016beb: 29f6             .word 0x29f6
016bec: 27a3             .word 0x27a3
016bed: 12f7             .word 0x12f7
016bee: 0c69             .word 0x0c69
016bef: 04af             .word 0x04af
016bf0: 06c7             .word 0x06c7
016bf1: fe85             .word 0xfe85
016bf2: f46a             .word 0xf46a
016bf3: e57c             .word 0xe57c
016bf4: ead7             .word 0xead7
016bf5: f78b             .word 0xf78b
016bf6: e6d6             .word 0xe6d6
016bf7: d481             .word 0xd481
016bf8: cd1c             .word 0xcd1c
016bf9: ed3e             .word 0xed3e
016bfa: e817             .word 0xe817
016bfb: dab0             .word 0xdab0
016bfc: e415             .word 0xe415
016bfd: d848             .word 0xd848
016bfe: d66f             .word 0xd66f
016bff: ca35             .word 0xca35
016c00: d8fe             .word 0xd8fe
016c01: d3fe             .word 0xd3fe
016c02: d2ba             .word 0xd2ba
016c03: b1c0             .word 0xb1c0
016c04:               _sgn_css_n_samples:
016c04:               .const:_sgn_css_n_samples:
016c04: fd80             .word 0xfd80
016c05: 0748             .word 0x0748
016c06: fe33             .word 0xfe33
016c07: 06e5             .word 0x06e5
016c08: 37e7             .word 0x37e7
016c09: 2910             .word 0x2910
016c0a: 16b2             .word 0x16b2
016c0b: 1d6e             .word 0x1d6e
016c0c: e6bf             .word 0xe6bf
016c0d: bc02             .word 0xbc02
016c0e: e6b6             .word 0xe6b6
016c0f: ef33             .word 0xef33
016c10: e62c             .word 0xe62c
016c11: f061             .word 0xf061
016c12: d942             .word 0xd942
016c13: e31e             .word 0xe31e
016c14: f284             .word 0xf284
016c15: f836             .word 0xf836
016c16: 0707             .word 0x0707
016c17: 0d5f             .word 0x0d5f
016c18: 0fa3             .word 0x0fa3
016c19: 0bab             .word 0x0bab
016c1a: 0851             .word 0x0851
016c1b: facf             .word 0xfacf
016c1c: f6e6             .word 0xf6e6
016c1d: fa23             .word 0xfa23
016c1e: fca2             .word 0xfca2
016c1f: 0ae4             .word 0x0ae4
016c20: 173f             .word 0x173f
016c21: 065a             .word 0x065a
016c22: f216             .word 0xf216
016c23: 18c9             .word 0x18c9
016c24: 3927             .word 0x3927
016c25: 0e69             .word 0x0e69
016c26: f237             .word 0xf237
016c27: 0bc6             .word 0x0bc6
016c28: 1682             .word 0x1682
016c29: 07ac             .word 0x07ac
016c2a: fb6c             .word 0xfb6c
016c2b: f9f8             .word 0xf9f8
016c2c: f656             .word 0xf656
016c2d: fd63             .word 0xfd63
016c2e: 098d             .word 0x098d
016c2f: 0c41             .word 0x0c41
016c30: 0fdf             .word 0x0fdf
016c31: 0c7a             .word 0x0c7a
016c32: 04e6             .word 0x04e6
016c33: f602             .word 0xf602
016c34: f1b3             .word 0xf1b3
016c35: de82             .word 0xde82
016c36: dcfb             .word 0xdcfb
016c37: f138             .word 0xf138
016c38: e484             .word 0xe484
016c39: f28b             .word 0xf28b
016c3a: ddb0             .word 0xddb0
016c3b: bc41             .word 0xbc41
016c3c: f487             .word 0xf487
016c3d: 1f3f             .word 0x1f3f
016c3e: 15fb             .word 0x15fb
016c3f: 2fe0             .word 0x2fe0
016c40: 31d9             .word 0x31d9
016c41: ffdb             .word 0xffdb
016c42: 01c8             .word 0x01c8
016c43: 052b             .word 0x052b
016c44: fe5d             .word 0xfe5d
016c45: 026f             .word 0x026f
016c46: e2bc             .word 0xe2bc
016c47: d3bb             .word 0xd3bb
016c48: e5f0             .word 0xe5f0
016c49: f898             .word 0xf898
016c4a: ff59             .word 0xff59
016c4b: 0a5f             .word 0x0a5f
016c4c: 2589             .word 0x2589
016c4d: 08a1             .word 0x08a1
016c4e: ec28             .word 0xec28
016c4f: 1023             .word 0x1023
016c50: 1622             .word 0x1622
016c51: 082b             .word 0x082b
016c52: ffe7             .word 0xffe7
016c53: 0dba             .word 0x0dba
016c54: 1fdb             .word 0x1fdb
016c55: 1a3f             .word 0x1a3f
016c56: 0ee4             .word 0x0ee4
016c57: 05f4             .word 0x05f4
016c58: 11b9             .word 0x11b9
016c59: 0d8e             .word 0x0d8e
016c5a: 0b97             .word 0x0b97
016c5b: fcff             .word 0xfcff
016c5c: f688             .word 0xf688
016c5d: 1578             .word 0x1578
016c5e: 173c             .word 0x173c
016c5f: f05b             .word 0xf05b
016c60: ee32             .word 0xee32
016c61: 10db             .word 0x10db
016c62: fd55             .word 0xfd55
016c63: 113b             .word 0x113b
016c64: 15b6             .word 0x15b6
016c65: eb9f             .word 0xeb9f
016c66: e92a             .word 0xe92a
016c67: dbea             .word 0xdbea
016c68: d55a             .word 0xd55a
016c69: b786             .word 0xb786
016c6a: adae             .word 0xadae
016c6b: c0b1             .word 0xc0b1
016c6c: dbbb             .word 0xdbbb
016c6d: 11ab             .word 0x11ab
016c6e: 0b29             .word 0x0b29
016c6f: e4d6             .word 0xe4d6
016c70: ea00             .word 0xea00
016c71: f3be             .word 0xf3be
016c72: e1ec             .word 0xe1ec
016c73: fa5a             .word 0xfa5a
016c74: 284c             .word 0x284c
016c75: 3f55             .word 0x3f55
016c76: 5abf             .word 0x5abf
016c77: 5313             .word 0x5313
016c78: 3ba7             .word 0x3ba7
016c79: 3b46             .word 0x3b46
016c7a: 3102             .word 0x3102
016c7b: ff17             .word 0xff17
016c7c: d5e3             .word 0xd5e3
016c7d: e284             .word 0xe284
016c7e: f227             .word 0xf227
016c7f: f07e             .word 0xf07e
016c80: ecff             .word 0xecff
016c81: ee95             .word 0xee95
016c82: fe2b             .word 0xfe2b
016c83: 14a9             .word 0x14a9
016c84: 0748             .word 0x0748
016c85: dd83             .word 0xdd83
016c86: d484             .word 0xd484
016c87: fbe3             .word 0xfbe3
016c88: 0ffa             .word 0x0ffa
016c89: fa55             .word 0xfa55
016c8a: 0ef9             .word 0x0ef9
016c8b: 1cb4             .word 0x1cb4
016c8c: 0874             .word 0x0874
016c8d: f04e             .word 0xf04e
016c8e: d83b             .word 0xd83b
016c8f: ddb1             .word 0xddb1
016c90: 06b6             .word 0x06b6
016c91: 18e2             .word 0x18e2
016c92: 01cc             .word 0x01cc
016c93: 122a             .word 0x122a
016c94: f8ab             .word 0xf8ab
016c95: ee5b             .word 0xee5b
016c96: 0dd7             .word 0x0dd7
016c97: 1f0e             .word 0x1f0e
016c98: 35cb             .word 0x35cb
016c99: 10dd             .word 0x10dd
016c9a: 132a             .word 0x132a
016c9b: 153b             .word 0x153b
016c9c: fc18             .word 0xfc18
016c9d: ed75             .word 0xed75
016c9e: d2b6             .word 0xd2b6
016c9f: ccc1             .word 0xccc1
016ca0: c64c             .word 0xc64c
016ca1: c082             .word 0xc082
016ca2: c1cc             .word 0xc1cc
016ca3: dc60             .word 0xdc60
016ca4: f3b3             .word 0xf3b3
016ca5: 1858             .word 0x1858
016ca6: 2f57             .word 0x2f57
016ca7: 242c             .word 0x242c
016ca8: 283e             .word 0x283e
016ca9: 4081             .word 0x4081
016caa: 3e4e             .word 0x3e4e
016cab: 1ac0             .word 0x1ac0
016cac: 2464             .word 0x2464
016cad: 12e6             .word 0x12e6
016cae: f56e             .word 0xf56e
016caf: eaf0             .word 0xeaf0
016cb0: f23a             .word 0xf23a
016cb1: 16b3             .word 0x16b3
016cb2: 0e23             .word 0x0e23
016cb3: 0ad4             .word 0x0ad4
016cb4: f22b             .word 0xf22b
016cb5: c323             .word 0xc323
016cb6: d67a             .word 0xd67a
016cb7: e1f0             .word 0xe1f0
016cb8: cc8c             .word 0xcc8c
016cb9: c8f8             .word 0xc8f8
016cba: e4af             .word 0xe4af
016cbb: 106f             .word 0x106f
016cbc: 1d3a             .word 0x1d3a
016cbd: 1390             .word 0x1390
016cbe: 1848             .word 0x1848
016cbf: 383d             .word 0x383d
016cc0: 27fd             .word 0x27fd
016cc1: 1e06             .word 0x1e06
016cc2: 2a81             .word 0x2a81
016cc3: 03ae             .word 0x03ae
016cc4: eaf5             .word 0xeaf5
016cc5: d450             .word 0xd450
016cc6: 0276             .word 0x0276
016cc7: 0d36             .word 0x0d36
016cc8: f21b             .word 0xf21b
016cc9: eb44             .word 0xeb44
016cca: afdb             .word 0xafdb
016ccb: cb12             .word 0xcb12
016ccc: cf70             .word 0xcf70
016ccd: e077             .word 0xe077
016cce: 2aaf             .word 0x2aaf
016ccf: 2576             .word 0x2576
016cd0: 07e8             .word 0x07e8
016cd1: e89e             .word 0xe89e
016cd2: e70f             .word 0xe70f
016cd3: 0e9a             .word 0x0e9a
016cd4: 1e04             .word 0x1e04
016cd5: 0d0d             .word 0x0d0d
016cd6: 2b58             .word 0x2b58
016cd7: 3ece             .word 0x3ece
016cd8: 2b23             .word 0x2b23
016cd9: 08cb             .word 0x08cb
016cda: 033e             .word 0x033e
016cdb: 1f67             .word 0x1f67
016cdc: 069d             .word 0x069d
016cdd: ef64             .word 0xef64
016cde: e928             .word 0xe928
016cdf: 10be             .word 0x10be
016ce0: 2d62             .word 0x2d62
016ce1: 1089             .word 0x1089
016ce2: f12a             .word 0xf12a
016ce3: f013             .word 0xf013
016ce4: 0779             .word 0x0779
016ce5: ed0f             .word 0xed0f
016ce6: e0e9             .word 0xe0e9
016ce7: ed05             .word 0xed05
016ce8: f2e6             .word 0xf2e6
016ce9: d17d             .word 0xd17d
016cea: c025             .word 0xc025
016ceb: e0c3             .word 0xe0c3
016cec: f00d             .word 0xf00d
016ced: 2a60             .word 0x2a60
016cee: 2b3e             .word 0x2b3e
016cef: ffe1             .word 0xffe1
016cf0: f933             .word 0xf933
016cf1: ef46             .word 0xef46
016cf2: 0ea8             .word 0x0ea8
016cf3: 1050             .word 0x1050
016cf4: de41             .word 0xde41
016cf5: d290             .word 0xd290
016cf6: e525             .word 0xe525
016cf7: fada             .word 0xfada
016cf8: 0de6             .word 0x0de6
016cf9: 0417             .word 0x0417
016cfa: f2b3             .word 0xf2b3
016cfb: f35f             .word 0xf35f
016cfc: 0641             .word 0x0641
016cfd: 0eb2             .word 0x0eb2
016cfe: 0ef1             .word 0x0ef1
016cff: 0be1             .word 0x0be1
016d00: fd28             .word 0xfd28
016d01: 147d             .word 0x147d
016d02: 2af8             .word 0x2af8
016d03: 3257             .word 0x3257
016d04: 3c48             .word 0x3c48
016d05: 3653             .word 0x3653
016d06: 1083             .word 0x1083
016d07: 0f06             .word 0x0f06
016d08: 2e85             .word 0x2e85
016d09: 03fb             .word 0x03fb
016d0a: f7de             .word 0xf7de
016d0b: ecb3             .word 0xecb3
016d0c: db40             .word 0xdb40
016d0d: f509             .word 0xf509
016d0e: ddcf             .word 0xddcf
016d0f: f265             .word 0xf265
016d10: fe3c             .word 0xfe3c
016d11: d866             .word 0xd866
016d12: e4ba             .word 0xe4ba
016d13: e630             .word 0xe630
016d14: ceaf             .word 0xceaf
016d15: cb09             .word 0xcb09
016d16: d350             .word 0xd350
016d17: cfc5             .word 0xcfc5
016d18: d8d4             .word 0xd8d4
016d19: d7d9             .word 0xd7d9
016d1a: ee3f             .word 0xee3f
016d1b: 1910             .word 0x1910
016d1c: fd19             .word 0xfd19
016d1d: 2250             .word 0x2250
016d1e: 579c             .word 0x579c
016d1f: 36ae             .word 0x36ae
016d20: 1bb9             .word 0x1bb9
016d21: 261b             .word 0x261b
016d22: 3c89             .word 0x3c89
016d23: 1a49             .word 0x1a49
016d24: 2c8d             .word 0x2c8d
016d25: 2832             .word 0x2832
016d26: ee6c             .word 0xee6c
016d27: fe76             .word 0xfe76
016d28: ee45             .word 0xee45
016d29: e847             .word 0xe847
016d2a: ebe1             .word 0xebe1
016d2b: e015             .word 0xe015
016d2c: e3fa             .word 0xe3fa
016d2d: e8ee             .word 0xe8ee
016d2e: ef2f             .word 0xef2f
016d2f: f74b             .word 0xf74b
016d30: 12b2             .word 0x12b2
016d31: 25d5             .word 0x25d5
016d32: 2c26             .word 0x2c26
016d33: 1e48             .word 0x1e48
016d34: 024c             .word 0x024c
016d35: f700             .word 0xf700
016d36: 0a5f             .word 0x0a5f
016d37: f26e             .word 0xf26e
016d38: dd8f             .word 0xdd8f
016d39: ec19             .word 0xec19
016d3a: f470             .word 0xf470
016d3b: 1599             .word 0x1599
016d3c: 00ae             .word 0x00ae
016d3d: f575             .word 0xf575
016d3e: f9df             .word 0xf9df
016d3f: f73e             .word 0xf73e
016d40: f6a8             .word 0xf6a8
016d41: e5db             .word 0xe5db
016d42: e6a1             .word 0xe6a1
016d43: f028             .word 0xf028
016d44: 2105             .word 0x2105
016d45: 05ab             .word 0x05ab
016d46: d822             .word 0xd822
016d47: f483             .word 0xf483
016d48: fc39             .word 0xfc39
016d49: f2c2             .word 0xf2c2
016d4a: f02d             .word 0xf02d
016d4b: f2cd             .word 0xf2cd
016d4c: ef0f             .word 0xef0f
016d4d: f6de             .word 0xf6de
016d4e: 0689             .word 0x0689
016d4f: 1bf5             .word 0x1bf5
016d50: 10dd             .word 0x10dd
016d51: 0e46             .word 0x0e46
016d52: 051c             .word 0x051c
016d53: f98b             .word 0xf98b
016d54: 25c2             .word 0x25c2
016d55: 234f             .word 0x234f
016d56: 40d6             .word 0x40d6
016d57: 5045             .word 0x5045
016d58: 2510             .word 0x2510
016d59: 381a             .word 0x381a
016d5a: 3784             .word 0x3784
016d5b: 1e7e             .word 0x1e7e
016d5c: 1e57             .word 0x1e57
016d5d: eb6b             .word 0xeb6b
016d5e: b257             .word 0xb257
016d5f: ca11             .word 0xca11
016d60: c9cd             .word 0xc9cd
016d61: d445             .word 0xd445
016d62: e2d1             .word 0xe2d1
016d63: b719             .word 0xb719
016d64: cde5             .word 0xcde5
016d65: eba4             .word 0xeba4
016d66: eb0e             .word 0xeb0e
016d67: ec5b             .word 0xec5b
016d68: e321             .word 0xe321
016d69: f0ce             .word 0xf0ce
016d6a: f8f6             .word 0xf8f6
016d6b: f427             .word 0xf427
016d6c: 0121             .word 0x0121
016d6d: 0c23             .word 0x0c23
016d6e: e337             .word 0xe337
016d6f: d302             .word 0xd302
016d70: 0a20             .word 0x0a20
016d71: 2033             .word 0x2033
016d72: 1c4a             .word 0x1c4a
016d73: 36af             .word 0x36af
016d74: 59fb             .word 0x59fb
016d75: 504c             .word 0x504c
016d76: 3400             .word 0x3400
016d77: 2761             .word 0x2761
016d78: 0b92             .word 0x0b92
016d79: 05bf             .word 0x05bf
016d7a: f942             .word 0xf942
016d7b: e8ff             .word 0xe8ff
016d7c: 01ba             .word 0x01ba
016d7d: 016c             .word 0x016c
016d7e: e77e             .word 0xe77e
016d7f: eb3e             .word 0xeb3e
016d80: fc96             .word 0xfc96
016d81: f4f7             .word 0xf4f7
016d82: f589             .word 0xf589
016d83: 0229             .word 0x0229
016d84: f875             .word 0xf875
016d85: e36a             .word 0xe36a
016d86: db01             .word 0xdb01
016d87: c480             .word 0xc480
016d88: b8da             .word 0xb8da
016d89: e108             .word 0xe108
016d8a: f523             .word 0xf523
016d8b: fc62             .word 0xfc62
016d8c: 0327             .word 0x0327
016d8d: 1b7d             .word 0x1b7d
016d8e: 3030             .word 0x3030
016d8f: 1d3e             .word 0x1d3e
016d90: 3263             .word 0x3263
016d91: 2319             .word 0x2319
016d92: 0807             .word 0x0807
016d93: 237f             .word 0x237f
016d94: 0e7c             .word 0x0e7c
016d95: 016a             .word 0x016a
016d96: 00aa             .word 0x00aa
016d97: f3b4             .word 0xf3b4
016d98: fd5f             .word 0xfd5f
016d99: 046f             .word 0x046f
016d9a: 0f69             .word 0x0f69
016d9b: f78c             .word 0xf78c
016d9c: f0e2             .word 0xf0e2
016d9d: f834             .word 0xf834
016d9e: f363             .word 0xf363
016d9f: f92e             .word 0xf92e
016da0: f67d             .word 0xf67d
016da1: 08f7             .word 0x08f7
016da2: ed16             .word 0xed16
016da3: ecc8             .word 0xecc8
016da4: 04cb             .word 0x04cb
016da5: fe21             .word 0xfe21
016da6: fa57             .word 0xfa57
016da7: f14c             .word 0xf14c
016da8: 0a82             .word 0x0a82
016da9: 1a0d             .word 0x1a0d
016daa: 1ee1             .word 0x1ee1
016dab: 046b             .word 0x046b
016dac: 14f5             .word 0x14f5
016dad: 1afa             .word 0x1afa
016dae: ec36             .word 0xec36
016daf: f3cf             .word 0xf3cf
016db0: e017             .word 0xe017
016db1: d704             .word 0xd704
016db2: cc9c             .word 0xcc9c
016db3: cb35             .word 0xcb35
016db4: 006c             .word 0x006c
016db5: 1299             .word 0x1299
016db6: 0f61             .word 0x0f61
016db7: 2462             .word 0x2462
016db8: 1deb             .word 0x1deb
016db9: fdf6             .word 0xfdf6
016dba: faa5             .word 0xfaa5
016dbb: f288             .word 0xf288
016dbc: e4de             .word 0xe4de
016dbd: 121d             .word 0x121d
016dbe: 484c             .word 0x484c
016dbf: 37f8             .word 0x37f8
016dc0: 080b             .word 0x080b
016dc1: d78b             .word 0xd78b
016dc2: d847             .word 0xd847
016dc3: dd44             .word 0xdd44
016dc4: e6db             .word 0xe6db
016dc5: f7d6             .word 0xf7d6
016dc6: fc0b             .word 0xfc0b
016dc7: 110a             .word 0x110a
016dc8: 0294             .word 0x0294
016dc9: ff89             .word 0xff89
016dca: ea40             .word 0xea40
016dcb: 07be             .word 0x07be
016dcc: 2f44             .word 0x2f44
016dcd: 21b9             .word 0x21b9
016dce: 1cac             .word 0x1cac
016dcf: f902             .word 0xf902
016dd0: 1248             .word 0x1248
016dd1: 294a             .word 0x294a
016dd2: 1faf             .word 0x1faf
016dd3: 0ca4             .word 0x0ca4
016dd4: fa8f             .word 0xfa8f
016dd5: f403             .word 0xf403
016dd6: 0208             .word 0x0208
016dd7: 2216             .word 0x2216
016dd8: 0ec5             .word 0x0ec5
016dd9: fbcb             .word 0xfbcb
016dda: dc5c             .word 0xdc5c
016ddb: cc88             .word 0xcc88
016ddc: d35b             .word 0xd35b
016ddd: ce36             .word 0xce36
016dde: c882             .word 0xc882
016ddf: daf8             .word 0xdaf8
016de0: e0b3             .word 0xe0b3
016de1: d1c6             .word 0xd1c6
016de2: e385             .word 0xe385
016de3: d68b             .word 0xd68b
016de4: d2fb             .word 0xd2fb
016de5: fce3             .word 0xfce3
016de6: 2036             .word 0x2036
016de7: 0810             .word 0x0810
016de8: 0679             .word 0x0679
016de9: 154d             .word 0x154d
016dea: 146b             .word 0x146b
016deb: 2a1e             .word 0x2a1e
016dec: 2594             .word 0x2594
016ded: 2d98             .word 0x2d98
016dee: 1c7a             .word 0x1c7a
016def: 464b             .word 0x464b
016df0: 7528             .word 0x7528
016df1: 4604             .word 0x4604
016df2: 29dd             .word 0x29dd
016df3: 1241             .word 0x1241
016df4: 1ab2             .word 0x1ab2
016df5: 0b81             .word 0x0b81
016df6: e734             .word 0xe734
016df7: fa90             .word 0xfa90
016df8: fda8             .word 0xfda8
016df9: f898             .word 0xf898
016dfa: fa94             .word 0xfa94
016dfb: f278             .word 0xf278
016dfc: de70             .word 0xde70
016dfd: cdd8             .word 0xcdd8
016dfe: d155             .word 0xd155
016dff: 9bad             .word 0x9bad
016e00: a8b7             .word 0xa8b7
016e01: e48c             .word 0xe48c
016e02: d839             .word 0xd839
016e03: f446             .word 0xf446
016e04: f4ce             .word 0xf4ce
016e05: 0c65             .word 0x0c65
016e06: 1717             .word 0x1717
016e07: f1fe             .word 0xf1fe
016e08: da4f             .word 0xda4f
016e09: c02d             .word 0xc02d
016e0a: e388             .word 0xe388
016e0b: f713             .word 0xf713
016e0c: 0054             .word 0x0054
016e0d: ffe7             .word 0xffe7
016e0e: 2059             .word 0x2059
016e0f: 2db4             .word 0x2db4
016e10: 20ec             .word 0x20ec
016e11: 5ccd             .word 0x5ccd
016e12: 575f             .word 0x575f
016e13: 3886             .word 0x3886
016e14: 2f0f             .word 0x2f0f
016e15: 2852             .word 0x2852
016e16: 22f4             .word 0x22f4
016e17: 1e5f             .word 0x1e5f
016e18: 19e6             .word 0x19e6
016e19: fe20             .word 0xfe20
016e1a: f20c             .word 0xf20c
016e1b: f3c8             .word 0xf3c8
016e1c: f8e4             .word 0xf8e4
016e1d: f399             .word 0xf399
016e1e: d871             .word 0xd871
016e1f: d7dd             .word 0xd7dd
016e20: d5a5             .word 0xd5a5
016e21: d31e             .word 0xd31e
016e22: 04d7             .word 0x04d7
016e23: f7fe             .word 0xf7fe
016e24: eec4             .word 0xeec4
016e25: f6f2             .word 0xf6f2
016e26: cbef             .word 0xcbef
016e27: ce48             .word 0xce48
016e28: eafe             .word 0xeafe
016e29: fe7a             .word 0xfe7a
016e2a: ffb3             .word 0xffb3
016e2b: 078a             .word 0x078a
016e2c: faa2             .word 0xfaa2
016e2d: fad4             .word 0xfad4
016e2e: 0c9a             .word 0x0c9a
016e2f: 1237             .word 0x1237
016e30: 1232             .word 0x1232
016e31: 0ae3             .word 0x0ae3
016e32: 233c             .word 0x233c
016e33: 1ffa             .word 0x1ffa
016e34: 067b             .word 0x067b
016e35: f23a             .word 0xf23a
016e36: 1ee8             .word 0x1ee8
016e37: ff73             .word 0xff73
016e38: d79f             .word 0xd79f
016e39: 14bf             .word 0x14bf
016e3a: ebc0             .word 0xebc0
016e3b: f788             .word 0xf788
016e3c: 0454             .word 0x0454
016e3d: 1173             .word 0x1173
016e3e: 207e             .word 0x207e
016e3f: fa43             .word 0xfa43
016e40: 0d2e             .word 0x0d2e
016e41: f1fd             .word 0xf1fd
016e42: 107e             .word 0x107e
016e43: 271d             .word 0x271d
016e44: 1447             .word 0x1447
016e45: 2321             .word 0x2321
016e46: 0108             .word 0x0108
016e47: ecb6             .word 0xecb6
016e48: c9cd             .word 0xc9cd
016e49: 9b5d             .word 0x9b5d
016e4a: ba9b             .word 0xba9b
016e4b: ec33             .word 0xec33
016e4c: f69b             .word 0xf69b
016e4d: fc18             .word 0xfc18
016e4e: ee20             .word 0xee20
016e4f: 06a8             .word 0x06a8
016e50: 2903             .word 0x2903
016e51: 2dc6             .word 0x2dc6
016e52: 2776             .word 0x2776
016e53: 0427             .word 0x0427
016e54: 14ad             .word 0x14ad
016e55: 1169             .word 0x1169
016e56: 1285             .word 0x1285
016e57: 1b61             .word 0x1b61
016e58: f482             .word 0xf482
016e59: e8e0             .word 0xe8e0
016e5a: e8ed             .word 0xe8ed
016e5b: 1270             .word 0x1270
016e5c: 3284             .word 0x3284
016e5d: 2070             .word 0x2070
016e5e: 03ee             .word 0x03ee
016e5f: ede8             .word 0xede8
016e60: f041             .word 0xf041
016e61: ff74             .word 0xff74
016e62: 25a7             .word 0x25a7
016e63: 1eed             .word 0x1eed
016e64: edff             .word 0xedff
016e65: 008f             .word 0x008f
016e66: f486             .word 0xf486
016e67: bc91             .word 0xbc91
016e68: d13a             .word 0xd13a
016e69: edc0             .word 0xedc0
016e6a: 026e             .word 0x026e
016e6b: 0aeb             .word 0x0aeb
016e6c: fe59             .word 0xfe59
016e6d: e99f             .word 0xe99f
016e6e: cd86             .word 0xcd86
016e6f: df61             .word 0xdf61
016e70: f739             .word 0xf739
016e71: 0664             .word 0x0664
016e72: ff30             .word 0xff30
016e73: f44e             .word 0xf44e
016e74: f124             .word 0xf124
016e75: d8ac             .word 0xd8ac
016e76: e8cb             .word 0xe8cb
016e77: fb89             .word 0xfb89
016e78: 105d             .word 0x105d
016e79: 2113             .word 0x2113
016e7a: 12d1             .word 0x12d1
016e7b: 2064             .word 0x2064
016e7c: 131e             .word 0x131e
016e7d: 24b8             .word 0x24b8
016e7e: 4bb1             .word 0x4bb1
016e7f: 27e9             .word 0x27e9
016e80: 305f             .word 0x305f
016e81: 3ab7             .word 0x3ab7
016e82: 29c6             .word 0x29c6
016e83: 3359             .word 0x3359
016e84: 1079             .word 0x1079
016e85: f4c2             .word 0xf4c2
016e86: e038             .word 0xe038
016e87: c716             .word 0xc716
016e88: df82             .word 0xdf82
016e89: c573             .word 0xc573
016e8a: ac95             .word 0xac95
016e8b: d752             .word 0xd752
016e8c: dc8f             .word 0xdc8f
016e8d: e48b             .word 0xe48b
016e8e: 0003             .word 0x0003
016e8f: 034c             .word 0x034c
016e90: 0594             .word 0x0594
016e91: 0f93             .word 0x0f93
016e92: 2a8f             .word 0x2a8f
016e93: 3949             .word 0x3949
016e94: 0b7a             .word 0x0b7a
016e95: fa53             .word 0xfa53
016e96: f674             .word 0xf674
016e97: d4ac             .word 0xd4ac
016e98: f3e5             .word 0xf3e5
016e99: 069f             .word 0x069f
016e9a: 15c8             .word 0x15c8
016e9b: 21c1             .word 0x21c1
016e9c: 0a43             .word 0x0a43
016e9d: f513             .word 0xf513
016e9e: eec1             .word 0xeec1
016e9f: ed8b             .word 0xed8b
016ea0: d615             .word 0xd615
016ea1: 020c             .word 0x020c
016ea2: fa89             .word 0xfa89
016ea3: f6b1             .word 0xf6b1
016ea4: 2590             .word 0x2590
016ea5: 133f             .word 0x133f
016ea6: 0bf5             .word 0x0bf5
016ea7: fd4c             .word 0xfd4c
016ea8: f218             .word 0xf218
016ea9: dabc             .word 0xdabc
016eaa: ec84             .word 0xec84
016eab: 05ce             .word 0x05ce
016eac: 08e1             .word 0x08e1
016ead: 0e91             .word 0x0e91
016eae: 12f0             .word 0x12f0
016eaf: 2cc5             .word 0x2cc5
016eb0: 0ae2             .word 0x0ae2
016eb1: fd02             .word 0xfd02
016eb2: f0b7             .word 0xf0b7
016eb3: f403             .word 0xf403
016eb4: f5ff             .word 0xf5ff
016eb5: ddf6             .word 0xddf6
016eb6: f5c2             .word 0xf5c2
016eb7: e779             .word 0xe779
016eb8: e2f1             .word 0xe2f1
016eb9: ffe5             .word 0xffe5
016eba: 0fe7             .word 0x0fe7
016ebb: 0f91             .word 0x0f91
016ebc: 2403             .word 0x2403
016ebd: 255d             .word 0x255d
016ebe: 1dc2             .word 0x1dc2
016ebf: 2240             .word 0x2240
016ec0: 1cd6             .word 0x1cd6
016ec1: 25bd             .word 0x25bd
016ec2: 07d4             .word 0x07d4
016ec3: 18a4             .word 0x18a4
016ec4: 0183             .word 0x0183
016ec5: e759             .word 0xe759
016ec6: eb43             .word 0xeb43
016ec7: aaff             .word 0xaaff
016ec8: cf94             .word 0xcf94
016ec9: e80e             .word 0xe80e
016eca: dbe0             .word 0xdbe0
016ecb: 003e             .word 0x003e
016ecc: 20c5             .word 0x20c5
016ecd: 12d1             .word 0x12d1
016ece: 0e89             .word 0x0e89
016ecf: 289c             .word 0x289c
016ed0: fa2e             .word 0xfa2e
016ed1: fbca             .word 0xfbca
016ed2: 209a             .word 0x209a
016ed3: 1b66             .word 0x1b66
016ed4: e316             .word 0xe316
016ed5: cc19             .word 0xcc19
016ed6: e7e5             .word 0xe7e5
016ed7: e663             .word 0xe663
016ed8: 02e0             .word 0x02e0
016ed9: 01cb             .word 0x01cb
016eda: 04b4             .word 0x04b4
016edb: 0297             .word 0x0297
016edc: ecb7             .word 0xecb7
016edd: d9a5             .word 0xd9a5
016ede: cc9d             .word 0xcc9d
016edf: d028             .word 0xd028
016ee0: c398             .word 0xc398
016ee1: f424             .word 0xf424
016ee2: 2791             .word 0x2791
016ee3: 3bce             .word 0x3bce
016ee4: 332f             .word 0x332f
016ee5: 2bd9             .word 0x2bd9
016ee6: 5806             .word 0x5806
016ee7: 582f             .word 0x582f
016ee8: 25d7             .word 0x25d7
016ee9: 15ee             .word 0x15ee
016eea: fc9d             .word 0xfc9d
016eeb: e3de             .word 0xe3de
016eec: fe6f             .word 0xfe6f
016eed: efe2             .word 0xefe2
016eee: f816             .word 0xf816
016eef: ec95             .word 0xec95
016ef0: d98f             .word 0xd98f
016ef1: 039e             .word 0x039e
016ef2: eed9             .word 0xeed9
016ef3: db54             .word 0xdb54
016ef4: ee49             .word 0xee49
016ef5: 1205             .word 0x1205
016ef6: 1b7e             .word 0x1b7e
016ef7: efe7             .word 0xefe7
016ef8: ecc8             .word 0xecc8
016ef9: 026b             .word 0x026b
016efa: e3df             .word 0xe3df
016efb: df61             .word 0xdf61
016efc: f6cf             .word 0xf6cf
016efd: 0ac8             .word 0x0ac8
016efe: 1454             .word 0x1454
016eff: fb34             .word 0xfb34
016f00: 01ca             .word 0x01ca
016f01: 0a9a             .word 0x0a9a
016f02: 163f             .word 0x163f
016f03: fc8c             .word 0xfc8c
016f04: 00bc             .word 0x00bc
016f05: 2464             .word 0x2464
016f06: 037a             .word 0x037a
016f07: f412             .word 0xf412
016f08: 02d5             .word 0x02d5
016f09: 0e99             .word 0x0e99
016f0a: e9a0             .word 0xe9a0
016f0b: f251             .word 0xf251
016f0c: 01f2             .word 0x01f2
016f0d: ff37             .word 0xff37
016f0e: fb59             .word 0xfb59
016f0f: e427             .word 0xe427
016f10: 0778             .word 0x0778
016f11: 0973             .word 0x0973
016f12: f5e5             .word 0xf5e5
016f13: fae1             .word 0xfae1
016f14: 2017             .word 0x2017
016f15: 0e97             .word 0x0e97
016f16: f4e1             .word 0xf4e1
016f17: 141f             .word 0x141f
016f18: 0dc6             .word 0x0dc6
016f19: 0525             .word 0x0525
016f1a: f97d             .word 0xf97d
016f1b: 0e08             .word 0x0e08
016f1c: 1159             .word 0x1159
016f1d: fb45             .word 0xfb45
016f1e: e661             .word 0xe661
016f1f: dc5f             .word 0xdc5f
016f20: fe33             .word 0xfe33
016f21: f564             .word 0xf564
016f22: e7cb             .word 0xe7cb
016f23: 11e8             .word 0x11e8
016f24: 1abd             .word 0x1abd
016f25: f69b             .word 0xf69b
016f26: de63             .word 0xde63
016f27: e47c             .word 0xe47c
016f28: 05a0             .word 0x05a0
016f29: e400             .word 0xe400
016f2a: e0d0             .word 0xe0d0
016f2b: fc32             .word 0xfc32
016f2c: ecd7             .word 0xecd7
016f2d: ff07             .word 0xff07
016f2e: e9d2             .word 0xe9d2
016f2f: f087             .word 0xf087
016f30: 1387             .word 0x1387
016f31: 1d20             .word 0x1d20
016f32: 4b48             .word 0x4b48
016f33: 6075             .word 0x6075
016f34: 3514             .word 0x3514
016f35: 2cb0             .word 0x2cb0
016f36: 3d6e             .word 0x3d6e
016f37: 2ec3             .word 0x2ec3
016f38: 064f             .word 0x064f
016f39: c9c6             .word 0xc9c6
016f3a: cbad             .word 0xcbad
016f3b: cee1             .word 0xcee1
016f3c: d31e             .word 0xd31e
016f3d: e891             .word 0xe891
016f3e: fc09             .word 0xfc09
016f3f: 0800             .word 0x0800
016f40: ff1c             .word 0xff1c
016f41: 0758             .word 0x0758
016f42: ebad             .word 0xebad
016f43: e830             .word 0xe830
016f44: d48c             .word 0xd48c
016f45: d3b8             .word 0xd3b8
016f46: 1078             .word 0x1078
016f47: 23df             .word 0x23df
016f48: 07e6             .word 0x07e6
016f49: f0c6             .word 0xf0c6
016f4a: 215c             .word 0x215c
016f4b: 18cb             .word 0x18cb
016f4c: 0b42             .word 0x0b42
016f4d: 224c             .word 0x224c
016f4e: 0bae             .word 0x0bae
016f4f: e279             .word 0xe279
016f50: e199             .word 0xe199
016f51: dff1             .word 0xdff1
016f52: a8ab             .word 0xa8ab
016f53: daa4             .word 0xdaa4
016f54: ee0a             .word 0xee0a
016f55: f222             .word 0xf222
016f56: 1c10             .word 0x1c10
016f57: 066a             .word 0x066a
016f58: 1f83             .word 0x1f83
016f59: 20b8             .word 0x20b8
016f5a: 1f3a             .word 0x1f3a
016f5b: 208f             .word 0x208f
016f5c: 209f             .word 0x209f
016f5d: 28fb             .word 0x28fb
016f5e: 12aa             .word 0x12aa
016f5f: 1010             .word 0x1010
016f60: 069a             .word 0x069a
016f61: e9f3             .word 0xe9f3
016f62: e125             .word 0xe125
016f63: f742             .word 0xf742
016f64: e222             .word 0xe222
016f65: eccd             .word 0xeccd
016f66: f9ca             .word 0xf9ca
016f67: ecbd             .word 0xecbd
016f68: fc83             .word 0xfc83
016f69: 01fe             .word 0x01fe
016f6a: 28c4             .word 0x28c4
016f6b: 1bc7             .word 0x1bc7
016f6c: 0cb2             .word 0x0cb2
016f6d: 0c37             .word 0x0c37
016f6e: 05d7             .word 0x05d7
016f6f: f764             .word 0xf764
016f70: d907             .word 0xd907
016f71: ecb7             .word 0xecb7
016f72: f9ad             .word 0xf9ad
016f73: 099b             .word 0x099b
016f74: 0ece             .word 0x0ece
016f75: 2530             .word 0x2530
016f76: 0607             .word 0x0607
016f77: f010             .word 0xf010
016f78: 0a5b             .word 0x0a5b
016f79: dc62             .word 0xdc62
016f7a: e521             .word 0xe521
016f7b: f19a             .word 0xf19a
016f7c: f03b             .word 0xf03b
016f7d: 0441             .word 0x0441
016f7e: 1ca7             .word 0x1ca7
016f7f: 1d1e             .word 0x1d1e
016f80: 07a5             .word 0x07a5
016f81: fde8             .word 0xfde8
016f82: d704             .word 0xd704
016f83: eb82             .word 0xeb82
016f84: fdbe             .word 0xfdbe
016f85: ffcc             .word 0xffcc
016f86: 314a             .word 0x314a
016f87: 3345             .word 0x3345
016f88: 14c9             .word 0x14c9
016f89: 0789             .word 0x0789
016f8a: 0300             .word 0x0300
016f8b: 02fc             .word 0x02fc
016f8c: ecfa             .word 0xecfa
016f8d: daab             .word 0xdaab
016f8e: de26             .word 0xde26
016f8f: b5c0             .word 0xb5c0
016f90: b743             .word 0xb743
016f91: e0ab             .word 0xe0ab
016f92: cb34             .word 0xcb34
016f93: d5d5             .word 0xd5d5
016f94: f1ec             .word 0xf1ec
016f95: 04ac             .word 0x04ac
016f96: 2f03             .word 0x2f03
016f97: 2c53             .word 0x2c53
016f98: 343d             .word 0x343d
016f99: 38d3             .word 0x38d3
016f9a: 225c             .word 0x225c
016f9b: 465a             .word 0x465a
016f9c: 3483             .word 0x3483
016f9d: 0fd1             .word 0x0fd1
016f9e: 20e0             .word 0x20e0
016f9f: 1466             .word 0x1466
016fa0: 1d3e             .word 0x1d3e
016fa1: 18c6             .word 0x18c6
016fa2: feaf             .word 0xfeaf
016fa3: f067             .word 0xf067
016fa4: d82b             .word 0xd82b
016fa5: ea72             .word 0xea72
016fa6: f554             .word 0xf554
016fa7: f9ec             .word 0xf9ec
016fa8: 07c1             .word 0x07c1
016fa9: fbc0             .word 0xfbc0
016faa: e78d             .word 0xe78d
016fab: cdba             .word 0xcdba
016fac: e024             .word 0xe024
016fad: fab2             .word 0xfab2
016fae: 07fc             .word 0x07fc
016faf: 07cf             .word 0x07cf
016fb0: f2a6             .word 0xf2a6
016fb1: dbc0             .word 0xdbc0
016fb2: bac5             .word 0xbac5
016fb3: e29f             .word 0xe29f
016fb4: 06ce             .word 0x06ce
016fb5: ec55             .word 0xec55
016fb6: 0fd3             .word 0x0fd3
016fb7: 2c65             .word 0x2c65
016fb8: 085e             .word 0x085e
016fb9: f2cd             .word 0xf2cd
016fba: ec98             .word 0xec98
016fbb: fc12             .word 0xfc12
016fbc: 1909             .word 0x1909
016fbd: 309b             .word 0x309b
016fbe: 20a8             .word 0x20a8
016fbf: ef3d             .word 0xef3d
016fc0: e7c5             .word 0xe7c5
016fc1: edf7             .word 0xedf7
016fc2: 125e             .word 0x125e
016fc3: 1991             .word 0x1991
016fc4: 0c99             .word 0x0c99
016fc5: 1957             .word 0x1957
016fc6: 0364             .word 0x0364
016fc7: 1d50             .word 0x1d50
016fc8: 2f94             .word 0x2f94
016fc9: 2ac7             .word 0x2ac7
016fca: 13d1             .word 0x13d1
016fcb: ee65             .word 0xee65
016fcc: f98c             .word 0xf98c
016fcd: f8c0             .word 0xf8c0
016fce: f167             .word 0xf167
016fcf: cb64             .word 0xcb64
016fd0: 9b96             .word 0x9b96
016fd1: b96b             .word 0xb96b
016fd2: e848             .word 0xe848
016fd3: f7d7             .word 0xf7d7
016fd4: 1e3a             .word 0x1e3a
016fd5: 18eb             .word 0x18eb
016fd6: 1efe             .word 0x1efe
016fd7: 1ff8             .word 0x1ff8
016fd8: f006             .word 0xf006
016fd9: 0a71             .word 0x0a71
016fda: fcee             .word 0xfcee
016fdb: 1423             .word 0x1423
016fdc: 1d65             .word 0x1d65
016fdd: 012f             .word 0x012f
016fde: 024f             .word 0x024f
016fdf: e3b0             .word 0xe3b0
016fe0: 12c1             .word 0x12c1
016fe1: e88f             .word 0xe88f
016fe2: e7a9             .word 0xe7a9
016fe3: 2533             .word 0x2533
016fe4: f937             .word 0xf937
016fe5: fda2             .word 0xfda2
016fe6: 1a28             .word 0x1a28
016fe7: 26c0             .word 0x26c0
016fe8: 0fcf             .word 0x0fcf
016fe9: 0e44             .word 0x0e44
016fea: 144a             .word 0x144a
016feb: 0e14             .word 0x0e14
016fec: 00ea             .word 0x00ea
016fed: f654             .word 0xf654
016fee: 0710             .word 0x0710
016fef: 011d             .word 0x011d
016ff0: ffe7             .word 0xffe7
016ff1: f1f3             .word 0xf1f3
016ff2: d603             .word 0xd603
016ff3: c62e             .word 0xc62e
016ff4: ecc2             .word 0xecc2
016ff5: f59a             .word 0xf59a
016ff6: eea3             .word 0xeea3
016ff7: 0a16             .word 0x0a16
016ff8: df02             .word 0xdf02
016ff9: d042             .word 0xd042
016ffa: dad2             .word 0xdad2
016ffb: d44d             .word 0xd44d
016ffc: ece7             .word 0xece7
016ffd: f9ed             .word 0xf9ed
016ffe: f4bb             .word 0xf4bb
016fff: f235             .word 0xf235
017000: f806             .word 0xf806
017001: 138f             .word 0x138f
017002: 1ef6             .word 0x1ef6
017003: 2081             .word 0x2081
017004: 27ab             .word 0x27ab
017005: 2c5b             .word 0x2c5b
017006: 359b             .word 0x359b
017007: 4c0a             .word 0x4c0a
017008: 6566             .word 0x6566
017009: 2dfa             .word 0x2dfa
01700a: 250d             .word 0x250d
01700b: 2c10             .word 0x2c10
01700c: 032d             .word 0x032d
01700d: 017f             .word 0x017f
01700e: f8e1             .word 0xf8e1
01700f: ed21             .word 0xed21
017010: c4ea             .word 0xc4ea
017011: d00b             .word 0xd00b
017012: ec60             .word 0xec60
017013: 0c9a             .word 0x0c9a
017014: 172d             .word 0x172d
017015: f4c8             .word 0xf4c8
017016: f97f             .word 0xf97f
017017: db91             .word 0xdb91
017018: e3e5             .word 0xe3e5
017019: be92             .word 0xbe92
01701a: 914f             .word 0x914f
01701b: c7cf             .word 0xc7cf
01701c: d044             .word 0xd044
01701d: d6de             .word 0xd6de
01701e: eeec             .word 0xeeec
01701f: f901             .word 0xf901
017020: f9d2             .word 0xf9d2
017021: fab7             .word 0xfab7
017022: ff52             .word 0xff52
017023: e8a8             .word 0xe8a8
017024: fe15             .word 0xfe15
017025: 1d57             .word 0x1d57
017026: 1078             .word 0x1078
017027: 2391             .word 0x2391
017028: 3ad5             .word 0x3ad5
017029: 6d10             .word 0x6d10
01702a: 5c21             .word 0x5c21
01702b: 1d64             .word 0x1d64
01702c: 2b71             .word 0x2b71
01702d: 26cf             .word 0x26cf
01702e: 2a88             .word 0x2a88
01702f: 1a8b             .word 0x1a8b
017030: 1331             .word 0x1331
017031: 0d97             .word 0x0d97
017032: 0134             .word 0x0134
017033: 1e8f             .word 0x1e8f
017034: 0aa7             .word 0x0aa7
017035: db0a             .word 0xdb0a
017036: d0f6             .word 0xd0f6
017037: e436             .word 0xe436
017038: d535             .word 0xd535
017039: dab4             .word 0xdab4
01703a: e12f             .word 0xe12f
01703b: caaf             .word 0xcaaf
01703c: cbd6             .word 0xcbd6
01703d: d2fa             .word 0xd2fa
01703e: ce96             .word 0xce96
01703f: d3c5             .word 0xd3c5
017040: f58b             .word 0xf58b
017041: 0827             .word 0x0827
017042: 2110             .word 0x2110
017043: 0d24             .word 0x0d24
017044: f35d             .word 0xf35d
017045: f8e0             .word 0xf8e0
017046: 05c3             .word 0x05c3
017047: 1c47             .word 0x1c47
017048: 2743             .word 0x2743
017049: 1e13             .word 0x1e13
01704a: f81d             .word 0xf81d
01704b: 1378             .word 0x1378
01704c: 21d0             .word 0x21d0
01704d: 2c4d             .word 0x2c4d
01704e: 1930             .word 0x1930
01704f: e90a             .word 0xe90a
017050: fc0e             .word 0xfc0e
017051: 0008             .word 0x0008
017052: 0fd1             .word 0x0fd1
017053: 02ae             .word 0x02ae
017054: f765             .word 0xf765
017055: eddf             .word 0xeddf
017056: dcad             .word 0xdcad
017057: dc2b             .word 0xdc2b
017058: d272             .word 0xd272
017059: f8cd             .word 0xf8cd
01705a: 2c79             .word 0x2c79
01705b: 4a41             .word 0x4a41
01705c: 258e             .word 0x258e
01705d: ea2d             .word 0xea2d
01705e: ec96             .word 0xec96
01705f: fb0d             .word 0xfb0d
017060: fa24             .word 0xfa24
017061: 149b             .word 0x149b
017062: 27c6             .word 0x27c6
017063: 13a9             .word 0x13a9
017064: 104a             .word 0x104a
017065: 0b6d             .word 0x0b6d
017066: d739             .word 0xd739
017067: c6b8             .word 0xc6b8
017068: d774             .word 0xd774
017069: d998             .word 0xd998
01706a: f2ff             .word 0xf2ff
01706b: ea8a             .word 0xea8a
01706c: 0cce             .word 0x0cce
01706d: 1f41             .word 0x1f41
01706e: 0151             .word 0x0151
01706f: 1a08             .word 0x1a08
017070: 1cd2             .word 0x1cd2
017071: 10ce             .word 0x10ce
017072: f5a6             .word 0xf5a6
017073: f63d             .word 0xf63d
017074: fdfb             .word 0xfdfb
017075: 0396             .word 0x0396
017076: f670             .word 0xf670
017077: e53a             .word 0xe53a
017078: 06b8             .word 0x06b8
017079: fb6f             .word 0xfb6f
01707a: f740             .word 0xf740
01707b: f5cc             .word 0xf5cc
01707c: f5b4             .word 0xf5b4
01707d: f517             .word 0xf517
01707e: f0b8             .word 0xf0b8
01707f: 0c9c             .word 0x0c9c
017080: 082c             .word 0x082c
017081: ff5d             .word 0xff5d
017082: f512             .word 0xf512
017083: fbdb             .word 0xfbdb
017084: 037d             .word 0x037d
017085: 0629             .word 0x0629
017086: 23bf             .word 0x23bf
017087: 0e42             .word 0x0e42
017088: 15fb             .word 0x15fb
017089: 364e             .word 0x364e
01708a: 1edc             .word 0x1edc
01708b: 2b84             .word 0x2b84
01708c: 2599             .word 0x2599
01708d: 0656             .word 0x0656
01708e: fed2             .word 0xfed2
01708f: f67c             .word 0xf67c
017090: ea8e             .word 0xea8e
017091: c0d3             .word 0xc0d3
017092: bc7d             .word 0xbc7d
017093: d790             .word 0xd790
017094: e01b             .word 0xe01b
017095: f24f             .word 0xf24f
017096: 0253             .word 0x0253
017097: f987             .word 0xf987
017098: f27f             .word 0xf27f
017099: fca6             .word 0xfca6
01709a: f12a             .word 0xf12a
01709b: e481             .word 0xe481
01709c: fa1d             .word 0xfa1d
01709d: 06c3             .word 0x06c3
01709e: ed35             .word 0xed35
01709f: f1b2             .word 0xf1b2
0170a0: 05a7             .word 0x05a7
0170a1: 06cc             .word 0x06cc
0170a2: 20a4             .word 0x20a4
0170a3: 30b2             .word 0x30b2
0170a4: 470a             .word 0x470a
0170a5: 5d01             .word 0x5d01
0170a6: 41d5             .word 0x41d5
0170a7: 200e             .word 0x200e
0170a8: 1e26             .word 0x1e26
0170a9: 1685             .word 0x1685
0170aa: de97             .word 0xde97
0170ab: d6b5             .word 0xd6b5
0170ac: 05e5             .word 0x05e5
0170ad: 0717             .word 0x0717
0170ae: f551             .word 0xf551
0170af: f776             .word 0xf776
0170b0: f575             .word 0xf575
0170b1: e462             .word 0xe462
0170b2: e98b             .word 0xe98b
0170b3: ec68             .word 0xec68
0170b4: eb98             .word 0xeb98
0170b5: daf6             .word 0xdaf6
0170b6: b484             .word 0xb484
0170b7: d816             .word 0xd816
0170b8: de4b             .word 0xde4b
0170b9: c6bd             .word 0xc6bd
0170ba: cf98             .word 0xcf98
0170bb: b35b             .word 0xb35b
0170bc: d59f             .word 0xd59f
0170bd: 180d             .word 0x180d
0170be: 1df6             .word 0x1df6
0170bf: 2ed5             .word 0x2ed5
0170c0: 3e68             .word 0x3e68
0170c1: 242e             .word 0x242e
0170c2: 43c8             .word 0x43c8
0170c3: 4e31             .word 0x4e31
0170c4: 23d3             .word 0x23d3
0170c5: 2a72             .word 0x2a72
0170c6: 03f6             .word 0x03f6
0170c7: fcba             .word 0xfcba
0170c8: 1021             .word 0x1021
0170c9: 0c9f             .word 0x0c9f
0170ca: 1cac             .word 0x1cac
0170cb: 0d03             .word 0x0d03
0170cc: fa4b             .word 0xfa4b
0170cd: efd0             .word 0xefd0
0170ce: f1db             .word 0xf1db
0170cf: f13f             .word 0xf13f
0170d0: f0f6             .word 0xf0f6
0170d1: f9a9             .word 0xf9a9
0170d2: fabd             .word 0xfabd
0170d3: dc13             .word 0xdc13
0170d4: f248             .word 0xf248
0170d5: 2545             .word 0x2545
0170d6: fc18             .word 0xfc18
0170d7: e65a             .word 0xe65a
0170d8: e543             .word 0xe543
0170d9: f16f             .word 0xf16f
0170da: f948             .word 0xf948
0170db: f79c             .word 0xf79c
0170dc: f8b2             .word 0xf8b2
0170dd: f847             .word 0xf847
0170de: 1632             .word 0x1632
0170df: fd97             .word 0xfd97
0170e0: eca5             .word 0xeca5
0170e1: e1c6             .word 0xe1c6
0170e2: e71c             .word 0xe71c
0170e3: 0a25             .word 0x0a25
0170e4: fb7a             .word 0xfb7a
0170e5: fba3             .word 0xfba3
0170e6: 1733             .word 0x1733
0170e7: 2ab9             .word 0x2ab9
0170e8: 28c4             .word 0x28c4
0170e9: 19a2             .word 0x19a2
0170ea: fd7f             .word 0xfd7f
0170eb: effb             .word 0xeffb
0170ec: eb18             .word 0xeb18
0170ed: e505             .word 0xe505
0170ee: e05a             .word 0xe05a
0170ef: e7cd             .word 0xe7cd
0170f0: ec0f             .word 0xec0f
0170f1: e7a6             .word 0xe7a6
0170f2: ffbe             .word 0xffbe
0170f3: ede7             .word 0xede7
0170f4: 1517             .word 0x1517
0170f5: 3668             .word 0x3668
0170f6: 1673             .word 0x1673
0170f7: 36cd             .word 0x36cd
0170f8: 2f73             .word 0x2f73
0170f9: 1a14             .word 0x1a14
0170fa: 2c3c             .word 0x2c3c
0170fb: 53f5             .word 0x53f5
0170fc: 3878             .word 0x3878
0170fd: fb80             .word 0xfb80
0170fe: 15f4             .word 0x15f4
0170ff: fdf6             .word 0xfdf6
017100: d7b9             .word 0xd7b9
017101: dadf             .word 0xdadf
017102: d095             .word 0xd095
017103: d2f5             .word 0xd2f5
017104: cdcf             .word 0xcdcf
017105: cae1             .word 0xcae1
017106: dfdc             .word 0xdfdc
017107: e9a9             .word 0xe9a9
017108: d6dc             .word 0xd6dc
017109: f34d             .word 0xf34d
01710a: fd92             .word 0xfd92
01710b: db88             .word 0xdb88
01710c: f29a             .word 0xf29a
01710d: e2aa             .word 0xe2aa
01710e: e2ba             .word 0xe2ba
01710f: fa24             .word 0xfa24
017110: f991             .word 0xf991
017111: 28de             .word 0x28de
017112: 1adf             .word 0x1adf
017113: 0813             .word 0x0813
017114: 2e71             .word 0x2e71
017115: 3d5a             .word 0x3d5a
017116: 3545             .word 0x3545
017117: 2cf6             .word 0x2cf6
017118: 1d56             .word 0x1d56
017119: ff77             .word 0xff77
01711a: 06ce             .word 0x06ce
01711b: 1011             .word 0x1011
01711c: 0e1a             .word 0x0e1a
01711d: 0adc             .word 0x0adc
01711e: f759             .word 0xf759
01711f: f0bb             .word 0xf0bb
017120: fe6a             .word 0xfe6a
017121: 0e4a             .word 0x0e4a
017122: 0184             .word 0x0184
017123: ea93             .word 0xea93
017124: d6d2             .word 0xd6d2
017125: d567             .word 0xd567
017126: 03af             .word 0x03af
017127: 16dc             .word 0x16dc
017128: f3b8             .word 0xf3b8
017129: f58a             .word 0xf58a
01712a: fcae             .word 0xfcae
01712b: 1cd7             .word 0x1cd7
01712c: 35e8             .word 0x35e8
01712d: fbfd             .word 0xfbfd
01712e: e4c2             .word 0xe4c2
01712f: c88d             .word 0xc88d
017130: c5a9             .word 0xc5a9
017131: eeba             .word 0xeeba
017132: eff7             .word 0xeff7
017133: e400             .word 0xe400
017134: e4f7             .word 0xe4f7
017135: 04f5             .word 0x04f5
017136: f7f4             .word 0xf7f4
017137: ebf3             .word 0xebf3
017138: 0708             .word 0x0708
017139: 28b5             .word 0x28b5
01713a: 1ed8             .word 0x1ed8
01713b: ee87             .word 0xee87
01713c: ebe9             .word 0xebe9
01713d: fdb8             .word 0xfdb8
01713e: 1d9f             .word 0x1d9f
01713f: 0c5e             .word 0x0c5e
017140: 00eb             .word 0x00eb
017141: 2309             .word 0x2309
017142: 3b71             .word 0x3b71
017143: 35da             .word 0x35da
017144: 1023             .word 0x1023
017145: 18d2             .word 0x18d2
017146: 1844             .word 0x1844
017147: efa6             .word 0xefa6
017148: e318             .word 0xe318
017149: ff78             .word 0xff78
01714a: 1d0e             .word 0x1d0e
01714b: 3165             .word 0x3165
01714c: f693             .word 0xf693
01714d: ca25             .word 0xca25
01714e: d4f4             .word 0xd4f4
01714f: ad92             .word 0xad92
017150: db3d             .word 0xdb3d
017151: f46f             .word 0xf46f
017152: 019d             .word 0x019d
017153: 105f             .word 0x105f
017154: d92f             .word 0xd92f
017155: e335             .word 0xe335
017156: fb33             .word 0xfb33
017157: 229c             .word 0x229c
017158: 24df             .word 0x24df
017159: 1f19             .word 0x1f19
01715a: 3a6d             .word 0x3a6d
01715b: 209d             .word 0x209d
01715c: 117e             .word 0x117e
01715d: 1b7f             .word 0x1b7f
01715e: 17c3             .word 0x17c3
01715f: f145             .word 0xf145
017160: cd0d             .word 0xcd0d
017161: c8f8             .word 0xc8f8
017162: dca3             .word 0xdca3
017163: debb             .word 0xdebb
017164: c242             .word 0xc242
017165: e258             .word 0xe258
017166: 0a24             .word 0x0a24
017167: 0a55             .word 0x0a55
017168: 18f2             .word 0x18f2
017169: fcda             .word 0xfcda
01716a: e88b             .word 0xe88b
01716b: f28a             .word 0xf28a
01716c: 0814             .word 0x0814
01716d: 2598             .word 0x2598
01716e: 1970             .word 0x1970
01716f: 339f             .word 0x339f
017170: 45bd             .word 0x45bd
017171: 2d8b             .word 0x2d8b
017172: 22c9             .word 0x22c9
017173: 2d51             .word 0x2d51
017174: 2338             .word 0x2338
017175: fb3b             .word 0xfb3b
017176: e3bb             .word 0xe3bb
017177: c71c             .word 0xc71c
017178: bf29             .word 0xbf29
017179: c47d             .word 0xc47d
01717a: cb9f             .word 0xcb9f
01717b: cf3a             .word 0xcf3a
01717c: e5d5             .word 0xe5d5
01717d: f900             .word 0xf900
01717e: 0d44             .word 0x0d44
01717f: 193e             .word 0x193e
017180: 0a2c             .word 0x0a2c
017181: 3000             .word 0x3000
017182: 282f             .word 0x282f
017183: 117b             .word 0x117b
017184: f7fb             .word 0xf7fb
017185: edfb             .word 0xedfb
017186: 122d             .word 0x122d
017187: 0346             .word 0x0346
017188: 1240             .word 0x1240
017189: 11fc             .word 0x11fc
01718a: e624             .word 0xe624
01718b: d5f7             .word 0xd5f7
01718c: e876             .word 0xe876
01718d: 0288             .word 0x0288
01718e: 186c             .word 0x186c
01718f: 1772             .word 0x1772
017190: fac2             .word 0xfac2
017191: 0a8c             .word 0x0a8c
017192: 0742             .word 0x0742
017193: dbd0             .word 0xdbd0
017194: d5d5             .word 0xd5d5
017195: fc19             .word 0xfc19
017196: 1620             .word 0x1620
017197: 04fa             .word 0x04fa
017198: f122             .word 0xf122
017199: ec8c             .word 0xec8c
01719a: ef6f             .word 0xef6f
01719b: f2a4             .word 0xf2a4
01719c: e8d3             .word 0xe8d3
01719d: d511             .word 0xd511
01719e: ef51             .word 0xef51
01719f: 2706             .word 0x2706
0171a0: 3b82             .word 0x3b82
0171a1: 39cd             .word 0x39cd
0171a2: 4b47             .word 0x4b47
0171a3: 5d90             .word 0x5d90
0171a4: 470b             .word 0x470b
0171a5: 2f6b             .word 0x2f6b
0171a6: 08ba             .word 0x08ba
0171a7: e214             .word 0xe214
0171a8: ef96             .word 0xef96
0171a9: ef89             .word 0xef89
0171aa: e1a3             .word 0xe1a3
0171ab: ff13             .word 0xff13
0171ac: 184f             .word 0x184f
0171ad: eaaf             .word 0xeaaf
0171ae: c4d6             .word 0xc4d6
0171af: b30f             .word 0xb30f
0171b0: af53             .word 0xaf53
0171b1: d067             .word 0xd067
0171b2: d96b             .word 0xd96b
0171b3: e704             .word 0xe704
0171b4: e875             .word 0xe875
0171b5: 0901             .word 0x0901
0171b6: 1ad2             .word 0x1ad2
0171b7: fb8d             .word 0xfb8d
0171b8: 0f90             .word 0x0f90
0171b9: f992             .word 0xf992
0171ba: e824             .word 0xe824
0171bb: 0ebe             .word 0x0ebe
0171bc: 1b24             .word 0x1b24
0171bd: fd7e             .word 0xfd7e
0171be: f711             .word 0xf711
0171bf: 0a67             .word 0x0a67
0171c0: 0bbe             .word 0x0bbe
0171c1: 12c0             .word 0x12c0
0171c2: 0837             .word 0x0837
0171c3: 0ac6             .word 0x0ac6
0171c4: 17d3             .word 0x17d3
0171c5: 1fb4             .word 0x1fb4
0171c6: 14df             .word 0x14df
0171c7: 0079             .word 0x0079
0171c8: 0559             .word 0x0559
0171c9: 11e4             .word 0x11e4
0171ca: 1722             .word 0x1722
0171cb: f2da             .word 0xf2da
0171cc: fa70             .word 0xfa70
0171cd: 24ea             .word 0x24ea
0171ce: 12a0             .word 0x12a0
0171cf: ffed             .word 0xffed
0171d0: fbf4             .word 0xfbf4
0171d1: ebaa             .word 0xebaa
0171d2: d71e             .word 0xd71e
0171d3: da15             .word 0xda15
0171d4: fce1             .word 0xfce1
0171d5:               _sgn_dtk_n_samples:
0171d5:               .const:_sgn_dtk_n_samples:
0171d5: 032b             .word 0x032b
0171d6: e1d4             .word 0xe1d4
0171d7: c812             .word 0xc812
0171d8: cad5             .word 0xcad5
0171d9: ea0a             .word 0xea0a
0171da: 14cb             .word 0x14cb
0171db: 1f2f             .word 0x1f2f
0171dc: e81c             .word 0xe81c
0171dd: f5be             .word 0xf5be
0171de: f6f5             .word 0xf6f5
0171df: ff62             .word 0xff62
0171e0: d8d4             .word 0xd8d4
0171e1: ba5a             .word 0xba5a
0171e2: f1d0             .word 0xf1d0
0171e3: 04b2             .word 0x04b2
0171e4: 1eaf             .word 0x1eaf
0171e5: 2a5b             .word 0x2a5b
0171e6: 5053             .word 0x5053
0171e7: 459c             .word 0x459c
0171e8: 0cfb             .word 0x0cfb
0171e9: 0e55             .word 0x0e55
0171ea: 10bc             .word 0x10bc
0171eb: f453             .word 0xf453
0171ec: dbd4             .word 0xdbd4
0171ed: e09b             .word 0xe09b
0171ee: d6cf             .word 0xd6cf
0171ef: f0d5             .word 0xf0d5
0171f0: 15ae             .word 0x15ae
0171f1: fdc3             .word 0xfdc3
0171f2: e47f             .word 0xe47f
0171f3: 0816             .word 0x0816
0171f4: 2661             .word 0x2661
0171f5: 2e32             .word 0x2e32
0171f6: 2937             .word 0x2937
0171f7: feaa             .word 0xfeaa
0171f8: 0ddb             .word 0x0ddb
0171f9: 2b34             .word 0x2b34
0171fa: 1ec6             .word 0x1ec6
0171fb: 008b             .word 0x008b
0171fc: d503             .word 0xd503
0171fd: c9e1             .word 0xc9e1
0171fe: ed6c             .word 0xed6c
0171ff: f7b7             .word 0xf7b7
017200: cc32             .word 0xcc32
017201: ed58             .word 0xed58
017202: 2323             .word 0x2323
017203: 0fc5             .word 0x0fc5
017204: 00b7             .word 0x00b7
017205: e523             .word 0xe523
017206: e4be             .word 0xe4be
017207: f7e1             .word 0xf7e1
017208: e223             .word 0xe223
017209: e5b8             .word 0xe5b8
01720a: d5d3             .word 0xd5d3
01720b: c4c7             .word 0xc4c7
01720c: dc0c             .word 0xdc0c
01720d: f200             .word 0xf200
01720e: 1236             .word 0x1236
01720f: 1958             .word 0x1958
017210: 4d0b             .word 0x4d0b
017211: 63d1             .word 0x63d1
017212: 1efb             .word 0x1efb
017213: 2182             .word 0x2182
017214: 3122             .word 0x3122
017215: 170b             .word 0x170b
017216: f89b             .word 0xf89b
017217: f2df             .word 0xf2df
017218: e5fc             .word 0xe5fc
017219: ebd9             .word 0xebd9
01721a: 107a             .word 0x107a
01721b: f025             .word 0xf025
01721c: e851             .word 0xe851
01721d: d978             .word 0xd978
01721e: eb86             .word 0xeb86
01721f: 046b             .word 0x046b
017220: e04e             .word 0xe04e
017221: f454             .word 0xf454
017222: f9f4             .word 0xf9f4
017223: 0d2e             .word 0x0d2e
017224: fc8f             .word 0xfc8f
017225: 0537             .word 0x0537
017226: 1a00             .word 0x1a00
017227: fbd6             .word 0xfbd6
017228: fd52             .word 0xfd52
017229: f3e2             .word 0xf3e2
01722a: 1fd2             .word 0x1fd2
01722b: 24d2             .word 0x24d2
01722c: 2524             .word 0x2524
01722d: 2091             .word 0x2091
01722e: 185c             .word 0x185c
01722f: 35e2             .word 0x35e2
017230: 2be6             .word 0x2be6
017231: 23ec             .word 0x23ec
017232: ede5             .word 0xede5
017233: e377             .word 0xe377
017234: e832             .word 0xe832
017235: d850             .word 0xd850
017236: d290             .word 0xd290
017237: cf56             .word 0xcf56
017238: d511             .word 0xd511
017239: c0ad             .word 0xc0ad
01723a: ea4e             .word 0xea4e
01723b: fa37             .word 0xfa37
01723c: f414             .word 0xf414
01723d: 0cc4             .word 0x0cc4
01723e: faa8             .word 0xfaa8
01723f: 12b9             .word 0x12b9
017240: 207d             .word 0x207d
017241: ed9f             .word 0xed9f
017242: f327             .word 0xf327
017243: e612             .word 0xe612
017244: eff2             .word 0xeff2
017245: 14cc             .word 0x14cc
017246: 036e             .word 0x036e
017247: 26a2             .word 0x26a2
017248: 1f11             .word 0x1f11
017249: 16e8             .word 0x16e8
01724a: ebcd             .word 0xebcd
01724b: b668             .word 0xb668
01724c: f2a0             .word 0xf2a0
01724d: 0ed5             .word 0x0ed5
01724e: 2588             .word 0x2588
01724f: 25cd             .word 0x25cd
017250: 114c             .word 0x114c
017251: 049c             .word 0x049c
017252: 1d51             .word 0x1d51
017253: 280b             .word 0x280b
017254: f65f             .word 0xf65f
017255: fcf8             .word 0xfcf8
017256: 0743             .word 0x0743
017257: 03fd             .word 0x03fd
017258: fffc             .word 0xfffc
017259: 0aea             .word 0x0aea
01725a: 0812             .word 0x0812
01725b: f0c4             .word 0xf0c4
01725c: cdf0             .word 0xcdf0
01725d: d5d2             .word 0xd5d2
01725e: 021d             .word 0x021d
01725f: d015             .word 0xd015
017260: 0aa9             .word 0x0aa9
017261: 38cd             .word 0x38cd
017262: fedf             .word 0xfedf
017263: 0341             .word 0x0341
017264: ef9f             .word 0xef9f
017265: 0dcf             .word 0x0dcf
017266: 107c             .word 0x107c
017267: eadb             .word 0xeadb
017268: f435             .word 0xf435
017269: fcd3             .word 0xfcd3
01726a: 00f5             .word 0x00f5
01726b: ebf6             .word 0xebf6
01726c: d8eb             .word 0xd8eb
01726d: e2be             .word 0xe2be
01726e: f9ef             .word 0xf9ef
01726f: 0b18             .word 0x0b18
017270: 23e5             .word 0x23e5
017271: 1d47             .word 0x1d47
017272: 1a8c             .word 0x1a8c
017273: 193b             .word 0x193b
017274: 1357             .word 0x1357
017275: 28f5             .word 0x28f5
017276: 33e0             .word 0x33e0
017277: 42b2             .word 0x42b2
017278: 1aca             .word 0x1aca
017279: fd90             .word 0xfd90
01727a: fa6a             .word 0xfa6a
01727b: e5f2             .word 0xe5f2
01727c: de98             .word 0xde98
01727d: eb28             .word 0xeb28
01727e: 0105             .word 0x0105
01727f: e2dc             .word 0xe2dc
017280: d0ea             .word 0xd0ea
017281: d806             .word 0xd806
017282: de57             .word 0xde57
017283: d16a             .word 0xd16a
017284: e94b             .word 0xe94b
017285: f93e             .word 0xf93e
017286: e18d             .word 0xe18d
017287: 055b             .word 0x055b
017288: fbd8             .word 0xfbd8
017289: f424             .word 0xf424
01728a: fcc8             .word 0xfcc8
01728b: 0c2d             .word 0x0c2d
01728c: 1395             .word 0x1395
01728d: f452             .word 0xf452
01728e: 0662             .word 0x0662
01728f: 069a             .word 0x069a
017290: 07e5             .word 0x07e5
017291: 1dc4             .word 0x1dc4
017292: 1e20             .word 0x1e20
017293: 28b2             .word 0x28b2
017294: 2cb1             .word 0x2cb1
017295: f571             .word 0xf571
017296: f5cc             .word 0xf5cc
017297: 19ed             .word 0x19ed
017298: f61c             .word 0xf61c
017299: ee10             .word 0xee10
01729a: ea38             .word 0xea38
01729b: f53e             .word 0xf53e
01729c: f417             .word 0xf417
01729d: f8e8             .word 0xf8e8
01729e: 0f68             .word 0x0f68
01729f: 1b54             .word 0x1b54
0172a0: 488f             .word 0x488f
0172a1: 1d7a             .word 0x1d7a
0172a2: fe9c             .word 0xfe9c
0172a3: fdf9             .word 0xfdf9
0172a4: e901             .word 0xe901
0172a5: fdd9             .word 0xfdd9
0172a6: f12e             .word 0xf12e
0172a7: e473             .word 0xe473
0172a8: db42             .word 0xdb42
0172a9: e460             .word 0xe460
0172aa: ee9e             .word 0xee9e
0172ab: dfb9             .word 0xdfb9
0172ac: e0e5             .word 0xe0e5
0172ad: f164             .word 0xf164
0172ae: 23c4             .word 0x23c4
0172af: 2af1             .word 0x2af1
0172b0: 2eeb             .word 0x2eeb
0172b1: 4344             .word 0x4344
0172b2: 17da             .word 0x17da
0172b3: 106b             .word 0x106b
0172b4: 26d4             .word 0x26d4
0172b5: 1af0             .word 0x1af0
0172b6: 12bb             .word 0x12bb
0172b7: f1e9             .word 0xf1e9
0172b8: bd74             .word 0xbd74
0172b9: af49             .word 0xaf49
0172ba: ccf9             .word 0xccf9
0172bb: e6db             .word 0xe6db
0172bc: d95a             .word 0xd95a
0172bd: f77d             .word 0xf77d
0172be: fed7             .word 0xfed7
0172bf: fad5             .word 0xfad5
0172c0: 1f2f             .word 0x1f2f
0172c1: e450             .word 0xe450
0172c2: dd68             .word 0xdd68
0172c3: faac             .word 0xfaac
0172c4: de73             .word 0xde73
0172c5: d663             .word 0xd663
0172c6: eb18             .word 0xeb18
0172c7: 0150             .word 0x0150
0172c8: f79a             .word 0xf79a
0172c9: fedd             .word 0xfedd
0172ca: 0678             .word 0x0678
0172cb: 368a             .word 0x368a
0172cc: 49b7             .word 0x49b7
0172cd: 3558             .word 0x3558
0172ce: 170d             .word 0x170d
0172cf: f69f             .word 0xf69f
0172d0: 1db9             .word 0x1db9
0172d1: 14a9             .word 0x14a9
0172d2: 12d7             .word 0x12d7
0172d3: 24f8             .word 0x24f8
0172d4: 12d2             .word 0x12d2
0172d5: 239e             .word 0x239e
0172d6: 322f             .word 0x322f
0172d7: 0d84             .word 0x0d84
0172d8: f571             .word 0xf571
0172d9: dc37             .word 0xdc37
0172da: d016             .word 0xd016
0172db: fa2b             .word 0xfa2b
0172dc: 09f4             .word 0x09f4
0172dd: 0d4f             .word 0x0d4f
0172de: fafb             .word 0xfafb
0172df: 06ff             .word 0x06ff
0172e0: fcf7             .word 0xfcf7
0172e1: e354             .word 0xe354
0172e2: eb47             .word 0xeb47
0172e3: cf80             .word 0xcf80
0172e4: c4a9             .word 0xc4a9
0172e5: de8f             .word 0xde8f
0172e6: 134b             .word 0x134b
0172e7: e95c             .word 0xe95c
0172e8: e611             .word 0xe611
0172e9: 1b2d             .word 0x1b2d
0172ea: 0e31             .word 0x0e31
0172eb: 0e88             .word 0x0e88
0172ec: fa16             .word 0xfa16
0172ed: fa04             .word 0xfa04
0172ee: ede7             .word 0xede7
0172ef: e859             .word 0xe859
0172f0: 0152             .word 0x0152
0172f1: 1a78             .word 0x1a78
0172f2: 28b7             .word 0x28b7
0172f3: f3c8             .word 0xf3c8
0172f4: dee7             .word 0xdee7
0172f5: 09cf             .word 0x09cf
0172f6: 1e7c             .word 0x1e7c
0172f7: 104a             .word 0x104a
0172f8: f39b             .word 0xf39b
0172f9: 1296             .word 0x1296
0172fa: 3bd2             .word 0x3bd2
0172fb: 0fae             .word 0x0fae
0172fc: 02bf             .word 0x02bf
0172fd: e70e             .word 0xe70e
0172fe: c191             .word 0xc191
0172ff: dec1             .word 0xdec1
017300: f322             .word 0xf322
017301: 0c94             .word 0x0c94
017302: 18a5             .word 0x18a5
017303: 273d             .word 0x273d
017304: 233b             .word 0x233b
017305: f7ff             .word 0xf7ff
017306: f295             .word 0xf295
017307: 0452             .word 0x0452
017308: fa52             .word 0xfa52
017309: 0c55             .word 0x0c55
01730a: 1e15             .word 0x1e15
01730b: f844             .word 0xf844
01730c: fb12             .word 0xfb12
01730d: ff23             .word 0xff23
01730e: f1ed             .word 0xf1ed
01730f: e9ed             .word 0xe9ed
017310: f695             .word 0xf695
017311: 00bd             .word 0x00bd
017312: da5a             .word 0xda5a
017313: f598             .word 0xf598
017314: f43f             .word 0xf43f
017315: e429             .word 0xe429
017316: 1be0             .word 0x1be0
017317: 42e3             .word 0x42e3
017318: 40d2             .word 0x40d2
017319: 0857             .word 0x0857
01731a: 2064             .word 0x2064
01731b: 1d99             .word 0x1d99
01731c: d9e3             .word 0xd9e3
01731d: e9c0             .word 0xe9c0
01731e: e311             .word 0xe311
01731f: dd02             .word 0xdd02
017320: db91             .word 0xdb91
017321: e06c             .word 0xe06c
017322: fe7d             .word 0xfe7d
017323: f3dc             .word 0xf3dc
017324: e2cf             .word 0xe2cf
017325: e3f8             .word 0xe3f8
017326: f3c0             .word 0xf3c0
017327: 03fd             .word 0x03fd
017328: 041c             .word 0x041c
017329: 1244             .word 0x1244
01732a: 1072             .word 0x1072
01732b: 00e5             .word 0x00e5
01732c: 18ac             .word 0x18ac
01732d: 1c00             .word 0x1c00
01732e: 19c1             .word 0x19c1
01732f: 0998             .word 0x0998
017330: eff7             .word 0xeff7
017331: f8fe             .word 0xf8fe
017332: 1382             .word 0x1382
017333: 284a             .word 0x284a
017334: 1287             .word 0x1287
017335: fdcb             .word 0xfdcb
017336: e6b0             .word 0xe6b0
017337: f098             .word 0xf098
017338: 0329             .word 0x0329
017339: 075f             .word 0x075f
01733a: fd46             .word 0xfd46
01733b: e288             .word 0xe288
01733c: f274             .word 0xf274
01733d: f294             .word 0xf294
01733e: f0c3             .word 0xf0c3
01733f: f030             .word 0xf030
017340: 0e4e             .word 0x0e4e
017341: 25f2             .word 0x25f2
017342: 0a3e             .word 0x0a3e
017343: 0968             .word 0x0968
017344: 1786             .word 0x1786
017345: 1477             .word 0x1477
017346: 180e             .word 0x180e
017347: 2db9             .word 0x2db9
017348: 0aa1             .word 0x0aa1
017349: 02c7             .word 0x02c7
01734a: fb04             .word 0xfb04
01734b: c373             .word 0xc373
01734c: e0b4             .word 0xe0b4
01734d: 0554             .word 0x0554
01734e: dfb9             .word 0xdfb9
01734f: d5ab             .word 0xd5ab
017350: f32d             .word 0xf32d
017351: de79             .word 0xde79
017352: df06             .word 0xdf06
017353: f971             .word 0xf971
017354: 06ad             .word 0x06ad
017355: 0e88             .word 0x0e88
017356: 0425             .word 0x0425
017357: 0856             .word 0x0856
017358: f03b             .word 0xf03b
017359: f339             .word 0xf339
01735a: 2f80             .word 0x2f80
01735b: 189a             .word 0x189a
01735c: 03f5             .word 0x03f5
01735d: 1807             .word 0x1807
01735e: 0a67             .word 0x0a67
01735f: 29c2             .word 0x29c2
017360: 24ec             .word 0x24ec
017361: 0b83             .word 0x0b83
017362: 0964             .word 0x0964
017363: fd55             .word 0xfd55
017364: fada             .word 0xfada
017365: f14f             .word 0xf14f
017366: f146             .word 0xf146
017367: dcf8             .word 0xdcf8
017368: e9c2             .word 0xe9c2
017369: df24             .word 0xdf24
01736a: df21             .word 0xdf21
01736b: 10fe             .word 0x10fe
01736c: 0c85             .word 0x0c85
01736d: 1eab             .word 0x1eab
01736e: 1c6d             .word 0x1c6d
01736f: 0b28             .word 0x0b28
017370: 03a6             .word 0x03a6
017371: f560             .word 0xf560
017372: 19b1             .word 0x19b1
017373: 2c44             .word 0x2c44
017374: 0d35             .word 0x0d35
017375: e90d             .word 0xe90d
017376: e723             .word 0xe723
017377: 0258             .word 0x0258
017378: f6e8             .word 0xf6e8
017379: e883             .word 0xe883
01737a: d7e1             .word 0xd7e1
01737b: c754             .word 0xc754
01737c: f0ea             .word 0xf0ea
01737d: fdd9             .word 0xfdd9
01737e: fc9f             .word 0xfc9f
01737f: 08ad             .word 0x08ad
017380: 0dcd             .word 0x0dcd
017381: f743             .word 0xf743
017382: cd5f             .word 0xcd5f
017383: cbcc             .word 0xcbcc
017384: d74c             .word 0xd74c
017385: 038e             .word 0x038e
017386: 0159             .word 0x0159
017387: fa6a             .word 0xfa6a
017388: 2778             .word 0x2778
017389: 1974             .word 0x1974
01738a: 2aca             .word 0x2aca
01738b: 2969             .word 0x2969
01738c: 0849             .word 0x0849
01738d: 1abd             .word 0x1abd
01738e: 04a4             .word 0x04a4
01738f: 1ea9             .word 0x1ea9
017390: 355e             .word 0x355e
017391: 168c             .word 0x168c
017392: 35ce             .word 0x35ce
017393: 28bd             .word 0x28bd
017394: 0404             .word 0x0404
017395: 044b             .word 0x044b
017396: 1a5a             .word 0x1a5a
017397: 3183             .word 0x3183
017398: 2c8c             .word 0x2c8c
017399: 1458             .word 0x1458
01739a: d8fc             .word 0xd8fc
01739b: b5ea             .word 0xb5ea
01739c: b70f             .word 0xb70f
01739d: df26             .word 0xdf26
01739e: e3f4             .word 0xe3f4
01739f: b68d             .word 0xb68d
0173a0: ce72             .word 0xce72
0173a1: d2c6             .word 0xd2c6
0173a2: be22             .word 0xbe22
0173a3: cf3c             .word 0xcf3c
0173a4: e0be             .word 0xe0be
0173a5: f061             .word 0xf061
0173a6: 09d2             .word 0x09d2
0173a7: 0424             .word 0x0424
0173a8: d274             .word 0xd274
0173a9: d196             .word 0xd196
0173aa: f2c0             .word 0xf2c0
0173ab: 24c8             .word 0x24c8
0173ac: 3fa3             .word 0x3fa3
0173ad: 2ee2             .word 0x2ee2
0173ae: 261a             .word 0x261a
0173af: 23fd             .word 0x23fd
0173b0: 3206             .word 0x3206
0173b1: 321b             .word 0x321b
0173b2: 6451             .word 0x6451
0173b3: 5839             .word 0x5839
0173b4: 1b67             .word 0x1b67
0173b5: 0b7f             .word 0x0b7f
0173b6: e692             .word 0xe692
0173b7: 1df8             .word 0x1df8
0173b8: 30b2             .word 0x30b2
0173b9: 20d8             .word 0x20d8
0173ba: f26c             .word 0xf26c
0173bb: b781             .word 0xb781
0173bc: f1b4             .word 0xf1b4
0173bd: f7c1             .word 0xf7c1
0173be: cea9             .word 0xcea9
0173bf: ac2d             .word 0xac2d
0173c0: aac5             .word 0xaac5
0173c1: db7f             .word 0xdb7f
0173c2: 096b             .word 0x096b
0173c3: 0100             .word 0x0100
0173c4: fa42             .word 0xfa42
0173c5: fef4             .word 0xfef4
0173c6: f3f6             .word 0xf3f6
0173c7: 051f             .word 0x051f
0173c8: 0afc             .word 0x0afc
0173c9: 1596             .word 0x1596
0173ca: 1299             .word 0x1299
0173cb: 2d2b             .word 0x2d2b
0173cc: 2606             .word 0x2606
0173cd: 1212             .word 0x1212
0173ce: 0230             .word 0x0230
0173cf: e432             .word 0xe432
0173d0: fba0             .word 0xfba0
0173d1: d154             .word 0xd154
0173d2: dd68             .word 0xdd68
0173d3: de28             .word 0xde28
0173d4: d85a             .word 0xd85a
0173d5: 0795             .word 0x0795
0173d6: e412             .word 0xe412
0173d7: e003             .word 0xe003
0173d8: e291             .word 0xe291
0173d9: e019             .word 0xe019
0173da: 026e             .word 0x026e
0173db: 149f             .word 0x149f
0173dc: 2884             .word 0x2884
0173dd: 4d24             .word 0x4d24
0173de: 2a33             .word 0x2a33
0173df: 0ae4             .word 0x0ae4
0173e0: ffdb             .word 0xffdb
0173e1: fd13             .word 0xfd13
0173e2: 18af             .word 0x18af
0173e3: ee6a             .word 0xee6a
0173e4: fd40             .word 0xfd40
0173e5: 2098             .word 0x2098
0173e6: 1e48             .word 0x1e48
0173e7: 097e             .word 0x097e
0173e8: 00c2             .word 0x00c2
0173e9: 1820             .word 0x1820
0173ea: 14f0             .word 0x14f0
0173eb: 2f89             .word 0x2f89
0173ec: 3576             .word 0x3576
0173ed: 1dbe             .word 0x1dbe
0173ee: fadf             .word 0xfadf
0173ef: e92a             .word 0xe92a
0173f0: e481             .word 0xe481
0173f1: f24a             .word 0xf24a
0173f2: fe3f             .word 0xfe3f
0173f3: ffa8             .word 0xffa8
0173f4: 03ad             .word 0x03ad
0173f5: e2fa             .word 0xe2fa
0173f6: da91             .word 0xda91
0173f7: b83e             .word 0xb83e
0173f8: a3b6             .word 0xa3b6
0173f9: c18a             .word 0xc18a
0173fa: f578             .word 0xf578
0173fb: f1a9             .word 0xf1a9
0173fc: f413             .word 0xf413
0173fd: 3150             .word 0x3150
0173fe: 0f3c             .word 0x0f3c
0173ff: f4e7             .word 0xf4e7
017400: 01d8             .word 0x01d8
017401: 179f             .word 0x179f
017402: 0540             .word 0x0540
017403: eb2b             .word 0xeb2b
017404: e556             .word 0xe556
017405: e438             .word 0xe438
017406: 08c8             .word 0x08c8
017407: 193d             .word 0x193d
017408: 2262             .word 0x2262
017409: 00f5             .word 0x00f5
01740a: f9ce             .word 0xf9ce
01740b: 049a             .word 0x049a
01740c: 2409             .word 0x2409
01740d: 46db             .word 0x46db
01740e: 20dc             .word 0x20dc
01740f: 1b34             .word 0x1b34
017410: 1d2b             .word 0x1d2b
017411: f7f4             .word 0xf7f4
017412: e172             .word 0xe172
017413: 0e14             .word 0x0e14
017414: 24c8             .word 0x24c8
017415: 04d6             .word 0x04d6
017416: e9f6             .word 0xe9f6
017417: fc9d             .word 0xfc9d
017418: 1752             .word 0x1752
017419: 1431             .word 0x1431
01741a: 0f38             .word 0x0f38
01741b: e9d6             .word 0xe9d6
01741c: f3e6             .word 0xf3e6
01741d: f5d0             .word 0xf5d0
01741e: dfa2             .word 0xdfa2
01741f: f633             .word 0xf633
017420: c80f             .word 0xc80f
017421: baa1             .word 0xbaa1
017422: f337             .word 0xf337
017423: f05a             .word 0xf05a
017424: 04af             .word 0x04af
017425: 120b             .word 0x120b
017426: fe74             .word 0xfe74
017427: fa97             .word 0xfa97
017428: 014b             .word 0x014b
017429: 132f             .word 0x132f
01742a: ed72             .word 0xed72
01742b: e654             .word 0xe654
01742c: e8c1             .word 0xe8c1
01742d: ecf7             .word 0xecf7
01742e: f368             .word 0xf368
01742f: e1fa             .word 0xe1fa
017430: 1049             .word 0x1049
017431: 1b38             .word 0x1b38
017432: 223e             .word 0x223e
017433: 373b             .word 0x373b
017434: 3576             .word 0x3576
017435: 23ad             .word 0x23ad
017436: 2922             .word 0x2922
017437: 27ea             .word 0x27ea
017438: 0191             .word 0x0191
017439: 2b08             .word 0x2b08
01743a: 287b             .word 0x287b
01743b: ec38             .word 0xec38
01743c: e33e             .word 0xe33e
01743d: 0b4b             .word 0x0b4b
01743e: 1e08             .word 0x1e08
01743f: 07fc             .word 0x07fc
017440: d6f5             .word 0xd6f5
017441: c1de             .word 0xc1de
017442: f6ba             .word 0xf6ba
017443: ef0d             .word 0xef0d
017444: e3e3             .word 0xe3e3
017445: c5cb             .word 0xc5cb
017446: b269             .word 0xb269
017447: c76b             .word 0xc76b
017448: c50f             .word 0xc50f
017449: d653             .word 0xd653
01744a: e5f3             .word 0xe5f3
01744b: 27a6             .word 0x27a6
01744c: 171a             .word 0x171a
01744d: 093d             .word 0x093d
01744e: 2a14             .word 0x2a14
01744f: ff7d             .word 0xff7d
017450: 0e91             .word 0x0e91
017451: 1b1e             .word 0x1b1e
017452: f229             .word 0xf229
017453: e2e8             .word 0xe2e8
017454: 174e             .word 0x174e
017455: 2b19             .word 0x2b19
017456: 45e4             .word 0x45e4
017457: 4865             .word 0x4865
017458: 20d4             .word 0x20d4
017459: 3dab             .word 0x3dab
01745a: 1bce             .word 0x1bce
01745b: 2be5             .word 0x2be5
01745c: 462c             .word 0x462c
01745d: 1472             .word 0x1472
01745e: e1b3             .word 0xe1b3
01745f: c124             .word 0xc124
017460: d904             .word 0xd904
017461: c8f0             .word 0xc8f0
017462: da41             .word 0xda41
017463: e752             .word 0xe752
017464: cff7             .word 0xcff7
017465: f3af             .word 0xf3af
017466: faeb             .word 0xfaeb
017467: f460             .word 0xf460
017468: e6cd             .word 0xe6cd
017469: c12f             .word 0xc12f
01746a: db70             .word 0xdb70
01746b: edb9             .word 0xedb9
01746c: ef2e             .word 0xef2e
01746d: 0f31             .word 0x0f31
01746e: 0fd4             .word 0x0fd4
01746f: 2f66             .word 0x2f66
017470: 3688             .word 0x3688
017471: 20e6             .word 0x20e6
017472: 102d             .word 0x102d
017473: 00a7             .word 0x00a7
017474: ec0c             .word 0xec0c
017475: bdd5             .word 0xbdd5
017476: 0253             .word 0x0253
017477: 26ec             .word 0x26ec
017478: 23fe             .word 0x23fe
017479: 400a             .word 0x400a
01747a: 01f1             .word 0x01f1
01747b: ef77             .word 0xef77
01747c: 054d             .word 0x054d
01747d: 04a3             .word 0x04a3
01747e: 063a             .word 0x063a
01747f: 00fe             .word 0x00fe
017480: edd4             .word 0xedd4
017481: dee6             .word 0xdee6
017482: fe67             .word 0xfe67
017483: 0253             .word 0x0253
017484: 07d3             .word 0x07d3
017485: 15d3             .word 0x15d3
017486: ff49             .word 0xff49
017487: 1084             .word 0x1084
017488: 12ac             .word 0x12ac
017489: 0fc4             .word 0x0fc4
01748a: eddb             .word 0xeddb
01748b: d4b7             .word 0xd4b7
01748c: 082a             .word 0x082a
01748d: 1497             .word 0x1497
01748e: 1310             .word 0x1310
01748f: e855             .word 0xe855
017490: de38             .word 0xde38
017491: e2ee             .word 0xe2ee
017492: d463             .word 0xd463
017493: df53             .word 0xdf53
017494: d2a7             .word 0xd2a7
017495: f5f9             .word 0xf5f9
017496: 037a             .word 0x037a
017497: 1811             .word 0x1811
017498: f3f3             .word 0xf3f3
017499: d8f1             .word 0xd8f1
01749a: 1b8b             .word 0x1b8b
01749b: 1003             .word 0x1003
01749c: 217b             .word 0x217b
01749d: 0d1d             .word 0x0d1d
01749e: fa72             .word 0xfa72
01749f: 2441             .word 0x2441
0174a0: 23a6             .word 0x23a6
0174a1: 2966             .word 0x2966
0174a2: 139f             .word 0x139f
0174a3: 0665             .word 0x0665
0174a4: 27fc             .word 0x27fc
0174a5: 3675             .word 0x3675
0174a6: 109f             .word 0x109f
0174a7: f998             .word 0xf998
0174a8: e89a             .word 0xe89a
0174a9: ab3d             .word 0xab3d
0174aa: 939d             .word 0x939d
0174ab: e17a             .word 0xe17a
0174ac: 08d2             .word 0x08d2
0174ad: e232             .word 0xe232
0174ae: 01fe             .word 0x01fe
0174af: 0c34             .word 0x0c34
0174b0: f972             .word 0xf972
0174b1: 1c47             .word 0x1c47
0174b2: 2055             .word 0x2055
0174b3: 044e             .word 0x044e
0174b4: 1293             .word 0x1293
0174b5: 07f4             .word 0x07f4
0174b6: f2d7             .word 0xf2d7
0174b7: 22c0             .word 0x22c0
0174b8: 0bec             .word 0x0bec
0174b9: 024b             .word 0x024b
0174ba: 2204             .word 0x2204
0174bb: 19f8             .word 0x19f8
0174bc: 0e32             .word 0x0e32
0174bd: f1fc             .word 0xf1fc
0174be: 00c2             .word 0x00c2
0174bf: 0f1c             .word 0x0f1c
0174c0: 2c8d             .word 0x2c8d
0174c1: 1b57             .word 0x1b57
0174c2: c8f3             .word 0xc8f3
0174c3: b61b             .word 0xb61b
0174c4: d2e6             .word 0xd2e6
0174c5: f03b             .word 0xf03b
0174c6: fa74             .word 0xfa74
0174c7: 1111             .word 0x1111
0174c8: da56             .word 0xda56
0174c9: ca06             .word 0xca06
0174ca: 0dfe             .word 0x0dfe
0174cb: 086f             .word 0x086f
0174cc: 136c             .word 0x136c
0174cd: 11c4             .word 0x11c4
0174ce: 0887             .word 0x0887
0174cf: eb68             .word 0xeb68
0174d0: cb81             .word 0xcb81
0174d1: 0389             .word 0x0389
0174d2: 0686             .word 0x0686
0174d3: f530             .word 0xf530
0174d4: fd0c             .word 0xfd0c
0174d5: 004f             .word 0x004f
0174d6: 239e             .word 0x239e
0174d7: 139b             .word 0x139b
0174d8: d48d             .word 0xd48d
0174d9: e056             .word 0xe056
0174da: 02f2             .word 0x02f2
0174db: ebed             .word 0xebed
0174dc: fb7a             .word 0xfb7a
0174dd: 1c95             .word 0x1c95
0174de: 4056             .word 0x4056
0174df: 55c4             .word 0x55c4
0174e0: 12ff             .word 0x12ff
0174e1: 0ae8             .word 0x0ae8
0174e2: 307e             .word 0x307e
0174e3: 12ef             .word 0x12ef
0174e4: fec1             .word 0xfec1
0174e5: 093e             .word 0x093e
0174e6: e8d0             .word 0xe8d0
0174e7: d15e             .word 0xd15e
0174e8: 0543             .word 0x0543
0174e9: 2717             .word 0x2717
0174ea: 22af             .word 0x22af
0174eb: 002c             .word 0x002c
0174ec: e1f4             .word 0xe1f4
0174ed: ec6d             .word 0xec6d
0174ee: c4c7             .word 0xc4c7
0174ef: ba84             .word 0xba84
0174f0: f6be             .word 0xf6be
0174f1: f815             .word 0xf815
0174f2: ecb2             .word 0xecb2
0174f3: d77f             .word 0xd77f
0174f4: d433             .word 0xd433
0174f5: 0930             .word 0x0930
0174f6: 2105             .word 0x2105
0174f7: 32e6             .word 0x32e6
0174f8: 1fa5             .word 0x1fa5
0174f9: 0754             .word 0x0754
0174fa: 0b8b             .word 0x0b8b
0174fb: f2f7             .word 0xf2f7
0174fc: f250             .word 0xf250
0174fd: 05c0             .word 0x05c0
0174fe: 03e0             .word 0x03e0
0174ff: ff0b             .word 0xff0b
017500: f6b5             .word 0xf6b5
017501: fa86             .word 0xfa86
017502: 19ea             .word 0x19ea
017503: 006f             .word 0x006f
017504: 0002             .word 0x0002
017505: 25e0             .word 0x25e0
017506: f9f6             .word 0xf9f6
017507: e67f             .word 0xe67f
017508: fbdf             .word 0xfbdf
017509: fac5             .word 0xfac5
01750a: e673             .word 0xe673
01750b: fdd9             .word 0xfdd9
01750c: 07fc             .word 0x07fc
01750d: f65d             .word 0xf65d
01750e: 3983             .word 0x3983
01750f: 3410             .word 0x3410
017510: 041c             .word 0x041c
017511: 0f08             .word 0x0f08
017512: ef53             .word 0xef53
017513: e23f             .word 0xe23f
017514: fe2c             .word 0xfe2c
017515: 09c7             .word 0x09c7
017516: 0a22             .word 0x0a22
017517: 03aa             .word 0x03aa
017518: edf9             .word 0xedf9
017519: f974             .word 0xf974
01751a: ffc3             .word 0xffc3
01751b: ce40             .word 0xce40
01751c: d0b4             .word 0xd0b4
01751d: ea1c             .word 0xea1c
01751e: f3db             .word 0xf3db
01751f: 06d7             .word 0x06d7
017520: 0f7f             .word 0x0f7f
017521: 1aa3             .word 0x1aa3
017522: 24e7             .word 0x24e7
017523: 3f39             .word 0x3f39
017524: 27b7             .word 0x27b7
017525: f0ee             .word 0xf0ee
017526: e78c             .word 0xe78c
017527: e002             .word 0xe002
017528: f215             .word 0xf215
017529: f646             .word 0xf646
01752a: ed25             .word 0xed25
01752b: f406             .word 0xf406
01752c: f637             .word 0xf637
01752d: 0c93             .word 0x0c93
01752e: 1c74             .word 0x1c74
01752f: 1563             .word 0x1563
017530: ed3b             .word 0xed3b
017531: dc22             .word 0xdc22
017532: d76f             .word 0xd76f
017533: de64             .word 0xde64
017534: 0e1f             .word 0x0e1f
017535: 25ea             .word 0x25ea
017536: 180b             .word 0x180b
017537: ec45             .word 0xec45
017538: 02bf             .word 0x02bf
017539: 0fcf             .word 0x0fcf
01753a: 06c0             .word 0x06c0
01753b: 1201             .word 0x1201
01753c: fb58             .word 0xfb58
01753d: 0c02             .word 0x0c02
01753e: e54e             .word 0xe54e
01753f: e623             .word 0xe623
017540: 18ab             .word 0x18ab
017541: 2023             .word 0x2023
017542: 4266             .word 0x4266
017543: 2d8b             .word 0x2d8b
017544: 0695             .word 0x0695
017545: dbd0             .word 0xdbd0
017546: f2ee             .word 0xf2ee
017547: 1c8c             .word 0x1c8c
017548: ff34             .word 0xff34
017549: f146             .word 0xf146
01754a: ce54             .word 0xce54
01754b: d1db             .word 0xd1db
01754c: d8f1             .word 0xd8f1
01754d: e952             .word 0xe952
01754e: 08a9             .word 0x08a9
01754f: f9ab             .word 0xf9ab
017550: 07c2             .word 0x07c2
017551: 00fc             .word 0x00fc
017552: ebaa             .word 0xebaa
017553: f759             .word 0xf759
017554: 2dd5             .word 0x2dd5
017555: 3a11             .word 0x3a11
017556: 2dd2             .word 0x2dd2
017557: 24a6             .word 0x24a6
017558: e841             .word 0xe841
017559: e145             .word 0xe145
01755a: d045             .word 0xd045
01755b: d5ce             .word 0xd5ce
01755c: f3a3             .word 0xf3a3
01755d: e7db             .word 0xe7db
01755e: e2f7             .word 0xe2f7
01755f: e705             .word 0xe705
017560: 1c98             .word 0x1c98
017561: 1b36             .word 0x1b36
017562: f414             .word 0xf414
017563: 2037             .word 0x2037
017564: 53aa             .word 0x53aa
017565: 392b             .word 0x392b
017566: 2c29             .word 0x2c29
017567: 2b42             .word 0x2b42
017568: 08d5             .word 0x08d5
017569: f899             .word 0xf899
01756a: e6cf             .word 0xe6cf
01756b: da64             .word 0xda64
01756c: c8af             .word 0xc8af
01756d: de96             .word 0xde96
01756e: dad4             .word 0xdad4
01756f: e55f             .word 0xe55f
017570: 0c21             .word 0x0c21
017571: e3da             .word 0xe3da
017572: f9f7             .word 0xf9f7
017573: 1ac4             .word 0x1ac4
017574: 132c             .word 0x132c
017575: 07f7             .word 0x07f7
017576: 1c3e             .word 0x1c3e
017577: 1be5             .word 0x1be5
017578: e614             .word 0xe614
017579: eb90             .word 0xeb90
01757a: ed9a             .word 0xed9a
01757b: e684             .word 0xe684
01757c: e151             .word 0xe151
01757d: faa7             .word 0xfaa7
01757e: fa62             .word 0xfa62
01757f: efc0             .word 0xefc0
017580: 1290             .word 0x1290
017581: 034b             .word 0x034b
017582: 0f07             .word 0x0f07
017583: 0c69             .word 0x0c69
017584: 0a3f             .word 0x0a3f
017585: 1ecb             .word 0x1ecb
017586: 2210             .word 0x2210
017587: 1105             .word 0x1105
017588: 193f             .word 0x193f
017589: 66f3             .word 0x66f3
01758a: 37e9             .word 0x37e9
01758b: f802             .word 0xf802
01758c: d7ba             .word 0xd7ba
01758d: ca62             .word 0xca62
01758e: e8a1             .word 0xe8a1
01758f: bda2             .word 0xbda2
017590: c7cc             .word 0xc7cc
017591: f3ce             .word 0xf3ce
017592: 1c27             .word 0x1c27
017593: 0193             .word 0x0193
017594: e395             .word 0xe395
017595: 0898             .word 0x0898
017596: e325             .word 0xe325
017597: e027             .word 0xe027
017598: fc37             .word 0xfc37
017599: 1ee8             .word 0x1ee8
01759a: 336f             .word 0x336f
01759b: 1a8c             .word 0x1a8c
01759c: 1f32             .word 0x1f32
01759d: 0c33             .word 0x0c33
01759e: e3f5             .word 0xe3f5
01759f: e03c             .word 0xe03c
0175a0: e856             .word 0xe856
0175a1: f8e6             .word 0xf8e6
0175a2: 2119             .word 0x2119
0175a3: 1ddb             .word 0x1ddb
0175a4: 0ffb             .word 0x0ffb
0175a5: 2902             .word 0x2902
0175a6: 207e             .word 0x207e
0175a7: 04c0             .word 0x04c0
0175a8: f767             .word 0xf767
0175a9: db67             .word 0xdb67
0175aa: d725             .word 0xd725
0175ab: e07b             .word 0xe07b
0175ac: d8af             .word 0xd8af
0175ad: da4a             .word 0xda4a
0175ae: dfd1             .word 0xdfd1
0175af: e793             .word 0xe793
0175b0: d76b             .word 0xd76b
0175b1: ed9e             .word 0xed9e
0175b2: 04a4             .word 0x04a4
0175b3: eafd             .word 0xeafd
0175b4: f876             .word 0xf876
0175b5: 038c             .word 0x038c
0175b6: 07a3             .word 0x07a3
0175b7: 18c5             .word 0x18c5
0175b8: 19d6             .word 0x19d6
0175b9: 1a36             .word 0x1a36
0175ba: 33dd             .word 0x33dd
0175bb: 426b             .word 0x426b
0175bc: 3e11             .word 0x3e11
0175bd: 26c3             .word 0x26c3
0175be: 1ebe             .word 0x1ebe
0175bf: 2b59             .word 0x2b59
0175c0: 071a             .word 0x071a
0175c1: 091a             .word 0x091a
0175c2: 12c0             .word 0x12c0
0175c3: fe7e             .word 0xfe7e
0175c4: fe77             .word 0xfe77
0175c5: e3cb             .word 0xe3cb
0175c6: d423             .word 0xd423
0175c7: f177             .word 0xf177
0175c8: 0ab7             .word 0x0ab7
0175c9: 1ac1             .word 0x1ac1
0175ca: 1cb9             .word 0x1cb9
0175cb: 07a1             .word 0x07a1
0175cc: e3f2             .word 0xe3f2
0175cd: b795             .word 0xb795
0175ce: ccce             .word 0xccce
0175cf: e24e             .word 0xe24e
0175d0: d164             .word 0xd164
0175d1: bb0b             .word 0xbb0b
0175d2: b8dd             .word 0xb8dd
0175d3: dc16             .word 0xdc16
0175d4: e19b             .word 0xe19b
0175d5: 0ef1             .word 0x0ef1
0175d6: 2ad2             .word 0x2ad2
0175d7: 1557             .word 0x1557
0175d8: fc57             .word 0xfc57
0175d9: 0908             .word 0x0908
0175da: 1513             .word 0x1513
0175db: f77c             .word 0xf77c
0175dc: 0daa             .word 0x0daa
0175dd: fa79             .word 0xfa79
0175de: 0575             .word 0x0575
0175df: 0b66             .word 0x0b66
0175e0: 0ab1             .word 0x0ab1
0175e1: 4579             .word 0x4579
0175e2: 3483             .word 0x3483
0175e3: 1b06             .word 0x1b06
0175e4: 1cce             .word 0x1cce
0175e5: 3924             .word 0x3924
0175e6: 28aa             .word 0x28aa
0175e7: 0e9c             .word 0x0e9c
0175e8: 0594             .word 0x0594
0175e9: d722             .word 0xd722
0175ea: ea32             .word 0xea32
0175eb: 14d5             .word 0x14d5
0175ec: 0a05             .word 0x0a05
0175ed: de8e             .word 0xde8e
0175ee: de9d             .word 0xde9d
0175ef: e7a6             .word 0xe7a6
0175f0: cedb             .word 0xcedb
0175f1: d31f             .word 0xd31f
0175f2: de44             .word 0xde44
0175f3: 0139             .word 0x0139
0175f4: 166a             .word 0x166a
0175f5: ee81             .word 0xee81
0175f6: 0ccc             .word 0x0ccc
0175f7: 1aa6             .word 0x1aa6
0175f8: ef76             .word 0xef76
0175f9: 1b20             .word 0x1b20
0175fa: 1ff2             .word 0x1ff2
0175fb: 1709             .word 0x1709
0175fc: 1d2b             .word 0x1d2b
0175fd: fbb0             .word 0xfbb0
0175fe: f165             .word 0xf165
0175ff: e43b             .word 0xe43b
017600: f34b             .word 0xf34b
017601: ea6f             .word 0xea6f
017602: f9a5             .word 0xf9a5
017603: 1ffa             .word 0x1ffa
017604: 073f             .word 0x073f
017605: 10e5             .word 0x10e5
017606: 01e2             .word 0x01e2
017607: e069             .word 0xe069
017608: e4ce             .word 0xe4ce
017609: f1f0             .word 0xf1f0
01760a: cb59             .word 0xcb59
01760b: c853             .word 0xc853
01760c: 1cbc             .word 0x1cbc
01760d: 256b             .word 0x256b
01760e: 2622             .word 0x2622
01760f: 1742             .word 0x1742
017610: 05cc             .word 0x05cc
017611: f445             .word 0xf445
017612: cf1e             .word 0xcf1e
017613: e133             .word 0xe133
017614: da3e             .word 0xda3e
017615: f165             .word 0xf165
017616: 1882             .word 0x1882
017617: 1770             .word 0x1770
017618: 06a6             .word 0x06a6
017619: 05c5             .word 0x05c5
01761a: 080e             .word 0x080e
01761b: 186b             .word 0x186b
01761c: 3000             .word 0x3000
01761d: 1712             .word 0x1712
01761e: 07db             .word 0x07db
01761f: ffa0             .word 0xffa0
017620: 0cb3             .word 0x0cb3
017621: 0e75             .word 0x0e75
017622: 2247             .word 0x2247
017623: 312e             .word 0x312e
017624: 1afa             .word 0x1afa
017625: 07a7             .word 0x07a7
017626: f872             .word 0xf872
017627: f7ba             .word 0xf7ba
017628: e35c             .word 0xe35c
017629: 0673             .word 0x0673
01762a: f266             .word 0xf266
01762b: ecd1             .word 0xecd1
01762c: 0a97             .word 0x0a97
01762d: e38a             .word 0xe38a
01762e: f71f             .word 0xf71f
01762f: f62d             .word 0xf62d
017630: 0088             .word 0x0088
017631: d9e9             .word 0xd9e9
017632: ad23             .word 0xad23
017633: ee4c             .word 0xee4c
017634: ee3e             .word 0xee3e
017635: e91a             .word 0xe91a
017636: 022b             .word 0x022b
017637: e8b7             .word 0xe8b7
017638: d271             .word 0xd271
017639: ec64             .word 0xec64
01763a: 0806             .word 0x0806
01763b: 0148             .word 0x0148
01763c: ff69             .word 0xff69
01763d: 0924             .word 0x0924
01763e: 23aa             .word 0x23aa
01763f: 1b6b             .word 0x1b6b
017640: 16c6             .word 0x16c6
017641: 4e11             .word 0x4e11
017642: 38aa             .word 0x38aa
017643: 2d76             .word 0x2d76
017644: 3205             .word 0x3205
017645: 01c4             .word 0x01c4
017646: f4ca             .word 0xf4ca
017647: e92e             .word 0xe92e
017648: fa66             .word 0xfa66
017649: 0a06             .word 0x0a06
01764a: 196c             .word 0x196c
01764b: 2454             .word 0x2454
01764c: f1ee             .word 0xf1ee
01764d: e1cc             .word 0xe1cc
01764e: eb1e             .word 0xeb1e
01764f: dab3             .word 0xdab3
017650: e35f             .word 0xe35f
017651: e694             .word 0xe694
017652: e3d0             .word 0xe3d0
017653: 0bb4             .word 0x0bb4
017654: 1a0a             .word 0x1a0a
017655: ff9a             .word 0xff9a
017656: e80f             .word 0xe80f
017657: ec33             .word 0xec33
017658: f818             .word 0xf818
017659: 0521             .word 0x0521
01765a: 1a96             .word 0x1a96
01765b: 274d             .word 0x274d
01765c: 0c68             .word 0x0c68
01765d: f306             .word 0xf306
01765e: f99b             .word 0xf99b
01765f: eae8             .word 0xeae8
017660: e2a2             .word 0xe2a2
017661: eeb6             .word 0xeeb6
017662: 128d             .word 0x128d
017663: 0024             .word 0x0024
017664: fb82             .word 0xfb82
017665: fc62             .word 0xfc62
017666: dfb8             .word 0xdfb8
017667: 0038             .word 0x0038
017668: ed82             .word 0xed82
017669: e7e4             .word 0xe7e4
01766a: eaec             .word 0xeaec
01766b: 017e             .word 0x017e
01766c: 01b7             .word 0x01b7
01766d: f090             .word 0xf090
01766e: 1897             .word 0x1897
01766f: 1843             .word 0x1843
017670: 1bef             .word 0x1bef
017671: e710             .word 0xe710
017672: f292             .word 0xf292
017673: 3326             .word 0x3326
017674: 347e             .word 0x347e
017675: 2cd3             .word 0x2cd3
017676: 2356             .word 0x2356
017677: 10f9             .word 0x10f9
017678: e84a             .word 0xe84a
017679: f4e6             .word 0xf4e6
01767a: f2f8             .word 0xf2f8
01767b: eda2             .word 0xeda2
01767c: f56f             .word 0xf56f
01767d: 1387             .word 0x1387
01767e: 267b             .word 0x267b
01767f: 28d6             .word 0x28d6
017680: 2499             .word 0x2499
017681: db13             .word 0xdb13
017682: eae1             .word 0xeae1
017683: f26f             .word 0xf26f
017684: d83c             .word 0xd83c
017685: d715             .word 0xd715
017686: d128             .word 0xd128
017687: d3de             .word 0xd3de
017688: d38b             .word 0xd38b
017689: 1df7             .word 0x1df7
01768a: 1141             .word 0x1141
01768b: e131             .word 0xe131
01768c: 086c             .word 0x086c
01768d: 1cb0             .word 0x1cb0
01768e: 1836             .word 0x1836
01768f: 2c9e             .word 0x2c9e
017690: 3fa8             .word 0x3fa8
017691: 0a55             .word 0x0a55
017692: fe63             .word 0xfe63
017693: f938             .word 0xf938
017694: e521             .word 0xe521
017695: ea9d             .word 0xea9d
017696: ef5d             .word 0xef5d
017697: f110             .word 0xf110
017698: d453             .word 0xd453
017699: 01a7             .word 0x01a7
01769a: 1e68             .word 0x1e68
01769b: 0178             .word 0x0178
01769c: 00cd             .word 0x00cd
01769d: 1136             .word 0x1136
01769e: 1778             .word 0x1778
01769f: 1896             .word 0x1896
0176a0: 27bf             .word 0x27bf
0176a1: 01b3             .word 0x01b3
0176a2: f230             .word 0xf230
0176a3: f4b3             .word 0xf4b3
0176a4: 07fb             .word 0x07fb
0176a5: eb68             .word 0xeb68
0176a6: ca00             .word 0xca00
0176a7: f574             .word 0xf574
0176a8: d06e             .word 0xd06e
0176a9: ece1             .word 0xece1
0176aa: 0391             .word 0x0391
0176ab: f60c             .word 0xf60c
0176ac: 0ea0             .word 0x0ea0
0176ad: f95f             .word 0xf95f
0176ae: 2306             .word 0x2306
0176af: 2216             .word 0x2216
0176b0: e9a9             .word 0xe9a9
0176b1: f18a             .word 0xf18a
0176b2: edcb             .word 0xedcb
0176b3: e2b7             .word 0xe2b7
0176b4: e919             .word 0xe919
0176b5: e72a             .word 0xe72a
0176b6: 1023             .word 0x1023
0176b7: 306e             .word 0x306e
0176b8: 3a7f             .word 0x3a7f
0176b9: 1053             .word 0x1053
0176ba: ed1e             .word 0xed1e
0176bb: 2935             .word 0x2935
0176bc: 125e             .word 0x125e
0176bd: 21f4             .word 0x21f4
0176be: 3dd4             .word 0x3dd4
0176bf: 2d37             .word 0x2d37
0176c0: 1ced             .word 0x1ced
0176c1: ceb1             .word 0xceb1
0176c2: e36c             .word 0xe36c
0176c3: 0d9b             .word 0x0d9b
0176c4: 167d             .word 0x167d
0176c5: 0866             .word 0x0866
0176c6: 0058             .word 0x0058
0176c7: 0053             .word 0x0053
0176c8: fde2             .word 0xfde2
0176c9: 1baa             .word 0x1baa
0176ca: df70             .word 0xdf70
0176cb: b2a5             .word 0xb2a5
0176cc: b401             .word 0xb401
0176cd: c22e             .word 0xc22e
0176ce: d864             .word 0xd864
0176cf: de1c             .word 0xde1c
0176d0: f38a             .word 0xf38a
0176d1: 05e6             .word 0x05e6
0176d2: 0c5a             .word 0x0c5a
0176d3: e369             .word 0xe369
0176d4: d815             .word 0xd815
0176d5: f2b8             .word 0xf2b8
0176d6: 09c7             .word 0x09c7
0176d7: 0498             .word 0x0498
0176d8: 080e             .word 0x080e
0176d9: 1bca             .word 0x1bca
0176da: 0bb4             .word 0x0bb4
0176db: fc0d             .word 0xfc0d
0176dc: f054             .word 0xf054
0176dd: 280f             .word 0x280f
0176de: 4318             .word 0x4318
0176df: 2035             .word 0x2035
0176e0: 0af8             .word 0x0af8
0176e1: 195a             .word 0x195a
0176e2: 1bfe             .word 0x1bfe
0176e3: f68a             .word 0xf68a
0176e4: 0cd9             .word 0x0cd9
0176e5: 0db1             .word 0x0db1
0176e6: 134d             .word 0x134d
0176e7: 0eda             .word 0x0eda
0176e8: f042             .word 0xf042
0176e9: 035a             .word 0x035a
0176ea: 145a             .word 0x145a
0176eb: 2f10             .word 0x2f10
0176ec: 5515             .word 0x5515
0176ed: 4bdd             .word 0x4bdd
0176ee: ff60             .word 0xff60
0176ef: ce20             .word 0xce20
0176f0: b5d0             .word 0xb5d0
0176f1: ba84             .word 0xba84
0176f2: d4be             .word 0xd4be
0176f3: e499             .word 0xe499
0176f4: f36e             .word 0xf36e
0176f5: d658             .word 0xd658
0176f6: d5a5             .word 0xd5a5
0176f7: d973             .word 0xd973
0176f8: c862             .word 0xc862
0176f9: dd70             .word 0xdd70
0176fa: dfd9             .word 0xdfd9
0176fb: e533             .word 0xe533
0176fc: 00a3             .word 0x00a3
0176fd: 043e             .word 0x043e
0176fe: 15ff             .word 0x15ff
0176ff: 11f6             .word 0x11f6
017700: 15b5             .word 0x15b5
017701: 305b             .word 0x305b
017702: 3085             .word 0x3085
017703: 2d87             .word 0x2d87
017704: 1688             .word 0x1688
017705: 1a48             .word 0x1a48
017706: 1563             .word 0x1563
017707: 148b             .word 0x148b
017708: 3744             .word 0x3744
017709: 4772             .word 0x4772
01770a: 2bef             .word 0x2bef
01770b: 039d             .word 0x039d
01770c: ffcf             .word 0xffcf
01770d: f47c             .word 0xf47c
01770e: eb23             .word 0xeb23
01770f: c475             .word 0xc475
017710: b29d             .word 0xb29d
017711: e1c3             .word 0xe1c3
017712: 108d             .word 0x108d
017713: 150b             .word 0x150b
017714: ed47             .word 0xed47
017715: dede             .word 0xdede
017716: ea44             .word 0xea44
017717: da2e             .word 0xda2e
017718: a8aa             .word 0xa8aa
017719: aa63             .word 0xaa63
01771a: dda0             .word 0xdda0
01771b: 089b             .word 0x089b
01771c: 0cff             .word 0x0cff
01771d: 0930             .word 0x0930
01771e: 18d0             .word 0x18d0
01771f: 230d             .word 0x230d
017720: 37f8             .word 0x37f8
017721: 420c             .word 0x420c
017722: 2321             .word 0x2321
017723: eaa2             .word 0xeaa2
017724: faf2             .word 0xfaf2
017725: 2309             .word 0x2309
017726: 02c4             .word 0x02c4
017727: 0b57             .word 0x0b57
017728: 335b             .word 0x335b
017729: 347f             .word 0x347f
01772a: 217f             .word 0x217f
01772b: fb90             .word 0xfb90
01772c: 06f8             .word 0x06f8
01772d: fc87             .word 0xfc87
01772e: ea46             .word 0xea46
01772f: fe44             .word 0xfe44
017730: d713             .word 0xd713
017731: f366             .word 0xf366
017732: efb7             .word 0xefb7
017733: cc29             .word 0xcc29
017734: ee50             .word 0xee50
017735: f327             .word 0xf327
017736: 104a             .word 0x104a
017737: fef0             .word 0xfef0
017738: d3a7             .word 0xd3a7
017739: e871             .word 0xe871
01773a: 07d6             .word 0x07d6
01773b: fb7e             .word 0xfb7e
01773c: fd58             .word 0xfd58
01773d: 1621             .word 0x1621
01773e: 00fc             .word 0x00fc
01773f: f5d0             .word 0xf5d0
017740: f61d             .word 0xf61d
017741: f3ec             .word 0xf3ec
017742: 0a80             .word 0x0a80
017743: 1ad0             .word 0x1ad0
017744: 1caa             .word 0x1caa
017745: 2fdd             .word 0x2fdd
017746: 1295             .word 0x1295
017747: 0a12             .word 0x0a12
017748: 0049             .word 0x0049
017749: d98d             .word 0xd98d
01774a: fde6             .word 0xfde6
01774b: f3a1             .word 0xf3a1
01774c: fdd9             .word 0xfdd9
01774d: fe67             .word 0xfe67
01774e: ef21             .word 0xef21
01774f: fd31             .word 0xfd31
017750: d2e1             .word 0xd2e1
017751: df09             .word 0xdf09
017752: fd68             .word 0xfd68
017753: 08c3             .word 0x08c3
017754: 12ed             .word 0x12ed
017755: 2ec3             .word 0x2ec3
017756: 0bf4             .word 0x0bf4
017757: e003             .word 0xe003
017758: 0134             .word 0x0134
017759: fa15             .word 0xfa15
01775a: 1181             .word 0x1181
01775b: 0c5e             .word 0x0c5e
01775c: 1af4             .word 0x1af4
01775d: 2ce6             .word 0x2ce6
01775e: f7c9             .word 0xf7c9
01775f: e411             .word 0xe411
017760: be24             .word 0xbe24
017761: d9bc             .word 0xd9bc
017762: d59f             .word 0xd59f
017763: c474             .word 0xc474
017764: f7ad             .word 0xf7ad
017765: ffa7             .word 0xffa7
017766: 30db             .word 0x30db
017767: 4783             .word 0x4783
017768: 54ea             .word 0x54ea
017769: 388c             .word 0x388c
01776a: 25e2             .word 0x25e2
01776b: 5071             .word 0x5071
01776c: 0949             .word 0x0949
01776d: e528             .word 0xe528
01776e: e1c2             .word 0xe1c2
01776f: f72e             .word 0xf72e
017770: f215             .word 0xf215
017771: d665             .word 0xd665
017772: 08be             .word 0x08be
017773: 0077             .word 0x0077
017774: 030c             .word 0x030c
017775: fdeb             .word 0xfdeb
017776: 0525             .word 0x0525
017777: fe25             .word 0xfe25
017778: e68f             .word 0xe68f
017779: e144             .word 0xe144
01777a: c3a3             .word 0xc3a3
01777b: ce6b             .word 0xce6b
01777c: c8b1             .word 0xc8b1
01777d: f00f             .word 0xf00f
01777e: ee3a             .word 0xee3a
01777f: dd4b             .word 0xdd4b
017780: ff14             .word 0xff14
017781: 19d3             .word 0x19d3
017782: 566f             .word 0x566f
017783: 7aea             .word 0x7aea
017784: 749d             .word 0x749d
017785: 2afe             .word 0x2afe
017786: f02f             .word 0xf02f
017787: e056             .word 0xe056
017788: d7f5             .word 0xd7f5
017789: b8f4             .word 0xb8f4
01778a: a950             .word 0xa950
01778b: a31f             .word 0xa31f
01778c: bee8             .word 0xbee8
01778d: 0bdf             .word 0x0bdf
01778e: f7fd             .word 0xf7fd
01778f: 0650             .word 0x0650
017790: 400e             .word 0x400e
017791: 4693             .word 0x4693
017792: 2a3c             .word 0x2a3c
017793: 147c             .word 0x147c
017794: febe             .word 0xfebe
017795: 0d60             .word 0x0d60
017796: 36c9             .word 0x36c9
017797: 1380             .word 0x1380
017798: 0384             .word 0x0384
017799: f64b             .word 0xf64b
01779a: f109             .word 0xf109
01779b: ed55             .word 0xed55
01779c: e915             .word 0xe915
01779d: f37a             .word 0xf37a
01779e: 0c45             .word 0x0c45
01779f: 28b1             .word 0x28b1
0177a0: 20ac             .word 0x20ac
0177a1: 0714             .word 0x0714
0177a2: d70f             .word 0xd70f
0177a3: f34e             .word 0xf34e
0177a4: 09c7             .word 0x09c7
0177a5: 1422             .word 0x1422
0177a6:               _sgn_dtk_v_samples_16k:
0177a6:               .const:_sgn_dtk_v_samples_16k:
0177a6: fee5             .word 0xfee5
0177a7: 0089             .word 0x0089
0177a8: 0496             .word 0x0496
0177a9: 0902             .word 0x0902
0177aa: 0d65             .word 0x0d65
0177ab: 108b             .word 0x108b
0177ac: 11db             .word 0x11db
0177ad: 1015             .word 0x1015
0177ae: 0aec             .word 0x0aec
0177af: 02d7             .word 0x02d7
0177b0: f943             .word 0xf943
0177b1: eef4             .word 0xeef4
0177b2: e3cf             .word 0xe3cf
0177b3: d74e             .word 0xd74e
0177b4: c9db             .word 0xc9db
0177b5: bc4c             .word 0xbc4c
0177b6: afbc             .word 0xafbc
0177b7: a619             .word 0xa619
0177b8: a4ed             .word 0xa4ed
0177b9: b2a2             .word 0xb2a2
0177ba: cfd4             .word 0xcfd4
0177bb: f3e4             .word 0xf3e4
0177bc: 1277             .word 0x1277
0177bd: 252f             .word 0x252f
0177be: 2edf             .word 0x2edf
0177bf: 35a4             .word 0x35a4
0177c0: 3b5a             .word 0x3b5a
0177c1: 3ddc             .word 0x3ddc
0177c2: 3c96             .word 0x3c96
0177c3: 3a4e             .word 0x3a4e
0177c4: 39aa             .word 0x39aa
0177c5: 39d3             .word 0x39d3
0177c6: 3819             .word 0x3819
0177c7: 33f7             .word 0x33f7
0177c8: 2f73             .word 0x2f73
0177c9: 2b83             .word 0x2b83
0177ca: 26ec             .word 0x26ec
0177cb: 2075             .word 0x2075
0177cc: 190d             .word 0x190d
0177cd: 1285             .word 0x1285
0177ce: 0d39             .word 0x0d39
0177cf: 07d8             .word 0x07d8
0177d0: 0243             .word 0x0243
0177d1: fd87             .word 0xfd87
0177d2: fa83             .word 0xfa83
0177d3: f86b             .word 0xf86b
0177d4: f63c             .word 0xf63c
0177d5: f451             .word 0xf451
0177d6: f37a             .word 0xf37a
0177d7: f3c9             .word 0xf3c9
0177d8: f431             .word 0xf431
0177d9: f436             .word 0xf436
0177da: f488             .word 0xf488
0177db: f5a6             .word 0xf5a6
0177dc: f705             .word 0xf705
0177dd: f7c9             .word 0xf7c9
0177de: f83f             .word 0xf83f
0177df: f8ee             .word 0xf8ee
0177e0: f9d7             .word 0xf9d7
0177e1: fa58             .word 0xfa58
0177e2: fa1e             .word 0xfa1e
0177e3: f9de             .word 0xf9de
0177e4: f9db             .word 0xf9db
0177e5: f9cf             .word 0xf9cf
0177e6: f937             .word 0xf937
0177e7: f84d             .word 0xf84d
0177e8: f7c3             .word 0xf7c3
0177e9: f77c             .word 0xf77c
0177ea: f70b             .word 0xf70b
0177eb: f643             .word 0xf643
0177ec: f5be             .word 0xf5be
0177ed: f5b5             .word 0xf5b5
0177ee: f5f0             .word 0xf5f0
0177ef: f5d9             .word 0xf5d9
0177f0: f5cf             .word 0xf5cf
0177f1: f624             .word 0xf624
0177f2: f6ea             .word 0xf6ea
0177f3: f781             .word 0xf781
0177f4: f81f             .word 0xf81f
0177f5: f8e3             .word 0xf8e3
0177f6: fa5d             .word 0xfa5d
0177f7: fbac             .word 0xfbac
0177f8: fd7d             .word 0xfd7d
0177f9: fe89             .word 0xfe89
0177fa: 0050             .word 0x0050
0177fb: 0435             .word 0x0435
0177fc: 08a1             .word 0x08a1
0177fd: 0d10             .word 0x0d10
0177fe: 1056             .word 0x1056
0177ff: 11da             .word 0x11da
017800: 105d             .word 0x105d
017801: 0b7c             .word 0x0b7c
017802: 0398             .word 0x0398
017803: fa19             .word 0xfa19
017804: efd7             .word 0xefd7
017805: e4cb             .word 0xe4cb
017806: d866             .word 0xd866
017807: cb00             .word 0xcb00
017808: bd69             .word 0xbd69
017809: b0b8             .word 0xb0b8
01780a: a6af             .word 0xa6af
01780b: a485             .word 0xa485
01780c: b0d6             .word 0xb0d6
01780d: ccf2             .word 0xccf2
01780e: f0eb             .word 0xf0eb
01780f: 1055             .word 0x1055
017810: 240c             .word 0x240c
017811: 2e3e             .word 0x2e3e
017812: 3519             .word 0x3519
017813: 3af6             .word 0x3af6
017814: 3dcf             .word 0x3dcf
017815: 3cc9             .word 0x3cc9
017816: 3a73             .word 0x3a73
017817: 39a6             .word 0x39a6
017818: 39da             .word 0x39da
017819: 385a             .word 0x385a
01781a: 345b             .word 0x345b
01781b: 2fcd             .word 0x2fcd
01781c: 2bd7             .word 0x2bd7
01781d: 2760             .word 0x2760
01781e: 2110             .word 0x2110
01781f: 19a9             .word 0x19a9
017820: 1302             .word 0x1302
017821: 0da8             .word 0x0da8
017822: 0850             .word 0x0850
017823: 02b7             .word 0x02b7
017824: fddd             .word 0xfddd
017825: fab5             .word 0xfab5
017826: f897             .word 0xf897
017827: f66b             .word 0xf66b
017828: f472             .word 0xf472
017829: f37e             .word 0xf37e
01782a: f3bd             .word 0xf3bd
01782b: f42d             .word 0xf42d
01782c: f436             .word 0xf436
01782d: f479             .word 0xf479
01782e: f588             .word 0xf588
01782f: f6ec             .word 0xf6ec
017830: f7be             .word 0xf7be
017831: f834             .word 0xf834
017832: f8dc             .word 0xf8dc
017833: f9c4             .word 0xf9c4
017834: fa55             .word 0xfa55
017835: fa25             .word 0xfa25
017836: f9e1             .word 0xf9e1
017837: f9da             .word 0xf9da
017838: f9d4             .word 0xf9d4
017839: f94b             .word 0xf94b
01783a: f85e             .word 0xf85e
01783b: f7cb             .word 0xf7cb
01783c: f781             .word 0xf781
01783d: f719             .word 0xf719
01783e: f654             .word 0xf654
01783f: f5c5             .word 0xf5c5
017840: f5b0             .word 0xf5b0
017841: f5ee             .word 0xf5ee
017842: f5dc             .word 0xf5dc
017843: f5cd             .word 0xf5cd
017844: f617             .word 0xf617
017845: f6da             .word 0xf6da
017846: f775             .word 0xf775
017847: f812             .word 0xf812
017848: f8cb             .word 0xf8cb
017849: fa3d             .word 0xfa3d
01784a: fb8e             .word 0xfb8e
01784b: fd56             .word 0xfd56
01784c: fe7b             .word 0xfe7b
01784d: 000e             .word 0x000e
01784e: 03db             .word 0x03db
01784f: 083d             .word 0x083d
017850: 0cba             .word 0x0cba
017851: 101d             .word 0x101d
017852: 11d4             .word 0x11d4
017853: 109e             .word 0x109e
017854: 0c07             .word 0x0c07
017855: 0456             .word 0x0456
017856: faee             .word 0xfaee
017857: f0b9             .word 0xf0b9
017858: e5c5             .word 0xe5c5
017859: d97d             .word 0xd97d
01785a: cc26             .word 0xcc26
01785b: be87             .word 0xbe87
01785c: b1b9             .word 0xb1b9
01785d: a752             .word 0xa752
01785e: a438             .word 0xa438
01785f: af27             .word 0xaf27
017860: ca1e             .word 0xca1e
017861: edea             .word 0xedea
017862: 0e1d             .word 0x0e1d
017863: 22d7             .word 0x22d7
017864: 2d97             .word 0x2d97
017865: 348d             .word 0x348d
017866: 3a8d             .word 0x3a8d
017867: 3dbc             .word 0x3dbc
017868: 3cf9             .word 0x3cf9
017869: 3a9c             .word 0x3a9c
01786a: 39a6             .word 0x39a6
01786b: 39dd             .word 0x39dd
01786c: 3897             .word 0x3897
01786d: 34bf             .word 0x34bf
01786e: 3029             .word 0x3029
01786f: 2c2a             .word 0x2c2a
017870: 27d0             .word 0x27d0
017871: 21a8             .word 0x21a8
017872: 1a46             .word 0x1a46
017873: 1382             .word 0x1382
017874: 0e16             .word 0x0e16
017875: 08c8             .word 0x08c8
017876: 032c             .word 0x032c
017877: fe36             .word 0xfe36
017878: fae9             .word 0xfae9
017879: f8c4             .word 0xf8c4
01787a: f69a             .word 0xf69a
01787b: f495             .word 0xf495
01787c: f385             .word 0xf385
01787d: f3b1             .word 0xf3b1
01787e: f428             .word 0xf428
01787f: f436             .word 0xf436
017880: f46c             .word 0xf46c
017881: f56a             .word 0xf56a
017882: f6d2             .word 0xf6d2
017883: f7b2             .word 0xf7b2
017884: f829             .word 0xf829
017885: f8ca             .word 0xf8ca
017886: f9b1             .word 0xf9b1
017887: fa51             .word 0xfa51
017888: fa2d             .word 0xfa2d
017889: f9e4             .word 0xf9e4
01788a: f9da             .word 0xf9da
01788b: f9d7             .word 0xf9d7
01788c: f95d             .word 0xf95d
01788d: f86f             .word 0xf86f
01788e: f7d3             .word 0xf7d3
01788f: f786             .word 0xf786
017890: f727             .word 0xf727
017891: f664             .word 0xf664
017892: f5cd             .word 0xf5cd
017893: f5ad             .word 0xf5ad
017894: f5ea             .word 0xf5ea
017895: f5e0             .word 0xf5e0
017896: f5cc             .word 0xf5cc
017897: f60b             .word 0xf60b
017898: f6c9             .word 0xf6c9
017899: f769             .word 0xf769
01789a: f805             .word 0xf805
01789b: f8b5             .word 0xf8b5
01789c: fa1c             .word 0xfa1c
01789d: fb71             .word 0xfb71
01789e: fd2e             .word 0xfd2e
01789f: fe6d             .word 0xfe6d
0178a0: ffd1             .word 0xffd1
0178a1: 0381             .word 0x0381
0178a2: 07da             .word 0x07da
0178a3: 0c62             .word 0x0c62
0178a4: 0fe1             .word 0x0fe1
0178a5: 11c8             .word 0x11c8
0178a6: 10d8             .word 0x10d8
0178a7: 0c8b             .word 0x0c8b
0178a8: 0511             .word 0x0511
0178a9: fbc3             .word 0xfbc3
0178aa: f19a             .word 0xf19a
0178ab: e6bd             .word 0xe6bd
0178ac: da91             .word 0xda91
0178ad: cd4b             .word 0xcd4b
0178ae: bfa7             .word 0xbfa7
0178af: b2be             .word 0xb2be
0178b0: a802             .word 0xa802
0178b1: a406             .word 0xa406
0178b2: ad97             .word 0xad97
0178b3: c75b             .word 0xc75b
0178b4: eae1             .word 0xeae1
0178b5: 0bce             .word 0x0bce
0178b6: 218f             .word 0x218f
0178b7: 2ceb             .word 0x2ceb
0178b8: 3400             .word 0x3400
0178b9: 3a1e             .word 0x3a1e
0178ba: 3da0             .word 0x3da0
0178bb: 3d26             .word 0x3d26
0178bc: 3ac7             .word 0x3ac7
0178bd: 39a7             .word 0x39a7
0178be: 39dd             .word 0x39dd
0178bf: 38ce             .word 0x38ce
0178c0: 3521             .word 0x3521
0178c1: 3086             .word 0x3086
0178c2: 2c7d             .word 0x2c7d
0178c3: 283d             .word 0x283d
0178c4: 223e             .word 0x223e
0178c5: 1ae5             .word 0x1ae5
0178c6: 1404             .word 0x1404
0178c7: 0e84             .word 0x0e84
0178c8: 093f             .word 0x093f
0178c9: 03a2             .word 0x03a2
0178ca: fe92             .word 0xfe92
0178cb: fb1f             .word 0xfb1f
0178cc: f8f0             .word 0xf8f0
0178cd: f6ca             .word 0xf6ca
0178ce: f4ba             .word 0xf4ba
0178cf: f38f             .word 0xf38f
0178d0: f3a6             .word 0xf3a6
0178d1: f422             .word 0xf422
0178d2: f437             .word 0xf437
0178d3: f461             .word 0xf461
0178d4: f54e             .word 0xf54e
0178d5: f6b7             .word 0xf6b7
0178d6: f7a6             .word 0xf7a6
0178d7: f81f             .word 0xf81f
0178d8: f8ba             .word 0xf8ba
0178d9: f99d             .word 0xf99d
0178da: fa4c             .word 0xfa4c
0178db: fa35             .word 0xfa35
0178dc: f9e7             .word 0xf9e7
0178dd: f9d9             .word 0xf9d9
0178de: f9da             .word 0xf9da
0178df: f96e             .word 0xf96e
0178e0: f882             .word 0xf882
0178e1: f7dc             .word 0xf7dc
0178e2: f78c             .word 0xf78c
0178e3: f733             .word 0xf733
0178e4: f675             .word 0xf675
0178e5: f5d5             .word 0xf5d5
0178e6: f5ab             .word 0xf5ab
0178e7: f5e6             .word 0xf5e6
0178e8: f5e3             .word 0xf5e3
0178e9: f5cb             .word 0xf5cb
0178ea: f600             .word 0xf600
0178eb: f6b8             .word 0xf6b8
0178ec: f75d             .word 0xf75d
0178ed: f7f8             .word 0xf7f8
0178ee: f8a1             .word 0xf8a1
0178ef: f9fa             .word 0xf9fa
0178f0: fb55             .word 0xfb55
0178f1: fd04             .word 0xfd04
0178f2: fe5f             .word 0xfe5f
0178f3: ff9a             .word 0xff9a
0178f4: 0328             .word 0x0328
0178f5: 0778             .word 0x0778
0178f6: 0c08             .word 0x0c08
0178f7: 0fa3             .word 0x0fa3
0178f8: 11b7             .word 0x11b7
0178f9: 110c             .word 0x110c
0178fa: 0d0a             .word 0x0d0a
0178fb: 05c8             .word 0x05c8
0178fc: fc95             .word 0xfc95
0178fd: f279             .word 0xf279
0178fe: e7b2             .word 0xe7b2
0178ff: dba3             .word 0xdba3
017900: ce6f             .word 0xce6f
017901: c0c9             .word 0xc0c9
017902: b3c6             .word 0xb3c6
017903: a8be             .word 0xa8be
017904: a3ec             .word 0xa3ec
017905: ac26             .word 0xac26
017906: c4ab             .word 0xc4ab
017907: e7d3             .word 0xe7d3
017908: 096a             .word 0x096a
017909: 2034             .word 0x2034
01790a: 2c37             .word 0x2c37
01790b: 3373             .word 0x3373
01790c: 39ab             .word 0x39ab
01790d: 3d7d             .word 0x3d7d
01790e: 3d50             .word 0x3d50
01790f: 3af6             .word 0x3af6
017910: 39ac             .word 0x39ac
017911: 39db             .word 0x39db
017912: 3900             .word 0x3900
017913: 3582             .word 0x3582
017914: 30e5             .word 0x30e5
017915: 2cd0             .word 0x2cd0
017916: 28a6             .word 0x28a6
017917: 22d2             .word 0x22d2
017918: 1b85             .word 0x1b85
017919: 148a             .word 0x148a
01791a: 0ef2             .word 0x0ef2
01791b: 09b5             .word 0x09b5
01791c: 041a             .word 0x041a
01791d: fef2             .word 0xfef2
01791e: fb58             .word 0xfb58
01791f: f91c             .word 0xf91c
017920: f6f9             .word 0xf6f9
017921: f4e0             .word 0xf4e0
017922: f39b             .word 0xf39b
017923: f39b             .word 0xf39b
017924: f41b             .word 0xf41b
017925: f437             .word 0xf437
017926: f457             .word 0xf457
017927: f532             .word 0xf532
017928: f69a             .word 0xf69a
017929: f799             .word 0xf799
01792a: f815             .word 0xf815
01792b: f8aa             .word 0xf8aa
01792c: f989             .word 0xf989
01792d: fa44             .word 0xfa44
01792e: fa3c             .word 0xfa3c
01792f: f9eb             .word 0xf9eb
017930: f9d8             .word 0xf9d8
017931: f9dc             .word 0xf9dc
017932: f97e             .word 0xf97e
017933: f895             .word 0xf895
017934: f7e6             .word 0xf7e6
017935: f791             .word 0xf791
017936: f73e             .word 0xf73e
017937: f687             .word 0xf687
017938: f5de             .word 0xf5de
017939: f5a9             .word 0xf5a9
01793a: f5e2             .word 0xf5e2
01793b: f5e7             .word 0xf5e7
01793c: f5cb             .word 0xf5cb
01793d: f5f7             .word 0xf5f7
01793e: f6a7             .word 0xf6a7
01793f: f751             .word 0xf751
017940: f7ea             .word 0xf7ea
017941: f88f             .word 0xf88f
017942: f9d8             .word 0xf9d8
017943: fb3b             .word 0xfb3b
017944: fcda             .word 0xfcda
017945: fe4f             .word 0xfe4f
017946: ff68             .word 0xff68
017947: 02cf             .word 0x02cf
017948: 0717             .word 0x0717
017949: 0bac             .word 0x0bac
01794a: 0f62             .word 0x0f62
01794b: 11a1             .word 0x11a1
01794c: 113b             .word 0x113b
01794d: 0d82             .word 0x0d82
01794e: 067d             .word 0x067d
01794f: fd66             .word 0xfd66
017950: f358             .word 0xf358
017951: e8a4             .word 0xe8a4
017952: dcb4             .word 0xdcb4
017953: cf92             .word 0xcf92
017954: c1eb             .word 0xc1eb
017955: b4d1             .word 0xb4d1
017956: a984             .word 0xa984
017957: a3eb             .word 0xa3eb
017958: aad3             .word 0xaad3
017959: c20f             .word 0xc20f
01795a: e4c2             .word 0xe4c2
01795b: 06f0             .word 0x06f0
01795c: 1ec4             .word 0x1ec4
01795d: 2b7b             .word 0x2b7b
01795e: 32e5             .word 0x32e5
01795f: 3933             .word 0x3933
017960: 3d52             .word 0x3d52
017961: 3d75             .word 0x3d75
017962: 3b27             .word 0x3b27
017963: 39b4             .word 0x39b4
017964: 39d7             .word 0x39d7
017965: 392c             .word 0x392c
017966: 35e1             .word 0x35e1
017967: 3145             .word 0x3145
017968: 2d22             .word 0x2d22
017969: 290c             .word 0x290c
01796a: 2362             .word 0x2362
01796b: 1c26             .word 0x1c26
01796c: 1512             .word 0x1512
01796d: 0f61             .word 0x0f61
01796e: 0a2a             .word 0x0a2a
01796f: 0492             .word 0x0492
017970: ff54             .word 0xff54
017971: fb94             .word 0xfb94
017972: f948             .word 0xf948
017973: f729             .word 0xf729
017974: f508             .word 0xf508
017975: f3a9             .word 0xf3a9
017976: f392             .word 0xf392
017977: f413             .word 0xf413
017978: f438             .word 0xf438
017979: f44f             .word 0xf44f
01797a: f517             .word 0xf517
01797b: f67d             .word 0xf67d
01797c: f78b             .word 0xf78b
01797d: f80b             .word 0xf80b
01797e: f89a             .word 0xf89a
01797f: f975             .word 0xf975
017980: fa3c             .word 0xfa3c
017981: fa43             .word 0xfa43
017982: f9f0             .word 0xf9f0
017983: f9d8             .word 0xf9d8
017984: f9dd             .word 0xf9dd
017985: f98d             .word 0xf98d
017986: f8a9             .word 0xf8a9
017987: f7f0             .word 0xf7f0
017988: f796             .word 0xf796
017989: f749             .word 0xf749
01798a: f698             .word 0xf698
01798b: f5e8             .word 0xf5e8
01798c: f5a8             .word 0xf5a8
01798d: f5dc             .word 0xf5dc
01798e: f5ea             .word 0xf5ea
01798f: f5cb             .word 0xf5cb
017990: f5ef             .word 0xf5ef
017991: f695             .word 0xf695
017992: f746             .word 0xf746
017993: f7dd             .word 0xf7dd
017994: f87e             .word 0xf87e
017995: f9b5             .word 0xf9b5
017996: fb20             .word 0xfb20
017997: fcaf             .word 0xfcaf
017998: fe3e             .word 0xfe3e
017999: ff3c             .word 0xff3c
01799a: 0277             .word 0x0277
01799b: 06b7             .word 0x06b7
01799c: 0b4d             .word 0x0b4d
01799d: 0f1f             .word 0x0f1f
01799e: 1186             .word 0x1186
01799f: 1163             .word 0x1163
0179a0: 0df4             .word 0x0df4
0179a1: 072e             .word 0x072e
0179a2: fe35             .word 0xfe35
0179a3: f435             .word 0xf435
0179a4: e994             .word 0xe994
0179a5: ddc2             .word 0xddc2
0179a6: d0b5             .word 0xd0b5
0179a7: c30f             .word 0xc30f
0179a8: b5df             .word 0xb5df
0179a9: aa54             .word 0xaa54
0179aa: a400             .word 0xa400
0179ab: a9a0             .word 0xa9a0
0179ac: bf89             .word 0xbf89
0179ad: e1af             .word 0xe1af
0179ae: 0462             .word 0x0462
0179af: 1d3f             .word 0x1d3f
0179b0: 2ab6             .word 0x2ab6
0179b1: 3255             .word 0x3255
0179b2: 38b8             .word 0x38b8
0179b3: 3d1f             .word 0x3d1f
0179b4: 3d95             .word 0x3d95
0179b5: 3b5a             .word 0x3b5a
0179b6: 39bf             .word 0x39bf
0179b7: 39d1             .word 0x39d1
0179b8: 3953             .word 0x3953
0179b9: 363d             .word 0x363d
0179ba: 31a7             .word 0x31a7
0179bb: 2d75             .word 0x2d75
0179bc: 296e             .word 0x296e
0179bd: 23f0             .word 0x23f0
0179be: 1cc7             .word 0x1cc7
0179bf: 159d             .word 0x159d
0179c0: 0fd0             .word 0x0fd0
0179c1: 0a9e             .word 0x0a9e
0179c2: 050a             .word 0x050a
0179c3: ffba             .word 0xffba
0179c4: fbd2             .word 0xfbd2
0179c5: f973             .word 0xf973
0179c6: f758             .word 0xf758
0179c7: f532             .word 0xf532
0179c8: f3ba             .word 0xf3ba
0179c9: f38a             .word 0xf38a
0179ca: f40a             .word 0xf40a
0179cb: f439             .word 0xf439
0179cc: f448             .word 0xf448
0179cd: f4fe             .word 0xf4fe
0179ce: f65f             .word 0xf65f
0179cf: f77b             .word 0xf77b
0179d0: f802             .word 0xf802
0179d1: f88b             .word 0xf88b
0179d2: f960             .word 0xf960
0179d3: fa31             .word 0xfa31
0179d4: fa49             .word 0xfa49
0179d5: f9f5             .word 0xf9f5
0179d6: f9d8             .word 0xf9d8
0179d7: f9de             .word 0xf9de
0179d8: f99b             .word 0xf99b
0179d9: f8bd             .word 0xf8bd
0179da: f7fb             .word 0xf7fb
0179db: f79c             .word 0xf79c
0179dc: f752             .word 0xf752
0179dd: f6aa             .word 0xf6aa
0179de: f5f3             .word 0xf5f3
0179df: f5a9             .word 0xf5a9
0179e0: f5d6             .word 0xf5d6
0179e1: f5ed             .word 0xf5ed
0179e2: f5cc             .word 0xf5cc
0179e3: f5e7             .word 0xf5e7
0179e4: f683             .word 0xf683
0179e5: f73a             .word 0xf73a
0179e6: f7cf             .word 0xf7cf
0179e7: f86e             .word 0xf86e
0179e8: f993             .word 0xf993
0179e9: fb06             .word 0xfb06
0179ea: fc85             .word 0xfc85
0179eb: fe2b             .word 0xfe2b
0179ec: ff15             .word 0xff15
0179ed: 0220             .word 0x0220
0179ee: 0657             .word 0x0657
0179ef: 0aed             .word 0x0aed
0179f0: 0eda             .word 0x0eda
0179f1: 1166             .word 0x1166
0179f2: 1186             .word 0x1186
0179f3: 0e60             .word 0x0e60
0179f4: 07db             .word 0x07db
0179f5: ff03             .word 0xff03
0179f6: f512             .word 0xf512
0179f7: ea81             .word 0xea81
0179f8: decd             .word 0xdecd
0179f9: d1d6             .word 0xd1d6
0179fa: c434             .word 0xc434
0179fb: b6ef             .word 0xb6ef
0179fc: ab2d             .word 0xab2d
0179fd: a42c             .word 0xa42c
0179fe: a88b             .word 0xa88b
0179ff: bd1b             .word 0xbd1b
017a00: de9d             .word 0xde9d
017a01: 01c1             .word 0x01c1
017a02: 1ba4             .word 0x1ba4
017a03: 29e7             .word 0x29e7
017a04: 31c5             .word 0x31c5
017a05: 3838             .word 0x3838
017a06: 3ce4             .word 0x3ce4
017a07: 3db1             .word 0x3db1
017a08: 3b8f             .word 0x3b8f
017a09: 39ce             .word 0x39ce
017a0a: 39ca             .word 0x39ca
017a0b: 3975             .word 0x3975
017a0c: 3696             .word 0x3696
017a0d: 3209             .word 0x3209
017a0e: 2dc9             .word 0x2dc9
017a0f: 29ce             .word 0x29ce
017a10: 247a             .word 0x247a
017a11: 1d68             .word 0x1d68
017a12: 162c             .word 0x162c
017a13: 1041             .word 0x1041
017a14: 0b11             .word 0x0b11
017a15: 0584             .word 0x0584
017a16: 0022             .word 0x0022
017a17: fc14             .word 0xfc14
017a18: f99f             .word 0xf99f
017a19: f788             .word 0xf788
017a1a: f55c             .word 0xf55c
017a1b: f3ce             .word 0xf3ce
017a1c: f382             .word 0xf382
017a1d: f401             .word 0xf401
017a1e: f439             .word 0xf439
017a1f: f442             .word 0xf442
017a20: f4e6             .word 0xf4e6
017a21: f640             .word 0xf640
017a22: f76b             .word 0xf76b
017a23: f7f8             .word 0xf7f8
017a24: f87d             .word 0xf87d
017a25: f94c             .word 0xf94c
017a26: fa25             .word 0xfa25
017a27: fa4e             .word 0xfa4e
017a28: f9fb             .word 0xf9fb
017a29: f9d8             .word 0xf9d8
017a2a: f9de             .word 0xf9de
017a2b: f9a7             .word 0xf9a7
017a2c: f8d2             .word 0xf8d2
017a2d: f807             .word 0xf807
017a2e: f7a2             .word 0xf7a2
017a2f: f75b             .word 0xf75b
017a30: f6bb             .word 0xf6bb
017a31: f5ff             .word 0xf5ff
017a32: f5aa             .word 0xf5aa
017a33: f5d0             .word 0xf5d0
017a34: f5ef             .word 0xf5ef
017a35: f5cd             .word 0xf5cd
017a36: f5e1             .word 0xf5e1
017a37: f672             .word 0xf672
017a38: f72e             .word 0xf72e
017a39: f7c1             .word 0xf7c1
017a3a: f860             .word 0xf860
017a3b: f972             .word 0xf972
017a3c: faec             .word 0xfaec
017a3d: fc5d             .word 0xfc5d
017a3e: fe15             .word 0xfe15
017a3f: fef3             .word 0xfef3
017a40: 01cb             .word 0x01cb
017a41: 05f9             .word 0x05f9
017a42: 0a8c             .word 0x0a8c
017a43: 0e92             .word 0x0e92
017a44: 1141             .word 0x1141
017a45: 11a3             .word 0x11a3
017a46: 0ec6             .word 0x0ec6
017a47: 0883             .word 0x0883
017a48: ffce             .word 0xffce
017a49: f5ee             .word 0xf5ee
017a4a: eb6c             .word 0xeb6c
017a4b: dfd7             .word 0xdfd7
017a4c: d2f5             .word 0xd2f5
017a4d: c559             .word 0xc559
017a4e: b802             .word 0xb802
017a4f: ac0e             .word 0xac0e
017a50: a46c             .word 0xa46c
017a51: a794             .word 0xa794
017a52: bac5             .word 0xbac5
017a53: db8e             .word 0xdb8e
017a54: ff0e             .word 0xff0e
017a55: 19f3             .word 0x19f3
017a56: 290c             .word 0x290c
017a57: 3133             .word 0x3133
017a58: 37b6             .word 0x37b6
017a59: 3ca2             .word 0x3ca2
017a5a: 3dc6             .word 0x3dc6
017a5b: 3bc4             .word 0x3bc4
017a5c: 39e0             .word 0x39e0
017a5d: 39c3             .word 0x39c3
017a5e: 3991             .word 0x3991
017a5f: 36ed             .word 0x36ed
017a60: 326d             .word 0x326d
017a61: 2e1d             .word 0x2e1d
017a62: 2a2b             .word 0x2a2b
017a63: 2500             .word 0x2500
017a64: 1e08             .word 0x1e08
017a65: 16bd             .word 0x16bd
017a66: 10b3             .word 0x10b3
017a67: 0b83             .word 0x0b83
017a68: 05fd             .word 0x05fd
017a69: 008d             .word 0x008d
017a6a: fc58             .word 0xfc58
017a6b: f9cc             .word 0xf9cc
017a6c: f7b7             .word 0xf7b7
017a6d: f588             .word 0xf588
017a6e: f3e4             .word 0xf3e4
017a6f: f37d             .word 0xf37d
017a70: f3f6             .word 0xf3f6
017a71: f439             .word 0xf439
017a72: f43e             .word 0xf43e
017a73: f4d0             .word 0xf4d0
017a74: f621             .word 0xf621
017a75: f759             .word 0xf759
017a76: f7ef             .word 0xf7ef
017a77: f86f             .word 0xf86f
017a78: f938             .word 0xf938
017a79: fa17             .word 0xfa17
017a7a: fa53             .word 0xfa53
017a7b: fa01             .word 0xfa01
017a7c: f9d9             .word 0xf9d9
017a7d: f9de             .word 0xf9de
017a7e: f9b2             .word 0xf9b2
017a7f: f8e7             .word 0xf8e7
017a80: f813             .word 0xf813
017a81: f7a8             .word 0xf7a8
017a82: f763             .word 0xf763
017a83: f6cd             .word 0xf6cd
017a84: f60b             .word 0xf60b
017a85: f5ac             .word 0xf5ac
017a86: f5ca             .word 0xf5ca
017a87: f5f1             .word 0xf5f1
017a88: f5cf             .word 0xf5cf
017a89: f5dc             .word 0xf5dc
017a8a: f661             .word 0xf661
017a8b: f721             .word 0xf721
017a8c: f7b4             .word 0xf7b4
017a8d: f852             .word 0xf852
017a8e: f952             .word 0xf952
017a8f: fad1             .word 0xfad1
017a90: fc35             .word 0xfc35
017a91: fdfc             .word 0xfdfc
017a92: fed7             .word 0xfed7
017a93: 0178             .word 0x0178
017a94: 059c             .word 0x059c
017a95: 0a29             .word 0x0a29
017a96: 0e48             .word 0x0e48
017a97: 1119             .word 0x1119
017a98: 11b9             .word 0x11b9
017a99: 0f25             .word 0x0f25
017a9a: 0928             .word 0x0928
017a9b: 0098             .word 0x0098
017a9c: f6c9             .word 0xf6c9
017a9d: ec56             .word 0xec56
017a9e: e0de             .word 0xe0de
017a9f: d413             .word 0xd413
017aa0: c67f             .word 0xc67f
017aa1: b917             .word 0xb917
017aa2: acf5             .word 0xacf5
017aa3: a4c0             .word 0xa4c0
017aa4: a6bc             .word 0xa6bc
017aa5: b889             .word 0xb889
017aa6: d884             .word 0xd884
017aa7: fc4a             .word 0xfc4a
017aa8: 182c             .word 0x182c
017aa9: 2825             .word 0x2825
017aaa: 309f             .word 0x309f
017aab: 3732             .word 0x3732
017aac: 3c58             .word 0x3c58
017aad: 3dd6             .word 0x3dd6
017aae: 3bfa             .word 0x3bfa
017aaf: 39f6             .word 0x39f6
017ab0: 39bb             .word 0x39bb
017ab1: 39a9             .word 0x39a9
017ab2: 373f             .word 0x373f
017ab3: 32d1             .word 0x32d1
017ab4: 2e73             .word 0x2e73
017ab5: 2a85             .word 0x2a85
017ab6: 2583             .word 0x2583
017ab7: 1ea8             .word 0x1ea8
017ab8: 1750             .word 0x1750
017ab9: 1127             .word 0x1127
017aba: 0bf4             .word 0x0bf4
017abb: 0676             .word 0x0676
017abc: 00fa             .word 0x00fa
017abd: fca0             .word 0xfca0
017abe: f9f9             .word 0xf9f9
017abf: f7e5             .word 0xf7e5
017ac0: f5b5             .word 0xf5b5
017ac1: f3fc             .word 0xf3fc
017ac2: f379             .word 0xf379
017ac3: f3eb             .word 0xf3eb
017ac4: f438             .word 0xf438
017ac5: f43b             .word 0xf43b
017ac6: f4bb             .word 0xf4bb
017ac7: f602             .word 0xf602
017ac8: f745             .word 0xf745
017ac9: f7e5             .word 0xf7e5
017aca: f862             .word 0xf862
017acb: f925             .word 0xf925
017acc: fa09             .word 0xfa09
017acd: fa56             .word 0xfa56
017ace: fa08             .word 0xfa08
017acf: f9da             .word 0xf9da
017ad0: f9dd             .word 0xf9dd
017ad1: f9bb             .word 0xf9bb
017ad2: f8fc             .word 0xf8fc
017ad3: f821             .word 0xf821
017ad4: f7ae             .word 0xf7ae
017ad5: f76a             .word 0xf76a
017ad6: f6de             .word 0xf6de
017ad7: f618             .word 0xf618
017ad8: f5b0             .word 0xf5b0
017ad9: f5c4             .word 0xf5c4
017ada: f5f2             .word 0xf5f2
017adb: f5d1             .word 0xf5d1
017adc: f5d8             .word 0xf5d8
017add: f650             .word 0xf650
017ade: f714             .word 0xf714
017adf: f7a6             .word 0xf7a6
017ae0: f845             .word 0xf845
017ae1: f933             .word 0xf933
017ae2: fab5             .word 0xfab5
017ae3: fc0f             .word 0xfc0f
017ae4: fde0             .word 0xfde0
017ae5: febe             .word 0xfebe
017ae6: 0127             .word 0x0127
017ae7: 0540             .word 0x0540
017ae8: 09c5             .word 0x09c5
017ae9: 0dfc             .word 0x0dfc
017aea: 10ec             .word 0x10ec
017aeb: 11ca             .word 0x11ca
017aec: 0f7e             .word 0x0f7e
017aed: 09c7             .word 0x09c7
017aee: 015f             .word 0x015f
017aef: f7a3             .word 0xf7a3
017af0: ed3d             .word 0xed3d
017af1: e1e2             .word 0xe1e2
017af2: d530             .word 0xd530
017af3: c7a6             .word 0xc7a6
017af4: ba2f             .word 0xba2f
017af5: ade3             .word 0xade3
017af6: a526             .word 0xa526
017af7: a601             .word 0xa601
017af8: b668             .word 0xb668
017af9: d580             .word 0xd580
017afa: f977             .word 0xf977
017afb: 164d             .word 0x164d
017afc: 2730             .word 0x2730
017afd: 3008             .word 0x3008
017afe: 36ab             .word 0x36ab
017aff: 3c08             .word 0x3c08
017b00: 3dde             .word 0x3dde
017b01: 3c31             .word 0x3c31
017b02: 3a11             .word 0x3a11
017b03: 39b4             .word 0x39b4
017b04: 39bc             .word 0x39bc
017b05: 378e             .word 0x378e
017b06: 3336             .word 0x3336
017b07: 2ec9             .word 0x2ec9
017b08: 2ade             .word 0x2ade
017b09: 2603             .word 0x2603
017b0a: 1f48             .word 0x1f48
017b0b: 17e6             .word 0x17e6
017b0c: 119d             .word 0x119d
017b0d: 0c64             .word 0x0c64
017b0e: 06f0             .word 0x06f0
017b0f: 0169             .word 0x0169
017b10: fcec             .word 0xfcec
017b11: fa27             .word 0xfa27
017b12: f813             .word 0xf813
017b13: f5e2             .word 0xf5e2
017b14: f417             .word 0xf417
017b15: f377             .word 0xf377
017b16: f3e0             .word 0xf3e0
017b17: f436             .word 0xf436
017b18: f438             .word 0xf438
017b19: f4a8             .word 0xf4a8
017b1a: f5e2             .word 0xf5e2
017b1b: f731             .word 0xf731
017b1c: f7dc             .word 0xf7dc
017b1d: f856             .word 0xf856
017b1e: f911             .word 0xf911
017b1f: f9f9             .word 0xf9f9
017b20: fa58             .word 0xfa58
017b21: fa0f             .word 0xfa0f
017b22: f9db             .word 0xf9db
017b23: f9dc             .word 0xf9dc
017b24: f9c3             .word 0xf9c3
017b25: f911             .word 0xf911
017b26: f82f             .word 0xf82f
017b27: f7b5             .word 0xf7b5
017b28: f770             .word 0xf770
017b29: f6ee             .word 0xf6ee
017b2a: f627             .word 0xf627
017b2b: f5b4             .word 0xf5b4
017b2c: f5be             .word 0xf5be
017b2d: f5f2             .word 0xf5f2
017b2e: f5d3             .word 0xf5d3
017b2f: f5d4             .word 0xf5d4
017b30: f640             .word 0xf640
017b31: f706             .word 0xf706
017b32: f799             .word 0xf799
017b33: f838             .word 0xf838
017b34: f916             .word 0xf916
017b35: fa98             .word 0xfa98
017b36: fbec             .word 0xfbec
017b37: fdc1             .word 0xfdc1
017b38: fea9             .word 0xfea9
017b39: 00da             .word 0x00da
017b3a: 04e4             .word 0x04e4
017b3b: 0961             .word 0x0961
017b3c: 0dae             .word 0x0dae
017b3d: 10bc             .word 0x10bc
017b3e: 11d5             .word 0x11d5
017b3f: 0fd0             .word 0x0fd0
017b40: 0a62             .word 0x0a62
017b41: 0224             .word 0x0224
017b42: f87c             .word 0xf87c
017b43: ee23             .word 0xee23
017b44: e2e4             .word 0xe2e4
017b45: d64c             .word 0xd64c
017b46: c8cc             .word 0xc8cc
017b47: bb48             .word 0xbb48
017b48: aed7             .word 0xaed7
017b49: a59d             .word 0xa59d
017b4a: a564             .word 0xa564
017b4b: b464             .word 0xb464
017b4c: d287             .word 0xd287
017b4d: f695             .word 0xf695
017b4e: 1458             .word 0x1458
017b4f: 262c             .word 0x262c
017b50: 2f6f             .word 0x2f6f
017b51: 3623             .word 0x3623
017b52: 3bb0             .word 0x3bb0
017b53: 3de0             .word 0x3de0
017b54: 3c66             .word 0x3c66
017b55: 3a2f             .word 0x3a2f
017b56: 39ae             .word 0x39ae
017b57: 39ca             .word 0x39ca
017b58: 37d9             .word 0x37d9
017b59: 339a             .word 0x339a
017b5a: 2f21             .word 0x2f21
017b5b: 2b34             .word 0x2b34
017b5c: 267e             .word 0x267e
017b5d: 1fe5             .word 0x1fe5
017b5e: 187f             .word 0x187f
017b5f: 1215             .word 0x1215
017b60: 0cd4             .word 0x0cd4
017b61: 0769             .word 0x0769
017b62: 01d9             .word 0x01d9
017b63: fd3b             .word 0xfd3b
017b64: fa56             .word 0xfa56
017b65: f841             .word 0xf841
017b66: f611             .word 0xf611
017b67: f434             .word 0xf434
017b68: f378             .word 0xf378
017b69: f3d4             .word 0xf3d4
017b6a: f434             .word 0xf434
017b6b: f437             .word 0xf437
017b6c: f496             .word 0xf496
017b6d: f5c3             .word 0xf5c3
017b6e: f71a             .word 0xf71a
017b6f: f7d2             .word 0xf7d2
017b70: f84a             .word 0xf84a
017b71: f8fe             .word 0xf8fe
017b72: f9e7             .word 0xf9e7
017b73: fa59             .word 0xfa59
017b74: fa16             .word 0xfa16
017b75: f9dc             .word 0xf9dc
017b76: f9dc             .word 0xf9dc
017b77: f9ca             .word 0xf9ca
017b78: f925             .word 0xf925
017b79: f83e             .word 0xf83e
017b7a: f7bc             .word 0xf7bc
017b7b: f776             .word 0xf776
017b7c: f6fe             .word 0xf6fe
017b7d: f635             .word 0xf635
017b7e: f5b9             .word 0xf5b9
017b7f: f5b9             .word 0xf5b9
017b80: f5f1             .word 0xf5f1
017b81: f5d6             .word 0xf5d6
017b82: f5d1             .word 0xf5d1
017b83: f631             .word 0xf631
017b84: f6f7             .word 0xf6f7
017b85: f78c             .word 0xf78c
017b86: f82b             .word 0xf82b
017b87: f8fa             .word 0xf8fa
017b88: fa7a             .word 0xfa7a
017b89: fbca             .word 0xfbca
017b8a: fd9f             .word 0xfd9f
017b8b: fe98             .word 0xfe98
017b8c: 0090             .word 0x0090
017b8d: 0489             .word 0x0489
017b8e: 08fd             .word 0x08fd
017b8f: 0d5d             .word 0x0d5d
017b90: 1088             .word 0x1088
017b91: 11da             .word 0x11da
017b92: 101c             .word 0x101c
017b93: 0af8             .word 0x0af8
017b94: 02e7             .word 0x02e7
017b95: f954             .word 0xf954
017b96: ef07             .word 0xef07
017b97: e3e3             .word 0xe3e3
017b98: d765             .word 0xd765
017b99: c9f2             .word 0xc9f2
017b9a: bc63             .word 0xbc63
017b9b: afd0             .word 0xafd0
017b9c: a625             .word 0xa625
017b9d: a4e3             .word 0xa4e3
017b9e: b27c             .word 0xb27c
017b9f: cf98             .word 0xcf98
017ba0: f3a6             .word 0xf3a6
017ba1: 124b             .word 0x124b
017ba2: 2518             .word 0x2518
017ba3: 2ed2             .word 0x2ed2
017ba4: 3599             .word 0x3599
017ba5: 3b52             .word 0x3b52
017ba6: 3ddb             .word 0x3ddb
017ba7: 3c9a             .word 0x3c9a
017ba8: 3a51             .word 0x3a51
017ba9: 39a9             .word 0x39a9
017baa: 39d4             .word 0x39d4
017bab: 381e             .word 0x381e
017bac: 33ff             .word 0x33ff
017bad: 2f7a             .word 0x2f7a
017bae: 2b8a             .word 0x2b8a
017baf: 26f6             .word 0x26f6
017bb0: 2082             .word 0x2082
017bb1: 1919             .word 0x1919
017bb2: 128f             .word 0x128f
017bb3: 0d42             .word 0x0d42
017bb4: 07e2             .word 0x07e2
017bb5: 024c             .word 0x024c
017bb6: fd8e             .word 0xfd8e
017bb7: fa87             .word 0xfa87
017bb8: f86e             .word 0xf86e
017bb9: f63f             .word 0xf63f
017bba: f453             .word 0xf453
017bbb: f37a             .word 0xf37a
017bbc: f3c8             .word 0xf3c8
017bbd: f431             .word 0xf431
017bbe: f436             .word 0xf436
017bbf: f486             .word 0xf486
017bc0: f5a4             .word 0xf5a4
017bc1: f703             .word 0xf703
017bc2: f7c8             .word 0xf7c8
017bc3: f83e             .word 0xf83e
017bc4: f8ec             .word 0xf8ec
017bc5: f9d5             .word 0xf9d5
017bc6: fa58             .word 0xfa58
017bc7: fa1e             .word 0xfa1e
017bc8: f9de             .word 0xf9de
017bc9: f9db             .word 0xf9db
017bca: f9d0             .word 0xf9d0
017bcb: f939             .word 0xf939
017bcc: f84e             .word 0xf84e
017bcd: f7c3             .word 0xf7c3
017bce: f77c             .word 0xf77c
017bcf: f70d             .word 0xf70d
017bd0: f645             .word 0xf645
017bd1: f5bf             .word 0xf5bf
017bd2: f5b4             .word 0xf5b4
017bd3: f5f0             .word 0xf5f0
017bd4: f5d9             .word 0xf5d9
017bd5: f5cf             .word 0xf5cf
017bd6: f623             .word 0xf623
017bd7: f6e8             .word 0xf6e8
017bd8: f780             .word 0xf780
017bd9: f81e             .word 0xf81e
017bda: f8e1             .word 0xf8e1
017bdb: fa5a             .word 0xfa5a
017bdc: fbaa             .word 0xfbaa
017bdd: fd7a             .word 0xfd7a
017bde: fe88             .word 0xfe88
017bdf: 004a             .word 0x004a
017be0: 042e             .word 0x042e
017be1: 0899             .word 0x0899
017be2: 0d09             .word 0x0d09
017be3: 1052             .word 0x1052
017be4: 11d9             .word 0x11d9
017be5: 1063             .word 0x1063
017be6: 0b87             .word 0x0b87
017be7: 03a7             .word 0x03a7
017be8: fa2a             .word 0xfa2a
017be9: efea             .word 0xefea
017bea: e4e0             .word 0xe4e0
017beb: d87d             .word 0xd87d
017bec: cb18             .word 0xcb18
017bed: bd80             .word 0xbd80
017bee: b0cd             .word 0xb0cd
017bef: a6bc             .word 0xa6bc
017bf0: a47e             .word 0xa47e
017bf1: b0b2             .word 0xb0b2
017bf2: ccb6             .word 0xccb6
017bf3: f0ad             .word 0xf0ad
017bf4: 1028             .word 0x1028
017bf5: 23f4             .word 0x23f4
017bf6: 2e30             .word 0x2e30
017bf7: 350e             .word 0x350e
017bf8: 3aee             .word 0x3aee
017bf9: 3dce             .word 0x3dce
017bfa: 3ccd             .word 0x3ccd
017bfb: 3a76             .word 0x3a76
017bfc: 39a6             .word 0x39a6
017bfd: 39da             .word 0x39da
017bfe: 385f             .word 0x385f
017bff: 3463             .word 0x3463
017c00: 2fd5             .word 0x2fd5
017c01: 2bde             .word 0x2bde
017c02: 2769             .word 0x2769
017c03: 211c             .word 0x211c
017c04: 19b5             .word 0x19b5
017c05: 130c             .word 0x130c
017c06: 0db1             .word 0x0db1
017c07: 085a             .word 0x085a
017c08: 02c0             .word 0x02c0
017c09: fde4             .word 0xfde4
017c0a: fab9             .word 0xfab9
017c0b: f89b             .word 0xf89b
017c0c: f66f             .word 0xf66f
017c0d: f475             .word 0xf475
017c0e: f37f             .word 0xf37f
017c0f: f3bc             .word 0xf3bc
017c10: f42d             .word 0xf42d
017c11: f436             .word 0xf436
017c12: f479             .word 0xf479
017c13: f585             .word 0xf585
017c14: f6eb             .word 0xf6eb
017c15: f7bc             .word 0xf7bc
017c16: f834             .word 0xf834
017c17: f8d8             .word 0xf8d8
017c18: f9c5             .word 0xf9c5
017c19: fa52             .word 0xfa52
017c1a: fa2a             .word 0xfa2a
017c1b: f9dc             .word 0xf9dc
017c1c: f9e0             .word 0xf9e0
017c1d: f9cd             .word 0xf9cd
017c1e: f955             .word 0xf955
017c1f: f855             .word 0xf855
017c20: f7d8             .word 0xf7d8
017c21: f773             .word 0xf773
017c22: f72c             .word 0xf72c
017c23: f640             .word 0xf640
017c24: f5de             .word 0xf5de
017c25: f594             .word 0xf594
017c26: f60e             .word 0xf60e
017c27: f5b6             .word 0xf5b6
017c28: f5fb             .word 0xf5fb
017c29: f5e0             .word 0xf5e0
017c2a: f718             .word 0xf718
017c2b: f727             .word 0xf727
017c2c: f86e             .word 0xf86e
017c2d: f855             .word 0xf855
017c2e: fad0             .word 0xfad0
017c2f: fabc             .word 0xfabc
017c30: fea5             .word 0xfea5
017c31:               _sgn_css_v_samples_16k:
017c31:               .const:_sgn_css_v_samples_16k:
017c31: 0081             .word 0x0081
017c32: 055f             .word 0x055f
017c33: 0962             .word 0x0962
017c34: 0dd6             .word 0x0dd6
017c35: 12b3             .word 0x12b3
017c36: 16fb             .word 0x16fb
017c37: 1985             .word 0x1985
017c38: 1c32             .word 0x1c32
017c39: 1ddf             .word 0x1ddf
017c3a: 1eeb             .word 0x1eeb
017c3b: 1fd0             .word 0x1fd0
017c3c: 1f7d             .word 0x1f7d
017c3d: 1f22             .word 0x1f22
017c3e: 1e9d             .word 0x1e9d
017c3f: 1d27             .word 0x1d27
017c40: 1ba3             .word 0x1ba3
017c41: 1a7f             .word 0x1a7f
017c42: 189f             .word 0x189f
017c43: 17a2             .word 0x17a2
017c44: 1819             .word 0x1819
017c45: 1898             .word 0x1898
017c46: 1847             .word 0x1847
017c47: 1587             .word 0x1587
017c48: 12de             .word 0x12de
017c49: 1186             .word 0x1186
017c4a: 119a             .word 0x119a
017c4b: 10b5             .word 0x10b5
017c4c: 0f18             .word 0x0f18
017c4d: 0d46             .word 0x0d46
017c4e: 0836             .word 0x0836
017c4f: ffb6             .word 0xffb6
017c50: f60c             .word 0xf60c
017c51: e943             .word 0xe943
017c52: da0f             .word 0xda0f
017c53: ca78             .word 0xca78
017c54: ba35             .word 0xba35
017c55: a95d             .word 0xa95d
017c56: a9bf             .word 0xa9bf
017c57: c3ff             .word 0xc3ff
017c58: daf7             .word 0xdaf7
017c59: e1d9             .word 0xe1d9
017c5a: e395             .word 0xe395
017c5b: e40a             .word 0xe40a
017c5c: e319             .word 0xe319
017c5d: e4d3             .word 0xe4d3
017c5e: ec85             .word 0xec85
017c5f: f449             .word 0xf449
017c60: fa26             .word 0xfa26
017c61: fe3a             .word 0xfe3a
017c62: 0255             .word 0x0255
017c63: 06fb             .word 0x06fb
017c64: 0afe             .word 0x0afe
017c65: 0fb1             .word 0x0fb1
017c66: 1486             .word 0x1486
017c67: 1816             .word 0x1816
017c68: 1a82             .word 0x1a82
017c69: 1d0e             .word 0x1d0e
017c6a: 1e3a             .word 0x1e3a
017c6b: 1f64             .word 0x1f64
017c6c: 1fca             .word 0x1fca
017c6d: 1f51             .word 0x1f51
017c6e: 1f04             .word 0x1f04
017c6f: 1e27             .word 0x1e27
017c70: 1c84             .word 0x1c84
017c71: 1b3c             .word 0x1b3c
017c72: 19dd             .word 0x19dd
017c73: 17fd             .word 0x17fd
017c74: 17c1             .word 0x17c1
017c75: 184a             .word 0x184a
017c76: 18b9             .word 0x18b9
017c77: 176b             .word 0x176b
017c78: 145b             .word 0x145b
017c79: 122b             .word 0x122b
017c7a: 1178             .word 0x1178
017c7b: 117d             .word 0x117d
017c7c: 100c             .word 0x100c
017c7d: 0e90             .word 0x0e90
017c7e: 0bd8             .word 0x0bd8
017c7f: 0530             .word 0x0530
017c80: fc32             .word 0xfc32
017c81: f19b             .word 0xf19b
017c82: e392             .word 0xe392
017c83: d419             .word 0xd419
017c84: c475             .word 0xc475
017c85: b35b             .word 0xb35b
017c86: a612             .word 0xa612
017c87: b1e1             .word 0xb1e1
017c88: cecf             .word 0xcecf
017c89: def7             .word 0xdef7
017c8a: e2af             .word 0xe2af
017c8b: e3f7             .word 0xe3f7
017c8c: e3c1             .word 0xe3c1
017c8d: e315             .word 0xe315
017c8e: e745             .word 0xe745
017c8f: efca             .word 0xefca
017c90: f6af             .word 0xf6af
017c91: fbef             .word 0xfbef
017c92: ff9d             .word 0xff9d
017c93: 0438             .word 0x0438
017c94: 087f             .word 0x087f
017c95: 0cb5             .word 0x0cb5
017c96: 1193             .word 0x1193
017c97: 1623             .word 0x1623
017c98: 1900             .word 0x1900
017c99: 1b92             .word 0x1b92
017c9a: 1da5             .word 0x1da5
017c9b: 1ea3             .word 0x1ea3
017c9c: 1fb9             .word 0x1fb9
017c9d: 1fa0             .word 0x1fa0
017c9e: 1f32             .word 0x1f32
017c9f: 1eca             .word 0x1eca
017ca0: 1d8f             .word 0x1d8f
017ca1: 1bef             .word 0x1bef
017ca2: 1ad2             .word 0x1ad2
017ca3: 1916             .word 0x1916
017ca4: 17a8             .word 0x17a8
017ca5: 17fb             .word 0x17fb
017ca6: 1879             .word 0x1879
017ca7: 1892             .word 0x1892
017ca8: 1642             .word 0x1642
017ca9: 1362             .word 0x1362
017caa: 11ad             .word 0x11ad
017cab: 1193             .word 0x1193
017cac: 1115             .word 0x1115
017cad: 0f6b             .word 0x0f6b
017cae: 0dde             .word 0x0dde
017caf: 09cc             .word 0x09cc
017cb0: 01d1             .word 0x01d1
017cb1: f878             .word 0xf878
017cb2: ec93             .word 0xec93
017cb3: ddaf             .word 0xddaf
017cb4: ce1c             .word 0xce1c
017cb5: be38             .word 0xbe38
017cb6: acc0             .word 0xacc0
017cb7: a6e8             .word 0xa6e8
017cb8: bcdd             .word 0xbcdd
017cb9: d73d             .word 0xd73d
017cba: e119             .word 0xe119
017cbb: e34a             .word 0xe34a
017cbc: e413             .word 0xe413
017cbd: e355             .word 0xe355
017cbe: e3d7             .word 0xe3d7
017cbf: ea6f             .word 0xea6f
017cc0: f2b2             .word 0xf2b2
017cc1: f8e7             .word 0xf8e7
017cc2: fd69             .word 0xfd69
017cc3: 013a             .word 0x013a
017cc4: 05fe             .word 0x05fe
017cc5: 09fe             .word 0x09fe
017cc6: 0e8c             .word 0x0e8c
017cc7: 136e             .word 0x136e
017cc8: 1773             .word 0x1773
017cc9: 19e4             .word 0x19e4
017cca: 1c8f             .word 0x1c8f
017ccb: 1e06             .word 0x1e06
017ccc: 1f1c             .word 0x1f1c
017ccd: 1fd2             .word 0x1fd2
017cce: 1f6c             .word 0x1f6c
017ccf: 1f17             .word 0x1f17
017cd0: 1e71             .word 0x1e71
017cd1: 1ce7             .word 0x1ce7
017cd2: 1b7c             .word 0x1b7c
017cd3: 1a47             .word 0x1a47
017cd4: 1858             .word 0x1858
017cd5: 17aa             .word 0x17aa
017cd6: 182e             .word 0x182e
017cd7: 18a8             .word 0x18a8
017cd8: 17ff             .word 0x17ff
017cd9: 150d             .word 0x150d
017cda: 1296             .word 0x1296
017cdb: 1175             .word 0x1175
017cdc: 1199             .word 0x1199
017cdd: 1075             .word 0x1075
017cde: 0ee1             .word 0x0ee1
017cdf: 0cc8             .word 0x0cc8
017ce0: 0714             .word 0x0714
017ce1: fe5a             .word 0xfe5a
017ce2: f45f             .word 0xf45f
017ce3: e716             .word 0xe716
017ce4: d7bc             .word 0xd7bc
017ce5: c826             .word 0xc826
017ce6: b790             .word 0xb790
017ce7: a7ac             .word 0xa7ac
017ce8: ac73             .word 0xac73
017ce9: c86d             .word 0xc86d
017cea: dcce             .word 0xdcce
017ceb: e23c             .word 0xe23c
017cec: e3c1             .word 0xe3c1
017ced: e3f2             .word 0xe3f2
017cee: e306             .word 0xe306
017cef: e5a7             .word 0xe5a7
017cf0: edd4             .word 0xedd4
017cf1: f53f             .word 0xf53f
017cf2: fae1             .word 0xfae1
017cf3: fec1             .word 0xfec1
017cf4: 0310             .word 0x0310
017cf5: 0795             .word 0x0795
017cf6: 0ba3             .word 0x0ba3
017cf7: 106b             .word 0x106b
017cf8: 152c             .word 0x152c
017cf9: 1873             .word 0x1873
017cfa: 1ae7             .word 0x1ae7
017cfb: 1d55             .word 0x1d55
017cfc: 1e60             .word 0x1e60
017cfd: 1f8f             .word 0x1f8f
017cfe: 1fbe             .word 0x1fbe
017cff: 1f45             .word 0x1f45
017d00: 1ef2             .word 0x1ef2
017d01: 1df0             .word 0x1df0
017d02: 1c47             .word 0x1c47
017d03: 1b14             .word 0x1b14
017d04: 1994             .word 0x1994
017d05: 17d4             .word 0x17d4
017d06: 17da             .word 0x17da
017d07: 185b             .word 0x185b
017d08: 18b3             .word 0x18b3
017d09: 16ff             .word 0x16ff
017d0a: 13f5             .word 0x13f5
017d0b: 11f4             .word 0x11f4
017d0c: 117d             .word 0x117d
017d0d: 115f             .word 0x115f
017d0e: 0fca             .word 0x0fca
017d0f: 0e52             .word 0x0e52
017d10: 0b20             .word 0x0b20
017d11: 03e7             .word 0x03e7
017d12: fac3             .word 0xfac3
017d13: efb7             .word 0xefb7
017d14: e147             .word 0xe147
017d15: d1bf             .word 0xd1bf
017d16: c20d             .word 0xc20d
017d17: b0b2             .word 0xb0b2
017d18: a5da             .word 0xa5da
017d19: b5f5             .word 0xb5f5
017d1a: d26e             .word 0xd26e
017d1b: dff5             .word 0xdff5
017d1c: e2ef             .word 0xe2ef
017d1d: e406             .word 0xe406
017d1e: e399             .word 0xe399
017d1f: e345             .word 0xe345
017d20: e873             .word 0xe873
017d21: f0f9             .word 0xf0f9
017d22: f793             .word 0xf793
017d23: fc89             .word 0xfc89
017d24: 0032             .word 0x0032
017d25: 04eb             .word 0x04eb
017d26: 0914             .word 0x0914
017d27: 0d6c             .word 0x0d6c
017d28: 124c             .word 0x124c
017d29: 16b2             .word 0x16b2
017d2a: 1956             .word 0x1956
017d2b: 1bfa             .word 0x1bfa
017d2c: 1dca             .word 0x1dca
017d2d: 1ed1             .word 0x1ed1
017d2e: 1fcc             .word 0x1fcc
017d2f: 1f88             .word 0x1f88
017d30: 1f27             .word 0x1f27
017d31: 1eb0             .word 0x1eb0
017d32: 1d50             .word 0x1d50
017d33: 1bbf             .word 0x1bbf
017d34: 1aa3             .word 0x1aa3
017d35: 18c6             .word 0x18c6
017d36: 17a2             .word 0x17a2
017d37: 180e             .word 0x180e
017d38: 188c             .word 0x188c
017d39: 1868             .word 0x1868
017d3a: 15c6             .word 0x15c6
017d3b: 130d             .word 0x130d
017d3c: 118e             .word 0x118e
017d3d: 1199             .word 0x1199
017d3e: 10d9             .word 0x10d9
017d3f: 0f33             .word 0x0f33
017d40: 0d83             .word 0x0d83
017d41: 08cd             .word 0x08cd
017d42: 0079             .word 0x0079
017d43: f6ef             .word 0xf6ef
017d44: ea79             .word 0xea79
017d45: db5f             .word 0xdb5f
017d46: cbc4             .word 0xcbc4
017d47: bbae             .word 0xbbae
017d48: aa7d             .word 0xaa7d
017d49: a883             .word 0xa883
017d4a: c170             .word 0xc170
017d4b: d9bf             .word 0xd9bf
017d4c: e19f             .word 0xe19f
017d4d: e37c             .word 0xe37c
017d4e: e410             .word 0xe410
017d4f: e32c             .word 0xe32c
017d50: e469             .word 0xe469
017d51: ebc9             .word 0xebc9
017d52: f3ba             .word 0xf3ba
017d53: f9ba             .word 0xf9ba
017d54: fded             .word 0xfded
017d55: 01e7             .word 0x01e7
017d56: 06a1             .word 0x06a1
017d57: 0aa3             .word 0x0aa3
017d58: 0f46             .word 0x0f46
017d59: 1421             .word 0x1421
017d5a: 17de             .word 0x17de
017d5b: 1a47             .word 0x1a47
017d5c: 1ce2             .word 0x1ce2
017d5d: 1e29             .word 0x1e29
017d5e: 1f4d             .word 0x1f4d
017d5f: 1fd0             .word 0x1fd0
017d60: 1f5c             .word 0x1f5c
017d61: 1f0b             .word 0x1f0b
017d62: 1e43             .word 0x1e43
017d63: 1ca5             .word 0x1ca5
017d64: 1b50             .word 0x1b50
017d65: 1a05             .word 0x1a05
017d66: 181e             .word 0x181e
017d67: 17b9             .word 0x17b9
017d68: 183d             .word 0x183d
017d69: 18b5             .word 0x18b5
017d6a: 17a5             .word 0x17a5
017d6b: 149c             .word 0x149c
017d6c: 124d             .word 0x124d
017d6d: 1172             .word 0x1172
017d6e: 118b             .word 0x118b
017d6f: 1031             .word 0x1031
017d70: 0eaf             .word 0x0eaf
017d71: 0c38             .word 0x0c38
017d72: 05e0             .word 0x05e0
017d73: fcf7             .word 0xfcf7
017d74: f2a4             .word 0xf2a4
017d75: e4d7             .word 0xe4d7
017d76: d564             .word 0xd564
017d77: c5c8             .word 0xc5c8
017d78: b4df             .word 0xb4df
017d79: a67d             .word 0xa67d
017d7a: afc8             .word 0xafc8
017d7b: cc9d             .word 0xcc9d
017d7c: de4a             .word 0xde4a
017d7d: e289             .word 0xe289
017d7e: e3e4             .word 0xe3e4
017d7f: e3d4             .word 0xe3d4
017d80: e308             .word 0xe308
017d81: e6a8             .word 0xe6a8
017d82: ef19             .word 0xef19
017d83: f630             .word 0xf630
017d84: fb95             .word 0xfb95
017d85: ff4d             .word 0xff4d
017d86: 03ca             .word 0x03ca
017d87: 082f             .word 0x082f
017d88: 0c54             .word 0x0c54
017d89: 1128             .word 0x1128
017d8a: 15cc             .word 0x15cc
017d8b: 18ce             .word 0x18ce
017d8c: 1b53             .word 0x1b53
017d8d: 1d87             .word 0x1d87
017d8e: 1e88             .word 0x1e88
017d8f: 1fab             .word 0x1fab
017d90: 1fa9             .word 0x1fa9
017d91: 1f38             .word 0x1f38
017d92: 1eda             .word 0x1eda
017d93: 1db1             .word 0x1db1
017d94: 1c0e             .word 0x1c0e
017d95: 1aeb             .word 0x1aeb
017d96: 1944             .word 0x1944
017d97: 17b9             .word 0x17b9
017d98: 17ef             .word 0x17ef
017d99: 186e             .word 0x186e
017d9a: 18a3             .word 0x18a3
017d9b: 1689             .word 0x1689
017d9c: 1391             .word 0x1391
017d9d: 11c3             .word 0x11c3
017d9e: 118b             .word 0x118b
017d9f: 1133             .word 0x1133
017da0: 0f89             .word 0x0f89
017da1: 0e09             .word 0x0e09
017da2: 0a4e             .word 0x0a4e
017da3: 0293             .word 0x0293
017da4: f951             .word 0xf951
017da5: edbc             .word 0xedbc
017da6: def9             .word 0xdef9
017da7: cf6c             .word 0xcf6c
017da8: bf9b             .word 0xbf9b
017da9: ae1e             .word 0xae1e
017daa: a64e             .word 0xa64e
017dab: ba53             .word 0xba53
017dac: d5a1             .word 0xd5a1
017dad: e0be             .word 0xe0be
017dae: e329             .word 0xe329
017daf: e416             .word 0xe416
017db0: e370             .word 0xe370
017db1: e397             .word 0xe397
017db2: e9b6             .word 0xe9b6
017db3: f218             .word 0xf218
017db4: f870             .word 0xf870
017db5: fd1e             .word 0xfd1e
017db6: 00d6             .word 0x00d6
017db7: 05a1             .word 0x05a1
017db8: 09ab             .word 0x09ab
017db9: 0e25             .word 0x0e25
017dba: 1304             .word 0x1304
017dbb: 172c             .word 0x172c
017dbc: 19b0             .word 0x19b0
017dbd: 1c5c             .word 0x1c5c
017dbe: 1df0             .word 0x1df0
017dbf: 1f04             .word 0x1f04
017dc0: 1fd5             .word 0x1fd5
017dc1: 1f79             .word 0x1f79
017dc2: 1f1c             .word 0x1f1c
017dc3: 1e8b             .word 0x1e8b
017dc4: 1d0c             .word 0x1d0c
017dc5: 1b94             .word 0x1b94
017dc6: 1a66             .word 0x1a66
017dc7: 187f             .word 0x187f
017dc8: 17a8             .word 0x17a8
017dc9: 1824             .word 0x1824
017dca: 18a2             .word 0x18a2
017dcb: 182a             .word 0x182a
017dcc: 1550             .word 0x1550
017dcd: 12c0             .word 0x12c0
017dce: 117e             .word 0x117e
017dcf: 119c             .word 0x119c
017dd0: 109a             .word 0x109a
017dd1: 0f01             .word 0x0f01
017dd2: 0d10             .word 0x0d10
017dd3: 07b9             .word 0x07b9
017dd4: ff1c             .word 0xff1c
017dd5: f552             .word 0xf552
017dd6: e850             .word 0xe850
017dd7: d90c             .word 0xd90c
017dd8: c973             .word 0xc973
017dd9: b90b             .word 0xb90b
017dda: a893             .word 0xa893
017ddb: aad8             .word 0xaad8
017ddc: c5f4             .word 0xc5f4
017ddd: dbd5             .word 0xdbd5
017dde: e205             .word 0xe205
017ddf: e3ab             .word 0xe3ab
017de0: e400             .word 0xe400
017de1: e311             .word 0xe311
017de2: e52a             .word 0xe52a
017de3: ed17             .word 0xed17
017de4: f4b4             .word 0xf4b4
017de5: fa79             .word 0xfa79
017de6: fe76             .word 0xfe76
017de7: 02a6             .word 0x02a6
017de8: 073e             .word 0x073e
017de9: 0b46             .word 0x0b46
017dea: 1004             .word 0x1004
017deb: 14d1             .word 0x14d1
017dec: 183d             .word 0x183d
017ded: 1aae             .word 0x1aae
017dee: 1d2d             .word 0x1d2d
017def: 1e48             .word 0x1e48
017df0: 1f77             .word 0x1f77
017df1: 1fc4             .word 0x1fc4
017df2: 1f48             .word 0x1f48
017df3: 1efb             .word 0x1efb
017df4: 1e0e             .word 0x1e0e
017df5: 1c66             .word 0x1c66
017df6: 1b2d             .word 0x1b2d
017df7: 19bc             .word 0x19bc
017df8: 17ea             .word 0x17ea
017df9: 17ce             .word 0x17ce
017dfa: 1850             .word 0x1850
017dfb: 18bb             .word 0x18bb
017dfc: 173d             .word 0x173d
017dfd: 1433             .word 0x1433
017dfe: 1213             .word 0x1213
017dff: 117b             .word 0x117b
017e00: 116e             .word 0x116e
017e01: 0fee             .word 0x0fee
017e02: 0e73             .word 0x0e73
017e03: 0b8e             .word 0x0b8e
017e04: 04a0             .word 0x04a0
017e05: fb92             .word 0xfb92
017e06: f0c8             .word 0xf0c8
017e07: e28f             .word 0xe28f
017e08: d30e             .word 0xd30e
017e09: c367             .word 0xc367
017e0a: b22e             .word 0xb22e
017e0b: a5e6             .word 0xa5e6
017e0c: b39b             .word 0xb39b
017e0d: d072             .word 0xd072
017e0e: df6e             .word 0xdf6e
017e0f: e2ce             .word 0xe2ce
017e10: e3fb             .word 0xe3fb
017e11: e3b2             .word 0xe3b2
017e12: e326             .word 0xe326
017e13: e7c6             .word 0xe7c6
017e14: f051             .word 0xf051
017e15: f715             .word 0xf715
017e16: fc34             .word 0xfc34
017e17: ffe2             .word 0xffe2
017e18: 0488             .word 0x0488
017e19: 08c2             .word 0x08c2
017e1a: 0d07             .word 0x0d07
017e1b: 11e4             .word 0x11e4
017e1c: 1662             .word 0x1662
017e1d: 1927             .word 0x1927
017e1e: 1bbf             .word 0x1bbf
017e1f: 1db6             .word 0x1db6
017e20: 1eb6             .word 0x1eb6
017e21: 1fc4             .word 0x1fc4
017e22: 1f96             .word 0x1f96
017e23: 1f2c             .word 0x1f2c
017e24: 1ebe             .word 0x1ebe
017e25: 1d74             .word 0x1d74
017e26: 1bd7             .word 0x1bd7
017e27: 1abc             .word 0x1abc
017e28: 18f0             .word 0x18f0
017e29: 17a7             .word 0x17a7
017e2a: 1805             .word 0x1805
017e2b: 1886             .word 0x1886
017e2c: 1882             .word 0x1882
017e2d: 160e             .word 0x160e
017e2e: 133a             .word 0x133a
017e2f: 11a1             .word 0x11a1
017e30: 118f             .word 0x118f
017e31: 10fd             .word 0x10fd
017e32: 0f54             .word 0x0f54
017e33: 0db7             .word 0x0db7
017e34: 0961             .word 0x0961
017e35: 013c             .word 0x013c
017e36: f7cd             .word 0xf7cd
017e37: eba9             .word 0xeba9
017e38: dcaa             .word 0xdcaa
017e39: cd14             .word 0xcd14
017e3a: bd19             .word 0xbd19
017e3b: abb7             .word 0xabb7
017e3c: a785             .word 0xa785
017e3d: bee0             .word 0xbee0
017e3e: d864             .word 0xd864
017e3f: e158             .word 0xe158
017e40: e363             .word 0xe363
017e41: e411             .word 0xe411
017e42: e341             .word 0xe341
017e43: e415             .word 0xe415
017e44: eb08             .word 0xeb08
017e45: f328             .word 0xf328
017e46: f944             .word 0xf944
017e47: fda5             .word 0xfda5
017e48: 0184             .word 0x0184
017e49: 064b             .word 0x064b
017e4a: 0a48             .word 0x0a48
017e4b: 0edd             .word 0x0edd
017e4c: 13bd             .word 0x13bd
017e4d: 17a5             .word 0x17a5
017e4e: 1a11             .word 0x1a11
017e4f: 1cb8             .word 0x1cb8
017e50: 1e0f             .word 0x1e0f
017e51: 1f32             .word 0x1f32
017e52: 1fd5             .word 0x1fd5
017e53: 1f64             .word 0x1f64
017e54: 1f14             .word 0x1f14
017e55: 1e61             .word 0x1e61
017e56: 1cc9             .word 0x1cc9
017e57: 1b69             .word 0x1b69
017e58: 1a29             .word 0x1a29
017e59: 183c             .word 0x183c
017e5a: 17ae             .word 0x17ae
017e5b: 1832             .word 0x1832
017e5c: 18ae             .word 0x18ae
017e5d: 17d9             .word 0x17d9
017e5e: 14d6             .word 0x14d6
017e5f: 1275             .word 0x1275
017e60: 1173             .word 0x1173
017e61: 1194             .word 0x1194
017e62: 1052             .word 0x1052
017e63: 0ecd             .word 0x0ecd
017e64: 0c8d             .word 0x0c8d
017e65: 0693             .word 0x0693
017e66: fdbb             .word 0xfdbb
017e67: f3a1             .word 0xf3a1
017e68: e618             .word 0xe618
017e69: d6b4             .word 0xd6b4
017e6a: c716             .word 0xc716
017e6b: b666             .word 0xb666
017e6c: a714             .word 0xa714
017e6d: add8             .word 0xadd8
017e6e: ca4a             .word 0xca4a
017e6f: dd80             .word 0xdd80
017e70: e25e             .word 0xe25e
017e71: e3d1             .word 0xe3d1
017e72: e3e4             .word 0xe3e4
017e73: e303             .word 0xe303
017e74: e614             .word 0xe614
017e75: ee64             .word 0xee64
017e76: f5a7             .word 0xf5a7
017e77: fb33             .word 0xfb33
017e78: fefb             .word 0xfefb
017e79: 0364             .word 0x0364
017e7a: 07d8             .word 0x07d8
017e7b: 0bf4             .word 0x0bf4
017e7c: 10bd             .word 0x10bd
017e7d: 1576             .word 0x1576
017e7e: 189a             .word 0x189a
017e7f: 1b19             .word 0x1b19
017e80: 1d66             .word 0x1d66
017e81: 1e72             .word 0x1e72
017e82: 1f9b             .word 0x1f9b
017e83: 1fb6             .word 0x1fb6
017e84: 1f3b             .word 0x1f3b
017e85: 1ee7             .word 0x1ee7
017e86: 1dd5             .word 0x1dd5
017e87: 1c2c             .word 0x1c2c
017e88: 1b01             .word 0x1b01
017e89: 196e             .word 0x196e
017e8a: 17c1             .word 0x17c1
017e8b: 17e4             .word 0x17e4
017e8c: 1863             .word 0x1863
017e8d: 18b2             .word 0x18b2
017e8e: 16cb             .word 0x16cb
017e8f: 13c9             .word 0x13c9
017e90: 11dc             .word 0x11dc
017e91: 1181             .word 0x1181
017e92: 114a             .word 0x114a
017e93: 0faf             .word 0x0faf
017e94: 0e33             .word 0x0e33
017e95: 0aca             .word 0x0aca
017e96: 0350             .word 0x0350
017e97: fa23             .word 0xfa23
017e98: eedb             .word 0xeedb
017e99: e049             .word 0xe049
017e9a: d0b6             .word 0xd0b6
017e9b: c0ff             .word 0xc0ff
017e9c: af8c             .word 0xaf8c
017e9d: a5fc             .word 0xa5fc
017e9e: b7d8             .word 0xb7d8
017e9f: d3e5             .word 0xd3e5
017ea0: e054             .word 0xe054
017ea1: e30e             .word 0xe30e
017ea2: e40b             .word 0xe40b
017ea3: e384             .word 0xe384
017ea4: e363             .word 0xe363
017ea5: e901             .word 0xe901
017ea6: f17a             .word 0xf17a
017ea7: f7f7             .word 0xf7f7
017ea8: fcc8             .word 0xfcc8
017ea9: 007f             .word 0x007f
017eaa: 053b             .word 0x053b
017eab: 0957             .word 0x0957
017eac: 0db8             .word 0x0db8
017ead: 12a1             .word 0x12a1
017eae: 16e7             .word 0x16e7
017eaf: 197e             .word 0x197e
017eb0: 1c22             .word 0x1c22
017eb1: 1ddd             .word 0x1ddd
017eb2: 1ee5             .word 0x1ee5
017eb3: 1fd4             .word 0x1fd4
017eb4: 1f7f             .word 0x1f7f
017eb5: 1f24             .word 0x1f24
017eb6: 1e9d             .word 0x1e9d
017eb7: 1d30             .word 0x1d30
017eb8: 1ba8             .word 0x1ba8
017eb9: 1a8c             .word 0x1a8c
017eba: 18a7             .word 0x18a7
017ebb: 17a5             .word 0x17a5
017ebc: 1818             .word 0x1818
017ebd: 1897             .word 0x1897
017ebe: 184f             .word 0x184f
017ebf: 1592             .word 0x1592
017ec0: 12ea             .word 0x12ea
017ec1: 1184             .word 0x1184
017ec2: 1196             .word 0x1196
017ec3: 10bf             .word 0x10bf
017ec4: 0f1a             .word 0x0f1a
017ec5: 0d52             .word 0x0d52
017ec6: 0854             .word 0x0854
017ec7: ffe2             .word 0xffe2
017ec8: f639             .word 0xf639
017ec9: e987             .word 0xe987
017eca: da56             .word 0xda56
017ecb: cac4             .word 0xcac4
017ecc: ba85             .word 0xba85
017ecd: a999             .word 0xa999
017ece: a972             .word 0xa972
017ecf: c373             .word 0xc373
017ed0: dab4             .word 0xdab4
017ed1: e1d3             .word 0xe1d3
017ed2: e391             .word 0xe391
017ed3: e40a             .word 0xe40a
017ed4: e31c             .word 0xe31c
017ed5: e4be             .word 0xe4be
017ed6: ec5b             .word 0xec5b
017ed7: f42b             .word 0xf42b
017ed8: fa0d             .word 0xfa0d
017ed9: fe2c             .word 0xfe2c
017eda: 023a             .word 0x023a
017edb: 06ea             .word 0x06ea
017edc: 0ae6             .word 0x0ae6
017edd: 0f99             .word 0x0f99
017ede: 1470             .word 0x1470
017edf: 180d             .word 0x180d
017ee0: 1a74             .word 0x1a74
017ee1: 1d06             .word 0x1d06
017ee2: 1e34             .word 0x1e34
017ee3: 1f64             .word 0x1f64
017ee4: 1fc9             .word 0x1fc9
017ee5: 1f51             .word 0x1f51
017ee6: 1f03             .word 0x1f03
017ee7: 1e2d             .word 0x1e2d
017ee8: 1c84             .word 0x1c84
017ee9: 1b43             .word 0x1b43
017eea: 19e4             .word 0x19e4
017eeb: 1806             .word 0x1806
017eec: 17c0             .word 0x17c0
017eed: 1848             .word 0x1848
017eee: 18b8             .word 0x18b8
017eef: 177c             .word 0x177c
017ef0: 1468             .word 0x1468
017ef1: 1237             .word 0x1237
017ef2: 1170             .word 0x1170
017ef3: 1181             .word 0x1181
017ef4: 1010             .word 0x1010
017ef5: 0e96             .word 0x0e96
017ef6: 0bec             .word 0x0bec
017ef7: 0558             .word 0x0558
017ef8: fc58             .word 0xfc58
017ef9: f1d5             .word 0xf1d5
017efa: e3d4             .word 0xe3d4
017efb: d464             .word 0xd464
017efc: c4bb             .word 0xc4bb
017efd: b3b3             .word 0xb3b3
017efe: a625             .word 0xa625
017eff: b16e             .word 0xb16e
017f00: ce53             .word 0xce53
017f01: ded8             .word 0xded8
017f02: e2a5             .word 0xe2a5
017f03: e3f2             .word 0xe3f2
017f04: e3c3             .word 0xe3c3
017f05: e313             .word 0xe313
017f06: e71f             .word 0xe71f
017f07: efa6             .word 0xefa6
017f08: f691             .word 0xf691
017f09: fbde             .word 0xfbde
017f0a: ff87             .word 0xff87
017f0b: 0424             .word 0x0424
017f0c: 0869             .word 0x0869
017f0d: 0ca6             .word 0x0ca6
017f0e: 1178             .word 0x1178
017f0f: 1613             .word 0x1613
017f10: 18f2             .word 0x18f2
017f11: 1b87             .word 0x1b87
017f12: 1d97             .word 0x1d97
017f13: 1ea0             .word 0x1ea0
017f14: 1fb3             .word 0x1fb3
017f15: 1fa3             .word 0x1fa3
017f16: 1f2c             .word 0x1f2c
017f17: 1ed2             .word 0x1ed2
017f18: 1d93             .word 0x1d93
017f19: 1bfb             .word 0x1bfb
017f1a: 1ad2             .word 0x1ad2
017f1b: 1924             .word 0x1924
017f1c: 17aa             .word 0x17aa
017f1d: 17fa             .word 0x17fa
017f1e: 1873             .word 0x1873
017f1f: 189c             .word 0x189c
017f20: 164d             .word 0x164d
017f21: 1371             .word 0x1371
017f22: 11ad             .word 0x11ad
017f23: 1193             .word 0x1193
017f24: 1115             .word 0x1115
017f25: 0f78             .word 0x0f78
017f26: 0de0             .word 0x0de0
017f27: 09f0             .word 0x09f0
017f28: 01f6             .word 0x01f6
017f29: f8b2             .word 0xf8b2
017f2a: ecca             .word 0xecca
017f2b: ddff             .word 0xddff
017f2c: ce59             .word 0xce59
017f2d: be8d             .word 0xbe8d
017f2e: acff             .word 0xacff
017f2f: a6cd             .word 0xa6cd
017f30: bc43             .word 0xbc43
017f31: d6f3             .word 0xd6f3
017f32: e0f8             .word 0xe0f8
017f33: e353             .word 0xe353
017f34: e403             .word 0xe403
017f35: e366             .word 0xe366
017f36: e3b5             .word 0xe3b5
017f37: ea5c             .word 0xea5c
017f38: f282             .word 0xf282
017f39: f8d1             .word 0xf8d1
017f3a: fdff             .word 0xfdff
017f3b: 0000             .word 0x0000
017f3c:               _nr_ffttable:
017f3c:               .const:_nr_ffttable:
017f3c: 7fff             .word 0x7fff
017f3d: ffff             .word 0xffff
017f3e: 7ff6             .word 0x7ff6
017f3f: 2181             .word 0x2181
017f40: 7fd8             .word 0x7fd8
017f41: 878c             .word 0x878c
017f42: 7fa7             .word 0x7fa7
017f43: 36b3             .word 0x36b3
017f44: 7f62             .word 0x7f62
017f45: 368e             .word 0x368e
017f46: 7f09             .word 0x7f09
017f47: 91c2             .word 0x91c2
017f48: 7e9d             .word 0x7e9d
017f49: 55fb             .word 0x55fb
017f4a: 7e1d             .word 0x7e1d
017f4b: 93e8             .word 0x93e8
017f4c: 7d8a             .word 0x7d8a
017f4d: 5f3e             .word 0x5f3e
017f4e: 7ce3             .word 0x7ce3
017f4f: ceb0             .word 0xceb0
017f50: 7c29             .word 0x7c29
017f51: fbed             .word 0xfbed
017f52: 7b5d             .word 0x7b5d
017f53: 039c             .word 0x039c
017f54: 7a7d             .word 0x7a7d
017f55: 055a             .word 0x055a
017f56: 798a             .word 0x798a
017f57: 23b0             .word 0x23b0
017f58: 7884             .word 0x7884
017f59: 8412             .word 0x8412
017f5a: 776c             .word 0x776c
017f5b: 4eda             .word 0x4eda
017f5c: 7641             .word 0x7641
017f5d: af3b             .word 0xaf3b
017f5e: 7504             .word 0x7504
017f5f: d344             .word 0xd344
017f60: 73b5             .word 0x73b5
017f61: ebd0             .word 0xebd0
017f62: 7255             .word 0x7255
017f63: 2c83             .word 0x2c83
017f64: 70e2             .word 0x70e2
017f65: cbc5             .word 0xcbc5
017f66: 6f5f             .word 0x6f5f
017f67: 02b0             .word 0x02b0
017f68: 6dca             .word 0x6dca
017f69: 0d13             .word 0x0d13
017f6a: 6c24             .word 0x6c24
017f6b: 295f             .word 0x295f
017f6c: 6a6d             .word 0x6a6d
017f6d: 98a3             .word 0x98a3
017f6e: 68a6             .word 0x68a6
017f6f: 9e80             .word 0x9e80
017f70: 66cf             .word 0x66cf
017f71: 811f             .word 0x811f
017f72: 64e8             .word 0x64e8
017f73: 8925             .word 0x8925
017f74: 62f2             .word 0x62f2
017f75: 01ab             .word 0x01ab
017f76: 60ec             .word 0x60ec
017f77: 382f             .word 0x382f
017f78: 5ed7             .word 0x5ed7
017f79: 7c88             .word 0x7c88
017f7a: 5cb4             .word 0x5cb4
017f7b: 20df             .word 0x20df
017f7c: 5a82             .word 0x5a82
017f7d: 7999             .word 0x7999
017f7e: 5842             .word 0x5842
017f7f: dd53             .word 0xdd53
017f80: 55f5             .word 0x55f5
017f81: a4d1             .word 0xa4d1
017f82: 539b             .word 0x539b
017f83: 2aee             .word 0x2aee
017f84: 5133             .word 0x5133
017f85: cc93             .word 0xcc93
017f86: 4ebf             .word 0x4ebf
017f87: e8a3             .word 0xe8a3
017f88: 4c3f             .word 0x4c3f
017f89: dff2             .word 0xdff2
017f8a: 49b4             .word 0x49b4
017f8b: 1532             .word 0x1532
017f8c: 471c             .word 0x471c
017f8d: ece6             .word 0xece6
017f8e: 447a             .word 0x447a
017f8f: cd4f             .word 0xcd4f
017f90: 41ce             .word 0x41ce
017f91: 1e64             .word 0x1e64
017f92: 3f17             .word 0x3f17
017f93: 49b7             .word 0x49b7
017f94: 3c56             .word 0x3c56
017f95: ba6f             .word 0xba6f
017f96: 398c             .word 0x398c
017f97: dd31             .word 0xdd31
017f98: 36ba             .word 0x36ba
017f99: 2013             .word 0x2013
017f9a: 33de             .word 0x33de
017f9b: f286             .word 0xf286
017f9c: 30fb             .word 0x30fb
017f9d: c54c             .word 0xc54c
017f9e: 2e11             .word 0x2e11
017f9f: 0a61             .word 0x0a61
017fa0: 2b1f             .word 0x2b1f
017fa1: 34eb             .word 0x34eb
017fa2: 2826             .word 0x2826
017fa3: b927             .word 0xb927
017fa4: 2528             .word 0x2528
017fa5: 0c5d             .word 0x0c5d
017fa6: 2223             .word 0x2223
017fa7: a4c5             .word 0xa4c5
017fa8: 1f19             .word 0x1f19
017fa9: f97a             .word 0xf97a
017faa: 1c0b             .word 0x1c0b
017fab: 826a             .word 0x826a
017fac: 18f8             .word 0x18f8
017fad: b83c             .word 0xb83c
017fae: 15e2             .word 0x15e2
017faf: 1444             .word 0x1444
017fb0: 12c8             .word 0x12c8
017fb1: 106e             .word 0x106e
017fb2: 0fab             .word 0x0fab
017fb3: 272b             .word 0x272b
017fb4: 0c8b             .word 0x0c8b
017fb5: d35d             .word 0xd35d
017fb6: 096a             .word 0x096a
017fb7: 9049             .word 0x9049
017fb8: 0647             .word 0x0647
017fb9: d97c             .word 0xd97c
017fba: 0324             .word 0x0324
017fbb: 2abe             .word 0x2abe
017fbc: 0000             .word 0x0000
017fbd: 0000             .word 0x0000
017fbe: fcdb             .word 0xfcdb
017fbf: d542             .word 0xd542
017fc0: f9b8             .word 0xf9b8
017fc1: 2684             .word 0x2684
017fc2: f695             .word 0xf695
017fc3: 6fb7             .word 0x6fb7
017fc4: f374             .word 0xf374
017fc5: 2ca3             .word 0x2ca3
017fc6: f054             .word 0xf054
017fc7: d8d5             .word 0xd8d5
017fc8: ed37             .word 0xed37
017fc9: ef92             .word 0xef92
017fca: ea1d             .word 0xea1d
017fcb: ebbc             .word 0xebbc
017fcc: e707             .word 0xe707
017fcd: 47c4             .word 0x47c4
017fce: e3f4             .word 0xe3f4
017fcf: 7d96             .word 0x7d96
017fd0: e0e6             .word 0xe0e6
017fd1: 0686             .word 0x0686
017fd2: dddc             .word 0xdddc
017fd3: 5b3b             .word 0x5b3b
017fd4: dad7             .word 0xdad7
017fd5: f3a3             .word 0xf3a3
017fd6: d7d9             .word 0xd7d9
017fd7: 46d9             .word 0x46d9
017fd8: d4e0             .word 0xd4e0
017fd9: cb15             .word 0xcb15
017fda: d1ee             .word 0xd1ee
017fdb: f59f             .word 0xf59f
017fdc: cf04             .word 0xcf04
017fdd: 3ab4             .word 0x3ab4
017fde: cc21             .word 0xcc21
017fdf: 0d7a             .word 0x0d7a
017fe0: c945             .word 0xc945
017fe1: dfed             .word 0xdfed
017fe2: c673             .word 0xc673
017fe3: 22cf             .word 0x22cf
017fe4: c3a9             .word 0xc3a9
017fe5: 4591             .word 0x4591
017fe6: c0e8             .word 0xc0e8
017fe7: b649             .word 0xb649
017fe8: be31             .word 0xbe31
017fe9: e19c             .word 0xe19c
017fea: bb85             .word 0xbb85
017feb: 32b1             .word 0x32b1
017fec: b8e3             .word 0xb8e3
017fed: 131a             .word 0x131a
017fee: b64b             .word 0xb64b
017fef: eace             .word 0xeace
017ff0: b3c0             .word 0xb3c0
017ff1: 200e             .word 0x200e
017ff2: b140             .word 0xb140
017ff3: 175d             .word 0x175d
017ff4: aecc             .word 0xaecc
017ff5: 336d             .word 0x336d
017ff6: ac64             .word 0xac64
017ff7: d512             .word 0xd512
017ff8: aa0a             .word 0xaa0a
017ff9: 5b2f             .word 0x5b2f
017ffa: a7bd             .word 0xa7bd
017ffb: 22ad             .word 0x22ad
017ffc: a57d             .word 0xa57d
017ffd: 8667             .word 0x8667
017ffe: a34b             .word 0xa34b
017fff: df21             .word 0xdf21
018000: a128             .word 0xa128
018001: 8378             .word 0x8378
018002: 9f13             .word 0x9f13
018003: c7d1             .word 0xc7d1
018004: 9d0d             .word 0x9d0d
018005: fe55             .word 0xfe55
018006: 9b17             .word 0x9b17
018007: 76db             .word 0x76db
018008: 9930             .word 0x9930
018009: 7ee1             .word 0x7ee1
01800a: 9759             .word 0x9759
01800b: 6180             .word 0x6180
01800c: 9592             .word 0x9592
01800d: 675d             .word 0x675d
01800e: 93db             .word 0x93db
01800f: d6a1             .word 0xd6a1
018010: 9235             .word 0x9235
018011: f2ed             .word 0xf2ed
018012: 90a0             .word 0x90a0
018013: fd50             .word 0xfd50
018014: 8f1d             .word 0x8f1d
018015: 343b             .word 0x343b
018016: 8daa             .word 0x8daa
018017: d37d             .word 0xd37d
018018: 8c4a             .word 0x8c4a
018019: 1430             .word 0x1430
01801a: 8afb             .word 0x8afb
01801b: 2cbc             .word 0x2cbc
01801c: 89be             .word 0x89be
01801d: 50c5             .word 0x50c5
01801e: 8893             .word 0x8893
01801f: b126             .word 0xb126
018020: 877b             .word 0x877b
018021: 7bee             .word 0x7bee
018022: 8675             .word 0x8675
018023: dc50             .word 0xdc50
018024: 8582             .word 0x8582
018025: faa6             .word 0xfaa6
018026: 84a2             .word 0x84a2
018027: fc64             .word 0xfc64
018028: 83d6             .word 0x83d6
018029: 0413             .word 0x0413
01802a: 831c             .word 0x831c
01802b: 3150             .word 0x3150
01802c: 8275             .word 0x8275
01802d: a0c2             .word 0xa0c2
01802e: 81e2             .word 0x81e2
01802f: 6c18             .word 0x6c18
018030: 8162             .word 0x8162
018031: aa05             .word 0xaa05
018032: 80f6             .word 0x80f6
018033: 6e3e             .word 0x6e3e
018034: 809d             .word 0x809d
018035: c972             .word 0xc972
018036: 8058             .word 0x8058
018037: c94d             .word 0xc94d
018038: 8027             .word 0x8027
018039: 7874             .word 0x7874
01803a: 8009             .word 0x8009
01803b: de7f             .word 0xde7f
01803c: 8000             .word 0x8000
01803d: 0001             .word 0x0001
01803e: 8009             .word 0x8009
01803f: de7f             .word 0xde7f
018040: 8027             .word 0x8027
018041: 7874             .word 0x7874
018042: 8058             .word 0x8058
018043: c94d             .word 0xc94d
018044: 809d             .word 0x809d
018045: c972             .word 0xc972
018046: 80f6             .word 0x80f6
018047: 6e3e             .word 0x6e3e
018048: 8162             .word 0x8162
018049: aa05             .word 0xaa05
01804a: 81e2             .word 0x81e2
01804b: 6c18             .word 0x6c18
01804c: 8275             .word 0x8275
01804d: a0c2             .word 0xa0c2
01804e: 831c             .word 0x831c
01804f: 3150             .word 0x3150
018050: 83d6             .word 0x83d6
018051: 0413             .word 0x0413
018052: 84a2             .word 0x84a2
018053: fc64             .word 0xfc64
018054: 8582             .word 0x8582
018055: faa6             .word 0xfaa6
018056: 8675             .word 0x8675
018057: dc50             .word 0xdc50
018058: 877b             .word 0x877b
018059: 7bee             .word 0x7bee
01805a: 8893             .word 0x8893
01805b: b126             .word 0xb126
01805c: 89be             .word 0x89be
01805d: 50c5             .word 0x50c5
01805e: 8afb             .word 0x8afb
01805f: 2cbc             .word 0x2cbc
018060: 8c4a             .word 0x8c4a
018061: 1430             .word 0x1430
018062: 8daa             .word 0x8daa
018063: d37d             .word 0xd37d
018064: 8f1d             .word 0x8f1d
018065: 343b             .word 0x343b
018066: 90a0             .word 0x90a0
018067: fd50             .word 0xfd50
018068: 9235             .word 0x9235
018069: f2ed             .word 0xf2ed
01806a: 93db             .word 0x93db
01806b: d6a1             .word 0xd6a1
01806c: 9592             .word 0x9592
01806d: 675d             .word 0x675d
01806e: 9759             .word 0x9759
01806f: 6180             .word 0x6180
018070: 9930             .word 0x9930
018071: 7ee1             .word 0x7ee1
018072: 9b17             .word 0x9b17
018073: 76db             .word 0x76db
018074: 9d0d             .word 0x9d0d
018075: fe55             .word 0xfe55
018076: 9f13             .word 0x9f13
018077: c7d1             .word 0xc7d1
018078: a128             .word 0xa128
018079: 8378             .word 0x8378
01807a: a34b             .word 0xa34b
01807b: df21             .word 0xdf21
01807c: a57d             .word 0xa57d
01807d: 8667             .word 0x8667
01807e: a7bd             .word 0xa7bd
01807f: 22ad             .word 0x22ad
018080: aa0a             .word 0xaa0a
018081: 5b2f             .word 0x5b2f
018082: ac64             .word 0xac64
018083: d512             .word 0xd512
018084: aecc             .word 0xaecc
018085: 336d             .word 0x336d
018086: b140             .word 0xb140
018087: 175d             .word 0x175d
018088: b3c0             .word 0xb3c0
018089: 200e             .word 0x200e
01808a: b64b             .word 0xb64b
01808b: eace             .word 0xeace
01808c: b8e3             .word 0xb8e3
01808d: 131a             .word 0x131a
01808e: bb85             .word 0xbb85
01808f: 32b1             .word 0x32b1
018090: be31             .word 0xbe31
018091: e19c             .word 0xe19c
018092: c0e8             .word 0xc0e8
018093: b649             .word 0xb649
018094: c3a9             .word 0xc3a9
018095: 4591             .word 0x4591
018096: c673             .word 0xc673
018097: 22cf             .word 0x22cf
018098: c945             .word 0xc945
018099: dfed             .word 0xdfed
01809a: cc21             .word 0xcc21
01809b: 0d7a             .word 0x0d7a
01809c: cf04             .word 0xcf04
01809d: 3ab4             .word 0x3ab4
01809e: d1ee             .word 0xd1ee
01809f: f59f             .word 0xf59f
0180a0: d4e0             .word 0xd4e0
0180a1: cb15             .word 0xcb15
0180a2: d7d9             .word 0xd7d9
0180a3: 46d9             .word 0x46d9
0180a4: dad7             .word 0xdad7
0180a5: f3a3             .word 0xf3a3
0180a6: dddc             .word 0xdddc
0180a7: 5b3b             .word 0x5b3b
0180a8: e0e6             .word 0xe0e6
0180a9: 0686             .word 0x0686
0180aa: e3f4             .word 0xe3f4
0180ab: 7d96             .word 0x7d96
0180ac: e707             .word 0xe707
0180ad: 47c4             .word 0x47c4
0180ae: ea1d             .word 0xea1d
0180af: ebbc             .word 0xebbc
0180b0: ed37             .word 0xed37
0180b1: ef92             .word 0xef92
0180b2: f054             .word 0xf054
0180b3: d8d5             .word 0xd8d5
0180b4: f374             .word 0xf374
0180b5: 2ca3             .word 0x2ca3
0180b6: f695             .word 0xf695
0180b7: 6fb7             .word 0x6fb7
0180b8: f9b8             .word 0xf9b8
0180b9: 2684             .word 0x2684
0180ba: fcdb             .word 0xfcdb
0180bb: d542             .word 0xd542
0180bc:               _nr_win_6ms_16k:
0180bc:               .const:_nr_win_6ms_16k:
0180bc: 010c             .word 0x010c
0180bd: 0324             .word 0x0324
0180be: 053c             .word 0x053c
0180bf: 0754             .word 0x0754
0180c0: 096b             .word 0x096b
0180c1: 0b81             .word 0x0b81
0180c2: 0d97             .word 0x0d97
0180c3: 0fab             .word 0x0fab
0180c4: 11bf             .word 0x11bf
0180c5: 13d1             .word 0x13d1
0180c6: 15e2             .word 0x15e2
0180c7: 17f2             .word 0x17f2
0180c8: 19ff             .word 0x19ff
0180c9: 1c0c             .word 0x1c0c
0180ca: 1e16             .word 0x1e16
0180cb: 201e             .word 0x201e
0180cc: 2224             .word 0x2224
0180cd: 2427             .word 0x2427
0180ce: 2628             .word 0x2628
0180cf: 2827             .word 0x2827
0180d0: 2a22             .word 0x2a22
0180d1: 2c1b             .word 0x2c1b
0180d2: 2e11             .word 0x2e11
0180d3: 3004             .word 0x3004
0180d4: 31f3             .word 0x31f3
0180d5: 33df             .word 0x33df
0180d6: 35c7             .word 0x35c7
0180d7: 37ac             .word 0x37ac
0180d8: 398d             .word 0x398d
0180d9: 3b6a             .word 0x3b6a
0180da: 3d43             .word 0x3d43
0180db: 3f17             .word 0x3f17
0180dc: 40e8             .word 0x40e8
0180dd: 42b3             .word 0x42b3
0180de: 447b             .word 0x447b
0180df: 463d             .word 0x463d
0180e0: 47fb             .word 0x47fb
0180e1: 49b4             .word 0x49b4
0180e2: 4b68             .word 0x4b68
0180e3: 4d17             .word 0x4d17
0180e4: 4ec0             .word 0x4ec0
0180e5: 5064             .word 0x5064
0180e6: 5202             .word 0x5202
0180e7: 539b             .word 0x539b
0180e8: 552e             .word 0x552e
0180e9: 56bc             .word 0x56bc
0180ea: 5843             .word 0x5843
0180eb: 59c4             .word 0x59c4
0180ec: 5b3f             .word 0x5b3f
0180ed: 5cb4             .word 0x5cb4
0180ee: 5e23             .word 0x5e23
0180ef: 5f8b             .word 0x5f8b
0180f0: 60ec             .word 0x60ec
0180f1: 6247             .word 0x6247
0180f2: 639b             .word 0x639b
0180f3: 64e9             .word 0x64e9
0180f4: 662f             .word 0x662f
0180f5: 676e             .word 0x676e
0180f6: 68a7             .word 0x68a7
0180f7: 69d8             .word 0x69d8
0180f8: 6b02             .word 0x6b02
0180f9: 6c24             .word 0x6c24
0180fa: 6d3f             .word 0x6d3f
0180fb: 6e53             .word 0x6e53
0180fc: 6f5f             .word 0x6f5f
0180fd: 7063             .word 0x7063
0180fe: 7160             .word 0x7160
0180ff: 7255             .word 0x7255
018100: 7342             .word 0x7342
018101: 7428             .word 0x7428
018102: 7505             .word 0x7505
018103: 75da             .word 0x75da
018104: 76a7             .word 0x76a7
018105: 776c             .word 0x776c
018106: 7829             .word 0x7829
018107: 78de             .word 0x78de
018108: 798a             .word 0x798a
018109: 7a2e             .word 0x7a2e
01810a: 7aca             .word 0x7aca
01810b: 7b5d             .word 0x7b5d
01810c: 7be8             .word 0x7be8
01810d: 7c6a             .word 0x7c6a
01810e: 7ce4             .word 0x7ce4
01810f: 7d55             .word 0x7d55
018110: 7dbe             .word 0x7dbe
018111: 7e1e             .word 0x7e1e
018112: 7e75             .word 0x7e75
018113: 7ec4             .word 0x7ec4
018114: 7f0a             .word 0x7f0a
018115: 7f47             .word 0x7f47
018116: 7f7b             .word 0x7f7b
018117: 7fa7             .word 0x7fa7
018118: 7fca             .word 0x7fca
018119: 7fe5             .word 0x7fe5
01811a: 7ff6             .word 0x7ff6
01811b: 7fff             .word 0x7fff
01811c:               _slm_tbl:
01811c:               .const:_slm_tbl:
01811c: 0c3c             .word 0x0c3c
01811d: 0d3c             .word 0x0d3c
01811e: 0e3c             .word 0x0e3c
01811f: 0efc             .word 0x0efc
018120: 0ffc             .word 0x0ffc
018121: 107c             .word 0x107c
018122: 10fc             .word 0x10fc
018123: 11fc             .word 0x11fc
018124: 12fc             .word 0x12fc
018125: 13fc             .word 0x13fc
018126: 14fc             .word 0x14fc
018127: 157c             .word 0x157c
018128: 15fc             .word 0x15fc
018129: 16fc             .word 0x16fc
01812a: 17fc             .word 0x17fc
01812b: 18fc             .word 0x18fc
01812c: 19fc             .word 0x19fc
01812d: 1a7c             .word 0x1a7c
01812e: 1afc             .word 0x1afc
01812f: 0f3c             .word 0x0f3c
018130: 107c             .word 0x107c
018131: 11fc             .word 0x11fc
018132: 12fc             .word 0x12fc
018133: 13fc             .word 0x13fc
018134: 14fc             .word 0x14fc
018135: 15fc             .word 0x15fc
018136: 16fc             .word 0x16fc
018137: 17fc             .word 0x17fc
018138: 18fc             .word 0x18fc
018139: 19fc             .word 0x19fc
01813a: 1afc             .word 0x1afc
01813b: 1bfc             .word 0x1bfc
01813c: 1cfc             .word 0x1cfc
01813d: 1dfc             .word 0x1dfc
01813e: 1efc             .word 0x1efc
01813f: 207c             .word 0x207c
018140: 217c             .word 0x217c
018141: 227c             .word 0x227c
018142: 12fc             .word 0x12fc
018143: 14fc             .word 0x14fc
018144: 16fc             .word 0x16fc
018145: 17fc             .word 0x17fc
018146: 18fc             .word 0x18fc
018147: 1a7c             .word 0x1a7c
018148: 1bfc             .word 0x1bfc
018149: 1cfc             .word 0x1cfc
01814a: 1dfc             .word 0x1dfc
01814b: 1efc             .word 0x1efc
01814c: 207c             .word 0x207c
01814d: 217c             .word 0x217c
01814e: 227c             .word 0x227c
01814f: 247c             .word 0x247c
018150: 267c             .word 0x267c
018151: 277c             .word 0x277c
018152: 287c             .word 0x287c
018153: 297c             .word 0x297c
018154: 2a7c             .word 0x2a7c
018155: 17fc             .word 0x17fc
018156: 1a7c             .word 0x1a7c
018157: 1cfc             .word 0x1cfc
018158: 1e7c             .word 0x1e7c
018159: 207c             .word 0x207c
01815a: 227c             .word 0x227c
01815b: 247c             .word 0x247c
01815c: 257c             .word 0x257c
01815d: 267c             .word 0x267c
01815e: 277c             .word 0x277c
01815f: 287c             .word 0x287c
018160: 2a7c             .word 0x2a7c
018161: 2c7c             .word 0x2c7c
018162: 2e7c             .word 0x2e7c
018163: 307c             .word 0x307c
018164: 327c             .word 0x327c
018165: 347c             .word 0x347c
018166: 357c             .word 0x357c
018167: 367c             .word 0x367c
018168: 1efc             .word 0x1efc
018169: 217c             .word 0x217c
01816a: 247c             .word 0x247c
01816b: 267c             .word 0x267c
01816c: 287c             .word 0x287c
01816d: 2a7c             .word 0x2a7c
01816e: 2c7c             .word 0x2c7c
01816f: 2e7c             .word 0x2e7c
018170: 307c             .word 0x307c
018171: 327c             .word 0x327c
018172: 347c             .word 0x347c
018173: 367c             .word 0x367c
018174: 387c             .word 0x387c
018175: 3a7c             .word 0x3a7c
018176: 3c7c             .word 0x3c7c
018177: 3e7c             .word 0x3e7c
018178: 417c             .word 0x417c
018179: 437b             .word 0x437b
01817a: 457c             .word 0x457c
01817b:               _sgn_dtk_v_samples:
01817b:               .const:_sgn_dtk_v_samples:
01817b: fe6d             .word 0xfe6d
01817c: 0366             .word 0x0366
01817d: 0c38             .word 0x0c38
01817e: 1141             .word 0x1141
01817f: 0bd5             .word 0x0bd5
018180: fb14             .word 0xfb14
018181: e666             .word 0xe666
018182: cd41             .word 0xcd41
018183: b342             .word 0xb342
018184: a54b             .word 0xa54b
018185: c8e7             .word 0xc8e7
018186: 0c3e             .word 0x0c3e
018187: 2c74             .word 0x2c74
018188: 395b             .word 0x395b
018189: 3c46             .word 0x3c46
01818a: 38e0             .word 0x38e0
01818b: 3824             .word 0x3824
01818c: 300e             .word 0x300e
01818d: 281f             .word 0x281f
01818e: 1b0a             .word 0x1b0a
01818f: 0ef3             .word 0x0ef3
018190: 03fc             .word 0x03fc
018191: fb17             .word 0xfb17
018192: f6d2             .word 0xf6d2
018193: f37b             .word 0xf37b
018194: f408             .word 0xf408
018195: f446             .word 0xf446
018196: f68a             .word 0xf68a
018197: f801             .word 0xf801
018198: f986             .word 0xf986
018199: fa38             .word 0xfa38
01819a: f9e3             .word 0xf9e3
01819b: f986             .word 0xf986
01819c: f7f8             .word 0xf7f8
01819d: f74a             .word 0xf74a
01819e: f602             .word 0xf602
01819f: f612             .word 0xf612
0181a0: f624             .word 0xf624
0181a1: f705             .word 0xf705
0181a2: f86f             .word 0xf86f
0181a3: fa64             .word 0xfa64
0181a4: fd1b             .word 0xfd1b
0181a5: ff8b             .word 0xff8b
0181a6: 0692             .word 0x0692
0181a7: 0ed2             .word 0x0ed2
0181a8: 10d8             .word 0x10d8
0181a9: 069e             .word 0x069e
0181aa: f3e7             .word 0xf3e7
0181ab: ddc7             .word 0xddc7
0181ac: c38f             .word 0xc38f
0181ad: ab3e             .word 0xab3e
0181ae: aadd             .word 0xaadd
0181af: e229             .word 0xe229
0181b0: 1cd7             .word 0x1cd7
0181b1: 319f             .word 0x319f
0181b2: 3c3f             .word 0x3c3f
0181b3: 3a8a             .word 0x3a8a
0181b4: 3913             .word 0x3913
0181b5: 35c4             .word 0x35c4
0181b6: 2d27             .word 0x2d27
0181b7: 2417             .word 0x2417
0181b8: 160c             .word 0x160c
0181b9: 0b2c             .word 0x0b2c
0181ba: 0008             .word 0x0008
0181bb: f963             .word 0xf963
0181bc: f543             .word 0xf543
0181bd: f36b             .word 0xf36b
0181be: f428             .word 0xf428
0181bf: f4d5             .word 0xf4d5
0181c0: f755             .word 0xf755
0181c1: f864             .word 0xf864
0181c2: fa15             .word 0xfa15
0181c3: fa00             .word 0xfa00
0181c4: f9f1             .word 0xf9f1
0181c5: f8ed             .word 0xf8ed
0181c6: f7b5             .word 0xf7b5
0181c7: f6d6             .word 0xf6d6
0181c8: f5d7             .word 0xf5d7
0181c9: f630             .word 0xf630
0181ca: f63b             .word 0xf63b
0181cb: f7a0             .word 0xf7a0
0181cc: f8e9             .word 0xf8e9
0181cd: fb80             .word 0xfb80
0181ce:               _nr_win_5ms_16k:
0181ce:               .const:_nr_win_5ms_16k:
0181ce: 0142             .word 0x0142
0181cf: 03c5             .word 0x03c5
0181d0: 0648             .word 0x0648
0181d1: 08ca             .word 0x08ca
0181d2: 0b4c             .word 0x0b4c
0181d3: 0dcc             .word 0x0dcc
0181d4: 104b             .word 0x104b
0181d5: 12c8             .word 0x12c8
0181d6: 1544             .word 0x1544
0181d7: 17bd             .word 0x17bd
0181d8: 1a34             .word 0x1a34
0181d9: 1ca8             .word 0x1ca8
0181da: 1f1a             .word 0x1f1a
0181db: 2189             .word 0x2189
0181dc: 23f4             .word 0x23f4
0181dd: 265b             .word 0x265b
0181de: 28bf             .word 0x28bf
0181df: 2b1f             .word 0x2b1f
0181e0: 2d7b             .word 0x2d7b
0181e1: 2fd2             .word 0x2fd2
0181e2: 3224             .word 0x3224
0181e3: 3472             .word 0x3472
0181e4: 36ba             .word 0x36ba
0181e5: 38fd             .word 0x38fd
0181e6: 3b3a             .word 0x3b3a
0181e7: 3d72             .word 0x3d72
0181e8: 3fa3             .word 0x3fa3
0181e9: 41ce             .word 0x41ce
0181ea: 43f3             .word 0x43f3
0181eb: 4611             .word 0x4611
0181ec: 4828             .word 0x4828
0181ed: 4a37             .word 0x4a37
0181ee: 4c40             .word 0x4c40
0181ef: 4e41             .word 0x4e41
0181f0: 503a             .word 0x503a
0181f1: 522b             .word 0x522b
0181f2: 5415             .word 0x5415
0181f3: 55f6             .word 0x55f6
0181f4: 57ce             .word 0x57ce
0181f5: 599e             .word 0x599e
0181f6: 5b65             .word 0x5b65
0181f7: 5d23             .word 0x5d23
0181f8: 5ed7             .word 0x5ed7
0181f9: 6083             .word 0x6083
0181fa: 6225             .word 0x6225
0181fb: 63bd             .word 0x63bd
0181fc: 654b             .word 0x654b
0181fd: 66d0             .word 0x66d0
0181fe: 684a             .word 0x684a
0181ff: 69ba             .word 0x69ba
018200: 6b1f             .word 0x6b1f
018201: 6c7a             .word 0x6c7a
018202: 6dca             .word 0x6dca
018203: 6f0f             .word 0x6f0f
018204: 704a             .word 0x704a
018205: 7179             .word 0x7179
018206: 729d             .word 0x729d
018207: 73b6             .word 0x73b6
018208: 74c3             .word 0x74c3
018209: 75c5             .word 0x75c5
01820a: 76bb             .word 0x76bb
01820b: 77a6             .word 0x77a6
01820c: 7885             .word 0x7885
01820d: 7957             .word 0x7957
01820e: 7a1e             .word 0x7a1e
01820f: 7ad9             .word 0x7ad9
018210: 7b88             .word 0x7b88
018211: 7c2a             .word 0x7c2a
018212: 7cc0             .word 0x7cc0
018213: 7d4a             .word 0x7d4a
018214: 7dc8             .word 0x7dc8
018215: 7e39             .word 0x7e39
018216: 7e9d             .word 0x7e9d
018217: 7ef5             .word 0x7ef5
018218: 7f41             .word 0x7f41
018219: 7f80             .word 0x7f80
01821a: 7fb3             .word 0x7fb3
01821b: 7fd9             .word 0x7fd9
01821c: 7ff2             .word 0x7ff2
01821d: 7ffe             .word 0x7ffe
01821e:               _sgnHNGainTable:
01821e:               .const:_sgnHNGainTable:
01821e: 0006             .word 0x0006
01821f: 0007             .word 0x0007
018220: 0008             .word 0x0008
018221: 0009             .word 0x0009
018222: 000a             .word 0x000a
018223: 000b             .word 0x000b
018224: 000d             .word 0x000d
018225: 000e             .word 0x000e
018226: 0010             .word 0x0010
018227: 0012             .word 0x0012
018228: 0014             .word 0x0014
018229: 0017             .word 0x0017
01822a: 001a             .word 0x001a
01822b: 001d             .word 0x001d
01822c: 0020             .word 0x0020
01822d: 0024             .word 0x0024
01822e: 0029             .word 0x0029
01822f: 002e             .word 0x002e
018230: 0034             .word 0x0034
018231: 003a             .word 0x003a
018232: 0041             .word 0x0041
018233: 0049             .word 0x0049
018234: 0052             .word 0x0052
018235: 005c             .word 0x005c
018236: 0068             .word 0x0068
018237: 0074             .word 0x0074
018238: 0082             .word 0x0082
018239: 0092             .word 0x0092
01823a: 00a4             .word 0x00a4
01823b: 00b9             .word 0x00b9
01823c: 00cf             .word 0x00cf
01823d: 00e8             .word 0x00e8
01823e: 0105             .word 0x0105
01823f: 0125             .word 0x0125
018240: 0149             .word 0x0149
018241: 0171             .word 0x0171
018242: 019e             .word 0x019e
018243: 01d0             .word 0x01d0
018244: 0209             .word 0x0209
018245: 0249             .word 0x0249
018246: 0290             .word 0x0290
018247: 02e0             .word 0x02e0
018248: 033a             .word 0x033a
018249: 039f             .word 0x039f
01824a: 0410             .word 0x0410
01824b: 048f             .word 0x048f
01824c: 051d             .word 0x051d
01824d: 05bd             .word 0x05bd
01824e: 0671             .word 0x0671
01824f: 073a             .word 0x073a
018250: 081c             .word 0x081c
018251: 0919             .word 0x0919
018252: 0a35             .word 0x0a35
018253: 0b74             .word 0x0b74
018254: 0cda             .word 0x0cda
018255: 0e6c             .word 0x0e6c
018256: 102e             .word 0x102e
018257: 1228             .word 0x1228
018258: 145f             .word 0x145f
018259: 16db             .word 0x16db
01825a: 19a5             .word 0x19a5
01825b: 1cc6             .word 0x1cc6
01825c: 2049             .word 0x2049
01825d: 243a             .word 0x243a
01825e: 28a5             .word 0x28a5
01825f: 2d9b             .word 0x2d9b
018260: 332b             .word 0x332b
018261: 396a             .word 0x396a
018262: 406b             .word 0x406b
018263: 4848             .word 0x4848
018264: 511a             .word 0x511a
018265: 5aff             .word 0x5aff
018266: 6619             .word 0x6619
018267: 728f             .word 0x728f
018268:               _sgn_css_v_samples:
018268:               .const:_sgn_css_v_samples:
018268: fb27             .word 0xfb27
018269: 02ff             .word 0x02ff
01826a: 007e             .word 0x007e
01826b: 14dc             .word 0x14dc
01826c: 1afc             .word 0x1afc
01826d: 22aa             .word 0x22aa
01826e: 248a             .word 0x248a
01826f: 27c9             .word 0x27c9
018270: 26a0             .word 0x26a0
018271: 20bb             .word 0x20bb
018272: 1cca             .word 0x1cca
018273: 12bf             .word 0x12bf
018274: 0ddf             .word 0x0ddf
018275: 0484             .word 0x0484
018276: 02bd             .word 0x02bd
018277: febe             .word 0xfebe
018278: f978             .word 0xf978
018279: f5aa             .word 0xf5aa
01827a: f388             .word 0xf388
01827b: ed1b             .word 0xed1b
01827c: dcbc             .word 0xdcbc
01827d: c9fd             .word 0xc9fd
01827e: b40d             .word 0xb40d
01827f: baaa             .word 0xbaaa
018280: eb19             .word 0xeb19
018281: 05c7             .word 0x05c7
018282: fda5             .word 0xfda5
018283: 0dee             .word 0x0dee
018284: 19e1             .word 0x19e1
018285: 1f74             .word 0x1f74
018286: 24e8             .word 0x24e8
018287: 25bc             .word 0x25bc
018288: 28cb             .word 0x28cb
018289: 21ec             .word 0x21ec
01828a: 1f58             .word 0x1f58
01828b: 15df             .word 0x15df
01828c: 0fdd             .word 0x0fdd
01828d: 07d0             .word 0x07d0
01828e: 028d             .word 0x028d
01828f: 011b             .word 0x011b
018290: fadf             .word 0xfadf
018291: f731             .word 0xf731
018292: f3e6             .word 0xf3e6
018293: f100             .word 0xf100
018294: e2fa             .word 0xe2fa
018295: d184             .word 0xd184
018296: bb14             .word 0xbb14
018297: b27c             .word 0xb27c
018298: d790             .word 0xd790
018299: 02b0             .word 0x02b0
01829a: ffba             .word 0xffba
01829b: 059a             .word 0x059a
01829c: 1803             .word 0x1803
01829d: 1c67             .word 0x1c67
01829e: 2453             .word 0x2453
01829f: 2484             .word 0x2484
0182a0: 28f1             .word 0x28f1
0182a1: 2465             .word 0x2465
0182a2: 205a             .word 0x205a
0182a3: 19ef             .word 0x19ef
0182a4: 1146             .word 0x1146
0182a5: 0b91             .word 0x0b91
0182a6: 0310             .word 0x0310
0182a7: 027d             .word 0x027d
0182a8: fce7             .word 0xfce7
0182a9: f88f             .word 0xf88f
0182aa: f4a8             .word 0xf4a8
0182ab: f2fe             .word 0xf2fe
0182ac: e913             .word 0xe913
0182ad: d819             .word 0xd819
0182ae: c3a6             .word 0xc3a6
0182af: b13f             .word 0xb13f
0182b0: c53a             .word 0xc53a
0182b1:               _nr_win_4ms_16k:
0182b1:               .const:_nr_win_4ms_16k:
0182b1: 0192             .word 0x0192
0182b2: 04b6             .word 0x04b6
0182b3: 07d9             .word 0x07d9
0182b4: 0afb             .word 0x0afb
0182b5: 0e1c             .word 0x0e1c
0182b6: 113a             .word 0x113a
0182b7: 1455             .word 0x1455
0182b8: 176e             .word 0x176e
0182b9: 1a83             .word 0x1a83
0182ba: 1d93             .word 0x1d93
0182bb: 209f             .word 0x209f
0182bc: 23a7             .word 0x23a7
0182bd: 26a8             .word 0x26a8
0182be: 29a4             .word 0x29a4
0182bf: 2c99             .word 0x2c99
0182c0: 2f87             .word 0x2f87
0182c1: 326e             .word 0x326e
0182c2: 354e             .word 0x354e
0182c3: 3825             .word 0x3825
0182c4: 3af3             .word 0x3af3
0182c5: 3db8             .word 0x3db8
0182c6: 4074             .word 0x4074
0182c7: 4326             .word 0x4326
0182c8: 45cd             .word 0x45cd
0182c9: 486a             .word 0x486a
0182ca: 4afb             .word 0x4afb
0182cb: 4d81             .word 0x4d81
0182cc: 4ffb             .word 0x4ffb
0182cd: 5269             .word 0x5269
0182ce: 54ca             .word 0x54ca
0182cf: 571e             .word 0x571e
0182d0: 5964             .word 0x5964
0182d1: 5b9d             .word 0x5b9d
0182d2: 5dc8             .word 0x5dc8
0182d3: 5fe4             .word 0x5fe4
0182d4: 61f1             .word 0x61f1
0182d5: 63ef             .word 0x63ef
0182d6: 65de             .word 0x65de
0182d7: 67bd             .word 0x67bd
0182d8: 698c             .word 0x698c
0182d9: 6b4b             .word 0x6b4b
0182da: 6cf9             .word 0x6cf9
0182db: 6e97             .word 0x6e97
0182dc: 7023             .word 0x7023
0182dd: 719e             .word 0x719e
0182de: 7308             .word 0x7308
0182df: 7460             .word 0x7460
0182e0: 75a6             .word 0x75a6
0182e1: 76d9             .word 0x76d9
0182e2: 77fb             .word 0x77fb
0182e3: 790a             .word 0x790a
0182e4: 7a06             .word 0x7a06
0182e5: 7aef             .word 0x7aef
0182e6: 7bc6             .word 0x7bc6
0182e7: 7c89             .word 0x7c89
0182e8: 7d3a             .word 0x7d3a
0182e9: 7dd6             .word 0x7dd6
0182ea: 7e60             .word 0x7e60
0182eb: 7ed6             .word 0x7ed6
0182ec: 7f38             .word 0x7f38
0182ed: 7f87             .word 0x7f87
0182ee: 7fc2             .word 0x7fc2
0182ef: 7fea             .word 0x7fea
0182f0: 7ffe             .word 0x7ffe
0182f1:               _nr_win_3ms_16k:
0182f1:               .const:_nr_win_3ms_16k:
0182f1: 0218             .word 0x0218
0182f2: 0648             .word 0x0648
0182f3: 0a76             .word 0x0a76
0182f4: 0ea1             .word 0x0ea1
0182f5: 12c8             .word 0x12c8
0182f6: 16ea             .word 0x16ea
0182f7: 1b06             .word 0x1b06
0182f8: 1f1a             .word 0x1f1a
0182f9: 2326             .word 0x2326
0182fa: 2728             .word 0x2728
0182fb: 2b1f             .word 0x2b1f
0182fc: 2f0b             .word 0x2f0b
0182fd: 32e9             .word 0x32e9
0182fe: 36ba             .word 0x36ba
0182ff: 3a7c             .word 0x3a7c
018300: 3e2d             .word 0x3e2d
018301: 41ce             .word 0x41ce
018302: 455d             .word 0x455d
018303: 48d8             .word 0x48d8
018304: 4c40             .word 0x4c40
018305: 4f93             .word 0x4f93
018306: 52cf             .word 0x52cf
018307: 55f6             .word 0x55f6
018308: 5904             .word 0x5904
018309: 5bfa             .word 0x5bfa
01830a: 5ed7             .word 0x5ed7
01830b: 619a             .word 0x619a
01830c: 6443             .word 0x6443
01830d: 66d0             .word 0x66d0
01830e: 6940             .word 0x6940
01830f: 6b94             .word 0x6b94
018310: 6dca             .word 0x6dca
018311: 6fe2             .word 0x6fe2
018312: 71dc             .word 0x71dc
018313: 73b6             .word 0x73b6
018314: 7570             .word 0x7570
018315: 770b             .word 0x770b
018316: 7885             .word 0x7885
018317: 79dd             .word 0x79dd
018318: 7b14             .word 0x7b14
018319: 7c2a             .word 0x7c2a
01831a: 7d1d             .word 0x7d1d
01831b: 7def             .word 0x7def
01831c: 7e9d             .word 0x7e9d
01831d: 7f29             .word 0x7f29
01831e: 7f92             .word 0x7f92
01831f: 7fd9             .word 0x7fd9
018320: 7ffc             .word 0x7ffc
018321:               _nr_win_6ms_8k:
018321:               .const:_nr_win_6ms_8k:
018321: 0218             .word 0x0218
018322: 0648             .word 0x0648
018323: 0a76             .word 0x0a76
018324: 0ea1             .word 0x0ea1
018325: 12c8             .word 0x12c8
018326: 16ea             .word 0x16ea
018327: 1b06             .word 0x1b06
018328: 1f1a             .word 0x1f1a
018329: 2326             .word 0x2326
01832a: 2728             .word 0x2728
01832b: 2b1f             .word 0x2b1f
01832c: 2f0b             .word 0x2f0b
01832d: 32e9             .word 0x32e9
01832e: 36ba             .word 0x36ba
01832f: 3a7c             .word 0x3a7c
018330: 3e2d             .word 0x3e2d
018331: 41ce             .word 0x41ce
018332: 455d             .word 0x455d
018333: 48d8             .word 0x48d8
018334: 4c40             .word 0x4c40
018335: 4f93             .word 0x4f93
018336: 52cf             .word 0x52cf
018337: 55f6             .word 0x55f6
018338: 5904             .word 0x5904
018339: 5bfa             .word 0x5bfa
01833a: 5ed7             .word 0x5ed7
01833b: 619a             .word 0x619a
01833c: 6443             .word 0x6443
01833d: 66d0             .word 0x66d0
01833e: 6940             .word 0x6940
01833f: 6b94             .word 0x6b94
018340: 6dca             .word 0x6dca
018341: 6fe2             .word 0x6fe2
018342: 71dc             .word 0x71dc
018343: 73b6             .word 0x73b6
018344: 7570             .word 0x7570
018345: 770b             .word 0x770b
018346: 7885             .word 0x7885
018347: 79dd             .word 0x79dd
018348: 7b14             .word 0x7b14
018349: 7c2a             .word 0x7c2a
01834a: 7d1d             .word 0x7d1d
01834b: 7def             .word 0x7def
01834c: 7e9d             .word 0x7e9d
01834d: 7f29             .word 0x7f29
01834e: 7f92             .word 0x7f92
01834f: 7fd9             .word 0x7fd9
018350: 7ffc             .word 0x7ffc
018351: 0000             .word 0x0000
018352:               .const:.string:
018352:               $C$FSL1:
018352: 0073             .word 0x0073
018353: 0072             .word 0x0072
018354: 0063             .word 0x0063
018355: 002f             .word 0x002f
018356: 0073             .word 0x0073
018357: 0067             .word 0x0067
018358: 006e             .word 0x006e
018359: 002e             .word 0x002e
01835a: 0063             .word 0x0063
01835b: 0028             .word 0x0028
01835c: 0036             .word 0x0036
01835d: 0037             .word 0x0037
01835e: 0036             .word 0x0036
01835f: 0029             .word 0x0029
018360: 0000             .word 0x0000
018361: 0000             .word 0x0000
018362:               $C$FSL2:
018362: 0073             .word 0x0073
018363: 0072             .word 0x0072
018364: 0063             .word 0x0063
018365: 002f             .word 0x002f
018366: 0073             .word 0x0073
018367: 0067             .word 0x0067
018368: 006e             .word 0x006e
018369: 002e             .word 0x002e
01836a: 0063             .word 0x0063
01836b: 0028             .word 0x0028
01836c: 0037             .word 0x0037
01836d: 0038             .word 0x0038
01836e: 0034             .word 0x0034
01836f: 0029             .word 0x0029
018370: 0000             .word 0x0000
018371: 0000             .word 0x0000
018372:               $C$FSL3:
018372: 0073             .word 0x0073
018373: 0072             .word 0x0072
018374: 0063             .word 0x0063
018375: 002f             .word 0x002f
018376: 0073             .word 0x0073
018377: 0067             .word 0x0067
018378: 006e             .word 0x006e
018379: 002e             .word 0x002e
01837a: 0063             .word 0x0063
01837b: 0028             .word 0x0028
01837c: 0032             .word 0x0032
01837d: 0037             .word 0x0037
01837e: 0032             .word 0x0032
01837f: 0029             .word 0x0029
018380: 0000             .word 0x0000
018381:               _nr_win_5ms_8k:
018381:               .const:_nr_win_5ms_8k:
018381: 0283             .word 0x0283
018382: 0789             .word 0x0789
018383: 0c8c             .word 0x0c8c
018384: 118a             .word 0x118a
018385: 1680             .word 0x1680
018386: 1b6e             .word 0x1b6e
018387: 2052             .word 0x2052
018388: 2528             .word 0x2528
018389: 29f0             .word 0x29f0
01838a: 2ea7             .word 0x2ea7
01838b: 334c             .word 0x334c
01838c: 37dc             .word 0x37dc
01838d: 3c57             .word 0x3c57
01838e: 40b9             .word 0x40b9
01838f: 4502             .word 0x4502
018390: 4930             .word 0x4930
018391: 4d41             .word 0x4d41
018392: 5134             .word 0x5134
018393: 5506             .word 0x5506
018394: 58b7             .word 0x58b7
018395: 5c45             .word 0x5c45
018396: 5fae             .word 0x5fae
018397: 62f2             .word 0x62f2
018398: 660f             .word 0x660f
018399: 6903             .word 0x6903
01839a: 6bce             .word 0x6bce
01839b: 6e6e             .word 0x6e6e
01839c: 70e3             .word 0x70e3
01839d: 732b             .word 0x732b
01839e: 7546             .word 0x7546
01839f: 7732             .word 0x7732
0183a0: 78ef             .word 0x78ef
0183a1: 7a7d             .word 0x7a7d
0183a2: 7bda             .word 0x7bda
0183a3: 7d07             .word 0x7d07
0183a4: 7e02             .word 0x7e02
0183a5: 7ecb             .word 0x7ecb
0183a6: 7f62             .word 0x7f62
0183a7: 7fc7             .word 0x7fc7
0183a8: 7ffa             .word 0x7ffa
0183a9:               _nr_win_4ms_8k:
0183a9:               .const:_nr_win_4ms_8k:
0183a9: 0324             .word 0x0324
0183aa: 096b             .word 0x096b
0183ab: 0fab             .word 0x0fab
0183ac: 15e2             .word 0x15e2
0183ad: 1c0c             .word 0x1c0c
0183ae: 2224             .word 0x2224
0183af: 2827             .word 0x2827
0183b0: 2e11             .word 0x2e11
0183b1: 33df             .word 0x33df
0183b2: 398d             .word 0x398d
0183b3: 3f17             .word 0x3f17
0183b4: 447b             .word 0x447b
0183b5: 49b4             .word 0x49b4
0183b6: 4ec0             .word 0x4ec0
0183b7: 539b             .word 0x539b
0183b8: 5843             .word 0x5843
0183b9: 5cb4             .word 0x5cb4
0183ba: 60ec             .word 0x60ec
0183bb: 64e9             .word 0x64e9
0183bc: 68a7             .word 0x68a7
0183bd: 6c24             .word 0x6c24
0183be: 6f5f             .word 0x6f5f
0183bf: 7255             .word 0x7255
0183c0: 7505             .word 0x7505
0183c1: 776c             .word 0x776c
0183c2: 798a             .word 0x798a
0183c3: 7b5d             .word 0x7b5d
0183c4: 7ce4             .word 0x7ce4
0183c5: 7e1e             .word 0x7e1e
0183c6: 7f0a             .word 0x7f0a
0183c7: 7fa7             .word 0x7fa7
0183c8: 7ff6             .word 0x7ff6
0183c9: 0000             .word 0x0000
0183ca:               .const:.string:
0183ca:               $C$FSL1:
0183ca: 0073             .word 0x0073
0183cb: 006e             .word 0x006e
0183cc: 006c             .word 0x006c
0183cd: 004c             .word 0x004c
0183ce: 0065             .word 0x0065
0183cf: 0076             .word 0x0076
0183d0: 004f             .word 0x004f
0183d1: 0075             .word 0x0075
0183d2: 0074             .word 0x0074
0183d3: 002e             .word 0x002e
0183d4: 0070             .word 0x0070
0183d5: 0063             .word 0x0063
0183d6: 006d             .word 0x006d
0183d7: 0000             .word 0x0000
0183d8:               $C$FSL2:
0183d8: 0073             .word 0x0073
0183d9: 0076             .word 0x0076
0183da: 0064             .word 0x0064
0183db: 004f             .word 0x004f
0183dc: 0075             .word 0x0075
0183dd: 0074             .word 0x0074
0183de: 002e             .word 0x002e
0183df: 0070             .word 0x0070
0183e0: 0063             .word 0x0063
0183e1: 006d             .word 0x006d
0183e2: 0000             .word 0x0000
0183e3:               _nr_win_3ms_8k:
0183e3:               .const:_nr_win_3ms_8k:
0183e3: 0430             .word 0x0430
0183e4: 0c8c             .word 0x0c8c
0183e5: 14da             .word 0x14da
0183e6: 1d11             .word 0x1d11
0183e7: 2528             .word 0x2528
0183e8: 2d17             .word 0x2d17
0183e9: 34d4             .word 0x34d4
0183ea: 3c57             .word 0x3c57
0183eb: 4398             .word 0x4398
0183ec: 4a8f             .word 0x4a8f
0183ed: 5134             .word 0x5134
0183ee: 5780             .word 0x5780
0183ef: 5d6c             .word 0x5d6c
0183f0: 62f2             .word 0x62f2
0183f1: 680b             .word 0x680b
0183f2: 6cb3             .word 0x6cb3
0183f3: 70e3             .word 0x70e3
0183f4: 7497             .word 0x7497
0183f5: 77cc             .word 0x77cc
0183f6: 7a7d             .word 0x7a7d
0183f7: 7ca8             .word 0x7ca8
0183f8: 7e4a             .word 0x7e4a
0183f9: 7f62             .word 0x7f62
0183fa: 7fee             .word 0x7fee
0183fb:               _hlcdBLinTable:
0183fb:               .const:_hlcdBLinTable:
0183fb: 7fff             .word 0x7fff
0183fc: 78d7             .word 0x78d7
0183fd: 7215             .word 0x7215
0183fe: 6bb3             .word 0x6bb3
0183ff: 65ad             .word 0x65ad
018400: 5ffd             .word 0x5ffd
018401: 5a9e             .word 0x5a9e
018402: 558c             .word 0x558c
018403: 50c3             .word 0x50c3
018404: 4c3f             .word 0x4c3f
018405: 47fb             .word 0x47fb
018406: 43f4             .word 0x43f4
018407:               _nrdBLinTable:
018407:               .const:_nrdBLinTable:
018407: 7fff             .word 0x7fff
018408: 78d7             .word 0x78d7
018409: 7215             .word 0x7215
01840a: 6bb3             .word 0x6bb3
01840b: 65ad             .word 0x65ad
01840c: 5ffd             .word 0x5ffd
01840d: 5a9e             .word 0x5a9e
01840e: 558c             .word 0x558c
01840f: 50c3             .word 0x50c3
018410: 4c3f             .word 0x4c3f
018411: 47fb             .word 0x47fb
018412: 43f4             .word 0x43f4
018413:               _nrdBCorrLinTable:
018413:               .const:_nrdBCorrLinTable:
018413: 7fff             .word 0x7fff
018414: 7f14             .word 0x7f14
018415: 7e2a             .word 0x7e2a
018416: 7d43             .word 0x7d43
018417: 7c5d             .word 0x7c5d
018418: 7b79             .word 0x7b79
018419: 7a96             .word 0x7a96
01841a: 79b5             .word 0x79b5
01841b:               _utl_SinCTable:
01841b:               .const:
01841b: f8dc             .word 0xf8dc
01841c: 0000             .word 0x0000
01841d: 272a             .word 0x272a
01841e: 0000             .word 0x0000
01841f: adba             .word 0xadba
018420: 0000             .word 0x0000
018421: 323d             .word 0x323d
018422: 0000             .word 0x0000
018423:               _wngNoiseTable:
018423:               .const:_wngNoiseTable:
018423: 6efc             .word 0x6efc
018424: 62ea             .word 0x62ea
018425: 5828             .word 0x5828
018426: 4e92             .word 0x4e92
018427: 4607             .word 0x4607
018428: 3e69             .word 0x3e69
018429:               _nr_sqrt_coef:
018429:               .const:_nr_sqrt_coef:
018429: f891             .word 0xf891
01842a: 1efb             .word 0x1efb
01842b: c712             .word 0xc712
01842c: 5299             .word 0x5299
01842d: 0ec8             .word 0x0ec8
01842e:               .const:
01842e:               utl_dB2LinPowerTable:
01842e: 050f             .word 0x050f
01842f: 0e58             .word 0x0e58
018430: 2c99             .word 0x2c99
018431: 3ffd             .word 0x3ffd
018432:               .const:
018432:               utl_Lin2dBPowerTable:
018432: 0277             .word 0x0277
018433: f6ea             .word 0xf6ea
018434: 169e             .word 0x169e
018435: 0005             .word 0x0005

DATA section .switch, 0x2C words load/run at 0x18436
018436:               .switch:_mutator:
018436:               $C$SW1:
018436:               .switch:
018436: 0001             .word 0x0001
018437: 23e9             .word 0x23e9
018438: 0001             .word 0x0001
018439: 2411             .word 0x2411
01843a: 0001             .word 0x0001
01843b: 2430             .word 0x2430
01843c: 0001             .word 0x0001
01843d: 2446             .word 0x2446
01843e: 0001             .word 0x0001
01843f: 245c             .word 0x245c
018440: 0001             .word 0x0001
018441: 247b             .word 0x247b
018442: 0001             .word 0x0001
018443: 24bd             .word 0x24bd
018444: 0001             .word 0x0001
018445: 2514             .word 0x2514
018446: 0001             .word 0x0001
018447: 2595             .word 0x2595
018448: 0001             .word 0x0001
018449: 25cb             .word 0x25cb
01844a: 0001             .word 0x0001
01844b: 25fc             .word 0x25fc
01844c: 0001             .word 0x0001
01844d: 265c             .word 0x265c
01844e:               .switch:_sgnControl:
01844e:               $C$SW1:
01844e: 0001             .word 0x0001
01844f: 1d78             .word 0x1d78
018450: 0001             .word 0x0001
018451: 1d48             .word 0x1d48
018452: 0001             .word 0x0001
018453: 1d2d             .word 0x1d2d
018454: 0001             .word 0x0001
018455: 1ce9             .word 0x1ce9
018456: 0001             .word 0x0001
018457: 1c7c             .word 0x1c7c
018458: 0001             .word 0x0001
018459: 1ce1             .word 0x1ce1
01845a: 0001             .word 0x0001
01845b: 1c45             .word 0x1c45
01845c: 0001             .word 0x0001
01845d: 1c00             .word 0x1c00
01845e: 0001             .word 0x0001
01845f: 1bca             .word 0x1bca
018460: 0001             .word 0x0001
018461: 1cc4             .word 0x1cc4
