;*******************************************************************************
;* TMS320C55x C/C++ Codegen                                        Unix v4.4.1 *
;* Date/Time created: Thu May  2 04:44:07 2024                                 *
;*******************************************************************************
	.compiler_opts --hll_source=on --mem_model:code=flat --mem_model:data=large --object_format=coff --silicon_core_3_3 --symdebug:dwarf 
	.mmregs
	.cpl_on
	.arms_on
	.c54cm_off
	.asg AR6, FP
	.asg XAR6, XFP
	.asg DPH, MDP
	.model call=c55_std
	.model mem=large
	.noremark 5002  ; code respects overwrite rules
;*******************************************************************************
;* GLOBAL FILE PARAMETERS                                                      *
;*                                                                             *
;*   Architecture       : TMS320C55x                                           *
;*   Optimizing for     : Speed                                                *
;*   Memory             : Large Model (23-Bit Data Pointers)                   *
;*   Calls              : Normal Library ASM calls                             *
;*   Debug Info         : Standard TI Debug Information                        *
;*******************************************************************************

$C$DW$CU	.dwtag  DW_TAG_compile_unit
	.dwattr $C$DW$CU, DW_AT_name("src/csl_msc.c")
	.dwattr $C$DW$CU, DW_AT_producer("TMS320C55x C/C++ Codegen Unix v4.4.1 Copyright (c) 1996-2012 Texas Instruments Incorporated")
	.dwattr $C$DW$CU, DW_AT_TI_version(0x01)
	.dwattr $C$DW$CU, DW_AT_comp_dir("/home/santiago/dspfuzz/on_board/library")

$C$DW$1	.dwtag  DW_TAG_subprogram, DW_AT_name("memcpy")
	.dwattr $C$DW$1, DW_AT_TI_symbol_name("_memcpy")
	.dwattr $C$DW$1, DW_AT_type(*$C$DW$T$3)
	.dwattr $C$DW$1, DW_AT_declaration
	.dwattr $C$DW$1, DW_AT_external
$C$DW$2	.dwtag  DW_TAG_formal_parameter
	.dwattr $C$DW$2, DW_AT_type(*$C$DW$T$3)
$C$DW$3	.dwtag  DW_TAG_formal_parameter
	.dwattr $C$DW$3, DW_AT_type(*$C$DW$T$154)
$C$DW$4	.dwtag  DW_TAG_formal_parameter
	.dwattr $C$DW$4, DW_AT_type(*$C$DW$T$155)
	.dwendtag $C$DW$1


$C$DW$5	.dwtag  DW_TAG_subprogram, DW_AT_name("strlen")
	.dwattr $C$DW$5, DW_AT_TI_symbol_name("_strlen")
	.dwattr $C$DW$5, DW_AT_type(*$C$DW$T$155)
	.dwattr $C$DW$5, DW_AT_declaration
	.dwattr $C$DW$5, DW_AT_external
$C$DW$6	.dwtag  DW_TAG_formal_parameter
	.dwattr $C$DW$6, DW_AT_type(*$C$DW$T$218)
	.dwendtag $C$DW$5


$C$DW$7	.dwtag  DW_TAG_subprogram, DW_AT_name("USB_init")
	.dwattr $C$DW$7, DW_AT_TI_symbol_name("_USB_init")
	.dwattr $C$DW$7, DW_AT_declaration
	.dwattr $C$DW$7, DW_AT_external

$C$DW$8	.dwtag  DW_TAG_subprogram, DW_AT_name("USB_open")
	.dwattr $C$DW$8, DW_AT_TI_symbol_name("_USB_open")
	.dwattr $C$DW$8, DW_AT_type(*$C$DW$T$21)
	.dwattr $C$DW$8, DW_AT_declaration
	.dwattr $C$DW$8, DW_AT_external
$C$DW$9	.dwtag  DW_TAG_formal_parameter
	.dwattr $C$DW$9, DW_AT_type(*$C$DW$T$29)
	.dwendtag $C$DW$8


$C$DW$10	.dwtag  DW_TAG_subprogram, DW_AT_name("USB_config")
	.dwattr $C$DW$10, DW_AT_TI_symbol_name("_USB_config")
	.dwattr $C$DW$10, DW_AT_type(*$C$DW$T$86)
	.dwattr $C$DW$10, DW_AT_declaration
	.dwattr $C$DW$10, DW_AT_external
$C$DW$11	.dwtag  DW_TAG_formal_parameter
	.dwattr $C$DW$11, DW_AT_type(*$C$DW$T$21)
$C$DW$12	.dwtag  DW_TAG_formal_parameter
	.dwattr $C$DW$12, DW_AT_type(*$C$DW$T$142)
	.dwendtag $C$DW$10


$C$DW$13	.dwtag  DW_TAG_subprogram, DW_AT_name("USB_requestEndpt")
	.dwattr $C$DW$13, DW_AT_TI_symbol_name("_USB_requestEndpt")
	.dwattr $C$DW$13, DW_AT_type(*$C$DW$T$27)
	.dwattr $C$DW$13, DW_AT_declaration
	.dwattr $C$DW$13, DW_AT_external
$C$DW$14	.dwtag  DW_TAG_formal_parameter
	.dwattr $C$DW$14, DW_AT_type(*$C$DW$T$21)
$C$DW$15	.dwtag  DW_TAG_formal_parameter
	.dwattr $C$DW$15, DW_AT_type(*$C$DW$T$110)
$C$DW$16	.dwtag  DW_TAG_formal_parameter
	.dwattr $C$DW$16, DW_AT_type(*$C$DW$T$123)
	.dwendtag $C$DW$13


$C$DW$17	.dwtag  DW_TAG_subprogram, DW_AT_name("USB_configEndpt")
	.dwattr $C$DW$17, DW_AT_TI_symbol_name("_USB_configEndpt")
	.dwattr $C$DW$17, DW_AT_type(*$C$DW$T$86)
	.dwattr $C$DW$17, DW_AT_declaration
	.dwattr $C$DW$17, DW_AT_external
$C$DW$18	.dwtag  DW_TAG_formal_parameter
	.dwattr $C$DW$18, DW_AT_type(*$C$DW$T$27)
$C$DW$19	.dwtag  DW_TAG_formal_parameter
	.dwattr $C$DW$19, DW_AT_type(*$C$DW$T$147)
	.dwendtag $C$DW$17


$C$DW$20	.dwtag  DW_TAG_subprogram, DW_AT_name("USB_resetDev")
	.dwattr $C$DW$20, DW_AT_TI_symbol_name("_USB_resetDev")
	.dwattr $C$DW$20, DW_AT_type(*$C$DW$T$86)
	.dwattr $C$DW$20, DW_AT_declaration
	.dwattr $C$DW$20, DW_AT_external
$C$DW$21	.dwtag  DW_TAG_formal_parameter
	.dwattr $C$DW$21, DW_AT_type(*$C$DW$T$21)
	.dwendtag $C$DW$20


$C$DW$22	.dwtag  DW_TAG_subprogram, DW_AT_name("USB_getEvents")
	.dwattr $C$DW$22, DW_AT_TI_symbol_name("_USB_getEvents")
	.dwattr $C$DW$22, DW_AT_type(*$C$DW$T$197)
	.dwattr $C$DW$22, DW_AT_declaration
	.dwattr $C$DW$22, DW_AT_external
$C$DW$23	.dwtag  DW_TAG_formal_parameter
	.dwattr $C$DW$23, DW_AT_type(*$C$DW$T$27)
$C$DW$24	.dwtag  DW_TAG_formal_parameter
	.dwattr $C$DW$24, DW_AT_type(*$C$DW$T$123)
	.dwendtag $C$DW$22


$C$DW$25	.dwtag  DW_TAG_subprogram, DW_AT_name("USB_getSetupPacket")
	.dwattr $C$DW$25, DW_AT_TI_symbol_name("_USB_getSetupPacket")
	.dwattr $C$DW$25, DW_AT_type(*$C$DW$T$86)
	.dwattr $C$DW$25, DW_AT_declaration
	.dwattr $C$DW$25, DW_AT_external
$C$DW$26	.dwtag  DW_TAG_formal_parameter
	.dwattr $C$DW$26, DW_AT_type(*$C$DW$T$21)
$C$DW$27	.dwtag  DW_TAG_formal_parameter
	.dwattr $C$DW$27, DW_AT_type(*$C$DW$T$46)
$C$DW$28	.dwtag  DW_TAG_formal_parameter
	.dwattr $C$DW$28, DW_AT_type(*$C$DW$T$49)
	.dwendtag $C$DW$25


$C$DW$29	.dwtag  DW_TAG_subprogram, DW_AT_name("USB_postTransaction")
	.dwattr $C$DW$29, DW_AT_TI_symbol_name("_USB_postTransaction")
	.dwattr $C$DW$29, DW_AT_type(*$C$DW$T$86)
	.dwattr $C$DW$29, DW_AT_declaration
	.dwattr $C$DW$29, DW_AT_external
$C$DW$30	.dwtag  DW_TAG_formal_parameter
	.dwattr $C$DW$30, DW_AT_type(*$C$DW$T$27)
$C$DW$31	.dwtag  DW_TAG_formal_parameter
	.dwattr $C$DW$31, DW_AT_type(*$C$DW$T$30)
$C$DW$32	.dwtag  DW_TAG_formal_parameter
	.dwattr $C$DW$32, DW_AT_type(*$C$DW$T$3)
$C$DW$33	.dwtag  DW_TAG_formal_parameter
	.dwattr $C$DW$33, DW_AT_type(*$C$DW$T$116)
	.dwendtag $C$DW$29


$C$DW$34	.dwtag  DW_TAG_subprogram, DW_AT_name("USB_isTransactionDone")
	.dwattr $C$DW$34, DW_AT_TI_symbol_name("_USB_isTransactionDone")
	.dwattr $C$DW$34, DW_AT_type(*$C$DW$T$95)
	.dwattr $C$DW$34, DW_AT_declaration
	.dwattr $C$DW$34, DW_AT_external
$C$DW$35	.dwtag  DW_TAG_formal_parameter
	.dwattr $C$DW$35, DW_AT_type(*$C$DW$T$27)
$C$DW$36	.dwtag  DW_TAG_formal_parameter
	.dwattr $C$DW$36, DW_AT_type(*$C$DW$T$123)
	.dwendtag $C$DW$34


$C$DW$37	.dwtag  DW_TAG_subprogram, DW_AT_name("USB_stallEndpt")
	.dwattr $C$DW$37, DW_AT_TI_symbol_name("_USB_stallEndpt")
	.dwattr $C$DW$37, DW_AT_type(*$C$DW$T$86)
	.dwattr $C$DW$37, DW_AT_declaration
	.dwattr $C$DW$37, DW_AT_external
$C$DW$38	.dwtag  DW_TAG_formal_parameter
	.dwattr $C$DW$38, DW_AT_type(*$C$DW$T$27)
	.dwendtag $C$DW$37


$C$DW$39	.dwtag  DW_TAG_subprogram, DW_AT_name("USB_abortTransaction")
	.dwattr $C$DW$39, DW_AT_TI_symbol_name("_USB_abortTransaction")
	.dwattr $C$DW$39, DW_AT_type(*$C$DW$T$86)
	.dwattr $C$DW$39, DW_AT_declaration
	.dwattr $C$DW$39, DW_AT_external
$C$DW$40	.dwtag  DW_TAG_formal_parameter
	.dwattr $C$DW$40, DW_AT_type(*$C$DW$T$27)
	.dwendtag $C$DW$39


$C$DW$41	.dwtag  DW_TAG_subprogram, DW_AT_name("USB_abortAllTransaction")
	.dwattr $C$DW$41, DW_AT_TI_symbol_name("_USB_abortAllTransaction")
	.dwattr $C$DW$41, DW_AT_type(*$C$DW$T$86)
	.dwattr $C$DW$41, DW_AT_declaration
	.dwattr $C$DW$41, DW_AT_external
$C$DW$42	.dwtag  DW_TAG_formal_parameter
	.dwattr $C$DW$42, DW_AT_type(*$C$DW$T$21)
	.dwendtag $C$DW$41


$C$DW$43	.dwtag  DW_TAG_subprogram, DW_AT_name("USB_connectDev")
	.dwattr $C$DW$43, DW_AT_TI_symbol_name("_USB_connectDev")
	.dwattr $C$DW$43, DW_AT_type(*$C$DW$T$86)
	.dwattr $C$DW$43, DW_AT_declaration
	.dwattr $C$DW$43, DW_AT_external
$C$DW$44	.dwtag  DW_TAG_formal_parameter
	.dwattr $C$DW$44, DW_AT_type(*$C$DW$T$21)
	.dwendtag $C$DW$43


$C$DW$45	.dwtag  DW_TAG_subprogram, DW_AT_name("USB_disconnectDev")
	.dwattr $C$DW$45, DW_AT_TI_symbol_name("_USB_disconnectDev")
	.dwattr $C$DW$45, DW_AT_type(*$C$DW$T$86)
	.dwattr $C$DW$45, DW_AT_declaration
	.dwattr $C$DW$45, DW_AT_external
$C$DW$46	.dwtag  DW_TAG_formal_parameter
	.dwattr $C$DW$46, DW_AT_type(*$C$DW$T$21)
	.dwendtag $C$DW$45


$C$DW$47	.dwtag  DW_TAG_subprogram, DW_AT_name("USB_setParams")
	.dwattr $C$DW$47, DW_AT_TI_symbol_name("_USB_setParams")
	.dwattr $C$DW$47, DW_AT_type(*$C$DW$T$86)
	.dwattr $C$DW$47, DW_AT_declaration
	.dwattr $C$DW$47, DW_AT_external
$C$DW$48	.dwtag  DW_TAG_formal_parameter
	.dwattr $C$DW$48, DW_AT_type(*$C$DW$T$21)
$C$DW$49	.dwtag  DW_TAG_formal_parameter
	.dwattr $C$DW$49, DW_AT_type(*$C$DW$T$151)
$C$DW$50	.dwtag  DW_TAG_formal_parameter
	.dwattr $C$DW$50, DW_AT_type(*$C$DW$T$30)
	.dwendtag $C$DW$47


$C$DW$51	.dwtag  DW_TAG_subprogram, DW_AT_name("USB_getMaxPower")
	.dwattr $C$DW$51, DW_AT_TI_symbol_name("_USB_getMaxPower")
	.dwattr $C$DW$51, DW_AT_type(*$C$DW$T$77)
	.dwattr $C$DW$51, DW_AT_declaration
	.dwattr $C$DW$51, DW_AT_external
$C$DW$52	.dwtag  DW_TAG_formal_parameter
	.dwattr $C$DW$52, DW_AT_type(*$C$DW$T$21)
	.dwendtag $C$DW$51


$C$DW$53	.dwtag  DW_TAG_subprogram, DW_AT_name("USB_setFullSpeedMode")
	.dwattr $C$DW$53, DW_AT_TI_symbol_name("_USB_setFullSpeedMode")
	.dwattr $C$DW$53, DW_AT_declaration
	.dwattr $C$DW$53, DW_AT_external
$C$DW$54	.dwtag  DW_TAG_formal_parameter
	.dwattr $C$DW$54, DW_AT_type(*$C$DW$T$21)
$C$DW$55	.dwtag  DW_TAG_formal_parameter
	.dwattr $C$DW$55, DW_AT_type(*$C$DW$T$30)
	.dwendtag $C$DW$53


$C$DW$56	.dwtag  DW_TAG_subprogram, DW_AT_name("USB_getDataCountReadFromFifo")
	.dwattr $C$DW$56, DW_AT_TI_symbol_name("_USB_getDataCountReadFromFifo")
	.dwattr $C$DW$56, DW_AT_type(*$C$DW$T$30)
	.dwattr $C$DW$56, DW_AT_declaration
	.dwattr $C$DW$56, DW_AT_external
$C$DW$57	.dwtag  DW_TAG_formal_parameter
	.dwattr $C$DW$57, DW_AT_type(*$C$DW$T$27)
	.dwendtag $C$DW$56


$C$DW$58	.dwtag  DW_TAG_subprogram, DW_AT_name("printf")
	.dwattr $C$DW$58, DW_AT_TI_symbol_name("_printf")
	.dwattr $C$DW$58, DW_AT_type(*$C$DW$T$10)
	.dwattr $C$DW$58, DW_AT_declaration
	.dwattr $C$DW$58, DW_AT_external
$C$DW$59	.dwtag  DW_TAG_formal_parameter
	.dwattr $C$DW$59, DW_AT_type(*$C$DW$T$218)
$C$DW$60	.dwtag  DW_TAG_unspecified_parameters
	.dwendtag $C$DW$58

;	/home/santiago/ti/55x_Tools/bin/acp55 -@/tmp/17491GwyRHg 
	.sect	".text"

$C$DW$61	.dwtag  DW_TAG_subprogram, DW_AT_name("MSC_SetSenseKeys")
	.dwattr $C$DW$61, DW_AT_low_pc(_MSC_SetSenseKeys)
	.dwattr $C$DW$61, DW_AT_high_pc(0x00)
	.dwattr $C$DW$61, DW_AT_TI_symbol_name("_MSC_SetSenseKeys")
	.dwattr $C$DW$61, DW_AT_TI_begin_file("./inc/csl_mscAux.h")
	.dwattr $C$DW$61, DW_AT_TI_begin_line(0x76)
	.dwattr $C$DW$61, DW_AT_TI_begin_column(0x06)
	.dwattr $C$DW$61, DW_AT_TI_max_frame_size(0x06)
	.dwpsn	file "./inc/csl_mscAux.h",line 121,column 1,is_stmt,address _MSC_SetSenseKeys

	.dwfde $C$DW$CIE, _MSC_SetSenseKeys
$C$DW$62	.dwtag  DW_TAG_formal_parameter, DW_AT_name("senseData")
	.dwattr $C$DW$62, DW_AT_TI_symbol_name("_senseData")
	.dwattr $C$DW$62, DW_AT_type(*$C$DW$T$50)
	.dwattr $C$DW$62, DW_AT_location[DW_OP_reg17]
$C$DW$63	.dwtag  DW_TAG_formal_parameter, DW_AT_name("senseKey")
	.dwattr $C$DW$63, DW_AT_TI_symbol_name("_senseKey")
	.dwattr $C$DW$63, DW_AT_type(*$C$DW$T$30)
	.dwattr $C$DW$63, DW_AT_location[DW_OP_reg12]
$C$DW$64	.dwtag  DW_TAG_formal_parameter, DW_AT_name("addSenseKey")
	.dwattr $C$DW$64, DW_AT_TI_symbol_name("_addSenseKey")
	.dwattr $C$DW$64, DW_AT_type(*$C$DW$T$30)
	.dwattr $C$DW$64, DW_AT_location[DW_OP_reg13]
;*******************************************************************************
;* FUNCTION NAME: MSC_SetSenseKeys                                             *
;*                                                                             *
;*   Function Uses Regs : T0,T1,AR0,XAR0,AR1,AR3,XAR3,SP,M40,SATA,SATD,RDM,    *
;*                        FRCT,SMUL                                            *
;*   Stack Frame        : Compact (No Frame Pointer, w/ debug)                 *
;*   Total Frame Size   : 6 words                                              *
;*                        (2 return address/alignment)                         *
;*                        (4 local values)                                     *
;*   Min System Stack   : 1 word                                               *
;*******************************************************************************
_MSC_SetSenseKeys:
	.dwcfi	cfa_offset, 1
	.dwcfi	save_reg_to_mem, 91, -1
        AADD #-5, SP
	.dwcfi	cfa_offset, 6
$C$DW$65	.dwtag  DW_TAG_variable, DW_AT_name("senseData")
	.dwattr $C$DW$65, DW_AT_TI_symbol_name("_senseData")
	.dwattr $C$DW$65, DW_AT_type(*$C$DW$T$50)
	.dwattr $C$DW$65, DW_AT_location[DW_OP_bregx 0x24 0]
$C$DW$66	.dwtag  DW_TAG_variable, DW_AT_name("senseKey")
	.dwattr $C$DW$66, DW_AT_TI_symbol_name("_senseKey")
	.dwattr $C$DW$66, DW_AT_type(*$C$DW$T$30)
	.dwattr $C$DW$66, DW_AT_location[DW_OP_bregx 0x24 2]
$C$DW$67	.dwtag  DW_TAG_variable, DW_AT_name("addSenseKey")
	.dwattr $C$DW$67, DW_AT_TI_symbol_name("_addSenseKey")
	.dwattr $C$DW$67, DW_AT_type(*$C$DW$T$30)
	.dwattr $C$DW$67, DW_AT_location[DW_OP_bregx 0x24 3]
        MOV T1, *SP(#3) ; |121| 
        MOV T0, *SP(#2) ; |121| 
        MOV XAR0, dbl(*SP(#0))
	.dwpsn	file "./inc/csl_mscAux.h",line 122,column 4,is_stmt
        MOV dbl(*SP(#0)), XAR3
        MOV *SP(#2), AR1 ; |122| 
        MOV AR1, *AR3(short(#3)) ; |122| 
	.dwpsn	file "./inc/csl_mscAux.h",line 123,column 4,is_stmt
        MOV dbl(*SP(#0)), XAR3
        MOV *SP(#3), AR1 ; |123| 
        MOV AR1, *AR3(#8) ; |123| 
	.dwpsn	file "./inc/csl_mscAux.h",line 124,column 1,is_stmt
        AADD #5, SP
	.dwcfi	cfa_offset, 1
$C$DW$68	.dwtag  DW_TAG_TI_branch
	.dwattr $C$DW$68, DW_AT_low_pc(0x00)
	.dwattr $C$DW$68, DW_AT_TI_return
        RET
                                        ; return occurs
	.dwattr $C$DW$61, DW_AT_TI_end_file("./inc/csl_mscAux.h")
	.dwattr $C$DW$61, DW_AT_TI_end_line(0x7c)
	.dwattr $C$DW$61, DW_AT_TI_end_column(0x01)
	.dwendentry
	.dwendtag $C$DW$61

	.sect	".text"

$C$DW$69	.dwtag  DW_TAG_subprogram, DW_AT_name("MSC_HandleStateReset")
	.dwattr $C$DW$69, DW_AT_low_pc(_MSC_HandleStateReset)
	.dwattr $C$DW$69, DW_AT_high_pc(0x00)
	.dwattr $C$DW$69, DW_AT_TI_symbol_name("_MSC_HandleStateReset")
	.dwattr $C$DW$69, DW_AT_type(*$C$DW$T$86)
	.dwattr $C$DW$69, DW_AT_TI_begin_file("./inc/csl_mscAux.h")
	.dwattr $C$DW$69, DW_AT_TI_begin_line(0xaa)
	.dwattr $C$DW$69, DW_AT_TI_begin_column(0x0c)
	.dwattr $C$DW$69, DW_AT_TI_max_frame_size(0x06)
	.dwpsn	file "./inc/csl_mscAux.h",line 172,column 1,is_stmt,address _MSC_HandleStateReset

	.dwfde $C$DW$CIE, _MSC_HandleStateReset
$C$DW$70	.dwtag  DW_TAG_formal_parameter, DW_AT_name("pMscHandle")
	.dwattr $C$DW$70, DW_AT_TI_symbol_name("_pMscHandle")
	.dwattr $C$DW$70, DW_AT_type(*$C$DW$T$140)
	.dwattr $C$DW$70, DW_AT_location[DW_OP_reg17]
$C$DW$71	.dwtag  DW_TAG_formal_parameter, DW_AT_name("hUsbOutEp")
	.dwattr $C$DW$71, DW_AT_TI_symbol_name("_hUsbOutEp")
	.dwattr $C$DW$71, DW_AT_type(*$C$DW$T$27)
	.dwattr $C$DW$71, DW_AT_location[DW_OP_reg19]
;*******************************************************************************
;* FUNCTION NAME: MSC_HandleStateReset                                         *
;*                                                                             *
;*   Function Uses Regs : T0,T1,AR0,XAR0,AR1,XAR1,AR3,XAR3,SP,M40,SATA,SATD,   *
;*                        RDM,FRCT,SMUL                                        *
;*   Stack Frame        : Compact (No Frame Pointer, w/ debug)                 *
;*   Total Frame Size   : 6 words                                              *
;*                        (1 return address/alignment)                         *
;*                        (5 local values)                                     *
;*   Min System Stack   : 1 word                                               *
;*******************************************************************************
_MSC_HandleStateReset:
	.dwcfi	cfa_offset, 1
	.dwcfi	save_reg_to_mem, 91, -1
        AADD #-5, SP
	.dwcfi	cfa_offset, 6
$C$DW$72	.dwtag  DW_TAG_variable, DW_AT_name("pMscHandle")
	.dwattr $C$DW$72, DW_AT_TI_symbol_name("_pMscHandle")
	.dwattr $C$DW$72, DW_AT_type(*$C$DW$T$140)
	.dwattr $C$DW$72, DW_AT_location[DW_OP_bregx 0x24 0]
$C$DW$73	.dwtag  DW_TAG_variable, DW_AT_name("hUsbOutEp")
	.dwattr $C$DW$73, DW_AT_TI_symbol_name("_hUsbOutEp")
	.dwattr $C$DW$73, DW_AT_type(*$C$DW$T$27)
	.dwattr $C$DW$73, DW_AT_location[DW_OP_bregx 0x24 2]
$C$DW$74	.dwtag  DW_TAG_variable, DW_AT_name("status")
	.dwattr $C$DW$74, DW_AT_TI_symbol_name("_status")
	.dwattr $C$DW$74, DW_AT_type(*$C$DW$T$86)
	.dwattr $C$DW$74, DW_AT_location[DW_OP_bregx 0x24 4]
        MOV XAR1, dbl(*SP(#2))
        MOV XAR0, dbl(*SP(#0))
	.dwpsn	file "./inc/csl_mscAux.h",line 175,column 2,is_stmt
        MOV dbl(*SP(#2)), XAR0
$C$DW$75	.dwtag  DW_TAG_TI_branch
	.dwattr $C$DW$75, DW_AT_low_pc(0x00)
	.dwattr $C$DW$75, DW_AT_name("_USB_abortTransaction")
	.dwattr $C$DW$75, DW_AT_TI_call
        CALL #_USB_abortTransaction ; |175| 
                                        ; call occurs [#_USB_abortTransaction] ; |175| 
        MOV T0, *SP(#4) ; |175| 
	.dwpsn	file "./inc/csl_mscAux.h",line 176,column 2,is_stmt
        MOV dbl(*SP(#0)), XAR1
        MOV #31, T0 ; |176| 
        MOV dbl(*SP(#2)), XAR0
        AMAR *+AR1(#296) ; |176| 
$C$DW$76	.dwtag  DW_TAG_TI_branch
	.dwattr $C$DW$76, DW_AT_low_pc(0x00)
	.dwattr $C$DW$76, DW_AT_name("_USB_postTransaction")
	.dwattr $C$DW$76, DW_AT_TI_call

        CALL #_USB_postTransaction ; |176| 
||      MOV #0, T1

                                        ; call occurs [#_USB_postTransaction] ; |176| 
        MOV T0, *SP(#4) ; |176| 
	.dwpsn	file "./inc/csl_mscAux.h",line 178,column 2,is_stmt
        MOV dbl(*SP(#0)), XAR3
        MOV #1, *AR3(#319) ; |178| 
	.dwpsn	file "./inc/csl_mscAux.h",line 180,column 2,is_stmt
        MOV *SP(#4), T0 ; |180| 
	.dwpsn	file "./inc/csl_mscAux.h",line 181,column 1,is_stmt
        AADD #5, SP
	.dwcfi	cfa_offset, 1
$C$DW$77	.dwtag  DW_TAG_TI_branch
	.dwattr $C$DW$77, DW_AT_low_pc(0x00)
	.dwattr $C$DW$77, DW_AT_TI_return
        RET
                                        ; return occurs
	.dwattr $C$DW$69, DW_AT_TI_end_file("./inc/csl_mscAux.h")
	.dwattr $C$DW$69, DW_AT_TI_end_line(0xb5)
	.dwattr $C$DW$69, DW_AT_TI_end_column(0x01)
	.dwendentry
	.dwendtag $C$DW$69

	.sect	".text"

$C$DW$78	.dwtag  DW_TAG_subprogram, DW_AT_name("MSC_HandleStartStopUnit")
	.dwattr $C$DW$78, DW_AT_low_pc(_MSC_HandleStartStopUnit)
	.dwattr $C$DW$78, DW_AT_high_pc(0x00)
	.dwattr $C$DW$78, DW_AT_TI_symbol_name("_MSC_HandleStartStopUnit")
	.dwattr $C$DW$78, DW_AT_type(*$C$DW$T$86)
	.dwattr $C$DW$78, DW_AT_TI_begin_file("./inc/csl_mscAux.h")
	.dwattr $C$DW$78, DW_AT_TI_begin_line(0xe5)
	.dwattr $C$DW$78, DW_AT_TI_begin_column(0x0c)
	.dwattr $C$DW$78, DW_AT_TI_max_frame_size(0x0a)
	.dwpsn	file "./inc/csl_mscAux.h",line 232,column 1,is_stmt,address _MSC_HandleStartStopUnit

	.dwfde $C$DW$CIE, _MSC_HandleStartStopUnit
$C$DW$79	.dwtag  DW_TAG_formal_parameter, DW_AT_name("pMscHandle")
	.dwattr $C$DW$79, DW_AT_TI_symbol_name("_pMscHandle")
	.dwattr $C$DW$79, DW_AT_type(*$C$DW$T$140)
	.dwattr $C$DW$79, DW_AT_location[DW_OP_reg17]
$C$DW$80	.dwtag  DW_TAG_formal_parameter, DW_AT_name("hUsbInEp")
	.dwattr $C$DW$80, DW_AT_TI_symbol_name("_hUsbInEp")
	.dwattr $C$DW$80, DW_AT_type(*$C$DW$T$27)
	.dwattr $C$DW$80, DW_AT_location[DW_OP_reg19]
$C$DW$81	.dwtag  DW_TAG_formal_parameter, DW_AT_name("lunNum")
	.dwattr $C$DW$81, DW_AT_TI_symbol_name("_lunNum")
	.dwattr $C$DW$81, DW_AT_type(*$C$DW$T$30)
	.dwattr $C$DW$81, DW_AT_location[DW_OP_reg12]
;*******************************************************************************
;* FUNCTION NAME: MSC_HandleStartStopUnit                                      *
;*                                                                             *
;*   Function Uses Regs : AC0,AC0,T0,T1,AR0,XAR0,AR1,XAR1,AR3,XAR3,SP,TC1,M40, *
;*                        SATA,SATD,RDM,FRCT,SMUL                              *
;*   Stack Frame        : Compact (No Frame Pointer, w/ debug)                 *
;*   Total Frame Size   : 10 words                                             *
;*                        (2 return address/alignment)                         *
;*                        (8 local values)                                     *
;*   Min System Stack   : 1 word                                               *
;*******************************************************************************
_MSC_HandleStartStopUnit:
	.dwcfi	cfa_offset, 1
	.dwcfi	save_reg_to_mem, 91, -1
        AADD #-9, SP
	.dwcfi	cfa_offset, 10
$C$DW$82	.dwtag  DW_TAG_variable, DW_AT_name("pMscHandle")
	.dwattr $C$DW$82, DW_AT_TI_symbol_name("_pMscHandle")
	.dwattr $C$DW$82, DW_AT_type(*$C$DW$T$140)
	.dwattr $C$DW$82, DW_AT_location[DW_OP_bregx 0x24 0]
$C$DW$83	.dwtag  DW_TAG_variable, DW_AT_name("hUsbInEp")
	.dwattr $C$DW$83, DW_AT_TI_symbol_name("_hUsbInEp")
	.dwattr $C$DW$83, DW_AT_type(*$C$DW$T$27)
	.dwattr $C$DW$83, DW_AT_location[DW_OP_bregx 0x24 2]
$C$DW$84	.dwtag  DW_TAG_variable, DW_AT_name("lunNum")
	.dwattr $C$DW$84, DW_AT_TI_symbol_name("_lunNum")
	.dwattr $C$DW$84, DW_AT_type(*$C$DW$T$30)
	.dwattr $C$DW$84, DW_AT_location[DW_OP_bregx 0x24 4]
$C$DW$85	.dwtag  DW_TAG_variable, DW_AT_name("mediaEjectStat")
	.dwattr $C$DW$85, DW_AT_TI_symbol_name("_mediaEjectStat")
	.dwattr $C$DW$85, DW_AT_type(*$C$DW$T$55)
	.dwattr $C$DW$85, DW_AT_location[DW_OP_bregx 0x24 5]
$C$DW$86	.dwtag  DW_TAG_variable, DW_AT_name("status")
	.dwattr $C$DW$86, DW_AT_TI_symbol_name("_status")
	.dwattr $C$DW$86, DW_AT_type(*$C$DW$T$86)
	.dwattr $C$DW$86, DW_AT_location[DW_OP_bregx 0x24 6]
$C$DW$87	.dwtag  DW_TAG_variable, DW_AT_name("loadEject")
	.dwattr $C$DW$87, DW_AT_TI_symbol_name("_loadEject")
	.dwattr $C$DW$87, DW_AT_type(*$C$DW$T$30)
	.dwattr $C$DW$87, DW_AT_location[DW_OP_bregx 0x24 7]
        MOV T0, *SP(#4) ; |232| 
        MOV XAR1, dbl(*SP(#2))
        MOV XAR0, dbl(*SP(#0))
	.dwpsn	file "./inc/csl_mscAux.h",line 237,column 2,is_stmt
        MOV dbl(*SP(#0)), XAR3
        MOV dbl(*AR3(#16)), AC0 ; |237| 
        BCC $C$L1,AC0 == #0 ; |237| 
                                        ; branchcc occurs ; |237| 
	.dwpsn	file "./inc/csl_mscAux.h",line 240,column 3,is_stmt
        MOV #2, *AR3(#319) ; |240| 
	.dwpsn	file "./inc/csl_mscAux.h",line 241,column 3,is_stmt
        MOV dbl(*SP(#0)), XAR3
        MOV dbl(*AR3(#316)), XAR0
$C$DW$88	.dwtag  DW_TAG_TI_branch
	.dwattr $C$DW$88, DW_AT_low_pc(0x00)
	.dwattr $C$DW$88, DW_AT_name("_USB_stallEndpt")
	.dwattr $C$DW$88, DW_AT_TI_call
        CALL #_USB_stallEndpt ; |241| 
                                        ; call occurs [#_USB_stallEndpt] ; |241| 
        MOV T0, *SP(#6) ; |241| 
	.dwpsn	file "./inc/csl_mscAux.h",line 242,column 3,is_stmt
        MOV dbl(*SP(#0)), XAR3
        MOV dbl(*AR3(#314)), XAR0
$C$DW$89	.dwtag  DW_TAG_TI_branch
	.dwattr $C$DW$89, DW_AT_low_pc(0x00)
	.dwattr $C$DW$89, DW_AT_name("_USB_stallEndpt")
	.dwattr $C$DW$89, DW_AT_TI_call
        CALL #_USB_stallEndpt ; |242| 
                                        ; call occurs [#_USB_stallEndpt] ; |242| 
        MOV T0, *SP(#6) ; |242| 
	.dwpsn	file "./inc/csl_mscAux.h",line 246,column 3,is_stmt
        MOV dbl(*SP(#0)), XAR3
        MOV #32, T1 ; |246| 
        MOV dbl(*AR3(#314)), XAR0
        MOV dbl(*AR3(#14)), XAR1
$C$DW$90	.dwtag  DW_TAG_TI_branch
	.dwattr $C$DW$90, DW_AT_low_pc(0x00)
	.dwattr $C$DW$90, DW_AT_name("_USB_postTransaction")
	.dwattr $C$DW$90, DW_AT_TI_call

        CALL #_USB_postTransaction ; |246| 
||      MOV #0, T0

                                        ; call occurs [#_USB_postTransaction] ; |246| 
        OR *SP(#6), T0, AR1 ; |246| 
        MOV AR1, *SP(#6) ; |246| 
	.dwpsn	file "./inc/csl_mscAux.h",line 251,column 3,is_stmt
        MOV AR1, T0
        B $C$L6   ; |251| 
                                        ; branch occurs ; |251| 
$C$L1:    
	.dwpsn	file "./inc/csl_mscAux.h",line 254,column 5,is_stmt
        MOV uns(high_byte(*AR3(#306))), AR1 ; |254| 
        MOV AR1, *SP(#7) ; |254| 
	.dwpsn	file "./inc/csl_mscAux.h",line 255,column 5,is_stmt
        MOV dbl(*SP(#0)), XAR3
        MOV #0, *AR3(#289) ; |255| 
	.dwpsn	file "./inc/csl_mscAux.h",line 257,column 5,is_stmt
        MOV dbl(*SP(#0)), XAR3
        MOV #4, *AR3(#319) ; |257| 
	.dwpsn	file "./inc/csl_mscAux.h",line 259,column 5,is_stmt
        CMP *SP(#7) == #2, TC1 ; |259| 
        BCC $C$L4,!TC1 ; |259| 
                                        ; branchcc occurs ; |259| 
	.dwpsn	file "./inc/csl_mscAux.h",line 261,column 9,is_stmt
        MOV dbl(*SP(#0)), XAR3
        MPYMK *SP(#4), #62, AC0 ; |261| 
        MOV AC0, AR1 ; |261| 
        AADD AR1, AR3 ; |261| 
        BTST #1, *AR3(#75), TC1 ; |261| 
        BCC $C$L2,!TC1 ; |261| 
                                        ; branchcc occurs ; |261| 
	.dwpsn	file "./inc/csl_mscAux.h",line 263,column 13,is_stmt
        MOV dbl(*SP(#0)), XAR0
        MOV #595, T1 ; |263| 
        AMAR *+AR0(#266) ; |263| 
$C$DW$91	.dwtag  DW_TAG_TI_branch
	.dwattr $C$DW$91, DW_AT_low_pc(0x00)
	.dwattr $C$DW$91, DW_AT_name("_MSC_SetSenseKeys")
	.dwattr $C$DW$91, DW_AT_TI_call

        CALL #_MSC_SetSenseKeys ; |263| 
||      MOV #6, T0

                                        ; call occurs [#_MSC_SetSenseKeys] ; |263| 
	.dwpsn	file "./inc/csl_mscAux.h",line 266,column 13,is_stmt
        MOV dbl(*SP(#0)), XAR3
        MOV #1, *AR3(#289) ; |266| 
	.dwpsn	file "./inc/csl_mscAux.h",line 267,column 9,is_stmt
        B $C$L5   ; |267| 
                                        ; branch occurs ; |267| 
$C$L2:    
	.dwpsn	file "./inc/csl_mscAux.h",line 270,column 13,is_stmt
        MOV dbl(*SP(#0)), XAR3
        MOV *SP(#4), T0 ; |270| 
        MOV dbl(*AR3(#8)), AC0 ; |270| 
$C$DW$92	.dwtag  DW_TAG_TI_branch
	.dwattr $C$DW$92, DW_AT_low_pc(0x00)
	.dwattr $C$DW$92, DW_AT_TI_call
	.dwattr $C$DW$92, DW_AT_TI_indirect
        CALL AC0  ; |270| 
                                        ; call occurs [AC0] ; |270| 
        MOV T0, *SP(#5) ; |270| 
	.dwpsn	file "./inc/csl_mscAux.h",line 271,column 13,is_stmt
        CMP *SP(#5) == #1, TC1 ; |271| 
        BCC $C$L3,!TC1 ; |271| 
                                        ; branchcc occurs ; |271| 
	.dwpsn	file "./inc/csl_mscAux.h",line 274,column 17,is_stmt
        MOV dbl(*SP(#0)), XAR3
        MPYMK *SP(#4), #62, AC0 ; |274| 
        MOV AC0, AR1 ; |274| 
        AADD AR1, AR3 ; |274| 
        AADD #18, AR3 ; |274| 
        AND #0xfff6, *AR3(#57) ; |274| 
	.dwpsn	file "./inc/csl_mscAux.h",line 275,column 17,is_stmt
        MOV dbl(*SP(#0)), XAR0
        MOV #0, T0
        AMAR *+AR0(#266) ; |275| 
$C$DW$93	.dwtag  DW_TAG_TI_branch
	.dwattr $C$DW$93, DW_AT_low_pc(0x00)
	.dwattr $C$DW$93, DW_AT_name("_MSC_SetSenseKeys")
	.dwattr $C$DW$93, DW_AT_TI_call

        CALL #_MSC_SetSenseKeys ; |275| 
||      MOV #0, T1

                                        ; call occurs [#_MSC_SetSenseKeys] ; |275| 
	.dwpsn	file "./inc/csl_mscAux.h",line 278,column 13,is_stmt
        B $C$L5   ; |278| 
                                        ; branch occurs ; |278| 
$C$L3:    
	.dwpsn	file "./inc/csl_mscAux.h",line 281,column 17,is_stmt
        MOV dbl(*SP(#0)), XAR3
        MOV #1, *AR3(#289) ; |281| 
	.dwpsn	file "./inc/csl_mscAux.h",line 282,column 17,is_stmt
        MOV dbl(*SP(#0)), XAR0
        MOV #32, T1 ; |282| 
        AMAR *+AR0(#266) ; |282| 
$C$DW$94	.dwtag  DW_TAG_TI_branch
	.dwattr $C$DW$94, DW_AT_low_pc(0x00)
	.dwattr $C$DW$94, DW_AT_name("_MSC_SetSenseKeys")
	.dwattr $C$DW$94, DW_AT_TI_call

        CALL #_MSC_SetSenseKeys ; |282| 
||      MOV #5, T0

                                        ; call occurs [#_MSC_SetSenseKeys] ; |282| 
	.dwpsn	file "./inc/csl_mscAux.h",line 287,column 5,is_stmt
        B $C$L5   ; |287| 
                                        ; branch occurs ; |287| 
$C$L4:    
	.dwpsn	file "./inc/csl_mscAux.h",line 290,column 9,is_stmt
        MOV dbl(*SP(#0)), XAR0
        MOV #0, T0
        AMAR *+AR0(#266) ; |290| 
$C$DW$95	.dwtag  DW_TAG_TI_branch
	.dwattr $C$DW$95, DW_AT_low_pc(0x00)
	.dwattr $C$DW$95, DW_AT_name("_MSC_SetSenseKeys")
	.dwattr $C$DW$95, DW_AT_TI_call

        CALL #_MSC_SetSenseKeys ; |290| 
||      MOV #0, T1

                                        ; call occurs [#_MSC_SetSenseKeys] ; |290| 
	.dwpsn	file "./inc/csl_mscAux.h",line 294,column 9,is_stmt
        MPYMK *SP(#4), #62, AC0 ; |294| 
        MOV AC0, AR1 ; |294| 
        MOV dbl(*SP(#0)), XAR3
        AADD AR1, AR3 ; |294| 
        AADD #18, AR3 ; |294| 
        AND #0xfff6, *AR3(#57) ; |294| 
$C$L5:    
	.dwpsn	file "./inc/csl_mscAux.h",line 297,column 5,is_stmt
        MOV dbl(*SP(#0)), XAR1
        MOV dbl(*SP(#2)), XAR0
        MOV #13, T0
        AMAR *+AR1(#282) ; |297| 
$C$DW$96	.dwtag  DW_TAG_TI_branch
	.dwattr $C$DW$96, DW_AT_low_pc(0x00)
	.dwattr $C$DW$96, DW_AT_name("_USB_postTransaction")
	.dwattr $C$DW$96, DW_AT_TI_call

        CALL #_USB_postTransaction ; |297| 
||      MOV #0, T1

                                        ; call occurs [#_USB_postTransaction] ; |297| 
        MOV T0, *SP(#6) ; |297| 
	.dwpsn	file "./inc/csl_mscAux.h",line 299,column 5,is_stmt
$C$L6:    
	.dwpsn	file "./inc/csl_mscAux.h",line 300,column 1,is_stmt
        AADD #9, SP
	.dwcfi	cfa_offset, 1
$C$DW$97	.dwtag  DW_TAG_TI_branch
	.dwattr $C$DW$97, DW_AT_low_pc(0x00)
	.dwattr $C$DW$97, DW_AT_TI_return
        RET
                                        ; return occurs
	.dwattr $C$DW$78, DW_AT_TI_end_file("./inc/csl_mscAux.h")
	.dwattr $C$DW$78, DW_AT_TI_end_line(0x12c)
	.dwattr $C$DW$78, DW_AT_TI_end_column(0x01)
	.dwendentry
	.dwendtag $C$DW$78

	.sect	".text"

$C$DW$98	.dwtag  DW_TAG_subprogram, DW_AT_name("MSC_HandleStateSendCSW")
	.dwattr $C$DW$98, DW_AT_low_pc(_MSC_HandleStateSendCSW)
	.dwattr $C$DW$98, DW_AT_high_pc(0x00)
	.dwattr $C$DW$98, DW_AT_TI_symbol_name("_MSC_HandleStateSendCSW")
	.dwattr $C$DW$98, DW_AT_type(*$C$DW$T$86)
	.dwattr $C$DW$98, DW_AT_TI_begin_file("./inc/csl_mscAux.h")
	.dwattr $C$DW$98, DW_AT_TI_begin_line(0x15c)
	.dwattr $C$DW$98, DW_AT_TI_begin_column(0x0c)
	.dwattr $C$DW$98, DW_AT_TI_max_frame_size(0x08)
	.dwpsn	file "./inc/csl_mscAux.h",line 351,column 1,is_stmt,address _MSC_HandleStateSendCSW

	.dwfde $C$DW$CIE, _MSC_HandleStateSendCSW
$C$DW$99	.dwtag  DW_TAG_formal_parameter, DW_AT_name("pMscHandle")
	.dwattr $C$DW$99, DW_AT_TI_symbol_name("_pMscHandle")
	.dwattr $C$DW$99, DW_AT_type(*$C$DW$T$140)
	.dwattr $C$DW$99, DW_AT_location[DW_OP_reg17]
$C$DW$100	.dwtag  DW_TAG_formal_parameter, DW_AT_name("hUsbOutEp")
	.dwattr $C$DW$100, DW_AT_TI_symbol_name("_hUsbOutEp")
	.dwattr $C$DW$100, DW_AT_type(*$C$DW$T$27)
	.dwattr $C$DW$100, DW_AT_location[DW_OP_reg19]
$C$DW$101	.dwtag  DW_TAG_formal_parameter, DW_AT_name("hUsbInEp")
	.dwattr $C$DW$101, DW_AT_TI_symbol_name("_hUsbInEp")
	.dwattr $C$DW$101, DW_AT_type(*$C$DW$T$27)
	.dwattr $C$DW$101, DW_AT_location[DW_OP_reg21]
;*******************************************************************************
;* FUNCTION NAME: MSC_HandleStateSendCSW                                       *
;*                                                                             *
;*   Function Uses Regs : T0,T1,AR0,XAR0,AR1,XAR1,AR2,XAR2,AR3,XAR3,SP,M40,    *
;*                        SATA,SATD,RDM,FRCT,SMUL                              *
;*   Stack Frame        : Compact (No Frame Pointer, w/ debug)                 *
;*   Total Frame Size   : 8 words                                              *
;*                        (1 return address/alignment)                         *
;*                        (7 local values)                                     *
;*   Min System Stack   : 1 word                                               *
;*******************************************************************************
_MSC_HandleStateSendCSW:
	.dwcfi	cfa_offset, 1
	.dwcfi	save_reg_to_mem, 91, -1
        AADD #-7, SP
	.dwcfi	cfa_offset, 8
$C$DW$102	.dwtag  DW_TAG_variable, DW_AT_name("pMscHandle")
	.dwattr $C$DW$102, DW_AT_TI_symbol_name("_pMscHandle")
	.dwattr $C$DW$102, DW_AT_type(*$C$DW$T$140)
	.dwattr $C$DW$102, DW_AT_location[DW_OP_bregx 0x24 0]
$C$DW$103	.dwtag  DW_TAG_variable, DW_AT_name("hUsbOutEp")
	.dwattr $C$DW$103, DW_AT_TI_symbol_name("_hUsbOutEp")
	.dwattr $C$DW$103, DW_AT_type(*$C$DW$T$27)
	.dwattr $C$DW$103, DW_AT_location[DW_OP_bregx 0x24 2]
$C$DW$104	.dwtag  DW_TAG_variable, DW_AT_name("hUsbInEp")
	.dwattr $C$DW$104, DW_AT_TI_symbol_name("_hUsbInEp")
	.dwattr $C$DW$104, DW_AT_type(*$C$DW$T$27)
	.dwattr $C$DW$104, DW_AT_location[DW_OP_bregx 0x24 4]
$C$DW$105	.dwtag  DW_TAG_variable, DW_AT_name("status")
	.dwattr $C$DW$105, DW_AT_TI_symbol_name("_status")
	.dwattr $C$DW$105, DW_AT_type(*$C$DW$T$86)
	.dwattr $C$DW$105, DW_AT_location[DW_OP_bregx 0x24 6]
        MOV XAR2, dbl(*SP(#4))
        MOV XAR1, dbl(*SP(#2))
        MOV XAR0, dbl(*SP(#0))
	.dwpsn	file "./inc/csl_mscAux.h",line 354,column 2,is_stmt
        MOV dbl(*SP(#4)), XAR0
        AMAR *SP(#6), XAR1
$C$DW$106	.dwtag  DW_TAG_TI_branch
	.dwattr $C$DW$106, DW_AT_low_pc(0x00)
	.dwattr $C$DW$106, DW_AT_name("_USB_isTransactionDone")
	.dwattr $C$DW$106, DW_AT_TI_call
        CALL #_USB_isTransactionDone ; |354| 
                                        ; call occurs [#_USB_isTransactionDone] ; |354| 
        BCC $C$L7,T0 == #0 ; |354| 
                                        ; branchcc occurs ; |354| 
	.dwpsn	file "./inc/csl_mscAux.h",line 356,column 3,is_stmt
        MOV dbl(*SP(#0)), XAR3
        MOV #0, *AR3(#281) ; |356| 
	.dwpsn	file "./inc/csl_mscAux.h",line 357,column 3,is_stmt
        MOV dbl(*SP(#0)), XAR3
        MOV #1, *AR3(#319) ; |357| 
	.dwpsn	file "./inc/csl_mscAux.h",line 358,column 3,is_stmt
        MOV dbl(*SP(#0)), XAR1
        MOV #31, T0 ; |358| 
        MOV dbl(*SP(#2)), XAR0
        AMAR *+AR1(#296) ; |358| 
$C$DW$107	.dwtag  DW_TAG_TI_branch
	.dwattr $C$DW$107, DW_AT_low_pc(0x00)
	.dwattr $C$DW$107, DW_AT_name("_USB_postTransaction")
	.dwattr $C$DW$107, DW_AT_TI_call

        CALL #_USB_postTransaction ; |358| 
||      MOV #0, T1

                                        ; call occurs [#_USB_postTransaction] ; |358| 
        OR *SP(#6), T0, AR1 ; |358| 
        MOV AR1, *SP(#6) ; |358| 
$C$L7:    
	.dwpsn	file "./inc/csl_mscAux.h",line 362,column 2,is_stmt
        MOV *SP(#6), T0 ; |362| 
	.dwpsn	file "./inc/csl_mscAux.h",line 363,column 1,is_stmt
        AADD #7, SP
	.dwcfi	cfa_offset, 1
$C$DW$108	.dwtag  DW_TAG_TI_branch
	.dwattr $C$DW$108, DW_AT_low_pc(0x00)
	.dwattr $C$DW$108, DW_AT_TI_return
        RET
                                        ; return occurs
	.dwattr $C$DW$98, DW_AT_TI_end_file("./inc/csl_mscAux.h")
	.dwattr $C$DW$98, DW_AT_TI_end_line(0x16b)
	.dwattr $C$DW$98, DW_AT_TI_end_column(0x01)
	.dwendentry
	.dwendtag $C$DW$98

	.sect	".text"

$C$DW$109	.dwtag  DW_TAG_subprogram, DW_AT_name("MSC_HandleStateSendData")
	.dwattr $C$DW$109, DW_AT_low_pc(_MSC_HandleStateSendData)
	.dwattr $C$DW$109, DW_AT_high_pc(0x00)
	.dwattr $C$DW$109, DW_AT_TI_symbol_name("_MSC_HandleStateSendData")
	.dwattr $C$DW$109, DW_AT_type(*$C$DW$T$86)
	.dwattr $C$DW$109, DW_AT_TI_begin_file("./inc/csl_mscAux.h")
	.dwattr $C$DW$109, DW_AT_TI_begin_line(0x19a)
	.dwattr $C$DW$109, DW_AT_TI_begin_column(0x0c)
	.dwattr $C$DW$109, DW_AT_TI_max_frame_size(0x06)
	.dwpsn	file "./inc/csl_mscAux.h",line 412,column 1,is_stmt,address _MSC_HandleStateSendData

	.dwfde $C$DW$CIE, _MSC_HandleStateSendData
$C$DW$110	.dwtag  DW_TAG_formal_parameter, DW_AT_name("pMscHandle")
	.dwattr $C$DW$110, DW_AT_TI_symbol_name("_pMscHandle")
	.dwattr $C$DW$110, DW_AT_type(*$C$DW$T$140)
	.dwattr $C$DW$110, DW_AT_location[DW_OP_reg17]
$C$DW$111	.dwtag  DW_TAG_formal_parameter, DW_AT_name("hUsbInEp")
	.dwattr $C$DW$111, DW_AT_TI_symbol_name("_hUsbInEp")
	.dwattr $C$DW$111, DW_AT_type(*$C$DW$T$27)
	.dwattr $C$DW$111, DW_AT_location[DW_OP_reg19]
;*******************************************************************************
;* FUNCTION NAME: MSC_HandleStateSendData                                      *
;*                                                                             *
;*   Function Uses Regs : T0,T1,AR0,XAR0,AR1,XAR1,AR3,XAR3,SP,M40,SATA,SATD,   *
;*                        RDM,FRCT,SMUL                                        *
;*   Stack Frame        : Compact (No Frame Pointer, w/ debug)                 *
;*   Total Frame Size   : 6 words                                              *
;*                        (1 return address/alignment)                         *
;*                        (5 local values)                                     *
;*   Min System Stack   : 1 word                                               *
;*******************************************************************************
_MSC_HandleStateSendData:
	.dwcfi	cfa_offset, 1
	.dwcfi	save_reg_to_mem, 91, -1
        AADD #-5, SP
	.dwcfi	cfa_offset, 6
$C$DW$112	.dwtag  DW_TAG_variable, DW_AT_name("pMscHandle")
	.dwattr $C$DW$112, DW_AT_TI_symbol_name("_pMscHandle")
	.dwattr $C$DW$112, DW_AT_type(*$C$DW$T$140)
	.dwattr $C$DW$112, DW_AT_location[DW_OP_bregx 0x24 0]
$C$DW$113	.dwtag  DW_TAG_variable, DW_AT_name("hUsbInEp")
	.dwattr $C$DW$113, DW_AT_TI_symbol_name("_hUsbInEp")
	.dwattr $C$DW$113, DW_AT_type(*$C$DW$T$27)
	.dwattr $C$DW$113, DW_AT_location[DW_OP_bregx 0x24 2]
$C$DW$114	.dwtag  DW_TAG_variable, DW_AT_name("status")
	.dwattr $C$DW$114, DW_AT_TI_symbol_name("_status")
	.dwattr $C$DW$114, DW_AT_type(*$C$DW$T$86)
	.dwattr $C$DW$114, DW_AT_location[DW_OP_bregx 0x24 4]
        MOV XAR1, dbl(*SP(#2))
        MOV XAR0, dbl(*SP(#0))
	.dwpsn	file "./inc/csl_mscAux.h",line 415,column 5,is_stmt
        MOV dbl(*SP(#2)), XAR0
        AMAR *SP(#4), XAR1
$C$DW$115	.dwtag  DW_TAG_TI_branch
	.dwattr $C$DW$115, DW_AT_low_pc(0x00)
	.dwattr $C$DW$115, DW_AT_name("_USB_isTransactionDone")
	.dwattr $C$DW$115, DW_AT_TI_call
        CALL #_USB_isTransactionDone ; |415| 
                                        ; call occurs [#_USB_isTransactionDone] ; |415| 
        BCC $C$L8,T0 == #0 ; |415| 
                                        ; branchcc occurs ; |415| 
	.dwpsn	file "./inc/csl_mscAux.h",line 417,column 9,is_stmt
        MOV dbl(*SP(#0)), XAR1
        MOV dbl(*SP(#2)), XAR0
        MOV #13, T0
        AMAR *+AR1(#282) ; |417| 
$C$DW$116	.dwtag  DW_TAG_TI_branch
	.dwattr $C$DW$116, DW_AT_low_pc(0x00)
	.dwattr $C$DW$116, DW_AT_name("_USB_postTransaction")
	.dwattr $C$DW$116, DW_AT_TI_call

        CALL #_USB_postTransaction ; |417| 
||      MOV #0, T1

                                        ; call occurs [#_USB_postTransaction] ; |417| 
        OR *SP(#4), T0, AR1 ; |417| 
        MOV AR1, *SP(#4) ; |417| 
	.dwpsn	file "./inc/csl_mscAux.h",line 419,column 9,is_stmt
        MOV dbl(*SP(#0)), XAR3
        MOV #4, *AR3(#319) ; |419| 
$C$L8:    
	.dwpsn	file "./inc/csl_mscAux.h",line 422,column 5,is_stmt
        MOV *SP(#4), T0 ; |422| 
	.dwpsn	file "./inc/csl_mscAux.h",line 423,column 1,is_stmt
        AADD #5, SP
	.dwcfi	cfa_offset, 1
$C$DW$117	.dwtag  DW_TAG_TI_branch
	.dwattr $C$DW$117, DW_AT_low_pc(0x00)
	.dwattr $C$DW$117, DW_AT_TI_return
        RET
                                        ; return occurs
	.dwattr $C$DW$109, DW_AT_TI_end_file("./inc/csl_mscAux.h")
	.dwattr $C$DW$109, DW_AT_TI_end_line(0x1a7)
	.dwattr $C$DW$109, DW_AT_TI_end_column(0x01)
	.dwendentry
	.dwendtag $C$DW$109

	.sect	".text"

$C$DW$118	.dwtag  DW_TAG_subprogram, DW_AT_name("MSC_HandleStateSendStall")
	.dwattr $C$DW$118, DW_AT_low_pc(_MSC_HandleStateSendStall)
	.dwattr $C$DW$118, DW_AT_high_pc(0x00)
	.dwattr $C$DW$118, DW_AT_TI_symbol_name("_MSC_HandleStateSendStall")
	.dwattr $C$DW$118, DW_AT_type(*$C$DW$T$86)
	.dwattr $C$DW$118, DW_AT_TI_begin_file("./inc/csl_mscAux.h")
	.dwattr $C$DW$118, DW_AT_TI_begin_line(0x1d6)
	.dwattr $C$DW$118, DW_AT_TI_begin_column(0x0c)
	.dwattr $C$DW$118, DW_AT_TI_max_frame_size(0x06)
	.dwpsn	file "./inc/csl_mscAux.h",line 472,column 1,is_stmt,address _MSC_HandleStateSendStall

	.dwfde $C$DW$CIE, _MSC_HandleStateSendStall
$C$DW$119	.dwtag  DW_TAG_formal_parameter, DW_AT_name("pMscHandle")
	.dwattr $C$DW$119, DW_AT_TI_symbol_name("_pMscHandle")
	.dwattr $C$DW$119, DW_AT_type(*$C$DW$T$140)
	.dwattr $C$DW$119, DW_AT_location[DW_OP_reg17]
$C$DW$120	.dwtag  DW_TAG_formal_parameter, DW_AT_name("hUsbInEp")
	.dwattr $C$DW$120, DW_AT_TI_symbol_name("_hUsbInEp")
	.dwattr $C$DW$120, DW_AT_type(*$C$DW$T$27)
	.dwattr $C$DW$120, DW_AT_location[DW_OP_reg19]
;*******************************************************************************
;* FUNCTION NAME: MSC_HandleStateSendStall                                     *
;*                                                                             *
;*   Function Uses Regs : T0,T1,AR0,XAR0,AR1,XAR1,AR3,XAR3,SP,M40,SATA,SATD,   *
;*                        RDM,FRCT,SMUL                                        *
;*   Stack Frame        : Compact (No Frame Pointer, w/ debug)                 *
;*   Total Frame Size   : 6 words                                              *
;*                        (1 return address/alignment)                         *
;*                        (5 local values)                                     *
;*   Min System Stack   : 1 word                                               *
;*******************************************************************************
_MSC_HandleStateSendStall:
	.dwcfi	cfa_offset, 1
	.dwcfi	save_reg_to_mem, 91, -1
        AADD #-5, SP
	.dwcfi	cfa_offset, 6
$C$DW$121	.dwtag  DW_TAG_variable, DW_AT_name("pMscHandle")
	.dwattr $C$DW$121, DW_AT_TI_symbol_name("_pMscHandle")
	.dwattr $C$DW$121, DW_AT_type(*$C$DW$T$140)
	.dwattr $C$DW$121, DW_AT_location[DW_OP_bregx 0x24 0]
$C$DW$122	.dwtag  DW_TAG_variable, DW_AT_name("hUsbInEp")
	.dwattr $C$DW$122, DW_AT_TI_symbol_name("_hUsbInEp")
	.dwattr $C$DW$122, DW_AT_type(*$C$DW$T$27)
	.dwattr $C$DW$122, DW_AT_location[DW_OP_bregx 0x24 2]
$C$DW$123	.dwtag  DW_TAG_variable, DW_AT_name("status")
	.dwattr $C$DW$123, DW_AT_TI_symbol_name("_status")
	.dwattr $C$DW$123, DW_AT_type(*$C$DW$T$86)
	.dwattr $C$DW$123, DW_AT_location[DW_OP_bregx 0x24 4]
        MOV XAR1, dbl(*SP(#2))
        MOV XAR0, dbl(*SP(#0))
	.dwpsn	file "./inc/csl_mscAux.h",line 475,column 5,is_stmt
        MOV dbl(*SP(#2)), XAR0
        AMAR *SP(#4), XAR1
$C$DW$124	.dwtag  DW_TAG_TI_branch
	.dwattr $C$DW$124, DW_AT_low_pc(0x00)
	.dwattr $C$DW$124, DW_AT_name("_USB_isTransactionDone")
	.dwattr $C$DW$124, DW_AT_TI_call
        CALL #_USB_isTransactionDone ; |475| 
                                        ; call occurs [#_USB_isTransactionDone] ; |475| 
        BCC $C$L9,T0 == #0 ; |475| 
                                        ; branchcc occurs ; |475| 
	.dwpsn	file "./inc/csl_mscAux.h",line 477,column 9,is_stmt
        MOV dbl(*SP(#0)), XAR1
        MOV dbl(*SP(#2)), XAR0
        MOV #13, T0
        AMAR *+AR1(#282) ; |477| 
$C$DW$125	.dwtag  DW_TAG_TI_branch
	.dwattr $C$DW$125, DW_AT_low_pc(0x00)
	.dwattr $C$DW$125, DW_AT_name("_USB_postTransaction")
	.dwattr $C$DW$125, DW_AT_TI_call

        CALL #_USB_postTransaction ; |477| 
||      MOV #0, T1

                                        ; call occurs [#_USB_postTransaction] ; |477| 
        OR *SP(#4), T0, AR1 ; |477| 
        MOV AR1, *SP(#4) ; |477| 
	.dwpsn	file "./inc/csl_mscAux.h",line 479,column 9,is_stmt
        MOV dbl(*SP(#0)), XAR3
        MOV #4, *AR3(#319) ; |479| 
$C$L9:    
	.dwpsn	file "./inc/csl_mscAux.h",line 482,column 5,is_stmt
        MOV *SP(#4), T0 ; |482| 
	.dwpsn	file "./inc/csl_mscAux.h",line 483,column 1,is_stmt
        AADD #5, SP
	.dwcfi	cfa_offset, 1
$C$DW$126	.dwtag  DW_TAG_TI_branch
	.dwattr $C$DW$126, DW_AT_low_pc(0x00)
	.dwattr $C$DW$126, DW_AT_TI_return
        RET
                                        ; return occurs
	.dwattr $C$DW$118, DW_AT_TI_end_file("./inc/csl_mscAux.h")
	.dwattr $C$DW$118, DW_AT_TI_end_line(0x1e3)
	.dwattr $C$DW$118, DW_AT_TI_end_column(0x01)
	.dwendentry
	.dwendtag $C$DW$118

	.sect	".text"

$C$DW$127	.dwtag  DW_TAG_subprogram, DW_AT_name("MSC_HandleStateSendingShortPkt")
	.dwattr $C$DW$127, DW_AT_low_pc(_MSC_HandleStateSendingShortPkt)
	.dwattr $C$DW$127, DW_AT_high_pc(0x00)
	.dwattr $C$DW$127, DW_AT_TI_symbol_name("_MSC_HandleStateSendingShortPkt")
	.dwattr $C$DW$127, DW_AT_type(*$C$DW$T$86)
	.dwattr $C$DW$127, DW_AT_TI_begin_file("./inc/csl_mscAux.h")
	.dwattr $C$DW$127, DW_AT_TI_begin_line(0x212)
	.dwattr $C$DW$127, DW_AT_TI_begin_column(0x0c)
	.dwattr $C$DW$127, DW_AT_TI_max_frame_size(0x06)
	.dwpsn	file "./inc/csl_mscAux.h",line 532,column 1,is_stmt,address _MSC_HandleStateSendingShortPkt

	.dwfde $C$DW$CIE, _MSC_HandleStateSendingShortPkt
$C$DW$128	.dwtag  DW_TAG_formal_parameter, DW_AT_name("pMscHandle")
	.dwattr $C$DW$128, DW_AT_TI_symbol_name("_pMscHandle")
	.dwattr $C$DW$128, DW_AT_type(*$C$DW$T$140)
	.dwattr $C$DW$128, DW_AT_location[DW_OP_reg17]
$C$DW$129	.dwtag  DW_TAG_formal_parameter, DW_AT_name("hUsbInEp")
	.dwattr $C$DW$129, DW_AT_TI_symbol_name("_hUsbInEp")
	.dwattr $C$DW$129, DW_AT_type(*$C$DW$T$27)
	.dwattr $C$DW$129, DW_AT_location[DW_OP_reg19]
;*******************************************************************************
;* FUNCTION NAME: MSC_HandleStateSendingShortPkt                               *
;*                                                                             *
;*   Function Uses Regs : T0,T1,AR0,XAR0,AR1,XAR1,AR3,XAR3,SP,M40,SATA,SATD,   *
;*                        RDM,FRCT,SMUL                                        *
;*   Stack Frame        : Compact (No Frame Pointer, w/ debug)                 *
;*   Total Frame Size   : 6 words                                              *
;*                        (1 return address/alignment)                         *
;*                        (5 local values)                                     *
;*   Min System Stack   : 1 word                                               *
;*******************************************************************************
_MSC_HandleStateSendingShortPkt:
	.dwcfi	cfa_offset, 1
	.dwcfi	save_reg_to_mem, 91, -1
        AADD #-5, SP
	.dwcfi	cfa_offset, 6
$C$DW$130	.dwtag  DW_TAG_variable, DW_AT_name("pMscHandle")
	.dwattr $C$DW$130, DW_AT_TI_symbol_name("_pMscHandle")
	.dwattr $C$DW$130, DW_AT_type(*$C$DW$T$140)
	.dwattr $C$DW$130, DW_AT_location[DW_OP_bregx 0x24 0]
$C$DW$131	.dwtag  DW_TAG_variable, DW_AT_name("hUsbInEp")
	.dwattr $C$DW$131, DW_AT_TI_symbol_name("_hUsbInEp")
	.dwattr $C$DW$131, DW_AT_type(*$C$DW$T$27)
	.dwattr $C$DW$131, DW_AT_location[DW_OP_bregx 0x24 2]
$C$DW$132	.dwtag  DW_TAG_variable, DW_AT_name("status")
	.dwattr $C$DW$132, DW_AT_TI_symbol_name("_status")
	.dwattr $C$DW$132, DW_AT_type(*$C$DW$T$86)
	.dwattr $C$DW$132, DW_AT_location[DW_OP_bregx 0x24 4]
        MOV XAR1, dbl(*SP(#2))
        MOV XAR0, dbl(*SP(#0))
	.dwpsn	file "./inc/csl_mscAux.h",line 535,column 2,is_stmt
        MOV dbl(*SP(#0)), XAR3
        MOV #2, *AR3(#319) ; |535| 
	.dwpsn	file "./inc/csl_mscAux.h",line 537,column 2,is_stmt
        MOV dbl(*SP(#2)), XAR0
$C$DW$133	.dwtag  DW_TAG_TI_branch
	.dwattr $C$DW$133, DW_AT_low_pc(0x00)
	.dwattr $C$DW$133, DW_AT_name("_USB_stallEndpt")
	.dwattr $C$DW$133, DW_AT_TI_call
        CALL #_USB_stallEndpt ; |537| 
                                        ; call occurs [#_USB_stallEndpt] ; |537| 
        MOV T0, *SP(#4) ; |537| 
	.dwpsn	file "./inc/csl_mscAux.h",line 540,column 2,is_stmt
        MOV dbl(*SP(#0)), XAR1
        MOV #32, T1 ; |540| 
        MOV dbl(*SP(#2)), XAR0
        AMAR *+AR1(#282) ; |540| 
$C$DW$134	.dwtag  DW_TAG_TI_branch
	.dwattr $C$DW$134, DW_AT_low_pc(0x00)
	.dwattr $C$DW$134, DW_AT_name("_USB_postTransaction")
	.dwattr $C$DW$134, DW_AT_TI_call

        CALL #_USB_postTransaction ; |540| 
||      MOV #0, T0

                                        ; call occurs [#_USB_postTransaction] ; |540| 
        OR *SP(#4), T0, AR1 ; |540| 
        MOV AR1, *SP(#4) ; |540| 
	.dwpsn	file "./inc/csl_mscAux.h",line 544,column 2,is_stmt
        MOV AR1, T0
	.dwpsn	file "./inc/csl_mscAux.h",line 545,column 1,is_stmt
        AADD #5, SP
	.dwcfi	cfa_offset, 1
$C$DW$135	.dwtag  DW_TAG_TI_branch
	.dwattr $C$DW$135, DW_AT_low_pc(0x00)
	.dwattr $C$DW$135, DW_AT_TI_return
        RET
                                        ; return occurs
	.dwattr $C$DW$127, DW_AT_TI_end_file("./inc/csl_mscAux.h")
	.dwattr $C$DW$127, DW_AT_TI_end_line(0x221)
	.dwattr $C$DW$127, DW_AT_TI_end_column(0x01)
	.dwendentry
	.dwendtag $C$DW$127

	.sect	".text"

$C$DW$136	.dwtag  DW_TAG_subprogram, DW_AT_name("MSC_HandleModeSense6")
	.dwattr $C$DW$136, DW_AT_low_pc(_MSC_HandleModeSense6)
	.dwattr $C$DW$136, DW_AT_high_pc(0x00)
	.dwattr $C$DW$136, DW_AT_TI_symbol_name("_MSC_HandleModeSense6")
	.dwattr $C$DW$136, DW_AT_type(*$C$DW$T$86)
	.dwattr $C$DW$136, DW_AT_TI_begin_file("./inc/csl_mscAux.h")
	.dwattr $C$DW$136, DW_AT_TI_begin_line(0x251)
	.dwattr $C$DW$136, DW_AT_TI_begin_column(0x0c)
	.dwattr $C$DW$136, DW_AT_TI_max_frame_size(0x0a)
	.dwpsn	file "./inc/csl_mscAux.h",line 596,column 1,is_stmt,address _MSC_HandleModeSense6

	.dwfde $C$DW$CIE, _MSC_HandleModeSense6
$C$DW$137	.dwtag  DW_TAG_formal_parameter, DW_AT_name("pMscHandle")
	.dwattr $C$DW$137, DW_AT_TI_symbol_name("_pMscHandle")
	.dwattr $C$DW$137, DW_AT_type(*$C$DW$T$140)
	.dwattr $C$DW$137, DW_AT_location[DW_OP_reg17]
$C$DW$138	.dwtag  DW_TAG_formal_parameter, DW_AT_name("hUsbInEp")
	.dwattr $C$DW$138, DW_AT_TI_symbol_name("_hUsbInEp")
	.dwattr $C$DW$138, DW_AT_type(*$C$DW$T$27)
	.dwattr $C$DW$138, DW_AT_location[DW_OP_reg19]
$C$DW$139	.dwtag  DW_TAG_formal_parameter, DW_AT_name("logicalUnit")
	.dwattr $C$DW$139, DW_AT_TI_symbol_name("_logicalUnit")
	.dwattr $C$DW$139, DW_AT_type(*$C$DW$T$30)
	.dwattr $C$DW$139, DW_AT_location[DW_OP_reg12]
;*******************************************************************************
;* FUNCTION NAME: MSC_HandleModeSense6                                         *
;*                                                                             *
;*   Function Uses Regs : AC0,AC0,AC1,AC1,T0,T1,AR0,XAR0,AR1,XAR1,AR2,AR3,XAR3,*
;*                        SP,CARRY,TC1,M40,SATA,SATD,RDM,FRCT,SMUL             *
;*   Stack Frame        : Compact (No Frame Pointer, w/ debug)                 *
;*   Total Frame Size   : 10 words                                             *
;*                        (2 return address/alignment)                         *
;*                        (8 local values)                                     *
;*   Min System Stack   : 1 word                                               *
;*******************************************************************************
_MSC_HandleModeSense6:
	.dwcfi	cfa_offset, 1
	.dwcfi	save_reg_to_mem, 91, -1
        AADD #-9, SP
	.dwcfi	cfa_offset, 10
$C$DW$140	.dwtag  DW_TAG_variable, DW_AT_name("pMscHandle")
	.dwattr $C$DW$140, DW_AT_TI_symbol_name("_pMscHandle")
	.dwattr $C$DW$140, DW_AT_type(*$C$DW$T$140)
	.dwattr $C$DW$140, DW_AT_location[DW_OP_bregx 0x24 0]
$C$DW$141	.dwtag  DW_TAG_variable, DW_AT_name("hUsbInEp")
	.dwattr $C$DW$141, DW_AT_TI_symbol_name("_hUsbInEp")
	.dwattr $C$DW$141, DW_AT_type(*$C$DW$T$27)
	.dwattr $C$DW$141, DW_AT_location[DW_OP_bregx 0x24 2]
$C$DW$142	.dwtag  DW_TAG_variable, DW_AT_name("logicalUnit")
	.dwattr $C$DW$142, DW_AT_TI_symbol_name("_logicalUnit")
	.dwattr $C$DW$142, DW_AT_type(*$C$DW$T$30)
	.dwattr $C$DW$142, DW_AT_location[DW_OP_bregx 0x24 4]
$C$DW$143	.dwtag  DW_TAG_variable, DW_AT_name("status")
	.dwattr $C$DW$143, DW_AT_TI_symbol_name("_status")
	.dwattr $C$DW$143, DW_AT_type(*$C$DW$T$86)
	.dwattr $C$DW$143, DW_AT_location[DW_OP_bregx 0x24 5]
$C$DW$144	.dwtag  DW_TAG_variable, DW_AT_name("modeSenseLen")
	.dwattr $C$DW$144, DW_AT_TI_symbol_name("_modeSenseLen")
	.dwattr $C$DW$144, DW_AT_type(*$C$DW$T$30)
	.dwattr $C$DW$144, DW_AT_location[DW_OP_bregx 0x24 6]
$C$DW$145	.dwtag  DW_TAG_variable, DW_AT_name("smallerLen")
	.dwattr $C$DW$145, DW_AT_TI_symbol_name("_smallerLen")
	.dwattr $C$DW$145, DW_AT_type(*$C$DW$T$30)
	.dwattr $C$DW$145, DW_AT_location[DW_OP_bregx 0x24 7]
        MOV T0, *SP(#4) ; |596| 
        MOV XAR1, dbl(*SP(#2))
        MOV XAR0, dbl(*SP(#0))
	.dwpsn	file "./inc/csl_mscAux.h",line 602,column 2,is_stmt
        MOV dbl(*SP(#0)), XAR3
        MOV *AR3(#303), AR1 ; |602| 

        AND #0x0080, AR1, AR1 ; |602| 
||      MOV #128, AR2 ; |602| 

        CMPU AR1 == AR2, TC1 ; |602| 
        BCC $C$L10,TC1 ; |602| 
                                        ; branchcc occurs ; |602| 
        MOV dbl(*AR3(#16)), AC0 ; |602| 
        BCC $C$L10,AC0 == #0 ; |602| 
                                        ; branchcc occurs ; |602| 
	.dwpsn	file "./inc/csl_mscAux.h",line 606,column 3,is_stmt
        MOV #2, *AR3(#289) ; |606| 
	.dwpsn	file "./inc/csl_mscAux.h",line 609,column 3,is_stmt
        MOV dbl(*SP(#0)), XAR3
        MOV #2, *AR3(#319) ; |609| 
	.dwpsn	file "./inc/csl_mscAux.h",line 610,column 3,is_stmt
        MOV dbl(*SP(#0)), XAR3
        MOV dbl(*AR3(#314)), XAR0
$C$DW$146	.dwtag  DW_TAG_TI_branch
	.dwattr $C$DW$146, DW_AT_low_pc(0x00)
	.dwattr $C$DW$146, DW_AT_name("_USB_stallEndpt")
	.dwattr $C$DW$146, DW_AT_TI_call
        CALL #_USB_stallEndpt ; |610| 
                                        ; call occurs [#_USB_stallEndpt] ; |610| 
        MOV T0, *SP(#5) ; |610| 
	.dwpsn	file "./inc/csl_mscAux.h",line 611,column 3,is_stmt
        MOV dbl(*SP(#0)), XAR3
        MOV dbl(*AR3(#316)), XAR0
$C$DW$147	.dwtag  DW_TAG_TI_branch
	.dwattr $C$DW$147, DW_AT_low_pc(0x00)
	.dwattr $C$DW$147, DW_AT_name("_USB_stallEndpt")
	.dwattr $C$DW$147, DW_AT_TI_call
        CALL #_USB_stallEndpt ; |611| 
                                        ; call occurs [#_USB_stallEndpt] ; |611| 
        MOV T0, *SP(#5) ; |611| 
	.dwpsn	file "./inc/csl_mscAux.h",line 614,column 3,is_stmt
        MOV dbl(*SP(#0)), XAR3
        MOV #32, T1 ; |614| 
        MOV dbl(*AR3(#314)), XAR0
        MOV dbl(*AR3(#14)), XAR1
$C$DW$148	.dwtag  DW_TAG_TI_branch
	.dwattr $C$DW$148, DW_AT_low_pc(0x00)
	.dwattr $C$DW$148, DW_AT_name("_USB_postTransaction")
	.dwattr $C$DW$148, DW_AT_TI_call

        CALL #_USB_postTransaction ; |614| 
||      MOV #0, T0

                                        ; call occurs [#_USB_postTransaction] ; |614| 
        MOV T0, *SP(#5) ; |614| 
	.dwpsn	file "./inc/csl_mscAux.h",line 618,column 3,is_stmt
        B $C$L15  ; |618| 
                                        ; branch occurs ; |618| 
$C$L10:    
	.dwpsn	file "./inc/csl_mscAux.h",line 621,column 2,is_stmt
        MOV dbl(*AR3(#16)), AC0 ; |621| 
        BCC $C$L13,AC0 == #0 ; |621| 
                                        ; branchcc occurs ; |621| 
	.dwpsn	file "./inc/csl_mscAux.h",line 623,column 3,is_stmt
        MOV *AR3(#320), AR1 ; |623| 
        MOV AR1, *SP(#6) ; |623| 
	.dwpsn	file "./inc/csl_mscAux.h",line 626,column 3,is_stmt
        MOV dbl(*SP(#0)), XAR3
        MOV uns(*SP(#6)), AC1 ; |626| 
        MOV dbl(*AR3(#16)), AC0 ; |626| 
        CMPU AC1 >= AC0, TC1 ; |626| 
        BCC $C$L11,TC1 ; |626| 
                                        ; branchcc occurs ; |626| 
	.dwpsn	file "./inc/csl_mscAux.h",line 628,column 4,is_stmt
        MOV AR1, *SP(#7) ; |628| 
	.dwpsn	file "./inc/csl_mscAux.h",line 629,column 3,is_stmt
        B $C$L12  ; |629| 
                                        ; branch occurs ; |629| 
$C$L11:    
	.dwpsn	file "./inc/csl_mscAux.h",line 632,column 4,is_stmt
        MOV dbl(*AR3(#16)), AC0 ; |632| 
        AND #0xffff, AC0, AC0 ; |632| 
        MOV AC0, *SP(#7) ; |632| 
$C$L12:    
	.dwpsn	file "./inc/csl_mscAux.h",line 637,column 3,is_stmt
        MOV dbl(*SP(#0)), XAR3
        MOV uns(*SP(#7)), AC0 ; |637| 
        SUB AC0, dbl(*AR3(#16)), AC0 ; |637| 
        MOV AC0, dbl(*AR3(#16)) ; |637| 
	.dwpsn	file "./inc/csl_mscAux.h",line 638,column 3,is_stmt
        MOV dbl(*SP(#0)), XAR3
        MOV dbl(*AR3(#16)), AC0 ; |638| 
        AND #0xffff, AC0, AC0 ; |638| 
        MOV AC0, *AR3(#287) ; |638| 
	.dwpsn	file "./inc/csl_mscAux.h",line 640,column 3,is_stmt
        MOV dbl(*SP(#0)), XAR3
        MOV dbl(*AR3(#16)), AC0 ; |640| 
        MOV HI(AC0), *AR3(#288) ; |640| 
	.dwpsn	file "./inc/csl_mscAux.h",line 642,column 3,is_stmt
        MOV dbl(*SP(#0)), XAR3
        MOV #0, *AR3(#289) ; |642| 
	.dwpsn	file "./inc/csl_mscAux.h",line 643,column 3,is_stmt
        MOV dbl(*SP(#0)), XAR1
        MOV dbl(*SP(#2)), XAR0
        MOV *SP(#7), T0 ; |643| 
        AMAR *+AR1(#321) ; |643| 
$C$DW$149	.dwtag  DW_TAG_TI_branch
	.dwattr $C$DW$149, DW_AT_low_pc(0x00)
	.dwattr $C$DW$149, DW_AT_name("_USB_postTransaction")
	.dwattr $C$DW$149, DW_AT_TI_call

        CALL #_USB_postTransaction ; |643| 
||      MOV #1, T1

                                        ; call occurs [#_USB_postTransaction] ; |643| 
        MOV T0, *SP(#5) ; |643| 
	.dwpsn	file "./inc/csl_mscAux.h",line 647,column 3,is_stmt
        MOV dbl(*SP(#0)), XAR3
        MOV #3, *AR3(#319) ; |647| 
	.dwpsn	file "./inc/csl_mscAux.h",line 648,column 2,is_stmt
        B $C$L14  ; |648| 
                                        ; branch occurs ; |648| 
$C$L13:    
	.dwpsn	file "./inc/csl_mscAux.h",line 651,column 3,is_stmt
        MOV dbl(*SP(#2)), XAR1
$C$DW$150	.dwtag  DW_TAG_TI_branch
	.dwattr $C$DW$150, DW_AT_low_pc(0x00)
	.dwattr $C$DW$150, DW_AT_name("_MSC_sendCswWithPhaseError")
	.dwattr $C$DW$150, DW_AT_TI_call
        CALL #_MSC_sendCswWithPhaseError ; |651| 
                                        ; call occurs [#_MSC_sendCswWithPhaseError] ; |651| 
        MOV T0, *SP(#5) ; |651| 
$C$L14:    
	.dwpsn	file "./inc/csl_mscAux.h",line 654,column 2,is_stmt
        MOV *SP(#5), T0 ; |654| 
$C$L15:    
	.dwpsn	file "./inc/csl_mscAux.h",line 655,column 1,is_stmt
        AADD #9, SP
	.dwcfi	cfa_offset, 1
$C$DW$151	.dwtag  DW_TAG_TI_branch
	.dwattr $C$DW$151, DW_AT_low_pc(0x00)
	.dwattr $C$DW$151, DW_AT_TI_return
        RET
                                        ; return occurs
	.dwattr $C$DW$136, DW_AT_TI_end_file("./inc/csl_mscAux.h")
	.dwattr $C$DW$136, DW_AT_TI_end_line(0x28f)
	.dwattr $C$DW$136, DW_AT_TI_end_column(0x01)
	.dwendentry
	.dwendtag $C$DW$136

	.sect	".text"

$C$DW$152	.dwtag  DW_TAG_subprogram, DW_AT_name("MSC_HandleModeSense10")
	.dwattr $C$DW$152, DW_AT_low_pc(_MSC_HandleModeSense10)
	.dwattr $C$DW$152, DW_AT_high_pc(0x00)
	.dwattr $C$DW$152, DW_AT_TI_symbol_name("_MSC_HandleModeSense10")
	.dwattr $C$DW$152, DW_AT_type(*$C$DW$T$86)
	.dwattr $C$DW$152, DW_AT_TI_begin_file("./inc/csl_mscAux.h")
	.dwattr $C$DW$152, DW_AT_TI_begin_line(0x2bf)
	.dwattr $C$DW$152, DW_AT_TI_begin_column(0x0c)
	.dwattr $C$DW$152, DW_AT_TI_max_frame_size(0x0a)
	.dwpsn	file "./inc/csl_mscAux.h",line 706,column 1,is_stmt,address _MSC_HandleModeSense10

	.dwfde $C$DW$CIE, _MSC_HandleModeSense10
$C$DW$153	.dwtag  DW_TAG_formal_parameter, DW_AT_name("pMscHandle")
	.dwattr $C$DW$153, DW_AT_TI_symbol_name("_pMscHandle")
	.dwattr $C$DW$153, DW_AT_type(*$C$DW$T$140)
	.dwattr $C$DW$153, DW_AT_location[DW_OP_reg17]
$C$DW$154	.dwtag  DW_TAG_formal_parameter, DW_AT_name("hUsbInEp")
	.dwattr $C$DW$154, DW_AT_TI_symbol_name("_hUsbInEp")
	.dwattr $C$DW$154, DW_AT_type(*$C$DW$T$27)
	.dwattr $C$DW$154, DW_AT_location[DW_OP_reg19]
$C$DW$155	.dwtag  DW_TAG_formal_parameter, DW_AT_name("logicalUnit")
	.dwattr $C$DW$155, DW_AT_TI_symbol_name("_logicalUnit")
	.dwattr $C$DW$155, DW_AT_type(*$C$DW$T$30)
	.dwattr $C$DW$155, DW_AT_location[DW_OP_reg12]
;*******************************************************************************
;* FUNCTION NAME: MSC_HandleModeSense10                                        *
;*                                                                             *
;*   Function Uses Regs : AC0,AC0,AC1,AC1,T0,T1,AR0,XAR0,AR1,XAR1,AR2,AR3,XAR3,*
;*                        SP,CARRY,TC1,M40,SATA,SATD,RDM,FRCT,SMUL             *
;*   Stack Frame        : Compact (No Frame Pointer, w/ debug)                 *
;*   Total Frame Size   : 10 words                                             *
;*                        (2 return address/alignment)                         *
;*                        (8 local values)                                     *
;*   Min System Stack   : 1 word                                               *
;*******************************************************************************
_MSC_HandleModeSense10:
	.dwcfi	cfa_offset, 1
	.dwcfi	save_reg_to_mem, 91, -1
        AADD #-9, SP
	.dwcfi	cfa_offset, 10
$C$DW$156	.dwtag  DW_TAG_variable, DW_AT_name("pMscHandle")
	.dwattr $C$DW$156, DW_AT_TI_symbol_name("_pMscHandle")
	.dwattr $C$DW$156, DW_AT_type(*$C$DW$T$140)
	.dwattr $C$DW$156, DW_AT_location[DW_OP_bregx 0x24 0]
$C$DW$157	.dwtag  DW_TAG_variable, DW_AT_name("hUsbInEp")
	.dwattr $C$DW$157, DW_AT_TI_symbol_name("_hUsbInEp")
	.dwattr $C$DW$157, DW_AT_type(*$C$DW$T$27)
	.dwattr $C$DW$157, DW_AT_location[DW_OP_bregx 0x24 2]
$C$DW$158	.dwtag  DW_TAG_variable, DW_AT_name("logicalUnit")
	.dwattr $C$DW$158, DW_AT_TI_symbol_name("_logicalUnit")
	.dwattr $C$DW$158, DW_AT_type(*$C$DW$T$30)
	.dwattr $C$DW$158, DW_AT_location[DW_OP_bregx 0x24 4]
$C$DW$159	.dwtag  DW_TAG_variable, DW_AT_name("status")
	.dwattr $C$DW$159, DW_AT_TI_symbol_name("_status")
	.dwattr $C$DW$159, DW_AT_type(*$C$DW$T$86)
	.dwattr $C$DW$159, DW_AT_location[DW_OP_bregx 0x24 5]
$C$DW$160	.dwtag  DW_TAG_variable, DW_AT_name("modeSenseLen")
	.dwattr $C$DW$160, DW_AT_TI_symbol_name("_modeSenseLen")
	.dwattr $C$DW$160, DW_AT_type(*$C$DW$T$30)
	.dwattr $C$DW$160, DW_AT_location[DW_OP_bregx 0x24 6]
$C$DW$161	.dwtag  DW_TAG_variable, DW_AT_name("smallerLen")
	.dwattr $C$DW$161, DW_AT_TI_symbol_name("_smallerLen")
	.dwattr $C$DW$161, DW_AT_type(*$C$DW$T$30)
	.dwattr $C$DW$161, DW_AT_location[DW_OP_bregx 0x24 7]
        MOV T0, *SP(#4) ; |706| 
        MOV XAR1, dbl(*SP(#2))
        MOV XAR0, dbl(*SP(#0))
	.dwpsn	file "./inc/csl_mscAux.h",line 712,column 2,is_stmt
        MOV dbl(*SP(#0)), XAR3
        MOV *AR3(#303), AR1 ; |712| 

        AND #0x0080, AR1, AR1 ; |712| 
||      MOV #128, AR2 ; |712| 

        CMPU AR1 == AR2, TC1 ; |712| 
        BCC $C$L16,TC1 ; |712| 
                                        ; branchcc occurs ; |712| 
        MOV dbl(*AR3(#16)), AC0 ; |712| 
        BCC $C$L16,AC0 == #0 ; |712| 
                                        ; branchcc occurs ; |712| 
	.dwpsn	file "./inc/csl_mscAux.h",line 716,column 3,is_stmt
        MOV #2, *AR3(#289) ; |716| 
	.dwpsn	file "./inc/csl_mscAux.h",line 719,column 3,is_stmt
        MOV dbl(*SP(#0)), XAR3
        MOV #2, *AR3(#319) ; |719| 
	.dwpsn	file "./inc/csl_mscAux.h",line 720,column 3,is_stmt
        MOV dbl(*SP(#0)), XAR3
        MOV dbl(*AR3(#314)), XAR0
$C$DW$162	.dwtag  DW_TAG_TI_branch
	.dwattr $C$DW$162, DW_AT_low_pc(0x00)
	.dwattr $C$DW$162, DW_AT_name("_USB_stallEndpt")
	.dwattr $C$DW$162, DW_AT_TI_call
        CALL #_USB_stallEndpt ; |720| 
                                        ; call occurs [#_USB_stallEndpt] ; |720| 
        MOV T0, *SP(#5) ; |720| 
	.dwpsn	file "./inc/csl_mscAux.h",line 721,column 3,is_stmt
        MOV dbl(*SP(#0)), XAR3
        MOV dbl(*AR3(#316)), XAR0
$C$DW$163	.dwtag  DW_TAG_TI_branch
	.dwattr $C$DW$163, DW_AT_low_pc(0x00)
	.dwattr $C$DW$163, DW_AT_name("_USB_stallEndpt")
	.dwattr $C$DW$163, DW_AT_TI_call
        CALL #_USB_stallEndpt ; |721| 
                                        ; call occurs [#_USB_stallEndpt] ; |721| 
        MOV T0, *SP(#5) ; |721| 
	.dwpsn	file "./inc/csl_mscAux.h",line 724,column 3,is_stmt
        MOV dbl(*SP(#0)), XAR3
        MOV #32, T1 ; |724| 
        MOV dbl(*AR3(#314)), XAR0
        MOV dbl(*AR3(#14)), XAR1
$C$DW$164	.dwtag  DW_TAG_TI_branch
	.dwattr $C$DW$164, DW_AT_low_pc(0x00)
	.dwattr $C$DW$164, DW_AT_name("_USB_postTransaction")
	.dwattr $C$DW$164, DW_AT_TI_call

        CALL #_USB_postTransaction ; |724| 
||      MOV #0, T0

                                        ; call occurs [#_USB_postTransaction] ; |724| 
        MOV T0, *SP(#5) ; |724| 
	.dwpsn	file "./inc/csl_mscAux.h",line 728,column 3,is_stmt
        B $C$L21  ; |728| 
                                        ; branch occurs ; |728| 
$C$L16:    
	.dwpsn	file "./inc/csl_mscAux.h",line 731,column 2,is_stmt
        MOV dbl(*AR3(#16)), AC0 ; |731| 
        BCC $C$L19,AC0 == #0 ; |731| 
                                        ; branchcc occurs ; |731| 
	.dwpsn	file "./inc/csl_mscAux.h",line 733,column 3,is_stmt
        MOV *AR3(#320), AR1 ; |733| 
        MOV AR1, *SP(#6) ; |733| 
	.dwpsn	file "./inc/csl_mscAux.h",line 736,column 3,is_stmt
        MOV dbl(*SP(#0)), XAR3
        MOV uns(*SP(#6)), AC1 ; |736| 
        MOV dbl(*AR3(#16)), AC0 ; |736| 
        CMPU AC1 >= AC0, TC1 ; |736| 
        BCC $C$L17,TC1 ; |736| 
                                        ; branchcc occurs ; |736| 
	.dwpsn	file "./inc/csl_mscAux.h",line 738,column 4,is_stmt
        MOV AR1, *SP(#7) ; |738| 
	.dwpsn	file "./inc/csl_mscAux.h",line 739,column 3,is_stmt
        B $C$L18  ; |739| 
                                        ; branch occurs ; |739| 
$C$L17:    
	.dwpsn	file "./inc/csl_mscAux.h",line 742,column 4,is_stmt
        MOV dbl(*AR3(#16)), AC0 ; |742| 
        AND #0xffff, AC0, AC0 ; |742| 
        MOV AC0, *SP(#7) ; |742| 
$C$L18:    
	.dwpsn	file "./inc/csl_mscAux.h",line 747,column 3,is_stmt
        MOV dbl(*SP(#0)), XAR3
        MOV uns(*SP(#7)), AC0 ; |747| 
        SUB AC0, dbl(*AR3(#16)), AC0 ; |747| 
        MOV AC0, dbl(*AR3(#16)) ; |747| 
	.dwpsn	file "./inc/csl_mscAux.h",line 748,column 3,is_stmt
        MOV dbl(*SP(#0)), XAR3
        MOV dbl(*AR3(#16)), AC0 ; |748| 
        AND #0xffff, AC0, AC0 ; |748| 
        MOV AC0, *AR3(#287) ; |748| 
	.dwpsn	file "./inc/csl_mscAux.h",line 750,column 3,is_stmt
        MOV dbl(*SP(#0)), XAR3
        MOV dbl(*AR3(#16)), AC0 ; |750| 
        MOV HI(AC0), *AR3(#288) ; |750| 
	.dwpsn	file "./inc/csl_mscAux.h",line 752,column 3,is_stmt
        MOV dbl(*SP(#0)), XAR3
        MOV #0, *AR3(#289) ; |752| 
	.dwpsn	file "./inc/csl_mscAux.h",line 753,column 3,is_stmt
        MOV dbl(*SP(#0)), XAR1
        MOV dbl(*SP(#2)), XAR0
        MOV *SP(#7), T0 ; |753| 
        AMAR *+AR1(#321) ; |753| 
$C$DW$165	.dwtag  DW_TAG_TI_branch
	.dwattr $C$DW$165, DW_AT_low_pc(0x00)
	.dwattr $C$DW$165, DW_AT_name("_USB_postTransaction")
	.dwattr $C$DW$165, DW_AT_TI_call

        CALL #_USB_postTransaction ; |753| 
||      MOV #1, T1

                                        ; call occurs [#_USB_postTransaction] ; |753| 
        MOV T0, *SP(#5) ; |753| 
	.dwpsn	file "./inc/csl_mscAux.h",line 757,column 3,is_stmt
        MOV dbl(*SP(#0)), XAR3
        MOV #3, *AR3(#319) ; |757| 
	.dwpsn	file "./inc/csl_mscAux.h",line 758,column 2,is_stmt
        B $C$L20  ; |758| 
                                        ; branch occurs ; |758| 
$C$L19:    
	.dwpsn	file "./inc/csl_mscAux.h",line 761,column 3,is_stmt
        MOV dbl(*SP(#2)), XAR1
$C$DW$166	.dwtag  DW_TAG_TI_branch
	.dwattr $C$DW$166, DW_AT_low_pc(0x00)
	.dwattr $C$DW$166, DW_AT_name("_MSC_sendCswWithPhaseError")
	.dwattr $C$DW$166, DW_AT_TI_call
        CALL #_MSC_sendCswWithPhaseError ; |761| 
                                        ; call occurs [#_MSC_sendCswWithPhaseError] ; |761| 
        MOV T0, *SP(#5) ; |761| 
$C$L20:    
	.dwpsn	file "./inc/csl_mscAux.h",line 764,column 2,is_stmt
        MOV *SP(#5), T0 ; |764| 
$C$L21:    
	.dwpsn	file "./inc/csl_mscAux.h",line 765,column 1,is_stmt
        AADD #9, SP
	.dwcfi	cfa_offset, 1
$C$DW$167	.dwtag  DW_TAG_TI_branch
	.dwattr $C$DW$167, DW_AT_low_pc(0x00)
	.dwattr $C$DW$167, DW_AT_TI_return
        RET
                                        ; return occurs
	.dwattr $C$DW$152, DW_AT_TI_end_file("./inc/csl_mscAux.h")
	.dwattr $C$DW$152, DW_AT_TI_end_line(0x2fd)
	.dwattr $C$DW$152, DW_AT_TI_end_column(0x01)
	.dwendentry
	.dwendtag $C$DW$152

	.sect	".text"

$C$DW$168	.dwtag  DW_TAG_subprogram, DW_AT_name("MSC_HandleInquiry")
	.dwattr $C$DW$168, DW_AT_low_pc(_MSC_HandleInquiry)
	.dwattr $C$DW$168, DW_AT_high_pc(0x00)
	.dwattr $C$DW$168, DW_AT_TI_symbol_name("_MSC_HandleInquiry")
	.dwattr $C$DW$168, DW_AT_type(*$C$DW$T$86)
	.dwattr $C$DW$168, DW_AT_TI_begin_file("./inc/csl_mscAux.h")
	.dwattr $C$DW$168, DW_AT_TI_begin_line(0x32d)
	.dwattr $C$DW$168, DW_AT_TI_begin_column(0x0c)
	.dwattr $C$DW$168, DW_AT_TI_max_frame_size(0x0a)
	.dwpsn	file "./inc/csl_mscAux.h",line 816,column 1,is_stmt,address _MSC_HandleInquiry

	.dwfde $C$DW$CIE, _MSC_HandleInquiry
$C$DW$169	.dwtag  DW_TAG_formal_parameter, DW_AT_name("pMscHandle")
	.dwattr $C$DW$169, DW_AT_TI_symbol_name("_pMscHandle")
	.dwattr $C$DW$169, DW_AT_type(*$C$DW$T$140)
	.dwattr $C$DW$169, DW_AT_location[DW_OP_reg17]
$C$DW$170	.dwtag  DW_TAG_formal_parameter, DW_AT_name("hUsbInEp")
	.dwattr $C$DW$170, DW_AT_TI_symbol_name("_hUsbInEp")
	.dwattr $C$DW$170, DW_AT_type(*$C$DW$T$27)
	.dwattr $C$DW$170, DW_AT_location[DW_OP_reg19]
$C$DW$171	.dwtag  DW_TAG_formal_parameter, DW_AT_name("logicalUnit")
	.dwattr $C$DW$171, DW_AT_TI_symbol_name("_logicalUnit")
	.dwattr $C$DW$171, DW_AT_type(*$C$DW$T$30)
	.dwattr $C$DW$171, DW_AT_location[DW_OP_reg12]
;*******************************************************************************
;* FUNCTION NAME: MSC_HandleInquiry                                            *
;*                                                                             *
;*   Function Uses Regs : AC0,AC0,AC1,AC1,T0,T1,AR0,XAR0,AR1,XAR1,AR2,AR3,XAR3,*
;*                        SP,CARRY,TC1,M40,SATA,SATD,RDM,FRCT,SMUL             *
;*   Stack Frame        : Compact (No Frame Pointer, w/ debug)                 *
;*   Total Frame Size   : 10 words                                             *
;*                        (2 return address/alignment)                         *
;*                        (8 local values)                                     *
;*   Min System Stack   : 1 word                                               *
;*******************************************************************************
_MSC_HandleInquiry:
	.dwcfi	cfa_offset, 1
	.dwcfi	save_reg_to_mem, 91, -1
        AADD #-9, SP
	.dwcfi	cfa_offset, 10
$C$DW$172	.dwtag  DW_TAG_variable, DW_AT_name("pMscHandle")
	.dwattr $C$DW$172, DW_AT_TI_symbol_name("_pMscHandle")
	.dwattr $C$DW$172, DW_AT_type(*$C$DW$T$140)
	.dwattr $C$DW$172, DW_AT_location[DW_OP_bregx 0x24 0]
$C$DW$173	.dwtag  DW_TAG_variable, DW_AT_name("hUsbInEp")
	.dwattr $C$DW$173, DW_AT_TI_symbol_name("_hUsbInEp")
	.dwattr $C$DW$173, DW_AT_type(*$C$DW$T$27)
	.dwattr $C$DW$173, DW_AT_location[DW_OP_bregx 0x24 2]
$C$DW$174	.dwtag  DW_TAG_variable, DW_AT_name("logicalUnit")
	.dwattr $C$DW$174, DW_AT_TI_symbol_name("_logicalUnit")
	.dwattr $C$DW$174, DW_AT_type(*$C$DW$T$30)
	.dwattr $C$DW$174, DW_AT_location[DW_OP_bregx 0x24 4]
$C$DW$175	.dwtag  DW_TAG_variable, DW_AT_name("status")
	.dwattr $C$DW$175, DW_AT_TI_symbol_name("_status")
	.dwattr $C$DW$175, DW_AT_type(*$C$DW$T$86)
	.dwattr $C$DW$175, DW_AT_location[DW_OP_bregx 0x24 5]
$C$DW$176	.dwtag  DW_TAG_variable, DW_AT_name("cbwRespLen")
	.dwattr $C$DW$176, DW_AT_TI_symbol_name("_cbwRespLen")
	.dwattr $C$DW$176, DW_AT_type(*$C$DW$T$30)
	.dwattr $C$DW$176, DW_AT_location[DW_OP_bregx 0x24 6]
$C$DW$177	.dwtag  DW_TAG_variable, DW_AT_name("smallerLen")
	.dwattr $C$DW$177, DW_AT_TI_symbol_name("_smallerLen")
	.dwattr $C$DW$177, DW_AT_type(*$C$DW$T$30)
	.dwattr $C$DW$177, DW_AT_location[DW_OP_bregx 0x24 7]
        MOV T0, *SP(#4) ; |816| 
        MOV XAR1, dbl(*SP(#2))
        MOV XAR0, dbl(*SP(#0))
	.dwpsn	file "./inc/csl_mscAux.h",line 822,column 2,is_stmt
        MOV dbl(*SP(#0)), XAR3
        MOV *AR3(#303), AR1 ; |822| 

        AND #0x0080, AR1, AR1 ; |822| 
||      MOV #128, AR2 ; |822| 

        CMPU AR1 == AR2, TC1 ; |822| 
        BCC $C$L22,TC1 ; |822| 
                                        ; branchcc occurs ; |822| 
        MOV dbl(*AR3(#16)), AC0 ; |822| 
        BCC $C$L22,AC0 == #0 ; |822| 
                                        ; branchcc occurs ; |822| 
	.dwpsn	file "./inc/csl_mscAux.h",line 826,column 3,is_stmt
        MOV #128, T0 ; |826| 
$C$DW$178	.dwtag  DW_TAG_TI_branch
	.dwattr $C$DW$178, DW_AT_low_pc(0x00)
	.dwattr $C$DW$178, DW_AT_name("_MSC_handleDataDirMisMatch")
	.dwattr $C$DW$178, DW_AT_TI_call
        CALL #_MSC_handleDataDirMisMatch ; |826| 
                                        ; call occurs [#_MSC_handleDataDirMisMatch] ; |826| 
        MOV T0, *SP(#5) ; |826| 
	.dwpsn	file "./inc/csl_mscAux.h",line 828,column 3,is_stmt
        B $C$L27  ; |828| 
                                        ; branch occurs ; |828| 
$C$L22:    
	.dwpsn	file "./inc/csl_mscAux.h",line 831,column 2,is_stmt
        MOV dbl(*AR3(#16)), AC0 ; |831| 
        BCC $C$L25,AC0 == #0 ; |831| 
                                        ; branchcc occurs ; |831| 
	.dwpsn	file "./inc/csl_mscAux.h",line 833,column 3,is_stmt
        MPYMK *SP(#4), #62, AC0 ; |833| 
        MOV AC0, AR1 ; |833| 
        AADD AR1, AR3 ; |833| 
        MOV *AR3(#18), AR1 ; |833| 
        MOV AR1, *SP(#6) ; |833| 
	.dwpsn	file "./inc/csl_mscAux.h",line 835,column 3,is_stmt
        MOV dbl(*SP(#0)), XAR3
        MOV uns(*SP(#6)), AC1 ; |835| 
        MOV dbl(*AR3(#16)), AC0 ; |835| 
        CMPU AC1 >= AC0, TC1 ; |835| 
        BCC $C$L23,TC1 ; |835| 
                                        ; branchcc occurs ; |835| 
	.dwpsn	file "./inc/csl_mscAux.h",line 837,column 4,is_stmt
        MOV AR1, *SP(#7) ; |837| 
	.dwpsn	file "./inc/csl_mscAux.h",line 838,column 4,is_stmt
        MOV dbl(*SP(#0)), XAR3
        MOV #7, *AR3(#319) ; |838| 
	.dwpsn	file "./inc/csl_mscAux.h",line 839,column 3,is_stmt
        B $C$L24  ; |839| 
                                        ; branch occurs ; |839| 
$C$L23:    
	.dwpsn	file "./inc/csl_mscAux.h",line 842,column 4,is_stmt
        MOV dbl(*AR3(#16)), AC0 ; |842| 
        AND #0xffff, AC0, AC0 ; |842| 
        MOV AC0, *SP(#7) ; |842| 
	.dwpsn	file "./inc/csl_mscAux.h",line 844,column 4,is_stmt
        MOV dbl(*SP(#0)), XAR3
        MOV #3, *AR3(#319) ; |844| 
$C$L24:    
	.dwpsn	file "./inc/csl_mscAux.h",line 848,column 3,is_stmt
        MOV dbl(*SP(#0)), XAR3
        MOV uns(*SP(#7)), AC0 ; |848| 
        SUB AC0, dbl(*AR3(#16)), AC0 ; |848| 
        MOV AC0, dbl(*AR3(#16)) ; |848| 
	.dwpsn	file "./inc/csl_mscAux.h",line 849,column 3,is_stmt
        MOV dbl(*SP(#0)), XAR3
        MOV dbl(*AR3(#16)), AC0 ; |849| 
        AND #0xffff, AC0, AC0 ; |849| 
        MOV AC0, *AR3(#287) ; |849| 
	.dwpsn	file "./inc/csl_mscAux.h",line 851,column 3,is_stmt
        MOV dbl(*SP(#0)), XAR3
        MOV dbl(*AR3(#16)), AC0 ; |851| 
        MOV HI(AC0), *AR3(#288) ; |851| 
	.dwpsn	file "./inc/csl_mscAux.h",line 853,column 3,is_stmt
        MOV dbl(*SP(#0)), XAR3
        MOV #0, *AR3(#289) ; |853| 
	.dwpsn	file "./inc/csl_mscAux.h",line 855,column 3,is_stmt
        MOV dbl(*SP(#0)), XAR1
        MPYMK *SP(#4), #62, AC0 ; |855| 
        MOV AC0, AR2 ; |855| 
        MOV dbl(*SP(#2)), XAR0
        AADD AR2, AR1 ; |855| 

        AADD #19, AR1 ; |855| 
||      MOV *SP(#7), T0 ; |855| 

$C$DW$179	.dwtag  DW_TAG_TI_branch
	.dwattr $C$DW$179, DW_AT_low_pc(0x00)
	.dwattr $C$DW$179, DW_AT_name("_USB_postTransaction")
	.dwattr $C$DW$179, DW_AT_TI_call

        CALL #_USB_postTransaction ; |855| 
||      MOV #1, T1

                                        ; call occurs [#_USB_postTransaction] ; |855| 
        MOV T0, *SP(#5) ; |855| 
	.dwpsn	file "./inc/csl_mscAux.h",line 858,column 2,is_stmt
        B $C$L26  ; |858| 
                                        ; branch occurs ; |858| 
$C$L25:    
	.dwpsn	file "./inc/csl_mscAux.h",line 861,column 3,is_stmt
        MOV dbl(*SP(#2)), XAR1
$C$DW$180	.dwtag  DW_TAG_TI_branch
	.dwattr $C$DW$180, DW_AT_low_pc(0x00)
	.dwattr $C$DW$180, DW_AT_name("_MSC_sendCswWithPhaseError")
	.dwattr $C$DW$180, DW_AT_TI_call
        CALL #_MSC_sendCswWithPhaseError ; |861| 
                                        ; call occurs [#_MSC_sendCswWithPhaseError] ; |861| 
        MOV T0, *SP(#5) ; |861| 
$C$L26:    
	.dwpsn	file "./inc/csl_mscAux.h",line 864,column 2,is_stmt
$C$L27:    
	.dwpsn	file "./inc/csl_mscAux.h",line 865,column 1,is_stmt
        AADD #9, SP
	.dwcfi	cfa_offset, 1
$C$DW$181	.dwtag  DW_TAG_TI_branch
	.dwattr $C$DW$181, DW_AT_low_pc(0x00)
	.dwattr $C$DW$181, DW_AT_TI_return
        RET
                                        ; return occurs
	.dwattr $C$DW$168, DW_AT_TI_end_file("./inc/csl_mscAux.h")
	.dwattr $C$DW$168, DW_AT_TI_end_line(0x361)
	.dwattr $C$DW$168, DW_AT_TI_end_column(0x01)
	.dwendentry
	.dwendtag $C$DW$168

	.sect	".text"

$C$DW$182	.dwtag  DW_TAG_subprogram, DW_AT_name("MSC_HandleRequestSense")
	.dwattr $C$DW$182, DW_AT_low_pc(_MSC_HandleRequestSense)
	.dwattr $C$DW$182, DW_AT_high_pc(0x00)
	.dwattr $C$DW$182, DW_AT_TI_symbol_name("_MSC_HandleRequestSense")
	.dwattr $C$DW$182, DW_AT_type(*$C$DW$T$86)
	.dwattr $C$DW$182, DW_AT_TI_begin_file("./inc/csl_mscAux.h")
	.dwattr $C$DW$182, DW_AT_TI_begin_line(0x390)
	.dwattr $C$DW$182, DW_AT_TI_begin_column(0x0c)
	.dwattr $C$DW$182, DW_AT_TI_max_frame_size(0x08)
	.dwpsn	file "./inc/csl_mscAux.h",line 914,column 1,is_stmt,address _MSC_HandleRequestSense

	.dwfde $C$DW$CIE, _MSC_HandleRequestSense
$C$DW$183	.dwtag  DW_TAG_formal_parameter, DW_AT_name("pMscHandle")
	.dwattr $C$DW$183, DW_AT_TI_symbol_name("_pMscHandle")
	.dwattr $C$DW$183, DW_AT_type(*$C$DW$T$140)
	.dwattr $C$DW$183, DW_AT_location[DW_OP_reg17]
$C$DW$184	.dwtag  DW_TAG_formal_parameter, DW_AT_name("hUsbInEp")
	.dwattr $C$DW$184, DW_AT_TI_symbol_name("_hUsbInEp")
	.dwattr $C$DW$184, DW_AT_type(*$C$DW$T$27)
	.dwattr $C$DW$184, DW_AT_location[DW_OP_reg19]
;*******************************************************************************
;* FUNCTION NAME: MSC_HandleRequestSense                                       *
;*                                                                             *
;*   Function Uses Regs : AC0,AC0,AC1,AC1,T0,T1,AR0,XAR0,AR1,XAR1,AR2,AR3,XAR3,*
;*                        SP,CARRY,TC1,M40,SATA,SATD,RDM,FRCT,SMUL             *
;*   Stack Frame        : Compact (No Frame Pointer, w/ debug)                 *
;*   Total Frame Size   : 8 words                                              *
;*                        (1 return address/alignment)                         *
;*                        (7 local values)                                     *
;*   Min System Stack   : 1 word                                               *
;*******************************************************************************
_MSC_HandleRequestSense:
	.dwcfi	cfa_offset, 1
	.dwcfi	save_reg_to_mem, 91, -1
        AADD #-7, SP
	.dwcfi	cfa_offset, 8
$C$DW$185	.dwtag  DW_TAG_variable, DW_AT_name("pMscHandle")
	.dwattr $C$DW$185, DW_AT_TI_symbol_name("_pMscHandle")
	.dwattr $C$DW$185, DW_AT_type(*$C$DW$T$140)
	.dwattr $C$DW$185, DW_AT_location[DW_OP_bregx 0x24 0]
$C$DW$186	.dwtag  DW_TAG_variable, DW_AT_name("hUsbInEp")
	.dwattr $C$DW$186, DW_AT_TI_symbol_name("_hUsbInEp")
	.dwattr $C$DW$186, DW_AT_type(*$C$DW$T$27)
	.dwattr $C$DW$186, DW_AT_location[DW_OP_bregx 0x24 2]
$C$DW$187	.dwtag  DW_TAG_variable, DW_AT_name("status")
	.dwattr $C$DW$187, DW_AT_TI_symbol_name("_status")
	.dwattr $C$DW$187, DW_AT_type(*$C$DW$T$86)
	.dwattr $C$DW$187, DW_AT_location[DW_OP_bregx 0x24 4]
$C$DW$188	.dwtag  DW_TAG_variable, DW_AT_name("cbwRespLen")
	.dwattr $C$DW$188, DW_AT_TI_symbol_name("_cbwRespLen")
	.dwattr $C$DW$188, DW_AT_type(*$C$DW$T$30)
	.dwattr $C$DW$188, DW_AT_location[DW_OP_bregx 0x24 5]
$C$DW$189	.dwtag  DW_TAG_variable, DW_AT_name("smallerLen")
	.dwattr $C$DW$189, DW_AT_TI_symbol_name("_smallerLen")
	.dwattr $C$DW$189, DW_AT_type(*$C$DW$T$30)
	.dwattr $C$DW$189, DW_AT_location[DW_OP_bregx 0x24 6]
        MOV XAR1, dbl(*SP(#2))
        MOV XAR0, dbl(*SP(#0))
	.dwpsn	file "./inc/csl_mscAux.h",line 920,column 2,is_stmt
        MOV dbl(*SP(#0)), XAR3
        MOV *AR3(#303), AR1 ; |920| 

        AND #0x0080, AR1, AR1 ; |920| 
||      MOV #128, AR2 ; |920| 

        CMPU AR1 == AR2, TC1 ; |920| 
        BCC $C$L28,TC1 ; |920| 
                                        ; branchcc occurs ; |920| 
        MOV dbl(*AR3(#16)), AC0 ; |920| 
        BCC $C$L28,AC0 == #0 ; |920| 
                                        ; branchcc occurs ; |920| 
	.dwpsn	file "./inc/csl_mscAux.h",line 924,column 3,is_stmt
        MOV #128, T0 ; |924| 
$C$DW$190	.dwtag  DW_TAG_TI_branch
	.dwattr $C$DW$190, DW_AT_low_pc(0x00)
	.dwattr $C$DW$190, DW_AT_name("_MSC_handleDataDirMisMatch")
	.dwattr $C$DW$190, DW_AT_TI_call
        CALL #_MSC_handleDataDirMisMatch ; |924| 
                                        ; call occurs [#_MSC_handleDataDirMisMatch] ; |924| 
        MOV T0, *SP(#4) ; |924| 
	.dwpsn	file "./inc/csl_mscAux.h",line 926,column 3,is_stmt
        B $C$L33  ; |926| 
                                        ; branch occurs ; |926| 
$C$L28:    
	.dwpsn	file "./inc/csl_mscAux.h",line 929,column 2,is_stmt
        MOV dbl(*AR3(#16)), AC0 ; |929| 
        BCC $C$L31,AC0 == #0 ; |929| 
                                        ; branchcc occurs ; |929| 
	.dwpsn	file "./inc/csl_mscAux.h",line 931,column 3,is_stmt
        MOV *AR3(#266), AR1 ; |931| 
        MOV AR1, *SP(#5) ; |931| 
	.dwpsn	file "./inc/csl_mscAux.h",line 934,column 3,is_stmt
        MOV dbl(*SP(#0)), XAR3
        MOV uns(*SP(#5)), AC1 ; |934| 
        MOV dbl(*AR3(#16)), AC0 ; |934| 
        CMPU AC1 >= AC0, TC1 ; |934| 
        BCC $C$L29,TC1 ; |934| 
                                        ; branchcc occurs ; |934| 
	.dwpsn	file "./inc/csl_mscAux.h",line 936,column 4,is_stmt
        MOV #7, *AR3(#319) ; |936| 
	.dwpsn	file "./inc/csl_mscAux.h",line 937,column 4,is_stmt
        MOV *SP(#5), AR1 ; |937| 
        MOV AR1, *SP(#6) ; |937| 
	.dwpsn	file "./inc/csl_mscAux.h",line 938,column 3,is_stmt
        B $C$L30  ; |938| 
                                        ; branch occurs ; |938| 
$C$L29:    
	.dwpsn	file "./inc/csl_mscAux.h",line 941,column 4,is_stmt
        MOV #3, *AR3(#319) ; |941| 
	.dwpsn	file "./inc/csl_mscAux.h",line 943,column 4,is_stmt
        MOV dbl(*SP(#0)), XAR3
        MOV dbl(*AR3(#16)), AC0 ; |943| 
        AND #0xffff, AC0, AC0 ; |943| 
        MOV AC0, *SP(#6) ; |943| 
$C$L30:    
	.dwpsn	file "./inc/csl_mscAux.h",line 948,column 3,is_stmt
        MOV dbl(*SP(#0)), XAR3
        MOV uns(*SP(#6)), AC0 ; |948| 
        SUB AC0, dbl(*AR3(#16)), AC0 ; |948| 
        MOV AC0, dbl(*AR3(#16)) ; |948| 
	.dwpsn	file "./inc/csl_mscAux.h",line 949,column 3,is_stmt
        MOV dbl(*SP(#0)), XAR3
        MOV dbl(*AR3(#16)), AC0 ; |949| 
        AND #0x0010, AC0, AC0 ; |949| 
        MOV AC0, *AR3(#287) ; |949| 
	.dwpsn	file "./inc/csl_mscAux.h",line 951,column 3,is_stmt
        MOV dbl(*SP(#0)), XAR3
        MOV dbl(*AR3(#16)), AC0 ; |951| 
        MOV HI(AC0), *AR3(#288) ; |951| 
	.dwpsn	file "./inc/csl_mscAux.h",line 953,column 3,is_stmt
        MOV dbl(*SP(#0)), XAR3
        MOV #0, *AR3(#289) ; |953| 
	.dwpsn	file "./inc/csl_mscAux.h",line 954,column 3,is_stmt
        MOV dbl(*SP(#0)), XAR1
        MOV dbl(*SP(#2)), XAR0
        MOV *SP(#6), T0 ; |954| 
        AMAR *+AR1(#267) ; |954| 
$C$DW$191	.dwtag  DW_TAG_TI_branch
	.dwattr $C$DW$191, DW_AT_low_pc(0x00)
	.dwattr $C$DW$191, DW_AT_name("_USB_postTransaction")
	.dwattr $C$DW$191, DW_AT_TI_call

        CALL #_USB_postTransaction ; |954| 
||      MOV #1, T1

                                        ; call occurs [#_USB_postTransaction] ; |954| 
        MOV T0, *SP(#4) ; |954| 
	.dwpsn	file "./inc/csl_mscAux.h",line 957,column 2,is_stmt
        B $C$L32  ; |957| 
                                        ; branch occurs ; |957| 
$C$L31:    
	.dwpsn	file "./inc/csl_mscAux.h",line 960,column 3,is_stmt
        MOV dbl(*SP(#2)), XAR1
$C$DW$192	.dwtag  DW_TAG_TI_branch
	.dwattr $C$DW$192, DW_AT_low_pc(0x00)
	.dwattr $C$DW$192, DW_AT_name("_MSC_sendCswWithPhaseError")
	.dwattr $C$DW$192, DW_AT_TI_call
        CALL #_MSC_sendCswWithPhaseError ; |960| 
                                        ; call occurs [#_MSC_sendCswWithPhaseError] ; |960| 
        MOV T0, *SP(#4) ; |960| 
$C$L32:    
	.dwpsn	file "./inc/csl_mscAux.h",line 963,column 2,is_stmt
$C$L33:    
	.dwpsn	file "./inc/csl_mscAux.h",line 964,column 1,is_stmt
        AADD #7, SP
	.dwcfi	cfa_offset, 1
$C$DW$193	.dwtag  DW_TAG_TI_branch
	.dwattr $C$DW$193, DW_AT_low_pc(0x00)
	.dwattr $C$DW$193, DW_AT_TI_return
        RET
                                        ; return occurs
	.dwattr $C$DW$182, DW_AT_TI_end_file("./inc/csl_mscAux.h")
	.dwattr $C$DW$182, DW_AT_TI_end_line(0x3c4)
	.dwattr $C$DW$182, DW_AT_TI_end_column(0x01)
	.dwendentry
	.dwendtag $C$DW$182

	.sect	".text"

$C$DW$194	.dwtag  DW_TAG_subprogram, DW_AT_name("MSC_HandleVerify10")
	.dwattr $C$DW$194, DW_AT_low_pc(_MSC_HandleVerify10)
	.dwattr $C$DW$194, DW_AT_high_pc(0x00)
	.dwattr $C$DW$194, DW_AT_TI_symbol_name("_MSC_HandleVerify10")
	.dwattr $C$DW$194, DW_AT_type(*$C$DW$T$86)
	.dwattr $C$DW$194, DW_AT_TI_begin_file("./inc/csl_mscAux.h")
	.dwattr $C$DW$194, DW_AT_TI_begin_line(0x3f4)
	.dwattr $C$DW$194, DW_AT_TI_begin_column(0x0c)
	.dwattr $C$DW$194, DW_AT_TI_max_frame_size(0x08)
	.dwpsn	file "./inc/csl_mscAux.h",line 1015,column 1,is_stmt,address _MSC_HandleVerify10

	.dwfde $C$DW$CIE, _MSC_HandleVerify10
$C$DW$195	.dwtag  DW_TAG_formal_parameter, DW_AT_name("pMscHandle")
	.dwattr $C$DW$195, DW_AT_TI_symbol_name("_pMscHandle")
	.dwattr $C$DW$195, DW_AT_type(*$C$DW$T$140)
	.dwattr $C$DW$195, DW_AT_location[DW_OP_reg17]
$C$DW$196	.dwtag  DW_TAG_formal_parameter, DW_AT_name("hUsbInEp")
	.dwattr $C$DW$196, DW_AT_TI_symbol_name("_hUsbInEp")
	.dwattr $C$DW$196, DW_AT_type(*$C$DW$T$27)
	.dwattr $C$DW$196, DW_AT_location[DW_OP_reg19]
$C$DW$197	.dwtag  DW_TAG_formal_parameter, DW_AT_name("logicalUnit")
	.dwattr $C$DW$197, DW_AT_TI_symbol_name("_logicalUnit")
	.dwattr $C$DW$197, DW_AT_type(*$C$DW$T$30)
	.dwattr $C$DW$197, DW_AT_location[DW_OP_reg12]
;*******************************************************************************
;* FUNCTION NAME: MSC_HandleVerify10                                           *
;*                                                                             *
;*   Function Uses Regs : AC0,AC0,AC1,T0,T1,AR0,XAR0,AR1,XAR1,AR3,XAR3,SP,M40, *
;*                        SATA,SATD,RDM,FRCT,SMUL                              *
;*   Stack Frame        : Compact (No Frame Pointer, w/ debug)                 *
;*   Total Frame Size   : 8 words                                              *
;*                        (1 return address/alignment)                         *
;*                        (7 local values)                                     *
;*   Min System Stack   : 1 word                                               *
;*******************************************************************************
_MSC_HandleVerify10:
	.dwcfi	cfa_offset, 1
	.dwcfi	save_reg_to_mem, 91, -1
        AADD #-7, SP
	.dwcfi	cfa_offset, 8
$C$DW$198	.dwtag  DW_TAG_variable, DW_AT_name("pMscHandle")
	.dwattr $C$DW$198, DW_AT_TI_symbol_name("_pMscHandle")
	.dwattr $C$DW$198, DW_AT_type(*$C$DW$T$140)
	.dwattr $C$DW$198, DW_AT_location[DW_OP_bregx 0x24 0]
$C$DW$199	.dwtag  DW_TAG_variable, DW_AT_name("hUsbInEp")
	.dwattr $C$DW$199, DW_AT_TI_symbol_name("_hUsbInEp")
	.dwattr $C$DW$199, DW_AT_type(*$C$DW$T$27)
	.dwattr $C$DW$199, DW_AT_location[DW_OP_bregx 0x24 2]
$C$DW$200	.dwtag  DW_TAG_variable, DW_AT_name("logicalUnit")
	.dwattr $C$DW$200, DW_AT_TI_symbol_name("_logicalUnit")
	.dwattr $C$DW$200, DW_AT_type(*$C$DW$T$30)
	.dwattr $C$DW$200, DW_AT_location[DW_OP_bregx 0x24 4]
$C$DW$201	.dwtag  DW_TAG_variable, DW_AT_name("status")
	.dwattr $C$DW$201, DW_AT_TI_symbol_name("_status")
	.dwattr $C$DW$201, DW_AT_type(*$C$DW$T$86)
	.dwattr $C$DW$201, DW_AT_location[DW_OP_bregx 0x24 5]
$C$DW$202	.dwtag  DW_TAG_variable, DW_AT_name("verifyLen")
	.dwattr $C$DW$202, DW_AT_TI_symbol_name("_verifyLen")
	.dwattr $C$DW$202, DW_AT_type(*$C$DW$T$30)
	.dwattr $C$DW$202, DW_AT_location[DW_OP_bregx 0x24 6]
        MOV T0, *SP(#4) ; |1015| 
        MOV XAR1, dbl(*SP(#2))
        MOV XAR0, dbl(*SP(#0))
	.dwpsn	file "./inc/csl_mscAux.h",line 1019,column 2,is_stmt
        MOV dbl(*SP(#0)), XAR3
        MOV dbl(*AR3(#16)), AC0 ; |1019| 
        BCC $C$L34,AC0 == #0 ; |1019| 
                                        ; branchcc occurs ; |1019| 
	.dwpsn	file "./inc/csl_mscAux.h",line 1022,column 3,is_stmt
        MOV #2, *AR3(#319) ; |1022| 
	.dwpsn	file "./inc/csl_mscAux.h",line 1023,column 3,is_stmt
        MOV dbl(*SP(#0)), XAR3
        MOV dbl(*AR3(#316)), XAR0
$C$DW$203	.dwtag  DW_TAG_TI_branch
	.dwattr $C$DW$203, DW_AT_low_pc(0x00)
	.dwattr $C$DW$203, DW_AT_name("_USB_stallEndpt")
	.dwattr $C$DW$203, DW_AT_TI_call
        CALL #_USB_stallEndpt ; |1023| 
                                        ; call occurs [#_USB_stallEndpt] ; |1023| 
        MOV T0, *SP(#5) ; |1023| 
	.dwpsn	file "./inc/csl_mscAux.h",line 1024,column 3,is_stmt
        MOV dbl(*SP(#0)), XAR3
        MOV dbl(*AR3(#314)), XAR0
$C$DW$204	.dwtag  DW_TAG_TI_branch
	.dwattr $C$DW$204, DW_AT_low_pc(0x00)
	.dwattr $C$DW$204, DW_AT_name("_USB_stallEndpt")
	.dwattr $C$DW$204, DW_AT_TI_call
        CALL #_USB_stallEndpt ; |1024| 
                                        ; call occurs [#_USB_stallEndpt] ; |1024| 
        MOV T0, *SP(#5) ; |1024| 
	.dwpsn	file "./inc/csl_mscAux.h",line 1028,column 3,is_stmt
        MOV dbl(*SP(#0)), XAR3
        MOV #32, T1 ; |1028| 
        MOV dbl(*AR3(#314)), XAR0
        MOV dbl(*AR3(#14)), XAR1
$C$DW$205	.dwtag  DW_TAG_TI_branch
	.dwattr $C$DW$205, DW_AT_low_pc(0x00)
	.dwattr $C$DW$205, DW_AT_name("_USB_postTransaction")
	.dwattr $C$DW$205, DW_AT_TI_call

        CALL #_USB_postTransaction ; |1028| 
||      MOV #0, T0

                                        ; call occurs [#_USB_postTransaction] ; |1028| 
        OR *SP(#5), T0, AR1 ; |1028| 
        MOV AR1, *SP(#5) ; |1028| 
	.dwpsn	file "./inc/csl_mscAux.h",line 1033,column 3,is_stmt
        MOV AR1, T0
        B $C$L38  ; |1033| 
                                        ; branch occurs ; |1033| 
$C$L34:    
	.dwpsn	file "./inc/csl_mscAux.h",line 1036,column 5,is_stmt
        MOV *AR3(#308), AR1 ; |1036| 
        MOV *AR3(#308), AC1 ; |1036| 
        AND #0xff00, AR1, AC0 ; |1036| 
        BFXTR #0xff00, AC0, AC0 ; |1036| 
        OR AC1 << #8, AC0 ; |1036| 
        MOV AC0, *SP(#6) ; |1036| 
	.dwpsn	file "./inc/csl_mscAux.h",line 1040,column 5,is_stmt
        MOV dbl(*SP(#0)), XAR3
        MPYMK *SP(#4), #62, AC0 ; |1040| 
        MOV AC0, AR1 ; |1040| 
        AADD AR1, AR3 ; |1040| 
        MOV *AR3(#78), AR1 ; |1040| 
        BCC $C$L35,AR1 == #0 ; |1040| 
                                        ; branchcc occurs ; |1040| 
        MOV *SP(#6), AR1 ; |1040| 
        BCC $C$L36,AR1 != #0 ; |1040| 
                                        ; branchcc occurs ; |1040| 
$C$L35:    
	.dwpsn	file "./inc/csl_mscAux.h",line 1043,column 9,is_stmt
        MOV dbl(*SP(#0)), XAR3
        MOV #0, *AR3(#289) ; |1043| 
	.dwpsn	file "./inc/csl_mscAux.h",line 1044,column 5,is_stmt
        B $C$L37  ; |1044| 
                                        ; branch occurs ; |1044| 
$C$L36:    
	.dwpsn	file "./inc/csl_mscAux.h",line 1047,column 9,is_stmt
        MOV dbl(*SP(#0)), XAR3
        MOV #1, *AR3(#289) ; |1047| 
	.dwpsn	file "./inc/csl_mscAux.h",line 1048,column 9,is_stmt
        MOV dbl(*SP(#0)), XAR0
        MOV #29, T1 ; |1048| 
        AMAR *+AR0(#266) ; |1048| 
$C$DW$206	.dwtag  DW_TAG_TI_branch
	.dwattr $C$DW$206, DW_AT_low_pc(0x00)
	.dwattr $C$DW$206, DW_AT_name("_MSC_SetSenseKeys")
	.dwattr $C$DW$206, DW_AT_TI_call

        CALL #_MSC_SetSenseKeys ; |1048| 
||      MOV #14, T0

                                        ; call occurs [#_MSC_SetSenseKeys] ; |1048| 
$C$L37:    
	.dwpsn	file "./inc/csl_mscAux.h",line 1053,column 5,is_stmt
        MOV dbl(*SP(#0)), XAR3
        MOV #4, *AR3(#319) ; |1053| 
	.dwpsn	file "./inc/csl_mscAux.h",line 1054,column 5,is_stmt
        MOV dbl(*SP(#0)), XAR1
        MOV #13, T0
        MOV dbl(*SP(#2)), XAR0
        AMAR *+AR1(#282) ; |1054| 
$C$DW$207	.dwtag  DW_TAG_TI_branch
	.dwattr $C$DW$207, DW_AT_low_pc(0x00)
	.dwattr $C$DW$207, DW_AT_name("_USB_postTransaction")
	.dwattr $C$DW$207, DW_AT_TI_call

        CALL #_USB_postTransaction ; |1054| 
||      MOV #1, T1

                                        ; call occurs [#_USB_postTransaction] ; |1054| 
        MOV T0, *SP(#5) ; |1054| 
	.dwpsn	file "./inc/csl_mscAux.h",line 1057,column 2,is_stmt
$C$L38:    
	.dwpsn	file "./inc/csl_mscAux.h",line 1058,column 1,is_stmt
        AADD #7, SP
	.dwcfi	cfa_offset, 1
$C$DW$208	.dwtag  DW_TAG_TI_branch
	.dwattr $C$DW$208, DW_AT_low_pc(0x00)
	.dwattr $C$DW$208, DW_AT_TI_return
        RET
                                        ; return occurs
	.dwattr $C$DW$194, DW_AT_TI_end_file("./inc/csl_mscAux.h")
	.dwattr $C$DW$194, DW_AT_TI_end_line(0x422)
	.dwattr $C$DW$194, DW_AT_TI_end_column(0x01)
	.dwendentry
	.dwendtag $C$DW$194

	.sect	".text"

$C$DW$209	.dwtag  DW_TAG_subprogram, DW_AT_name("MSC_reqUnknown")
	.dwattr $C$DW$209, DW_AT_low_pc(_MSC_reqUnknown)
	.dwattr $C$DW$209, DW_AT_high_pc(0x00)
	.dwattr $C$DW$209, DW_AT_TI_symbol_name("_MSC_reqUnknown")
	.dwattr $C$DW$209, DW_AT_type(*$C$DW$T$45)
	.dwattr $C$DW$209, DW_AT_TI_begin_file("./inc/csl_mscAux.h")
	.dwattr $C$DW$209, DW_AT_TI_begin_line(0x45b)
	.dwattr $C$DW$209, DW_AT_TI_begin_column(0x13)
	.dwattr $C$DW$209, DW_AT_TI_max_frame_size(0x0c)
	.dwpsn	file "./inc/csl_mscAux.h",line 1120,column 1,is_stmt,address _MSC_reqUnknown

	.dwfde $C$DW$CIE, _MSC_reqUnknown
$C$DW$210	.dwtag  DW_TAG_formal_parameter, DW_AT_name("devHandle")
	.dwattr $C$DW$210, DW_AT_TI_symbol_name("_devHandle")
	.dwattr $C$DW$210, DW_AT_type(*$C$DW$T$21)
	.dwattr $C$DW$210, DW_AT_location[DW_OP_reg17]
$C$DW$211	.dwtag  DW_TAG_formal_parameter, DW_AT_name("usbSetup")
	.dwattr $C$DW$211, DW_AT_TI_symbol_name("_usbSetup")
	.dwattr $C$DW$211, DW_AT_type(*$C$DW$T$46)
	.dwattr $C$DW$211, DW_AT_location[DW_OP_reg19]
$C$DW$212	.dwtag  DW_TAG_formal_parameter, DW_AT_name("hInEp")
	.dwattr $C$DW$212, DW_AT_TI_symbol_name("_hInEp")
	.dwattr $C$DW$212, DW_AT_type(*$C$DW$T$27)
	.dwattr $C$DW$212, DW_AT_location[DW_OP_reg21]
$C$DW$213	.dwtag  DW_TAG_formal_parameter, DW_AT_name("hOutEp")
	.dwattr $C$DW$213, DW_AT_TI_symbol_name("_hOutEp")
	.dwattr $C$DW$213, DW_AT_type(*$C$DW$T$27)
	.dwattr $C$DW$213, DW_AT_location[DW_OP_reg23]
$C$DW$214	.dwtag  DW_TAG_formal_parameter, DW_AT_name("pMsc")
	.dwattr $C$DW$214, DW_AT_TI_symbol_name("_pMsc")
	.dwattr $C$DW$214, DW_AT_type(*$C$DW$T$3)
	.dwattr $C$DW$214, DW_AT_location[DW_OP_reg25]
;*******************************************************************************
;* FUNCTION NAME: MSC_reqUnknown                                               *
;*                                                                             *
;*   Function Uses Regs : T0,AR0,XAR0,AR1,XAR1,AR2,XAR2,AR3,XAR3,AR4,XAR4,SP,  *
;*                        M40,SATA,SATD,RDM,FRCT,SMUL                          *
;*   Stack Frame        : Compact (No Frame Pointer, w/ debug)                 *
;*   Total Frame Size   : 12 words                                             *
;*                        (1 return address/alignment)                         *
;*                        (11 local values)                                    *
;*   Min System Stack   : 1 word                                               *
;*******************************************************************************
_MSC_reqUnknown:
	.dwcfi	cfa_offset, 1
	.dwcfi	save_reg_to_mem, 91, -1
        AADD #-11, SP
	.dwcfi	cfa_offset, 12
$C$DW$215	.dwtag  DW_TAG_variable, DW_AT_name("devHandle")
	.dwattr $C$DW$215, DW_AT_TI_symbol_name("_devHandle")
	.dwattr $C$DW$215, DW_AT_type(*$C$DW$T$21)
	.dwattr $C$DW$215, DW_AT_location[DW_OP_bregx 0x24 0]
$C$DW$216	.dwtag  DW_TAG_variable, DW_AT_name("usbSetup")
	.dwattr $C$DW$216, DW_AT_TI_symbol_name("_usbSetup")
	.dwattr $C$DW$216, DW_AT_type(*$C$DW$T$46)
	.dwattr $C$DW$216, DW_AT_location[DW_OP_bregx 0x24 2]
$C$DW$217	.dwtag  DW_TAG_variable, DW_AT_name("hInEp")
	.dwattr $C$DW$217, DW_AT_TI_symbol_name("_hInEp")
	.dwattr $C$DW$217, DW_AT_type(*$C$DW$T$27)
	.dwattr $C$DW$217, DW_AT_location[DW_OP_bregx 0x24 4]
$C$DW$218	.dwtag  DW_TAG_variable, DW_AT_name("hOutEp")
	.dwattr $C$DW$218, DW_AT_TI_symbol_name("_hOutEp")
	.dwattr $C$DW$218, DW_AT_type(*$C$DW$T$27)
	.dwattr $C$DW$218, DW_AT_location[DW_OP_bregx 0x24 6]
$C$DW$219	.dwtag  DW_TAG_variable, DW_AT_name("pMsc")
	.dwattr $C$DW$219, DW_AT_TI_symbol_name("_pMsc")
	.dwattr $C$DW$219, DW_AT_type(*$C$DW$T$3)
	.dwattr $C$DW$219, DW_AT_location[DW_OP_bregx 0x24 8]
$C$DW$220	.dwtag  DW_TAG_variable, DW_AT_name("retStat")
	.dwattr $C$DW$220, DW_AT_TI_symbol_name("_retStat")
	.dwattr $C$DW$220, DW_AT_type(*$C$DW$T$45)
	.dwattr $C$DW$220, DW_AT_location[DW_OP_bregx 0x24 10]
        MOV XAR4, dbl(*SP(#8))
        MOV XAR3, dbl(*SP(#6))
        MOV XAR2, dbl(*SP(#4))
        MOV XAR1, dbl(*SP(#2))
        MOV XAR0, dbl(*SP(#0))
	.dwpsn	file "./inc/csl_mscAux.h",line 1124,column 2,is_stmt
        MOV #1, *SP(#10) ; |1124| 
	.dwpsn	file "./inc/csl_mscAux.h",line 1126,column 2,is_stmt
        MOV *SP(#10), T0 ; |1126| 
	.dwpsn	file "./inc/csl_mscAux.h",line 1127,column 1,is_stmt
        AADD #11, SP
	.dwcfi	cfa_offset, 1
$C$DW$221	.dwtag  DW_TAG_TI_branch
	.dwattr $C$DW$221, DW_AT_low_pc(0x00)
	.dwattr $C$DW$221, DW_AT_TI_return
        RET
                                        ; return occurs
	.dwattr $C$DW$209, DW_AT_TI_end_file("./inc/csl_mscAux.h")
	.dwattr $C$DW$209, DW_AT_TI_end_line(0x467)
	.dwattr $C$DW$209, DW_AT_TI_end_column(0x01)
	.dwendentry
	.dwendtag $C$DW$209

	.sect	".text"

$C$DW$222	.dwtag  DW_TAG_subprogram, DW_AT_name("MSC_lookupReqHandler")
	.dwattr $C$DW$222, DW_AT_low_pc(_MSC_lookupReqHandler)
	.dwattr $C$DW$222, DW_AT_high_pc(0x00)
	.dwattr $C$DW$222, DW_AT_TI_symbol_name("_MSC_lookupReqHandler")
	.dwattr $C$DW$222, DW_AT_type(*$C$DW$T$126)
	.dwattr $C$DW$222, DW_AT_TI_begin_file("./inc/csl_mscAux.h")
	.dwattr $C$DW$222, DW_AT_TI_begin_line(0x49c)
	.dwattr $C$DW$222, DW_AT_TI_begin_column(0x13)
	.dwattr $C$DW$222, DW_AT_TI_max_frame_size(0x06)
	.dwpsn	file "./inc/csl_mscAux.h",line 1182,column 1,is_stmt,address _MSC_lookupReqHandler

	.dwfde $C$DW$CIE, _MSC_lookupReqHandler
$C$DW$223	.dwtag  DW_TAG_formal_parameter, DW_AT_name("request")
	.dwattr $C$DW$223, DW_AT_TI_symbol_name("_request")
	.dwattr $C$DW$223, DW_AT_type(*$C$DW$T$30)
	.dwattr $C$DW$223, DW_AT_location[DW_OP_reg12]
$C$DW$224	.dwtag  DW_TAG_formal_parameter, DW_AT_name("pUSB_ReqTable")
	.dwattr $C$DW$224, DW_AT_TI_symbol_name("_pUSB_ReqTable")
	.dwattr $C$DW$224, DW_AT_type(*$C$DW$T$43)
	.dwattr $C$DW$224, DW_AT_location[DW_OP_reg17]
;*******************************************************************************
;* FUNCTION NAME: MSC_lookupReqHandler                                         *
;*                                                                             *
;*   Function Uses Regs : AC0,AC0,T0,AR0,XAR0,AR1,AR2,AR3,XAR3,SP,CARRY,TC1,   *
;*                        M40,SATA,SATD,RDM,FRCT,SMUL                          *
;*   Stack Frame        : Compact (No Frame Pointer, w/ debug)                 *
;*   Total Frame Size   : 6 words                                              *
;*                        (1 return address/alignment)                         *
;*                        (5 local values)                                     *
;*   Min System Stack   : 1 word                                               *
;*******************************************************************************
_MSC_lookupReqHandler:
	.dwcfi	cfa_offset, 1
	.dwcfi	save_reg_to_mem, 91, -1
        AADD #-5, SP
	.dwcfi	cfa_offset, 6
$C$DW$225	.dwtag  DW_TAG_variable, DW_AT_name("request")
	.dwattr $C$DW$225, DW_AT_TI_symbol_name("_request")
	.dwattr $C$DW$225, DW_AT_type(*$C$DW$T$30)
	.dwattr $C$DW$225, DW_AT_location[DW_OP_bregx 0x24 0]
$C$DW$226	.dwtag  DW_TAG_variable, DW_AT_name("pUSB_ReqTable")
	.dwattr $C$DW$226, DW_AT_TI_symbol_name("_pUSB_ReqTable")
	.dwattr $C$DW$226, DW_AT_type(*$C$DW$T$43)
	.dwattr $C$DW$226, DW_AT_location[DW_OP_bregx 0x24 2]
$C$DW$227	.dwtag  DW_TAG_variable, DW_AT_name("index")
	.dwattr $C$DW$227, DW_AT_TI_symbol_name("_index")
	.dwattr $C$DW$227, DW_AT_type(*$C$DW$T$30)
	.dwattr $C$DW$227, DW_AT_location[DW_OP_bregx 0x24 4]
        MOV XAR0, dbl(*SP(#2))
        MOV T0, *SP(#0) ; |1182| 
	.dwpsn	file "./inc/csl_mscAux.h",line 1186,column 6,is_stmt
        MOV #0, *SP(#4) ; |1186| 
	.dwpsn	file "./inc/csl_mscAux.h",line 1186,column 17,is_stmt
        MOV dbl(*SP(#2)), XAR3
        MOV *SP(#4) << #2, AC0 ; |1186| 
        MOV AC0, AR1 ; |1186| 
        AADD AR1, AR3 ; |1186| 
        MOV dbl(*AR3(short(#2))), AC0 ; |1186| 
        BCC $C$L41,AC0 == #0 ; |1186| 
                                        ; branchcc occurs ; |1186| 
$C$L39:    
$C$DW$L$_MSC_lookupReqHandler$2$B:
	.dwpsn	file "./inc/csl_mscAux.h",line 1189,column 3,is_stmt
        MOV dbl(*SP(#2)), XAR3
        MOV *SP(#4) << #2, AC0 ; |1189| 
        MOV AC0, T0 ; |1189| 
        MOV *SP(#0), AR1 ; |1189| 
        MOV *AR3(T0), AR2 ; |1189| 
        CMPU AR2 != AR1, TC1 ; |1189| 
        BCC $C$L40,TC1 ; |1189| 
                                        ; branchcc occurs ; |1189| 
$C$DW$L$_MSC_lookupReqHandler$2$E:
	.dwpsn	file "./inc/csl_mscAux.h",line 1191,column 4,is_stmt
        MOV *SP(#4) << #2, AC0 ; |1191| 
        MOV AC0, AR1 ; |1191| 
        AADD AR1, AR3 ; |1191| 
        MOV dbl(*AR3(short(#2))), AC0 ; |1191| 
        B $C$L42  ; |1191| 
                                        ; branch occurs ; |1191| 
$C$L40:    
$C$DW$L$_MSC_lookupReqHandler$4$B:
	.dwpsn	file "./inc/csl_mscAux.h",line 1186,column 64,is_stmt
        ADD #1, *SP(#4) ; |1186| 
	.dwpsn	file "./inc/csl_mscAux.h",line 1186,column 17,is_stmt
        MOV dbl(*SP(#2)), XAR3
        MOV *SP(#4) << #2, AC0 ; |1186| 
        MOV AC0, AR1 ; |1186| 
        AADD AR1, AR3 ; |1186| 
        MOV dbl(*AR3(short(#2))), AC0 ; |1186| 
        BCC $C$L39,AC0 != #0 ; |1186| 
                                        ; branchcc occurs ; |1186| 
$C$DW$L$_MSC_lookupReqHandler$4$E:
$C$L41:    
	.dwpsn	file "./inc/csl_mscAux.h",line 1197,column 2,is_stmt
        MOV #(_MSC_reqUnknown >> 16) << #16, AC0 ; |1197| 
        OR #(_MSC_reqUnknown & 0xffff), AC0, AC0 ; |1197| 
$C$L42:    
	.dwpsn	file "./inc/csl_mscAux.h",line 1198,column 1,is_stmt
        AADD #5, SP
	.dwcfi	cfa_offset, 1
$C$DW$228	.dwtag  DW_TAG_TI_branch
	.dwattr $C$DW$228, DW_AT_low_pc(0x00)
	.dwattr $C$DW$228, DW_AT_TI_return
        RET
                                        ; return occurs

$C$DW$229	.dwtag  DW_TAG_TI_loop
	.dwattr $C$DW$229, DW_AT_name("/home/santiago/dspfuzz/on_board/library/csl_msc.asm:$C$L39:1:1714639447")
	.dwattr $C$DW$229, DW_AT_TI_begin_file("./inc/csl_mscAux.h")
	.dwattr $C$DW$229, DW_AT_TI_begin_line(0x4a2)
	.dwattr $C$DW$229, DW_AT_TI_end_line(0x4a9)
$C$DW$230	.dwtag  DW_TAG_TI_loop_range
	.dwattr $C$DW$230, DW_AT_low_pc($C$DW$L$_MSC_lookupReqHandler$2$B)
	.dwattr $C$DW$230, DW_AT_high_pc($C$DW$L$_MSC_lookupReqHandler$2$E)
$C$DW$231	.dwtag  DW_TAG_TI_loop_range
	.dwattr $C$DW$231, DW_AT_low_pc($C$DW$L$_MSC_lookupReqHandler$4$B)
	.dwattr $C$DW$231, DW_AT_high_pc($C$DW$L$_MSC_lookupReqHandler$4$E)
	.dwendtag $C$DW$229

	.dwattr $C$DW$222, DW_AT_TI_end_file("./inc/csl_mscAux.h")
	.dwattr $C$DW$222, DW_AT_TI_end_line(0x4ae)
	.dwattr $C$DW$222, DW_AT_TI_end_column(0x01)
	.dwendentry
	.dwendtag $C$DW$222

	.sect	".text"

$C$DW$232	.dwtag  DW_TAG_subprogram, DW_AT_name("MSC_verifyCBW")
	.dwattr $C$DW$232, DW_AT_low_pc(_MSC_verifyCBW)
	.dwattr $C$DW$232, DW_AT_high_pc(0x00)
	.dwattr $C$DW$232, DW_AT_TI_symbol_name("_MSC_verifyCBW")
	.dwattr $C$DW$232, DW_AT_type(*$C$DW$T$86)
	.dwattr $C$DW$232, DW_AT_TI_begin_file("./inc/csl_mscAux.h")
	.dwattr $C$DW$232, DW_AT_TI_begin_line(0x7e8)
	.dwattr $C$DW$232, DW_AT_TI_begin_column(0x0d)
	.dwattr $C$DW$232, DW_AT_TI_max_frame_size(0x0e)
	.dwpsn	file "./inc/csl_mscAux.h",line 2028,column 1,is_stmt,address _MSC_verifyCBW

	.dwfde $C$DW$CIE, _MSC_verifyCBW
$C$DW$233	.dwtag  DW_TAG_formal_parameter, DW_AT_name("hUsbDev")
	.dwattr $C$DW$233, DW_AT_TI_symbol_name("_hUsbDev")
	.dwattr $C$DW$233, DW_AT_type(*$C$DW$T$21)
	.dwattr $C$DW$233, DW_AT_location[DW_OP_reg17]
$C$DW$234	.dwtag  DW_TAG_formal_parameter, DW_AT_name("pMscHandle")
	.dwattr $C$DW$234, DW_AT_TI_symbol_name("_pMscHandle")
	.dwattr $C$DW$234, DW_AT_type(*$C$DW$T$140)
	.dwattr $C$DW$234, DW_AT_location[DW_OP_reg19]
$C$DW$235	.dwtag  DW_TAG_formal_parameter, DW_AT_name("hUsbOutEp")
	.dwattr $C$DW$235, DW_AT_TI_symbol_name("_hUsbOutEp")
	.dwattr $C$DW$235, DW_AT_type(*$C$DW$T$27)
	.dwattr $C$DW$235, DW_AT_location[DW_OP_reg21]
$C$DW$236	.dwtag  DW_TAG_formal_parameter, DW_AT_name("hUsbInEp")
	.dwattr $C$DW$236, DW_AT_TI_symbol_name("_hUsbInEp")
	.dwattr $C$DW$236, DW_AT_type(*$C$DW$T$27)
	.dwattr $C$DW$236, DW_AT_location[DW_OP_reg23]
;*******************************************************************************
;* FUNCTION NAME: MSC_verifyCBW                                                *
;*                                                                             *
;*   Function Uses Regs : AC0,AC0,AC1,AC1,T0,AR0,XAR0,AR1,XAR1,AR2,XAR2,AR3,   *
;*                        XAR3,SP,TC1,M40,SATA,SATD,RDM,FRCT,SMUL              *
;*   Stack Frame        : Compact (No Frame Pointer, w/ debug)                 *
;*   Total Frame Size   : 14 words                                             *
;*                        (1 return address/alignment)                         *
;*                        (13 local values)                                    *
;*   Min System Stack   : 1 word                                               *
;*******************************************************************************
_MSC_verifyCBW:
	.dwcfi	cfa_offset, 1
	.dwcfi	save_reg_to_mem, 91, -1
        AADD #-13, SP
	.dwcfi	cfa_offset, 14
$C$DW$237	.dwtag  DW_TAG_variable, DW_AT_name("hUsbDev")
	.dwattr $C$DW$237, DW_AT_TI_symbol_name("_hUsbDev")
	.dwattr $C$DW$237, DW_AT_type(*$C$DW$T$21)
	.dwattr $C$DW$237, DW_AT_location[DW_OP_bregx 0x24 0]
$C$DW$238	.dwtag  DW_TAG_variable, DW_AT_name("pMscHandle")
	.dwattr $C$DW$238, DW_AT_TI_symbol_name("_pMscHandle")
	.dwattr $C$DW$238, DW_AT_type(*$C$DW$T$140)
	.dwattr $C$DW$238, DW_AT_location[DW_OP_bregx 0x24 2]
$C$DW$239	.dwtag  DW_TAG_variable, DW_AT_name("hUsbOutEp")
	.dwattr $C$DW$239, DW_AT_TI_symbol_name("_hUsbOutEp")
	.dwattr $C$DW$239, DW_AT_type(*$C$DW$T$27)
	.dwattr $C$DW$239, DW_AT_location[DW_OP_bregx 0x24 4]
$C$DW$240	.dwtag  DW_TAG_variable, DW_AT_name("hUsbInEp")
	.dwattr $C$DW$240, DW_AT_TI_symbol_name("_hUsbInEp")
	.dwattr $C$DW$240, DW_AT_type(*$C$DW$T$27)
	.dwattr $C$DW$240, DW_AT_location[DW_OP_bregx 0x24 6]
$C$DW$241	.dwtag  DW_TAG_variable, DW_AT_name("cbwSignature")
	.dwattr $C$DW$241, DW_AT_TI_symbol_name("_cbwSignature")
	.dwattr $C$DW$241, DW_AT_type(*$C$DW$T$56)
	.dwattr $C$DW$241, DW_AT_location[DW_OP_bregx 0x24 8]
$C$DW$242	.dwtag  DW_TAG_variable, DW_AT_name("status")
	.dwattr $C$DW$242, DW_AT_TI_symbol_name("_status")
	.dwattr $C$DW$242, DW_AT_type(*$C$DW$T$86)
	.dwattr $C$DW$242, DW_AT_location[DW_OP_bregx 0x24 10]
$C$DW$243	.dwtag  DW_TAG_variable, DW_AT_name("cbwSize")
	.dwattr $C$DW$243, DW_AT_TI_symbol_name("_cbwSize")
	.dwattr $C$DW$243, DW_AT_type(*$C$DW$T$30)
	.dwattr $C$DW$243, DW_AT_location[DW_OP_bregx 0x24 11]
$C$DW$244	.dwtag  DW_TAG_variable, DW_AT_name("logicalUnit")
	.dwattr $C$DW$244, DW_AT_TI_symbol_name("_logicalUnit")
	.dwattr $C$DW$244, DW_AT_type(*$C$DW$T$30)
	.dwattr $C$DW$244, DW_AT_location[DW_OP_bregx 0x24 12]
        MOV XAR3, dbl(*SP(#6))
        MOV XAR2, dbl(*SP(#4))
        MOV XAR1, dbl(*SP(#2))
        MOV XAR0, dbl(*SP(#0))
	.dwpsn	file "./inc/csl_mscAux.h",line 2034,column 2,is_stmt
        MOV #0, AC0 ; |2034| 
        MOV AC0, dbl(*SP(#8)) ; |2034| 
	.dwpsn	file "./inc/csl_mscAux.h",line 2035,column 2,is_stmt
        MOV #0, *SP(#10) ; |2035| 
	.dwpsn	file "./inc/csl_mscAux.h",line 2036,column 2,is_stmt
        MOV #0, *SP(#11) ; |2036| 
	.dwpsn	file "./inc/csl_mscAux.h",line 2037,column 2,is_stmt
        MOV #0, *SP(#12) ; |2037| 
	.dwpsn	file "./inc/csl_mscAux.h",line 2039,column 2,is_stmt
        MOV dbl(*SP(#2)), XAR3
        MOV XAR3, AC0
        BCC $C$L45,AC0 == #0 ; |2039| 
                                        ; branchcc occurs ; |2039| 
        MOV dbl(*SP(#4)), XAR3
        MOV XAR3, AC0
        BCC $C$L45,AC0 == #0 ; |2039| 
                                        ; branchcc occurs ; |2039| 
        MOV dbl(*SP(#6)), XAR3
        MOV XAR3, AC0
        BCC $C$L45,AC0 == #0 ; |2039| 
                                        ; branchcc occurs ; |2039| 
	.dwpsn	file "./inc/csl_mscAux.h",line 2041,column 3,is_stmt
        MOV dbl(*SP(#2)), XAR2
        MOV dbl(*SP(#2)), XAR3
        MOV *AR2(#298), AR1 ; |2041| 
        MOV AR1, HI(AC0) ; |2041| 
        OR *AR3(#297), AC0, AC0 ; |2041| 
        MOV AC0, dbl(*SP(#8)) ; |2041| 
	.dwpsn	file "./inc/csl_mscAux.h",line 2045,column 3,is_stmt
        MOV dbl(*SP(#8)), AC1 ; |2045| 
        MOV #17218 << #16, AC0 ; |2045| 
        OR #0x5355, AC0, AC0 ; |2045| 
        CMPU AC1 == AC0, TC1 ; |2045| 
        BCC $C$L43,TC1 ; |2045| 
                                        ; branchcc occurs ; |2045| 
	.dwpsn	file "./inc/csl_mscAux.h",line 2047,column 4,is_stmt
        MOV #-1, *SP(#10) ; |2047| 
	.dwpsn	file "./inc/csl_mscAux.h",line 2048,column 3,is_stmt
        B $C$L46  ; |2048| 
                                        ; branch occurs ; |2048| 
$C$L43:    
	.dwpsn	file "./inc/csl_mscAux.h",line 2051,column 4,is_stmt
        MOV dbl(*SP(#4)), XAR0
$C$DW$245	.dwtag  DW_TAG_TI_branch
	.dwattr $C$DW$245, DW_AT_low_pc(0x00)
	.dwattr $C$DW$245, DW_AT_name("_USB_getDataCountReadFromFifo")
	.dwattr $C$DW$245, DW_AT_TI_call
        CALL #_USB_getDataCountReadFromFifo ; |2051| 
                                        ; call occurs [#_USB_getDataCountReadFromFifo] ; |2051| 
        MOV T0, *SP(#11) ; |2051| 
	.dwpsn	file "./inc/csl_mscAux.h",line 2052,column 4,is_stmt
        CMP *SP(#11) == #31, TC1 ; |2052| 
        BCC $C$L44,TC1 ; |2052| 
                                        ; branchcc occurs ; |2052| 
	.dwpsn	file "./inc/csl_mscAux.h",line 2054,column 5,is_stmt
        MOV #-1, *SP(#10) ; |2054| 
	.dwpsn	file "./inc/csl_mscAux.h",line 2055,column 4,is_stmt
        B $C$L46  ; |2055| 
                                        ; branch occurs ; |2055| 
$C$L44:    
	.dwpsn	file "./inc/csl_mscAux.h",line 2059,column 5,is_stmt
        MOV dbl(*SP(#2)), XAR3
        MOV uns(high_byte(*AR3(#303))), AR1 ; |2059| 
        MOV AR1, *SP(#12) ; |2059| 
	.dwpsn	file "./inc/csl_mscAux.h",line 2061,column 5,is_stmt
        MOV dbl(*SP(#2)), XAR3
        MOV *SP(#12), AR2 ; |2061| 
        MOV *AR3(#318), AR1 ; |2061| 
        CMPU AR2 <= AR1, TC1 ; |2061| 
        BCC $C$L46,TC1 ; |2061| 
                                        ; branchcc occurs ; |2061| 
	.dwpsn	file "./inc/csl_mscAux.h",line 2063,column 6,is_stmt
        MOV #-1, *SP(#10) ; |2063| 
	.dwpsn	file "./inc/csl_mscAux.h",line 2067,column 2,is_stmt
        B $C$L46  ; |2067| 
                                        ; branch occurs ; |2067| 
$C$L45:    
	.dwpsn	file "./inc/csl_mscAux.h",line 2070,column 3,is_stmt
        MOV #-1, *SP(#10) ; |2070| 
$C$L46:    
	.dwpsn	file "./inc/csl_mscAux.h",line 2073,column 2,is_stmt
        MOV *SP(#10), T0 ; |2073| 
	.dwpsn	file "./inc/csl_mscAux.h",line 2074,column 1,is_stmt
        AADD #13, SP
	.dwcfi	cfa_offset, 1
$C$DW$246	.dwtag  DW_TAG_TI_branch
	.dwattr $C$DW$246, DW_AT_low_pc(0x00)
	.dwattr $C$DW$246, DW_AT_TI_return
        RET
                                        ; return occurs
	.dwattr $C$DW$232, DW_AT_TI_end_file("./inc/csl_mscAux.h")
	.dwattr $C$DW$232, DW_AT_TI_end_line(0x81a)
	.dwattr $C$DW$232, DW_AT_TI_end_column(0x01)
	.dwendentry
	.dwendtag $C$DW$232

	.sect	".text"
	.global	_MSC_Open

$C$DW$247	.dwtag  DW_TAG_subprogram, DW_AT_name("MSC_Open")
	.dwattr $C$DW$247, DW_AT_low_pc(_MSC_Open)
	.dwattr $C$DW$247, DW_AT_high_pc(0x00)
	.dwattr $C$DW$247, DW_AT_TI_symbol_name("_MSC_Open")
	.dwattr $C$DW$247, DW_AT_external
	.dwattr $C$DW$247, DW_AT_type(*$C$DW$T$86)
	.dwattr $C$DW$247, DW_AT_TI_begin_file("src/csl_msc.c")
	.dwattr $C$DW$247, DW_AT_TI_begin_line(0x6b)
	.dwattr $C$DW$247, DW_AT_TI_begin_column(0x0c)
	.dwattr $C$DW$247, DW_AT_TI_max_frame_size(0x0e)
	.dwpsn	file "src/csl_msc.c",line 109,column 1,is_stmt,address _MSC_Open

	.dwfde $C$DW$CIE, _MSC_Open
$C$DW$248	.dwtag  DW_TAG_formal_parameter, DW_AT_name("pAppClassHandle")
	.dwattr $C$DW$248, DW_AT_TI_symbol_name("_pAppClassHandle")
	.dwattr $C$DW$248, DW_AT_type(*$C$DW$T$135)
	.dwattr $C$DW$248, DW_AT_location[DW_OP_reg17]
$C$DW$249	.dwtag  DW_TAG_formal_parameter, DW_AT_name("usbConfig")
	.dwattr $C$DW$249, DW_AT_TI_symbol_name("_usbConfig")
	.dwattr $C$DW$249, DW_AT_type(*$C$DW$T$142)
	.dwattr $C$DW$249, DW_AT_location[DW_OP_reg19]
;*******************************************************************************
;* FUNCTION NAME: MSC_Open                                                     *
;*                                                                             *
;*   Function Uses Regs : AC0,AC0,AC1,AC1,T0,AR0,XAR0,AR1,XAR1,AR2,AR3,XAR3,SP,*
;*                        CARRY,TC1,M40,SATA,SATD,RDM,FRCT,SMUL                *
;*   Stack Frame        : Compact (No Frame Pointer, w/ debug)                 *
;*   Total Frame Size   : 14 words                                             *
;*                        (2 return address/alignment)                         *
;*                        (2 function parameters)                              *
;*                        (10 local values)                                    *
;*   Min System Stack   : 1 word                                               *
;*******************************************************************************
_MSC_Open:
	.dwcfi	cfa_offset, 1
	.dwcfi	save_reg_to_mem, 91, -1
        AADD #-13, SP
	.dwcfi	cfa_offset, 14
$C$DW$250	.dwtag  DW_TAG_variable, DW_AT_name("pAppClassHandle")
	.dwattr $C$DW$250, DW_AT_TI_symbol_name("_pAppClassHandle")
	.dwattr $C$DW$250, DW_AT_type(*$C$DW$T$135)
	.dwattr $C$DW$250, DW_AT_location[DW_OP_bregx 0x24 2]
$C$DW$251	.dwtag  DW_TAG_variable, DW_AT_name("usbConfig")
	.dwattr $C$DW$251, DW_AT_TI_symbol_name("_usbConfig")
	.dwattr $C$DW$251, DW_AT_type(*$C$DW$T$142)
	.dwattr $C$DW$251, DW_AT_location[DW_OP_bregx 0x24 4]
$C$DW$252	.dwtag  DW_TAG_variable, DW_AT_name("status")
	.dwattr $C$DW$252, DW_AT_TI_symbol_name("_status")
	.dwattr $C$DW$252, DW_AT_type(*$C$DW$T$86)
	.dwattr $C$DW$252, DW_AT_location[DW_OP_bregx 0x24 6]
$C$DW$253	.dwtag  DW_TAG_variable, DW_AT_name("pHandle")
	.dwattr $C$DW$253, DW_AT_TI_symbol_name("_pHandle")
	.dwattr $C$DW$253, DW_AT_type(*$C$DW$T$131)
	.dwattr $C$DW$253, DW_AT_location[DW_OP_bregx 0x24 8]
$C$DW$254	.dwtag  DW_TAG_variable, DW_AT_name("looper")
	.dwattr $C$DW$254, DW_AT_TI_symbol_name("_looper")
	.dwattr $C$DW$254, DW_AT_type(*$C$DW$T$223)
	.dwattr $C$DW$254, DW_AT_location[DW_OP_bregx 0x24 10]
        MOV XAR1, dbl(*SP(#4))
        MOV XAR0, dbl(*SP(#2))
	.dwpsn	file "src/csl_msc.c",line 114,column 2,is_stmt
        MOV #0, *SP(#6) ; |114| 
	.dwpsn	file "src/csl_msc.c",line 115,column 5,is_stmt
        MOV dbl(*SP(#2)), XAR3
        MOV dbl(*AR3), XAR3
        MOV XAR3, dbl(*SP(#8))
	.dwpsn	file "src/csl_msc.c",line 117,column 2,is_stmt
        MOV dbl(*SP(#2)), XAR3
        MOV XAR3, AC0
        BCC $C$L51,AC0 == #0 ; |117| 
                                        ; branchcc occurs ; |117| 
	.dwpsn	file "src/csl_msc.c",line 119,column 3,is_stmt
$C$DW$255	.dwtag  DW_TAG_TI_branch
	.dwattr $C$DW$255, DW_AT_low_pc(0x00)
	.dwattr $C$DW$255, DW_AT_name("_USB_init")
	.dwattr $C$DW$255, DW_AT_TI_call
        CALL #_USB_init ; |119| 
                                        ; call occurs [#_USB_init] ; |119| 
	.dwpsn	file "src/csl_msc.c",line 121,column 3,is_stmt
$C$DW$256	.dwtag  DW_TAG_TI_branch
	.dwattr $C$DW$256, DW_AT_low_pc(0x00)
	.dwattr $C$DW$256, DW_AT_name("_USB_open")
	.dwattr $C$DW$256, DW_AT_TI_call

        CALL #_USB_open ; |121| 
||      MOV #0, T0

                                        ; call occurs [#_USB_open] ; |121| 
        MOV dbl(*SP(#8)), XAR3
        MOV XAR0, dbl(*AR3)
	.dwpsn	file "src/csl_msc.c",line 122,column 3,is_stmt
        MOV dbl(*SP(#8)), XAR3
        MOV dbl(*AR3), XAR3

        MOV XAR3, AC0
||      MOV #0, AC1 ; |122| 

        CMPU AC1 != AC0, TC1 ; |122| 
        BCC $C$L47,TC1 ; |122| 
                                        ; branchcc occurs ; |122| 
	.dwpsn	file "src/csl_msc.c",line 124,column 4,is_stmt
        MOV #-5, T0
        B $C$L53  ; |124| 
                                        ; branch occurs ; |124| 
$C$L47:    
	.dwpsn	file "src/csl_msc.c",line 127,column 3,is_stmt
        MOV dbl(*SP(#8)), XAR3
        MOV dbl(*SP(#4)), XAR1
        MOV dbl(*AR3), XAR0
$C$DW$257	.dwtag  DW_TAG_TI_branch
	.dwattr $C$DW$257, DW_AT_low_pc(0x00)
	.dwattr $C$DW$257, DW_AT_name("_USB_config")
	.dwattr $C$DW$257, DW_AT_TI_call
        CALL #_USB_config ; |127| 
                                        ; call occurs [#_USB_config] ; |127| 
        MOV T0, *SP(#6) ; |127| 
	.dwpsn	file "src/csl_msc.c",line 128,column 3,is_stmt

        MOV T0, AR1
||      MOV #0, AR2

        CMP AR2 == AR1, TC1 ; |128| 
        BCC $C$L53,!TC1 ; |128| 
                                        ; branchcc occurs ; |128| 
	.dwpsn	file "src/csl_msc.c",line 130,column 4,is_stmt
	.dwpsn	file "src/csl_msc.c",line 134,column 7,is_stmt
        MOV #0, AC0 ; |134| 
        MOV AC0, dbl(*SP(#10)) ; |134| 
        NOP
        NOP
	.dwpsn	file "src/csl_msc.c",line 134,column 19,is_stmt
        AMOV #90000, XAR3 ; |134| 
        MOV dbl(*SP(#10)), AC1 ; |134| 
        MOV XAR3, AC0
        CMPU AC1 >= AC0, TC1 ; |134| 
        BCC $C$L49,TC1 ; |134| 
                                        ; branchcc occurs ; |134| 
$C$L48:    
$C$DW$L$_MSC_Open$6$B:
	.dwpsn	file "src/csl_msc.c",line 134,column 35,is_stmt
        MOV dbl(*SP(#10)), AC0 ; |134| 
        ADD #1, AC0 ; |134| 
        MOV AC0, dbl(*SP(#10)) ; |134| 
        NOP
        NOP
	.dwpsn	file "src/csl_msc.c",line 134,column 19,is_stmt
        MOV XAR3, AC0
        MOV dbl(*SP(#10)), AC1 ; |134| 
        CMPU AC1 < AC0, TC1 ; |134| 
        BCC $C$L48,TC1 ; |134| 
                                        ; branchcc occurs ; |134| 
$C$DW$L$_MSC_Open$6$E:
$C$L49:    
	.dwpsn	file "src/csl_msc.c",line 137,column 3,is_stmt
        MOV dbl(*SP(#8)), XAR3
        MOV dbl(*AR3), XAR0
$C$DW$258	.dwtag  DW_TAG_TI_branch
	.dwattr $C$DW$258, DW_AT_low_pc(0x00)
	.dwattr $C$DW$258, DW_AT_name("_USB_resetDev")
	.dwattr $C$DW$258, DW_AT_TI_call
        CALL #_USB_resetDev ; |137| 
                                        ; call occurs [#_USB_resetDev] ; |137| 
        MOV T0, *SP(#6) ; |137| 
	.dwpsn	file "src/csl_msc.c",line 138,column 3,is_stmt
        MOV T0, AR1
        BCC $C$L50,AR1 == #0 ; |138| 
                                        ; branchcc occurs ; |138| 
	.dwpsn	file "src/csl_msc.c",line 140,column 4,is_stmt
        AMOV #$C$FSL1, XAR3 ; |140| 
        MOV XAR3, dbl(*SP(#0))
$C$DW$259	.dwtag  DW_TAG_TI_branch
	.dwattr $C$DW$259, DW_AT_low_pc(0x00)
	.dwattr $C$DW$259, DW_AT_name("_printf")
	.dwattr $C$DW$259, DW_AT_TI_call
        CALL #_printf ; |140| 
                                        ; call occurs [#_printf] ; |140| 
	.dwpsn	file "src/csl_msc.c",line 141,column 4,is_stmt
        MOV *SP(#6), T0 ; |141| 
        B $C$L53  ; |141| 
                                        ; branch occurs ; |141| 
$C$L50:    
	.dwpsn	file "src/csl_msc.c",line 144,column 3,is_stmt
        MOV dbl(*SP(#2)), XAR0
$C$DW$260	.dwtag  DW_TAG_TI_branch
	.dwattr $C$DW$260, DW_AT_low_pc(0x00)
	.dwattr $C$DW$260, DW_AT_name("_MSC_Setup")
	.dwattr $C$DW$260, DW_AT_TI_call

        CALL #_MSC_Setup ; |144| 
||      MOV #1, T0

                                        ; call occurs [#_MSC_Setup] ; |144| 
        MOV T0, *SP(#6) ; |144| 
	.dwpsn	file "src/csl_msc.c",line 145,column 2,is_stmt
        B $C$L52  ; |145| 
                                        ; branch occurs ; |145| 
$C$L51:    
	.dwpsn	file "src/csl_msc.c",line 148,column 3,is_stmt
        MOV #-5, *SP(#6) ; |148| 
$C$L52:    
	.dwpsn	file "src/csl_msc.c",line 151,column 2,is_stmt
        MOV *SP(#6), T0 ; |151| 
$C$L53:    
	.dwpsn	file "src/csl_msc.c",line 152,column 1,is_stmt
        AADD #13, SP
	.dwcfi	cfa_offset, 1
$C$DW$261	.dwtag  DW_TAG_TI_branch
	.dwattr $C$DW$261, DW_AT_low_pc(0x00)
	.dwattr $C$DW$261, DW_AT_TI_return
        RET
                                        ; return occurs

$C$DW$262	.dwtag  DW_TAG_TI_loop
	.dwattr $C$DW$262, DW_AT_name("/home/santiago/dspfuzz/on_board/library/csl_msc.asm:$C$L48:1:1714639447")
	.dwattr $C$DW$262, DW_AT_TI_begin_file("src/csl_msc.c")
	.dwattr $C$DW$262, DW_AT_TI_begin_line(0x86)
	.dwattr $C$DW$262, DW_AT_TI_end_line(0x86)
$C$DW$263	.dwtag  DW_TAG_TI_loop_range
	.dwattr $C$DW$263, DW_AT_low_pc($C$DW$L$_MSC_Open$6$B)
	.dwattr $C$DW$263, DW_AT_high_pc($C$DW$L$_MSC_Open$6$E)
	.dwendtag $C$DW$262

	.dwattr $C$DW$247, DW_AT_TI_end_file("src/csl_msc.c")
	.dwattr $C$DW$247, DW_AT_TI_end_line(0x98)
	.dwattr $C$DW$247, DW_AT_TI_end_column(0x01)
	.dwendentry
	.dwendtag $C$DW$247

	.sect	".text"
	.global	_MSC_OpenFullspeed

$C$DW$264	.dwtag  DW_TAG_subprogram, DW_AT_name("MSC_OpenFullspeed")
	.dwattr $C$DW$264, DW_AT_low_pc(_MSC_OpenFullspeed)
	.dwattr $C$DW$264, DW_AT_high_pc(0x00)
	.dwattr $C$DW$264, DW_AT_TI_symbol_name("_MSC_OpenFullspeed")
	.dwattr $C$DW$264, DW_AT_external
	.dwattr $C$DW$264, DW_AT_type(*$C$DW$T$86)
	.dwattr $C$DW$264, DW_AT_TI_begin_file("src/csl_msc.c")
	.dwattr $C$DW$264, DW_AT_TI_begin_line(0xc8)
	.dwattr $C$DW$264, DW_AT_TI_begin_column(0x0c)
	.dwattr $C$DW$264, DW_AT_TI_max_frame_size(0x0e)
	.dwpsn	file "src/csl_msc.c",line 202,column 1,is_stmt,address _MSC_OpenFullspeed

	.dwfde $C$DW$CIE, _MSC_OpenFullspeed
$C$DW$265	.dwtag  DW_TAG_formal_parameter, DW_AT_name("pAppClassHandle")
	.dwattr $C$DW$265, DW_AT_TI_symbol_name("_pAppClassHandle")
	.dwattr $C$DW$265, DW_AT_type(*$C$DW$T$135)
	.dwattr $C$DW$265, DW_AT_location[DW_OP_reg17]
$C$DW$266	.dwtag  DW_TAG_formal_parameter, DW_AT_name("usbConfig")
	.dwattr $C$DW$266, DW_AT_TI_symbol_name("_usbConfig")
	.dwattr $C$DW$266, DW_AT_type(*$C$DW$T$142)
	.dwattr $C$DW$266, DW_AT_location[DW_OP_reg19]
;*******************************************************************************
;* FUNCTION NAME: MSC_OpenFullspeed                                            *
;*                                                                             *
;*   Function Uses Regs : AC0,AC0,AC1,AC1,T0,AR0,XAR0,AR1,XAR1,AR2,AR3,XAR3,SP,*
;*                        CARRY,TC1,M40,SATA,SATD,RDM,FRCT,SMUL                *
;*   Stack Frame        : Compact (No Frame Pointer, w/ debug)                 *
;*   Total Frame Size   : 14 words                                             *
;*                        (2 return address/alignment)                         *
;*                        (2 function parameters)                              *
;*                        (10 local values)                                    *
;*   Min System Stack   : 1 word                                               *
;*******************************************************************************
_MSC_OpenFullspeed:
	.dwcfi	cfa_offset, 1
	.dwcfi	save_reg_to_mem, 91, -1
        AADD #-13, SP
	.dwcfi	cfa_offset, 14
$C$DW$267	.dwtag  DW_TAG_variable, DW_AT_name("pAppClassHandle")
	.dwattr $C$DW$267, DW_AT_TI_symbol_name("_pAppClassHandle")
	.dwattr $C$DW$267, DW_AT_type(*$C$DW$T$135)
	.dwattr $C$DW$267, DW_AT_location[DW_OP_bregx 0x24 2]
$C$DW$268	.dwtag  DW_TAG_variable, DW_AT_name("usbConfig")
	.dwattr $C$DW$268, DW_AT_TI_symbol_name("_usbConfig")
	.dwattr $C$DW$268, DW_AT_type(*$C$DW$T$142)
	.dwattr $C$DW$268, DW_AT_location[DW_OP_bregx 0x24 4]
$C$DW$269	.dwtag  DW_TAG_variable, DW_AT_name("status")
	.dwattr $C$DW$269, DW_AT_TI_symbol_name("_status")
	.dwattr $C$DW$269, DW_AT_type(*$C$DW$T$86)
	.dwattr $C$DW$269, DW_AT_location[DW_OP_bregx 0x24 6]
$C$DW$270	.dwtag  DW_TAG_variable, DW_AT_name("pHandle")
	.dwattr $C$DW$270, DW_AT_TI_symbol_name("_pHandle")
	.dwattr $C$DW$270, DW_AT_type(*$C$DW$T$131)
	.dwattr $C$DW$270, DW_AT_location[DW_OP_bregx 0x24 8]
$C$DW$271	.dwtag  DW_TAG_variable, DW_AT_name("looper")
	.dwattr $C$DW$271, DW_AT_TI_symbol_name("_looper")
	.dwattr $C$DW$271, DW_AT_type(*$C$DW$T$223)
	.dwattr $C$DW$271, DW_AT_location[DW_OP_bregx 0x24 10]
        MOV XAR1, dbl(*SP(#4))
        MOV XAR0, dbl(*SP(#2))
	.dwpsn	file "src/csl_msc.c",line 207,column 2,is_stmt
        MOV #0, *SP(#6) ; |207| 
	.dwpsn	file "src/csl_msc.c",line 208,column 2,is_stmt
        MOV dbl(*SP(#2)), XAR3
        MOV dbl(*AR3), XAR3
        MOV XAR3, dbl(*SP(#8))
	.dwpsn	file "src/csl_msc.c",line 210,column 2,is_stmt
        MOV dbl(*SP(#2)), XAR3
        MOV XAR3, AC0
        BCC $C$L58,AC0 == #0 ; |210| 
                                        ; branchcc occurs ; |210| 
	.dwpsn	file "src/csl_msc.c",line 212,column 3,is_stmt
$C$DW$272	.dwtag  DW_TAG_TI_branch
	.dwattr $C$DW$272, DW_AT_low_pc(0x00)
	.dwattr $C$DW$272, DW_AT_name("_USB_init")
	.dwattr $C$DW$272, DW_AT_TI_call
        CALL #_USB_init ; |212| 
                                        ; call occurs [#_USB_init] ; |212| 
	.dwpsn	file "src/csl_msc.c",line 214,column 3,is_stmt
$C$DW$273	.dwtag  DW_TAG_TI_branch
	.dwattr $C$DW$273, DW_AT_low_pc(0x00)
	.dwattr $C$DW$273, DW_AT_name("_USB_open")
	.dwattr $C$DW$273, DW_AT_TI_call

        CALL #_USB_open ; |214| 
||      MOV #0, T0

                                        ; call occurs [#_USB_open] ; |214| 
        MOV dbl(*SP(#8)), XAR3
        MOV XAR0, dbl(*AR3)
	.dwpsn	file "src/csl_msc.c",line 215,column 3,is_stmt
        MOV dbl(*SP(#8)), XAR3
        MOV dbl(*AR3), XAR3

        MOV XAR3, AC0
||      MOV #0, AC1 ; |215| 

        CMPU AC1 != AC0, TC1 ; |215| 
        BCC $C$L54,TC1 ; |215| 
                                        ; branchcc occurs ; |215| 
	.dwpsn	file "src/csl_msc.c",line 217,column 4,is_stmt
        MOV #-5, T0
        B $C$L60  ; |217| 
                                        ; branch occurs ; |217| 
$C$L54:    
	.dwpsn	file "src/csl_msc.c",line 220,column 3,is_stmt
        MOV dbl(*SP(#8)), XAR3
        MOV dbl(*SP(#4)), XAR1
        MOV dbl(*AR3), XAR0
$C$DW$274	.dwtag  DW_TAG_TI_branch
	.dwattr $C$DW$274, DW_AT_low_pc(0x00)
	.dwattr $C$DW$274, DW_AT_name("_USB_config")
	.dwattr $C$DW$274, DW_AT_TI_call
        CALL #_USB_config ; |220| 
                                        ; call occurs [#_USB_config] ; |220| 
        MOV T0, *SP(#6) ; |220| 
	.dwpsn	file "src/csl_msc.c",line 221,column 3,is_stmt

        MOV T0, AR1
||      MOV #0, AR2

        CMP AR2 == AR1, TC1 ; |221| 
        BCC $C$L60,!TC1 ; |221| 
                                        ; branchcc occurs ; |221| 
	.dwpsn	file "src/csl_msc.c",line 223,column 4,is_stmt
	.dwpsn	file "src/csl_msc.c",line 227,column 7,is_stmt
        MOV #0, AC0 ; |227| 
        MOV AC0, dbl(*SP(#10)) ; |227| 
        NOP
        NOP
	.dwpsn	file "src/csl_msc.c",line 227,column 19,is_stmt
        AMOV #90000, XAR3 ; |227| 
        MOV dbl(*SP(#10)), AC1 ; |227| 
        MOV XAR3, AC0
        CMPU AC1 >= AC0, TC1 ; |227| 
        BCC $C$L56,TC1 ; |227| 
                                        ; branchcc occurs ; |227| 
$C$L55:    
$C$DW$L$_MSC_OpenFullspeed$6$B:
	.dwpsn	file "src/csl_msc.c",line 227,column 35,is_stmt
        MOV dbl(*SP(#10)), AC0 ; |227| 
        ADD #1, AC0 ; |227| 
        MOV AC0, dbl(*SP(#10)) ; |227| 
        NOP
        NOP
	.dwpsn	file "src/csl_msc.c",line 227,column 19,is_stmt
        MOV XAR3, AC0
        MOV dbl(*SP(#10)), AC1 ; |227| 
        CMPU AC1 < AC0, TC1 ; |227| 
        BCC $C$L55,TC1 ; |227| 
                                        ; branchcc occurs ; |227| 
$C$DW$L$_MSC_OpenFullspeed$6$E:
$C$L56:    
	.dwpsn	file "src/csl_msc.c",line 230,column 3,is_stmt
        MOV dbl(*SP(#8)), XAR3
        MOV dbl(*AR3), XAR0
$C$DW$275	.dwtag  DW_TAG_TI_branch
	.dwattr $C$DW$275, DW_AT_low_pc(0x00)
	.dwattr $C$DW$275, DW_AT_name("_USB_resetDev")
	.dwattr $C$DW$275, DW_AT_TI_call
        CALL #_USB_resetDev ; |230| 
                                        ; call occurs [#_USB_resetDev] ; |230| 
        MOV T0, *SP(#6) ; |230| 
	.dwpsn	file "src/csl_msc.c",line 231,column 3,is_stmt
        MOV T0, AR1
        BCC $C$L57,AR1 == #0 ; |231| 
                                        ; branchcc occurs ; |231| 
	.dwpsn	file "src/csl_msc.c",line 233,column 4,is_stmt
        AMOV #$C$FSL1, XAR3 ; |233| 
        MOV XAR3, dbl(*SP(#0))
$C$DW$276	.dwtag  DW_TAG_TI_branch
	.dwattr $C$DW$276, DW_AT_low_pc(0x00)
	.dwattr $C$DW$276, DW_AT_name("_printf")
	.dwattr $C$DW$276, DW_AT_TI_call
        CALL #_printf ; |233| 
                                        ; call occurs [#_printf] ; |233| 
	.dwpsn	file "src/csl_msc.c",line 234,column 4,is_stmt
        MOV *SP(#6), T0 ; |234| 
        B $C$L60  ; |234| 
                                        ; branch occurs ; |234| 
$C$L57:    
	.dwpsn	file "src/csl_msc.c",line 237,column 3,is_stmt
        MOV dbl(*SP(#2)), XAR0
$C$DW$277	.dwtag  DW_TAG_TI_branch
	.dwattr $C$DW$277, DW_AT_low_pc(0x00)
	.dwattr $C$DW$277, DW_AT_name("_MSC_Setup")
	.dwattr $C$DW$277, DW_AT_TI_call

        CALL #_MSC_Setup ; |237| 
||      MOV #0, T0

                                        ; call occurs [#_MSC_Setup] ; |237| 
        MOV T0, *SP(#6) ; |237| 
	.dwpsn	file "src/csl_msc.c",line 238,column 3,is_stmt
        MOV dbl(*SP(#8)), XAR3
        MOV #64, T0 ; |238| 
        MOV dbl(*AR3), XAR0
$C$DW$278	.dwtag  DW_TAG_TI_branch
	.dwattr $C$DW$278, DW_AT_low_pc(0x00)
	.dwattr $C$DW$278, DW_AT_name("_USB_setFullSpeedMode")
	.dwattr $C$DW$278, DW_AT_TI_call
        CALL #_USB_setFullSpeedMode ; |238| 
                                        ; call occurs [#_USB_setFullSpeedMode] ; |238| 
	.dwpsn	file "src/csl_msc.c",line 239,column 2,is_stmt
        B $C$L59  ; |239| 
                                        ; branch occurs ; |239| 
$C$L58:    
	.dwpsn	file "src/csl_msc.c",line 242,column 3,is_stmt
        MOV #-5, *SP(#6) ; |242| 
$C$L59:    
	.dwpsn	file "src/csl_msc.c",line 245,column 2,is_stmt
        MOV *SP(#6), T0 ; |245| 
$C$L60:    
	.dwpsn	file "src/csl_msc.c",line 246,column 1,is_stmt
        AADD #13, SP
	.dwcfi	cfa_offset, 1
$C$DW$279	.dwtag  DW_TAG_TI_branch
	.dwattr $C$DW$279, DW_AT_low_pc(0x00)
	.dwattr $C$DW$279, DW_AT_TI_return
        RET
                                        ; return occurs

$C$DW$280	.dwtag  DW_TAG_TI_loop
	.dwattr $C$DW$280, DW_AT_name("/home/santiago/dspfuzz/on_board/library/csl_msc.asm:$C$L55:1:1714639447")
	.dwattr $C$DW$280, DW_AT_TI_begin_file("src/csl_msc.c")
	.dwattr $C$DW$280, DW_AT_TI_begin_line(0xe3)
	.dwattr $C$DW$280, DW_AT_TI_end_line(0xe3)
$C$DW$281	.dwtag  DW_TAG_TI_loop_range
	.dwattr $C$DW$281, DW_AT_low_pc($C$DW$L$_MSC_OpenFullspeed$6$B)
	.dwattr $C$DW$281, DW_AT_high_pc($C$DW$L$_MSC_OpenFullspeed$6$E)
	.dwendtag $C$DW$280

	.dwattr $C$DW$264, DW_AT_TI_end_file("src/csl_msc.c")
	.dwattr $C$DW$264, DW_AT_TI_end_line(0xf6)
	.dwattr $C$DW$264, DW_AT_TI_end_column(0x01)
	.dwendentry
	.dwendtag $C$DW$264

	.sect	".text"

$C$DW$282	.dwtag  DW_TAG_subprogram, DW_AT_name("MSC_Setup")
	.dwattr $C$DW$282, DW_AT_low_pc(_MSC_Setup)
	.dwattr $C$DW$282, DW_AT_high_pc(0x00)
	.dwattr $C$DW$282, DW_AT_TI_symbol_name("_MSC_Setup")
	.dwattr $C$DW$282, DW_AT_type(*$C$DW$T$86)
	.dwattr $C$DW$282, DW_AT_TI_begin_file("src/csl_msc.c")
	.dwattr $C$DW$282, DW_AT_TI_begin_line(0x128)
	.dwattr $C$DW$282, DW_AT_TI_begin_column(0x13)
	.dwattr $C$DW$282, DW_AT_TI_max_frame_size(0x18)
	.dwpsn	file "src/csl_msc.c",line 298,column 1,is_stmt,address _MSC_Setup

	.dwfde $C$DW$CIE, _MSC_Setup
$C$DW$283	.dwtag  DW_TAG_formal_parameter, DW_AT_name("pAppClassHandle")
	.dwattr $C$DW$283, DW_AT_TI_symbol_name("_pAppClassHandle")
	.dwattr $C$DW$283, DW_AT_type(*$C$DW$T$135)
	.dwattr $C$DW$283, DW_AT_location[DW_OP_reg17]
$C$DW$284	.dwtag  DW_TAG_formal_parameter, DW_AT_name("usbSpeedCfg")
	.dwattr $C$DW$284, DW_AT_TI_symbol_name("_usbSpeedCfg")
	.dwattr $C$DW$284, DW_AT_type(*$C$DW$T$49)
	.dwattr $C$DW$284, DW_AT_location[DW_OP_reg12]
;*******************************************************************************
;* FUNCTION NAME: MSC_Setup                                                    *
;*                                                                             *
;*   Function Uses Regs : AC0,AC0,AC1,AC1,T0,AR0,XAR0,AR1,XAR1,AR2,XAR2,AR3,   *
;*                        XAR3,SP,CARRY,TC1,M40,SATA,SATD,RDM,FRCT,SMUL        *
;*   Stack Frame        : Compact (No Frame Pointer, w/ debug)                 *
;*   Total Frame Size   : 24 words                                             *
;*                        (2 return address/alignment)                         *
;*                        (22 local values)                                    *
;*   Min System Stack   : 1 word                                               *
;*******************************************************************************
_MSC_Setup:
	.dwcfi	cfa_offset, 1
	.dwcfi	save_reg_to_mem, 91, -1
        AADD #-23, SP
	.dwcfi	cfa_offset, 24
$C$DW$285	.dwtag  DW_TAG_variable, DW_AT_name("pAppClassHandle")
	.dwattr $C$DW$285, DW_AT_TI_symbol_name("_pAppClassHandle")
	.dwattr $C$DW$285, DW_AT_type(*$C$DW$T$135)
	.dwattr $C$DW$285, DW_AT_location[DW_OP_bregx 0x24 0]
$C$DW$286	.dwtag  DW_TAG_variable, DW_AT_name("usbSpeedCfg")
	.dwattr $C$DW$286, DW_AT_TI_symbol_name("_usbSpeedCfg")
	.dwattr $C$DW$286, DW_AT_type(*$C$DW$T$49)
	.dwattr $C$DW$286, DW_AT_location[DW_OP_bregx 0x24 2]
$C$DW$287	.dwtag  DW_TAG_variable, DW_AT_name("pHandle")
	.dwattr $C$DW$287, DW_AT_TI_symbol_name("_pHandle")
	.dwattr $C$DW$287, DW_AT_type(*$C$DW$T$131)
	.dwattr $C$DW$287, DW_AT_location[DW_OP_bregx 0x24 4]
$C$DW$288	.dwtag  DW_TAG_variable, DW_AT_name("mediaStatus")
	.dwattr $C$DW$288, DW_AT_TI_symbol_name("_mediaStatus")
	.dwattr $C$DW$288, DW_AT_type(*$C$DW$T$55)
	.dwattr $C$DW$288, DW_AT_location[DW_OP_bregx 0x24 6]
$C$DW$289	.dwtag  DW_TAG_variable, DW_AT_name("status")
	.dwattr $C$DW$289, DW_AT_TI_symbol_name("_status")
	.dwattr $C$DW$289, DW_AT_type(*$C$DW$T$86)
	.dwattr $C$DW$289, DW_AT_location[DW_OP_bregx 0x24 7]
$C$DW$290	.dwtag  DW_TAG_variable, DW_AT_name("initLun")
	.dwattr $C$DW$290, DW_AT_TI_symbol_name("_initLun")
	.dwattr $C$DW$290, DW_AT_type(*$C$DW$T$30)
	.dwattr $C$DW$290, DW_AT_location[DW_OP_bregx 0x24 8]
$C$DW$291	.dwtag  DW_TAG_variable, DW_AT_name("eventMask")
	.dwattr $C$DW$291, DW_AT_TI_symbol_name("_eventMask")
	.dwattr $C$DW$291, DW_AT_type(*$C$DW$T$30)
	.dwattr $C$DW$291, DW_AT_location[DW_OP_bregx 0x24 9]
$C$DW$292	.dwtag  DW_TAG_variable, DW_AT_name("maxPktSize")
	.dwattr $C$DW$292, DW_AT_TI_symbol_name("_maxPktSize")
	.dwattr $C$DW$292, DW_AT_type(*$C$DW$T$30)
	.dwattr $C$DW$292, DW_AT_location[DW_OP_bregx 0x24 10]
$C$DW$293	.dwtag  DW_TAG_variable, DW_AT_name("usbEpConfig")
	.dwattr $C$DW$293, DW_AT_TI_symbol_name("_usbEpConfig")
	.dwattr $C$DW$293, DW_AT_type(*$C$DW$T$146)
	.dwattr $C$DW$293, DW_AT_location[DW_OP_bregx 0x24 12]
        MOV T0, *SP(#2) ; |298| 
        MOV XAR0, dbl(*SP(#0))
	.dwpsn	file "src/csl_msc.c",line 307,column 2,is_stmt
        MOV #0, *SP(#7) ; |307| 
	.dwpsn	file "src/csl_msc.c",line 308,column 2,is_stmt
        MOV dbl(*SP(#0)), XAR3
        MOV dbl(*AR3), XAR3
        MOV XAR3, dbl(*SP(#4))
	.dwpsn	file "src/csl_msc.c",line 310,column 2,is_stmt
        MOV dbl(*SP(#0)), XAR3
        MOV XAR3, AC0
        BCC $C$L78,AC0 == #0 ; |310| 
                                        ; branchcc occurs ; |310| 
	.dwpsn	file "src/csl_msc.c",line 313,column 3,is_stmt
        MOV *AR3(short(#4)), AR1 ; |313| 
        BCC $C$L61,AR1 == #0 ; |313| 
                                        ; branchcc occurs ; |313| 
	.dwpsn	file "src/csl_msc.c",line 315,column 4,is_stmt
        MOV *AR3(short(#4)), AR1 ; |315| 
        MOV dbl(*SP(#4)), XAR3
        SUB #1, AR1 ; |315| 
        MOV AR1, *AR3(#466) ; |315| 
$C$L61:    
	.dwpsn	file "src/csl_msc.c",line 317,column 3,is_stmt
        MOV dbl(*SP(#4)), XAR3
        MOV #0, *AR3(short(#4)) ; |317| 
	.dwpsn	file "src/csl_msc.c",line 320,column 3,is_stmt
        MOV dbl(*SP(#4)), XAR3
        MOV #0, *AR3(#8) ; |320| 
	.dwpsn	file "src/csl_msc.c",line 321,column 3,is_stmt
        MOV dbl(*SP(#4)), XAR3
        MOV #0, *AR3(#116) ; |321| 
	.dwpsn	file "src/csl_msc.c",line 324,column 3,is_stmt
        MOV dbl(*SP(#0)), XAR3
        MOV dbl(*SP(#4)), XAR2
        MOV dbl(*AR3(short(#6))), XAR3

        MOV XAR2, dbl(*AR3)
||      AADD #112, AR2 ; |324| 

	.dwpsn	file "src/csl_msc.c",line 327,column 3,is_stmt
        MOV dbl(*SP(#0)), XAR3
        MOV dbl(*SP(#4)), XAR2
        MOV dbl(*AR3(short(#6))), XAR3
        MOV XAR3, dbl(*AR2(#136))
	.dwpsn	file "src/csl_msc.c",line 328,column 3,is_stmt
        MOV dbl(*SP(#0)), XAR3
        MOV dbl(*SP(#4)), XAR2
        MOV dbl(*AR3(#10)), XAR3
        MOV XAR3, dbl(*AR2(#138))
	.dwpsn	file "src/csl_msc.c",line 329,column 3,is_stmt
        MOV dbl(*SP(#4)), XAR3
        MOV *SP(#2), AR1 ; |329| 
        MOV AR1, *AR3(#142) ; |329| 
	.dwpsn	file "src/csl_msc.c",line 332,column 3,is_stmt
        MOV dbl(*SP(#4)), XAR0
$C$DW$294	.dwtag  DW_TAG_TI_branch
	.dwattr $C$DW$294, DW_AT_low_pc(0x00)
	.dwattr $C$DW$294, DW_AT_name("_MSC_initCtrlDesc")
	.dwattr $C$DW$294, DW_AT_TI_call
        CALL #_MSC_initCtrlDesc ; |332| 
                                        ; call occurs [#_MSC_initCtrlDesc] ; |332| 
        MOV T0, *SP(#7) ; |332| 
	.dwpsn	file "src/csl_msc.c",line 333,column 3,is_stmt
        MOV T0, AR1
        BCC $C$L80,AR1 != #0 ; |333| 
                                        ; branchcc occurs ; |333| 
	.dwpsn	file "src/csl_msc.c",line 335,column 4,is_stmt
	.dwpsn	file "src/csl_msc.c",line 339,column 3,is_stmt
        MOV dbl(*SP(#0)), XAR3
        MOV *AR3(short(#3)), AR1 ; |339| 
        MOV dbl(*SP(#4)), XAR3
        MOV AR1, *AR3(#65) ; |339| 
	.dwpsn	file "src/csl_msc.c",line 340,column 3,is_stmt
        MOV dbl(*SP(#0)), XAR3
        MOV *AR3(short(#2)), AR1 ; |340| 
        MOV dbl(*SP(#4)), XAR3
        MOV AR1, *AR3(#66) ; |340| 
	.dwpsn	file "src/csl_msc.c",line 343,column 3,is_stmt
        MOV dbl(*SP(#0)), XAR3
        MOV dbl(*SP(#4)), XAR2
        MOV dbl(*AR3(#8)), XAR3
        MOV XAR3, dbl(*AR2(#162))
	.dwpsn	file "src/csl_msc.c",line 344,column 3,is_stmt
        MOV dbl(*SP(#0)), XAR3
        MOV #148, T0 ; |344| 
        MOV dbl(*SP(#4)), XAR2
        AADD #16, AR3 ; |344| 
        MOV dbl(*AR3), dbl(*AR2(T0)) ; |344| 
	.dwpsn	file "src/csl_msc.c",line 345,column 3,is_stmt
        MOV dbl(*SP(#0)), XAR3
        MOV #150, T0 ; |345| 
        MOV dbl(*SP(#4)), XAR2
        AADD #18, AR3 ; |345| 
        MOV dbl(*AR3), dbl(*AR2(T0)) ; |345| 
	.dwpsn	file "src/csl_msc.c",line 346,column 3,is_stmt
        MOV dbl(*SP(#0)), XAR3
        MOV #152, T0 ; |346| 
        MOV dbl(*SP(#4)), XAR2
        AADD #20, AR3 ; |346| 
        MOV dbl(*AR3), dbl(*AR2(T0)) ; |346| 
	.dwpsn	file "src/csl_msc.c",line 348,column 3,is_stmt
        MOV dbl(*SP(#0)), XAR3
        MOV #154, T0 ; |348| 
        MOV dbl(*SP(#4)), XAR2
        AADD #22, AR3 ; |348| 
        MOV dbl(*AR3), dbl(*AR2(T0)) ; |348| 
	.dwpsn	file "src/csl_msc.c",line 349,column 3,is_stmt
        MOV dbl(*SP(#0)), XAR3
        MOV #156, T0 ; |349| 
        MOV dbl(*SP(#4)), XAR2
        AADD #24, AR3 ; |349| 
        MOV dbl(*AR3), dbl(*AR2(T0)) ; |349| 
	.dwpsn	file "src/csl_msc.c",line 350,column 3,is_stmt
        MOV dbl(*SP(#0)), XAR3
        MOV #158, T0 ; |350| 
        MOV dbl(*SP(#4)), XAR2
        AADD #26, AR3 ; |350| 
        MOV dbl(*AR3), dbl(*AR2(T0)) ; |350| 
	.dwpsn	file "src/csl_msc.c",line 351,column 3,is_stmt
        MOV dbl(*SP(#0)), XAR3
        MOV #160, T0 ; |351| 
        MOV dbl(*SP(#4)), XAR2
        AADD #28, AR3 ; |351| 
        MOV dbl(*AR3), dbl(*AR2(T0)) ; |351| 
	.dwpsn	file "src/csl_msc.c",line 354,column 3,is_stmt
        MOV dbl(*SP(#4)), XAR0
        AMAR *+AR0(#148) ; |354| 
$C$DW$295	.dwtag  DW_TAG_TI_branch
	.dwattr $C$DW$295, DW_AT_low_pc(0x00)
	.dwattr $C$DW$295, DW_AT_name("_MSC_initMscVal")
	.dwattr $C$DW$295, DW_AT_TI_call
        CALL #_MSC_initMscVal ; |354| 
                                        ; call occurs [#_MSC_initMscVal] ; |354| 
        MOV T0, *SP(#7) ; |354| 
	.dwpsn	file "src/csl_msc.c",line 355,column 3,is_stmt
        MOV T0, AR1
        BCC $C$L80,AR1 != #0 ; |355| 
                                        ; branchcc occurs ; |355| 
	.dwpsn	file "src/csl_msc.c",line 357,column 4,is_stmt
	.dwpsn	file "src/csl_msc.c",line 361,column 3,is_stmt
        MOV #61, *SP(#9) ; |361| 
	.dwpsn	file "src/csl_msc.c",line 365,column 3,is_stmt
        CMP *SP(#2) == #1, TC1 ; |365| 
        BCC $C$L62,!TC1 ; |365| 
                                        ; branchcc occurs ; |365| 
	.dwpsn	file "src/csl_msc.c",line 367,column 4,is_stmt
        MOV #512, *SP(#10) ; |367| 
	.dwpsn	file "src/csl_msc.c",line 368,column 3,is_stmt
        B $C$L63  ; |368| 
                                        ; branch occurs ; |368| 
$C$L62:    
	.dwpsn	file "src/csl_msc.c",line 371,column 4,is_stmt
        MOV #64, *SP(#10) ; |371| 
$C$L63:    
	.dwpsn	file "src/csl_msc.c",line 383,column 3,is_stmt
        MOV dbl(*SP(#4)), XAR3
        AMAR *SP(#7), XAR1
        MOV dbl(*AR3), XAR0
$C$DW$296	.dwtag  DW_TAG_TI_branch
	.dwattr $C$DW$296, DW_AT_low_pc(0x00)
	.dwattr $C$DW$296, DW_AT_name("_USB_requestEndpt")
	.dwattr $C$DW$296, DW_AT_TI_call

        CALL #_USB_requestEndpt ; |383| 
||      MOV #0, T0

                                        ; call occurs [#_USB_requestEndpt] ; |383| 
        MOV dbl(*SP(#4)), XAR3
        MOV XAR0, dbl(*AR3(short(#6)))
	.dwpsn	file "src/csl_msc.c",line 384,column 3,is_stmt
        MOV dbl(*SP(#4)), XAR3
        MOV dbl(*AR3(short(#6))), XAR3

        MOV XAR3, AC0
||      MOV #0, AC1 ; |384| 

        CMPU AC1 == AC0, TC1 ; |384| 
        BCC $C$L64,TC1 ; |384| 
                                        ; branchcc occurs ; |384| 

        MOV #0, AR2
||      MOV *SP(#7), AR1 ; |384| 

        CMP AR2 == AR1, TC1 ; |384| 
        BCC $C$L65,TC1 ; |384| 
                                        ; branchcc occurs ; |384| 
$C$L64:    
	.dwpsn	file "src/csl_msc.c",line 386,column 4,is_stmt
        MOV #-1, T0
        B $C$L80  ; |386| 
                                        ; branch occurs ; |386| 
$C$L65:    
	.dwpsn	file "src/csl_msc.c",line 389,column 3,is_stmt
        MOV #0, *SP(#12) ; |389| 
	.dwpsn	file "src/csl_msc.c",line 390,column 3,is_stmt
        MOV #0, *SP(#13) ; |390| 
	.dwpsn	file "src/csl_msc.c",line 391,column 3,is_stmt
        MOV #0, *SP(#14) ; |391| 
	.dwpsn	file "src/csl_msc.c",line 392,column 3,is_stmt
        MOV #64, *SP(#15) ; |392| 
	.dwpsn	file "src/csl_msc.c",line 393,column 3,is_stmt
        MOV *SP(#9), AR1 ; |393| 
        MOV AR1, *SP(#16) ; |393| 
	.dwpsn	file "src/csl_msc.c",line 394,column 3,is_stmt
        MOV #0, *SP(#17) ; |394| 
	.dwpsn	file "src/csl_msc.c",line 395,column 3,is_stmt
        MOV #0, *SP(#18) ; |395| 
	.dwpsn	file "src/csl_msc.c",line 396,column 3,is_stmt
        MOV dbl(*SP(#0)), XAR3
        MOV dbl(*AR3(#14)), AC0 ; |396| 
        MOV AC0, dbl(*SP(#20)) ; |396| 
	.dwpsn	file "src/csl_msc.c",line 398,column 3,is_stmt
        MOV dbl(*SP(#4)), XAR3
        AMAR *SP(#12), XAR1
        MOV dbl(*AR3(short(#6))), XAR0
$C$DW$297	.dwtag  DW_TAG_TI_branch
	.dwattr $C$DW$297, DW_AT_low_pc(0x00)
	.dwattr $C$DW$297, DW_AT_name("_USB_configEndpt")
	.dwattr $C$DW$297, DW_AT_TI_call
        CALL #_USB_configEndpt ; |398| 
                                        ; call occurs [#_USB_configEndpt] ; |398| 
        MOV T0, *SP(#7) ; |398| 
	.dwpsn	file "src/csl_msc.c",line 402,column 3,is_stmt
        MOV T0, AR1
        BCC $C$L80,AR1 != #0 ; |402| 
                                        ; branchcc occurs ; |402| 
	.dwpsn	file "src/csl_msc.c",line 404,column 4,is_stmt
	.dwpsn	file "src/csl_msc.c",line 417,column 3,is_stmt
        MOV dbl(*SP(#4)), XAR3
        AMAR *SP(#7), XAR1
        MOV dbl(*AR3), XAR0
$C$DW$298	.dwtag  DW_TAG_TI_branch
	.dwattr $C$DW$298, DW_AT_low_pc(0x00)
	.dwattr $C$DW$298, DW_AT_name("_USB_requestEndpt")
	.dwattr $C$DW$298, DW_AT_TI_call

        CALL #_USB_requestEndpt ; |417| 
||      MOV #8, T0

                                        ; call occurs [#_USB_requestEndpt] ; |417| 
        MOV dbl(*SP(#4)), XAR3
        MOV XAR0, dbl(*AR3(short(#2)))
	.dwpsn	file "src/csl_msc.c",line 418,column 3,is_stmt
        MOV dbl(*SP(#4)), XAR3
        MOV dbl(*AR3(short(#2))), XAR3

        MOV XAR3, AC0
||      MOV #0, AC1 ; |418| 

        CMPU AC1 == AC0, TC1 ; |418| 
        BCC $C$L66,TC1 ; |418| 
                                        ; branchcc occurs ; |418| 

        MOV #0, AR2
||      MOV *SP(#7), AR1 ; |418| 

        CMP AR2 == AR1, TC1 ; |418| 
        BCC $C$L67,TC1 ; |418| 
                                        ; branchcc occurs ; |418| 
$C$L66:    
	.dwpsn	file "src/csl_msc.c",line 420,column 4,is_stmt
        MOV #-1, T0
        B $C$L80  ; |420| 
                                        ; branch occurs ; |420| 
$C$L67:    
	.dwpsn	file "src/csl_msc.c",line 423,column 3,is_stmt
        MOV #0, *SP(#12) ; |423| 
	.dwpsn	file "src/csl_msc.c",line 424,column 3,is_stmt
        MOV #8, *SP(#13) ; |424| 
	.dwpsn	file "src/csl_msc.c",line 425,column 3,is_stmt
        MOV #0, *SP(#14) ; |425| 
	.dwpsn	file "src/csl_msc.c",line 426,column 3,is_stmt
        MOV #64, *SP(#15) ; |426| 
	.dwpsn	file "src/csl_msc.c",line 427,column 3,is_stmt
        MOV #32, *SP(#16) ; |427| 
	.dwpsn	file "src/csl_msc.c",line 428,column 3,is_stmt
        MOV #0, *SP(#17) ; |428| 
	.dwpsn	file "src/csl_msc.c",line 429,column 3,is_stmt
        MOV #0, *SP(#18) ; |429| 
	.dwpsn	file "src/csl_msc.c",line 430,column 3,is_stmt
        MOV dbl(*SP(#0)), XAR3
        MOV dbl(*AR3(#14)), AC0 ; |430| 
        MOV AC0, dbl(*SP(#20)) ; |430| 
	.dwpsn	file "src/csl_msc.c",line 432,column 3,is_stmt
        MOV dbl(*SP(#4)), XAR3
        AMAR *SP(#12), XAR1
        MOV dbl(*AR3(short(#2))), XAR0
$C$DW$299	.dwtag  DW_TAG_TI_branch
	.dwattr $C$DW$299, DW_AT_low_pc(0x00)
	.dwattr $C$DW$299, DW_AT_name("_USB_configEndpt")
	.dwattr $C$DW$299, DW_AT_TI_call
        CALL #_USB_configEndpt ; |432| 
                                        ; call occurs [#_USB_configEndpt] ; |432| 
        MOV T0, *SP(#7) ; |432| 
	.dwpsn	file "src/csl_msc.c",line 436,column 3,is_stmt
        MOV T0, AR1
        BCC $C$L80,AR1 != #0 ; |436| 
                                        ; branchcc occurs ; |436| 
	.dwpsn	file "src/csl_msc.c",line 438,column 4,is_stmt
	.dwpsn	file "src/csl_msc.c",line 442,column 3,is_stmt
        MOV #33, *SP(#9) ; |442| 
	.dwpsn	file "src/csl_msc.c",line 452,column 3,is_stmt
        MOV dbl(*SP(#4)), XAR3
        AMAR *SP(#7), XAR1
        MOV dbl(*AR3), XAR0
$C$DW$300	.dwtag  DW_TAG_TI_branch
	.dwattr $C$DW$300, DW_AT_low_pc(0x00)
	.dwattr $C$DW$300, DW_AT_name("_USB_requestEndpt")
	.dwattr $C$DW$300, DW_AT_TI_call

        CALL #_USB_requestEndpt ; |452| 
||      MOV #9, T0

                                        ; call occurs [#_USB_requestEndpt] ; |452| 
        MOV dbl(*SP(#4)), XAR3
        MOV XAR0, dbl(*AR3(#462))
	.dwpsn	file "src/csl_msc.c",line 453,column 3,is_stmt
        MOV dbl(*SP(#4)), XAR3
        MOV dbl(*AR3(#462)), XAR3

        MOV XAR3, AC0
||      MOV #0, AC1 ; |453| 

        CMPU AC1 == AC0, TC1 ; |453| 
        BCC $C$L68,TC1 ; |453| 
                                        ; branchcc occurs ; |453| 

        MOV #0, AR2
||      MOV *SP(#7), AR1 ; |453| 

        CMP AR2 == AR1, TC1 ; |453| 
        BCC $C$L69,TC1 ; |453| 
                                        ; branchcc occurs ; |453| 
$C$L68:    
	.dwpsn	file "src/csl_msc.c",line 455,column 4,is_stmt
        MOV #-1, T0
        B $C$L80  ; |455| 
                                        ; branch occurs ; |455| 
$C$L69:    
	.dwpsn	file "src/csl_msc.c",line 458,column 3,is_stmt
        MOV #0, *SP(#12) ; |458| 
	.dwpsn	file "src/csl_msc.c",line 459,column 3,is_stmt
        MOV #9, *SP(#13) ; |459| 
	.dwpsn	file "src/csl_msc.c",line 460,column 3,is_stmt
        MOV #1, *SP(#14) ; |460| 
	.dwpsn	file "src/csl_msc.c",line 461,column 3,is_stmt
        MOV *SP(#10), AR1 ; |461| 
        MOV AR1, *SP(#15) ; |461| 
	.dwpsn	file "src/csl_msc.c",line 462,column 3,is_stmt
        MOV *SP(#9), AR1 ; |462| 
        MOV AR1, *SP(#16) ; |462| 
	.dwpsn	file "src/csl_msc.c",line 463,column 3,is_stmt
        MOV #0, *SP(#17) ; |463| 
	.dwpsn	file "src/csl_msc.c",line 464,column 3,is_stmt
        MOV #0, *SP(#18) ; |464| 
	.dwpsn	file "src/csl_msc.c",line 465,column 3,is_stmt
        MOV dbl(*SP(#0)), XAR3
        MOV dbl(*AR3(#12)), AC0 ; |465| 
        MOV AC0, dbl(*SP(#20)) ; |465| 
	.dwpsn	file "src/csl_msc.c",line 467,column 3,is_stmt
        MOV dbl(*SP(#4)), XAR3
        AMAR *SP(#12), XAR1
        MOV dbl(*AR3(#462)), XAR0
$C$DW$301	.dwtag  DW_TAG_TI_branch
	.dwattr $C$DW$301, DW_AT_low_pc(0x00)
	.dwattr $C$DW$301, DW_AT_name("_USB_configEndpt")
	.dwattr $C$DW$301, DW_AT_TI_call
        CALL #_USB_configEndpt ; |467| 
                                        ; call occurs [#_USB_configEndpt] ; |467| 
        MOV T0, *SP(#7) ; |467| 
	.dwpsn	file "src/csl_msc.c",line 471,column 3,is_stmt
        MOV T0, AR1
        BCC $C$L80,AR1 != #0 ; |471| 
                                        ; branchcc occurs ; |471| 
	.dwpsn	file "src/csl_msc.c",line 473,column 4,is_stmt
	.dwpsn	file "src/csl_msc.c",line 486,column 3,is_stmt
        MOV dbl(*SP(#4)), XAR3
        AMAR *SP(#7), XAR1
        MOV dbl(*AR3), XAR0
$C$DW$302	.dwtag  DW_TAG_TI_branch
	.dwattr $C$DW$302, DW_AT_low_pc(0x00)
	.dwattr $C$DW$302, DW_AT_name("_USB_requestEndpt")
	.dwattr $C$DW$302, DW_AT_TI_call

        CALL #_USB_requestEndpt ; |486| 
||      MOV #2, T0

                                        ; call occurs [#_USB_requestEndpt] ; |486| 
        MOV dbl(*SP(#4)), XAR3
        MOV XAR0, dbl(*AR3(#464))
	.dwpsn	file "src/csl_msc.c",line 487,column 3,is_stmt
        MOV dbl(*SP(#4)), XAR3
        MOV dbl(*AR3(#464)), XAR3

        MOV XAR3, AC0
||      MOV #0, AC1 ; |487| 

        CMPU AC1 == AC0, TC1 ; |487| 
        BCC $C$L70,TC1 ; |487| 
                                        ; branchcc occurs ; |487| 

        MOV #0, AR2
||      MOV *SP(#7), AR1 ; |487| 

        CMP AR2 == AR1, TC1 ; |487| 
        BCC $C$L71,TC1 ; |487| 
                                        ; branchcc occurs ; |487| 
$C$L70:    
	.dwpsn	file "src/csl_msc.c",line 489,column 4,is_stmt
        MOV #-1, T0
        B $C$L80  ; |489| 
                                        ; branch occurs ; |489| 
$C$L71:    
	.dwpsn	file "src/csl_msc.c",line 492,column 3,is_stmt
        MOV #0, *SP(#12) ; |492| 
	.dwpsn	file "src/csl_msc.c",line 493,column 3,is_stmt
        MOV #2, *SP(#13) ; |493| 
	.dwpsn	file "src/csl_msc.c",line 494,column 3,is_stmt
        MOV #1, *SP(#14) ; |494| 
	.dwpsn	file "src/csl_msc.c",line 495,column 3,is_stmt
        MOV *SP(#10), AR1 ; |495| 
        MOV AR1, *SP(#15) ; |495| 
	.dwpsn	file "src/csl_msc.c",line 496,column 3,is_stmt
        MOV #32, *SP(#16) ; |496| 
	.dwpsn	file "src/csl_msc.c",line 497,column 3,is_stmt
        MOV #0, *SP(#17) ; |497| 
	.dwpsn	file "src/csl_msc.c",line 498,column 3,is_stmt
        MOV #0, *SP(#18) ; |498| 
	.dwpsn	file "src/csl_msc.c",line 499,column 3,is_stmt
        MOV dbl(*SP(#0)), XAR3
        MOV dbl(*AR3(#12)), AC0 ; |499| 
        MOV AC0, dbl(*SP(#20)) ; |499| 
	.dwpsn	file "src/csl_msc.c",line 501,column 3,is_stmt
        MOV dbl(*SP(#4)), XAR3
        AMAR *SP(#12), XAR1
        MOV dbl(*AR3(#464)), XAR0
$C$DW$303	.dwtag  DW_TAG_TI_branch
	.dwattr $C$DW$303, DW_AT_low_pc(0x00)
	.dwattr $C$DW$303, DW_AT_name("_USB_configEndpt")
	.dwattr $C$DW$303, DW_AT_TI_call
        CALL #_USB_configEndpt ; |501| 
                                        ; call occurs [#_USB_configEndpt] ; |501| 
        MOV T0, *SP(#7) ; |501| 
	.dwpsn	file "src/csl_msc.c",line 505,column 3,is_stmt
        MOV T0, AR1
        BCC $C$L80,AR1 != #0 ; |505| 
                                        ; branchcc occurs ; |505| 
	.dwpsn	file "src/csl_msc.c",line 507,column 4,is_stmt
	.dwpsn	file "src/csl_msc.c",line 511,column 3,is_stmt
        MOV dbl(*SP(#4)), XAR3
        MOV dbl(*SP(#4)), XAR2
        MOV dbl(*AR3(short(#6))), XAR3
        MOV XAR3, dbl(*AR2(#10))
	.dwpsn	file "src/csl_msc.c",line 512,column 3,is_stmt
        MOV dbl(*SP(#4)), XAR3
        MOV dbl(*SP(#4)), XAR2
        MOV dbl(*AR3(short(#2))), XAR3
        MOV XAR3, dbl(*AR2(#12))
	.dwpsn	file "src/csl_msc.c",line 513,column 3,is_stmt
        MOV dbl(*SP(#4)), XAR3
        MOV dbl(*SP(#4)), XAR2
        MOV dbl(*AR3(#464)), XAR3
        MOV XAR3, dbl(*AR2(#14))
	.dwpsn	file "src/csl_msc.c",line 514,column 3,is_stmt
        MOV dbl(*SP(#4)), XAR3
        MOV dbl(*SP(#4)), XAR2
        MOV dbl(*AR3(#462)), XAR3
        MOV XAR3, dbl(*AR2(#16))
	.dwpsn	file "src/csl_msc.c",line 515,column 3,is_stmt
        MOV dbl(*SP(#4)), XAR3
        MOV #0, AC0 ; |515| 
        MOV AC0, dbl(*AR3(#18))
	.dwpsn	file "src/csl_msc.c",line 518,column 3,is_stmt
        MOV dbl(*SP(#4)), XAR2
        MOV dbl(*SP(#4)), XAR3
        MOV dbl(*AR2), XAR2
        MOV dbl(*AR3(short(#6))), XAR3
        MOV XAR3, dbl(*AR2(#196))
	.dwpsn	file "src/csl_msc.c",line 519,column 3,is_stmt
        MOV dbl(*SP(#4)), XAR2
        MOV dbl(*SP(#4)), XAR3
        MOV dbl(*AR2), XAR2
        MOV dbl(*AR3(short(#2))), XAR3
        MOV XAR3, dbl(*AR2(#198))
	.dwpsn	file "src/csl_msc.c",line 520,column 3,is_stmt
        MOV dbl(*SP(#4)), XAR2
        MOV dbl(*SP(#4)), XAR3
        MOV dbl(*AR2), XAR2
        MOV dbl(*AR3(#464)), XAR3
        MOV XAR3, dbl(*AR2(#200))
	.dwpsn	file "src/csl_msc.c",line 521,column 3,is_stmt
        MOV dbl(*SP(#4)), XAR2
        MOV dbl(*SP(#4)), XAR3
        MOV dbl(*AR2), XAR2
        MOV dbl(*AR3(#462)), XAR3
        MOV XAR3, dbl(*AR2(#202))
	.dwpsn	file "src/csl_msc.c",line 522,column 3,is_stmt
        MOV dbl(*SP(#4)), XAR3
        MOV dbl(*AR3), XAR3
        MOV AC0, dbl(*AR3(#204))
	.dwpsn	file "src/csl_msc.c",line 525,column 7,is_stmt
        MOV #0, *SP(#8) ; |525| 
	.dwpsn	file "src/csl_msc.c",line 525,column 20,is_stmt
        MOV dbl(*SP(#4)), XAR3
        MOV *SP(#8), AR2 ; |525| 
        MOV *AR3(#466), AR1 ; |525| 
        CMPU AR2 > AR1, TC1 ; |525| 
        BCC $C$L77,TC1 ; |525| 
                                        ; branchcc occurs ; |525| 
$C$L72:    
$C$DW$L$_MSC_Setup$26$B:
	.dwpsn	file "src/csl_msc.c",line 527,column 7,is_stmt
        MOV dbl(*AR3(#154)), AC0 ; |527| 
$C$DW$304	.dwtag  DW_TAG_TI_branch
	.dwattr $C$DW$304, DW_AT_low_pc(0x00)
	.dwattr $C$DW$304, DW_AT_TI_call
	.dwattr $C$DW$304, DW_AT_TI_indirect

        CALL AC0  ; |527| 
||      MOV AR2, T0 ; |527| 

                                        ; call occurs [AC0] ; |527| 
        MOV T0, *SP(#6) ; |527| 
	.dwpsn	file "src/csl_msc.c",line 529,column 7,is_stmt
        MOV dbl(*SP(#4)), XAR3
        MOV *SP(#8), T0 ; |529| 
        MOV dbl(*AR3(#160)), AC0 ; |529| 
$C$DW$305	.dwtag  DW_TAG_TI_branch
	.dwattr $C$DW$305, DW_AT_low_pc(0x00)
	.dwattr $C$DW$305, DW_AT_TI_call
	.dwattr $C$DW$305, DW_AT_TI_indirect
        CALL AC0  ; |529| 
                                        ; call occurs [AC0] ; |529| 
        MOV dbl(*SP(#4)), XAR3
        SUB #1, AC0, AC1 ; |529| 
        MPYMK *SP(#8), #62, AC0 ; |529| 
        MOV AC0, AR1 ; |529| 
        AADD AR1, AR3 ; |529| 
        MOV AC1, dbl(*AR3(#216)) ; |529| 
	.dwpsn	file "src/csl_msc.c",line 531,column 7,is_stmt
        CMP *SP(#6) == #1, TC1 ; |531| 
        BCC $C$L73,!TC1 ; |531| 
                                        ; branchcc occurs ; |531| 
$C$DW$L$_MSC_Setup$26$E:
$C$DW$L$_MSC_Setup$27$B:
	.dwpsn	file "src/csl_msc.c",line 533,column 5,is_stmt
        MOV dbl(*SP(#4)), XAR3
        MPYMK *SP(#8), #62, AC0 ; |533| 
        MOV AC0, AR1 ; |533| 
        AADD AR1, AR3 ; |533| 
        MOV #1, *AR3(#223) ; |533| 
	.dwpsn	file "src/csl_msc.c",line 535,column 4,is_stmt
        B $C$L76  ; |535| 
                                        ; branch occurs ; |535| 
$C$DW$L$_MSC_Setup$27$E:
$C$L73:    
$C$DW$L$_MSC_Setup$28$B:
	.dwpsn	file "src/csl_msc.c",line 536,column 12,is_stmt
        CMP *SP(#6) == #4, TC1 ; |536| 
        BCC $C$L74,!TC1 ; |536| 
                                        ; branchcc occurs ; |536| 
$C$DW$L$_MSC_Setup$28$E:
$C$DW$L$_MSC_Setup$29$B:
	.dwpsn	file "src/csl_msc.c",line 538,column 5,is_stmt
        MOV dbl(*SP(#4)), XAR3
        MPYMK *SP(#8), #62, AC0 ; |538| 
        MOV AC0, AR1 ; |538| 
        AADD AR1, AR3 ; |538| 
        MOV #8, *AR3(#223) ; |538| 
	.dwpsn	file "src/csl_msc.c",line 539,column 5,is_stmt
        MOV #-11, *SP(#7) ; |539| 
	.dwpsn	file "src/csl_msc.c",line 540,column 4,is_stmt
        B $C$L76  ; |540| 
                                        ; branch occurs ; |540| 
$C$DW$L$_MSC_Setup$29$E:
$C$L74:    
$C$DW$L$_MSC_Setup$30$B:
	.dwpsn	file "src/csl_msc.c",line 541,column 12,is_stmt
        CMP *SP(#6) == #2, TC1 ; |541| 
        BCC $C$L75,!TC1 ; |541| 
                                        ; branchcc occurs ; |541| 
$C$DW$L$_MSC_Setup$30$E:
$C$DW$L$_MSC_Setup$31$B:
	.dwpsn	file "src/csl_msc.c",line 543,column 8,is_stmt
        MOV dbl(*SP(#4)), XAR3
        MPYMK *SP(#8), #62, AC0 ; |543| 
        MOV AC0, AR1 ; |543| 
        AADD AR1, AR3 ; |543| 
        MOV #0, *AR3(#223) ; |543| 
	.dwpsn	file "src/csl_msc.c",line 544,column 5,is_stmt
        MOV #-12, *SP(#7) ; |544| 
	.dwpsn	file "src/csl_msc.c",line 545,column 4,is_stmt
        B $C$L76  ; |545| 
                                        ; branch occurs ; |545| 
$C$DW$L$_MSC_Setup$31$E:
$C$L75:    
$C$DW$L$_MSC_Setup$32$B:
	.dwpsn	file "src/csl_msc.c",line 550,column 8,is_stmt
        MOV dbl(*SP(#4)), XAR3
        MPYMK *SP(#8), #62, AC0 ; |550| 
        MOV AC0, AR1 ; |550| 
        AADD AR1, AR3 ; |550| 
        MOV #0, *AR3(#223) ; |550| 
$C$DW$L$_MSC_Setup$32$E:
$C$L76:    
$C$DW$L$_MSC_Setup$33$B:
	.dwpsn	file "src/csl_msc.c",line 525,column 59,is_stmt
        ADD #1, *SP(#8) ; |525| 
	.dwpsn	file "src/csl_msc.c",line 525,column 20,is_stmt
        MOV dbl(*SP(#4)), XAR3
        MOV *SP(#8), AR2 ; |525| 
        MOV *AR3(#466), AR1 ; |525| 
        CMPU AR2 <= AR1, TC1 ; |525| 
        BCC $C$L72,TC1 ; |525| 
                                        ; branchcc occurs ; |525| 
$C$DW$L$_MSC_Setup$33$E:
$C$L77:    
	.dwpsn	file "src/csl_msc.c",line 555,column 3,is_stmt
        MOV dbl(*SP(#4)), XAR1
        MOV dbl(*AR3), XAR0
        AADD #10, AR1 ; |555| 
$C$DW$306	.dwtag  DW_TAG_TI_branch
	.dwattr $C$DW$306, DW_AT_low_pc(0x00)
	.dwattr $C$DW$306, DW_AT_name("_USB_setParams")
	.dwattr $C$DW$306, DW_AT_TI_call

        CALL #_USB_setParams ; |555| 
||      MOV #0, T0

                                        ; call occurs [#_USB_setParams] ; |555| 
        MOV T0, *SP(#7) ; |555| 
	.dwpsn	file "src/csl_msc.c",line 556,column 3,is_stmt
        MOV T0, AR1
        BCC $C$L80,AR1 != #0 ; |556| 
                                        ; branchcc occurs ; |556| 
	.dwpsn	file "src/csl_msc.c",line 558,column 4,is_stmt
	.dwpsn	file "src/csl_msc.c",line 561,column 3,is_stmt
        BCC $C$L79,AR1 != #0 ; |561| 
                                        ; branchcc occurs ; |561| 
	.dwpsn	file "src/csl_msc.c",line 564,column 4,is_stmt
        MOV dbl(*SP(#4)), XAR3
        MOV dbl(*AR3), XAR0
$C$DW$307	.dwtag  DW_TAG_TI_branch
	.dwattr $C$DW$307, DW_AT_low_pc(0x00)
	.dwattr $C$DW$307, DW_AT_name("_USB_connectDev")
	.dwattr $C$DW$307, DW_AT_TI_call
        CALL #_USB_connectDev ; |564| 
                                        ; call occurs [#_USB_connectDev] ; |564| 
	.dwpsn	file "src/csl_msc.c",line 566,column 2,is_stmt
        B $C$L79  ; |566| 
                                        ; branch occurs ; |566| 
$C$L78:    
	.dwpsn	file "src/csl_msc.c",line 569,column 3,is_stmt
        MOV #-5, *SP(#7) ; |569| 
$C$L79:    
	.dwpsn	file "src/csl_msc.c",line 572,column 2,is_stmt
        MOV *SP(#7), T0 ; |572| 
$C$L80:    
	.dwpsn	file "src/csl_msc.c",line 573,column 1,is_stmt
        AADD #23, SP
	.dwcfi	cfa_offset, 1
$C$DW$308	.dwtag  DW_TAG_TI_branch
	.dwattr $C$DW$308, DW_AT_low_pc(0x00)
	.dwattr $C$DW$308, DW_AT_TI_return
        RET
                                        ; return occurs

$C$DW$309	.dwtag  DW_TAG_TI_loop
	.dwattr $C$DW$309, DW_AT_name("/home/santiago/dspfuzz/on_board/library/csl_msc.asm:$C$L72:1:1714639447")
	.dwattr $C$DW$309, DW_AT_TI_begin_file("src/csl_msc.c")
	.dwattr $C$DW$309, DW_AT_TI_begin_line(0x20d)
	.dwattr $C$DW$309, DW_AT_TI_end_line(0x228)
$C$DW$310	.dwtag  DW_TAG_TI_loop_range
	.dwattr $C$DW$310, DW_AT_low_pc($C$DW$L$_MSC_Setup$26$B)
	.dwattr $C$DW$310, DW_AT_high_pc($C$DW$L$_MSC_Setup$26$E)
$C$DW$311	.dwtag  DW_TAG_TI_loop_range
	.dwattr $C$DW$311, DW_AT_low_pc($C$DW$L$_MSC_Setup$30$B)
	.dwattr $C$DW$311, DW_AT_high_pc($C$DW$L$_MSC_Setup$30$E)
$C$DW$312	.dwtag  DW_TAG_TI_loop_range
	.dwattr $C$DW$312, DW_AT_low_pc($C$DW$L$_MSC_Setup$28$B)
	.dwattr $C$DW$312, DW_AT_high_pc($C$DW$L$_MSC_Setup$28$E)
$C$DW$313	.dwtag  DW_TAG_TI_loop_range
	.dwattr $C$DW$313, DW_AT_low_pc($C$DW$L$_MSC_Setup$27$B)
	.dwattr $C$DW$313, DW_AT_high_pc($C$DW$L$_MSC_Setup$27$E)
$C$DW$314	.dwtag  DW_TAG_TI_loop_range
	.dwattr $C$DW$314, DW_AT_low_pc($C$DW$L$_MSC_Setup$29$B)
	.dwattr $C$DW$314, DW_AT_high_pc($C$DW$L$_MSC_Setup$29$E)
$C$DW$315	.dwtag  DW_TAG_TI_loop_range
	.dwattr $C$DW$315, DW_AT_low_pc($C$DW$L$_MSC_Setup$31$B)
	.dwattr $C$DW$315, DW_AT_high_pc($C$DW$L$_MSC_Setup$31$E)
$C$DW$316	.dwtag  DW_TAG_TI_loop_range
	.dwattr $C$DW$316, DW_AT_low_pc($C$DW$L$_MSC_Setup$32$B)
	.dwattr $C$DW$316, DW_AT_high_pc($C$DW$L$_MSC_Setup$32$E)
$C$DW$317	.dwtag  DW_TAG_TI_loop_range
	.dwattr $C$DW$317, DW_AT_low_pc($C$DW$L$_MSC_Setup$33$B)
	.dwattr $C$DW$317, DW_AT_high_pc($C$DW$L$_MSC_Setup$33$E)
	.dwendtag $C$DW$309

	.dwattr $C$DW$282, DW_AT_TI_end_file("src/csl_msc.c")
	.dwattr $C$DW$282, DW_AT_TI_end_line(0x23d)
	.dwattr $C$DW$282, DW_AT_TI_end_column(0x01)
	.dwendentry
	.dwendtag $C$DW$282

	.sect	".text"
	.global	_MSC_Close

$C$DW$318	.dwtag  DW_TAG_subprogram, DW_AT_name("MSC_Close")
	.dwattr $C$DW$318, DW_AT_low_pc(_MSC_Close)
	.dwattr $C$DW$318, DW_AT_high_pc(0x00)
	.dwattr $C$DW$318, DW_AT_TI_symbol_name("_MSC_Close")
	.dwattr $C$DW$318, DW_AT_external
	.dwattr $C$DW$318, DW_AT_type(*$C$DW$T$86)
	.dwattr $C$DW$318, DW_AT_TI_begin_file("src/csl_msc.c")
	.dwattr $C$DW$318, DW_AT_TI_begin_line(0x26b)
	.dwattr $C$DW$318, DW_AT_TI_begin_column(0x0c)
	.dwattr $C$DW$318, DW_AT_TI_max_frame_size(0x06)
	.dwpsn	file "src/csl_msc.c",line 620,column 1,is_stmt,address _MSC_Close

	.dwfde $C$DW$CIE, _MSC_Close
$C$DW$319	.dwtag  DW_TAG_formal_parameter, DW_AT_name("pAppClassHandle")
	.dwattr $C$DW$319, DW_AT_TI_symbol_name("_pAppClassHandle")
	.dwattr $C$DW$319, DW_AT_type(*$C$DW$T$135)
	.dwattr $C$DW$319, DW_AT_location[DW_OP_reg17]
;*******************************************************************************
;* FUNCTION NAME: MSC_Close                                                    *
;*                                                                             *
;*   Function Uses Regs : AC0,AC0,T0,AR0,XAR0,AR3,XAR3,SP,M40,SATA,SATD,RDM,   *
;*                        FRCT,SMUL                                            *
;*   Stack Frame        : Compact (No Frame Pointer, w/ debug)                 *
;*   Total Frame Size   : 6 words                                              *
;*                        (1 return address/alignment)                         *
;*                        (5 local values)                                     *
;*   Min System Stack   : 1 word                                               *
;*******************************************************************************
_MSC_Close:
	.dwcfi	cfa_offset, 1
	.dwcfi	save_reg_to_mem, 91, -1
        AADD #-5, SP
	.dwcfi	cfa_offset, 6
$C$DW$320	.dwtag  DW_TAG_variable, DW_AT_name("pAppClassHandle")
	.dwattr $C$DW$320, DW_AT_TI_symbol_name("_pAppClassHandle")
	.dwattr $C$DW$320, DW_AT_type(*$C$DW$T$135)
	.dwattr $C$DW$320, DW_AT_location[DW_OP_bregx 0x24 0]
$C$DW$321	.dwtag  DW_TAG_variable, DW_AT_name("pMscClassHdl")
	.dwattr $C$DW$321, DW_AT_TI_symbol_name("_pMscClassHdl")
	.dwattr $C$DW$321, DW_AT_type(*$C$DW$T$131)
	.dwattr $C$DW$321, DW_AT_location[DW_OP_bregx 0x24 2]
$C$DW$322	.dwtag  DW_TAG_variable, DW_AT_name("status")
	.dwattr $C$DW$322, DW_AT_TI_symbol_name("_status")
	.dwattr $C$DW$322, DW_AT_type(*$C$DW$T$86)
	.dwattr $C$DW$322, DW_AT_location[DW_OP_bregx 0x24 4]
        MOV XAR0, dbl(*SP(#0))
	.dwpsn	file "src/csl_msc.c",line 624,column 2,is_stmt
        MOV dbl(*SP(#0)), XAR3
        MOV dbl(*AR3), XAR3
        MOV XAR3, dbl(*SP(#2))
	.dwpsn	file "src/csl_msc.c",line 625,column 2,is_stmt
        MOV #0, *SP(#4) ; |625| 
	.dwpsn	file "src/csl_msc.c",line 627,column 2,is_stmt
        MOV dbl(*SP(#0)), XAR3
        MOV XAR3, AC0
        BCC $C$L81,AC0 == #0 ; |627| 
                                        ; branchcc occurs ; |627| 
	.dwpsn	file "src/csl_msc.c",line 629,column 3,is_stmt
        MOV dbl(*SP(#2)), XAR3
        MOV dbl(*AR3), XAR0
$C$DW$323	.dwtag  DW_TAG_TI_branch
	.dwattr $C$DW$323, DW_AT_low_pc(0x00)
	.dwattr $C$DW$323, DW_AT_name("_USB_disconnectDev")
	.dwattr $C$DW$323, DW_AT_TI_call
        CALL #_USB_disconnectDev ; |629| 
                                        ; call occurs [#_USB_disconnectDev] ; |629| 
        MOV T0, *SP(#4) ; |629| 
	.dwpsn	file "src/csl_msc.c",line 630,column 3,is_stmt
        MOV dbl(*SP(#0)), XAR3
        MOV #0, AC0 ; |630| 
        MOV AC0, dbl(*AR3)
	.dwpsn	file "src/csl_msc.c",line 631,column 2,is_stmt
        B $C$L82  ; |631| 
                                        ; branch occurs ; |631| 
$C$L81:    
	.dwpsn	file "src/csl_msc.c",line 634,column 3,is_stmt
        MOV #-5, *SP(#4) ; |634| 
$C$L82:    
	.dwpsn	file "src/csl_msc.c",line 637,column 2,is_stmt
        MOV *SP(#4), T0 ; |637| 
	.dwpsn	file "src/csl_msc.c",line 638,column 1,is_stmt
        AADD #5, SP
	.dwcfi	cfa_offset, 1
$C$DW$324	.dwtag  DW_TAG_TI_branch
	.dwattr $C$DW$324, DW_AT_low_pc(0x00)
	.dwattr $C$DW$324, DW_AT_TI_return
        RET
                                        ; return occurs
	.dwattr $C$DW$318, DW_AT_TI_end_file("src/csl_msc.c")
	.dwattr $C$DW$318, DW_AT_TI_end_line(0x27e)
	.dwattr $C$DW$318, DW_AT_TI_end_column(0x01)
	.dwendentry
	.dwendtag $C$DW$318

	.sect	".text"
	.global	_MSC_SetLunAttr

$C$DW$325	.dwtag  DW_TAG_subprogram, DW_AT_name("MSC_SetLunAttr")
	.dwattr $C$DW$325, DW_AT_low_pc(_MSC_SetLunAttr)
	.dwattr $C$DW$325, DW_AT_high_pc(0x00)
	.dwattr $C$DW$325, DW_AT_TI_symbol_name("_MSC_SetLunAttr")
	.dwattr $C$DW$325, DW_AT_external
	.dwattr $C$DW$325, DW_AT_type(*$C$DW$T$86)
	.dwattr $C$DW$325, DW_AT_TI_begin_file("src/csl_msc.c")
	.dwattr $C$DW$325, DW_AT_TI_begin_line(0x2b4)
	.dwattr $C$DW$325, DW_AT_TI_begin_column(0x0c)
	.dwattr $C$DW$325, DW_AT_TI_max_frame_size(0x0e)
	.dwpsn	file "src/csl_msc.c",line 695,column 1,is_stmt,address _MSC_SetLunAttr

	.dwfde $C$DW$CIE, _MSC_SetLunAttr
$C$DW$326	.dwtag  DW_TAG_formal_parameter, DW_AT_name("pAppClassHandle")
	.dwattr $C$DW$326, DW_AT_TI_symbol_name("_pAppClassHandle")
	.dwattr $C$DW$326, DW_AT_type(*$C$DW$T$135)
	.dwattr $C$DW$326, DW_AT_location[DW_OP_reg17]
$C$DW$327	.dwtag  DW_TAG_formal_parameter, DW_AT_name("lunHandle")
	.dwattr $C$DW$327, DW_AT_TI_symbol_name("_lunHandle")
	.dwattr $C$DW$327, DW_AT_type(*$C$DW$T$139)
	.dwattr $C$DW$327, DW_AT_location[DW_OP_reg19]
$C$DW$328	.dwtag  DW_TAG_formal_parameter, DW_AT_name("lunNum")
	.dwattr $C$DW$328, DW_AT_TI_symbol_name("_lunNum")
	.dwattr $C$DW$328, DW_AT_type(*$C$DW$T$30)
	.dwattr $C$DW$328, DW_AT_location[DW_OP_reg12]
;*******************************************************************************
;* FUNCTION NAME: MSC_SetLunAttr                                               *
;*                                                                             *
;*   Function Uses Regs : AC0,AC0,T0,AR0,XAR0,AR1,XAR1,AR2,XAR2,AR3,XAR3,SP,   *
;*                        CARRY,TC1,M40,SATA,SATD,RDM,FRCT,SMUL                *
;*   Stack Frame        : Compact (No Frame Pointer, w/ debug)                 *
;*   Total Frame Size   : 14 words                                             *
;*                        (1 return address/alignment)                         *
;*                        (13 local values)                                    *
;*   Min System Stack   : 1 word                                               *
;*******************************************************************************
_MSC_SetLunAttr:
	.dwcfi	cfa_offset, 1
	.dwcfi	save_reg_to_mem, 91, -1
        AADD #-13, SP
	.dwcfi	cfa_offset, 14
$C$DW$329	.dwtag  DW_TAG_variable, DW_AT_name("pAppClassHandle")
	.dwattr $C$DW$329, DW_AT_TI_symbol_name("_pAppClassHandle")
	.dwattr $C$DW$329, DW_AT_type(*$C$DW$T$135)
	.dwattr $C$DW$329, DW_AT_location[DW_OP_bregx 0x24 0]
$C$DW$330	.dwtag  DW_TAG_variable, DW_AT_name("lunHandle")
	.dwattr $C$DW$330, DW_AT_TI_symbol_name("_lunHandle")
	.dwattr $C$DW$330, DW_AT_type(*$C$DW$T$139)
	.dwattr $C$DW$330, DW_AT_location[DW_OP_bregx 0x24 2]
$C$DW$331	.dwtag  DW_TAG_variable, DW_AT_name("lunNum")
	.dwattr $C$DW$331, DW_AT_TI_symbol_name("_lunNum")
	.dwattr $C$DW$331, DW_AT_type(*$C$DW$T$30)
	.dwattr $C$DW$331, DW_AT_location[DW_OP_bregx 0x24 4]
$C$DW$332	.dwtag  DW_TAG_variable, DW_AT_name("pHandle")
	.dwattr $C$DW$332, DW_AT_TI_symbol_name("_pHandle")
	.dwattr $C$DW$332, DW_AT_type(*$C$DW$T$131)
	.dwattr $C$DW$332, DW_AT_location[DW_OP_bregx 0x24 6]
$C$DW$333	.dwtag  DW_TAG_variable, DW_AT_name("pMscObj")
	.dwattr $C$DW$333, DW_AT_TI_symbol_name("_pMscObj")
	.dwattr $C$DW$333, DW_AT_type(*$C$DW$T$140)
	.dwattr $C$DW$333, DW_AT_location[DW_OP_bregx 0x24 8]
$C$DW$334	.dwtag  DW_TAG_variable, DW_AT_name("status")
	.dwattr $C$DW$334, DW_AT_TI_symbol_name("_status")
	.dwattr $C$DW$334, DW_AT_type(*$C$DW$T$86)
	.dwattr $C$DW$334, DW_AT_location[DW_OP_bregx 0x24 10]
$C$DW$335	.dwtag  DW_TAG_variable, DW_AT_name("copyCntdst")
	.dwattr $C$DW$335, DW_AT_TI_symbol_name("_copyCntdst")
	.dwattr $C$DW$335, DW_AT_type(*$C$DW$T$30)
	.dwattr $C$DW$335, DW_AT_location[DW_OP_bregx 0x24 11]
$C$DW$336	.dwtag  DW_TAG_variable, DW_AT_name("copyCntsrc")
	.dwattr $C$DW$336, DW_AT_TI_symbol_name("_copyCntsrc")
	.dwattr $C$DW$336, DW_AT_type(*$C$DW$T$30)
	.dwattr $C$DW$336, DW_AT_location[DW_OP_bregx 0x24 12]
        MOV T0, *SP(#4) ; |695| 
        MOV XAR1, dbl(*SP(#2))
        MOV XAR0, dbl(*SP(#0))
	.dwpsn	file "src/csl_msc.c",line 702,column 2,is_stmt
        MOV dbl(*SP(#0)), XAR3
        MOV dbl(*AR3), XAR3
        MOV XAR3, dbl(*SP(#6))
	.dwpsn	file "src/csl_msc.c",line 703,column 2,is_stmt
        AMAR *+AR3(#148) ; |703| 
        MOV XAR3, dbl(*SP(#8))
	.dwpsn	file "src/csl_msc.c",line 704,column 2,is_stmt
        MOV #0, *SP(#10) ; |704| 
	.dwpsn	file "src/csl_msc.c",line 706,column 2,is_stmt
        MOV dbl(*SP(#0)), XAR3
        MOV XAR3, AC0
        BCC $C$L89,AC0 == #0 ; |706| 
                                        ; branchcc occurs ; |706| 
        MOV dbl(*SP(#2)), XAR3
        MOV XAR3, AC0
        BCC $C$L89,AC0 == #0 ; |706| 
                                        ; branchcc occurs ; |706| 
	.dwpsn	file "src/csl_msc.c",line 709,column 3,is_stmt
        MOV dbl(*SP(#8)), XAR3
        MOV dbl(*SP(#2)), XAR2
        MPYMK *SP(#4), #62, AC0 ; |709| 
        MOV AC0, AR1 ; |709| 

        MOV *AR2(short(#4)), AR1 ; |709| 
||      AADD AR1, AR3 ; |709| 

        MOV AR1, *AR3(#74) ; |709| 
	.dwpsn	file "src/csl_msc.c",line 710,column 3,is_stmt
        MOV dbl(*SP(#8)), XAR3
        MPYMK *SP(#4), #62, AC0 ; |710| 
        MOV AC0, AR1 ; |710| 
        MOV dbl(*SP(#2)), XAR2
        AADD AR1, AR3 ; |710| 
        MOV *AR2(#30), AR1 ; |710| 
        MOV AR1, *AR3(#76) ; |710| 
	.dwpsn	file "src/csl_msc.c",line 712,column 3,is_stmt
        MOV dbl(*SP(#2)), XAR2
        MOV dbl(*SP(#8)), XAR3
        MPYMK *SP(#4), #62, AC0 ; |712| 
        MOV AC0, AR1 ; |712| 
        MOV dbl(*AR2(short(#2))), AC0 ; |712| 

        SUB #1, AC0 ; |712| 
||      AADD AR1, AR3 ; |712| 

        MOV AC0, dbl(*AR3(#68)) ; |712| 
	.dwpsn	file "src/csl_msc.c",line 713,column 3,is_stmt
        MOV dbl(*SP(#8)), XAR3
        MPYMK *SP(#4), #62, AC0 ; |713| 
        MOV AC0, AR1 ; |713| 
        AADD AR1, AR3 ; |713| 
        MOV #0, *AR3(#75) ; |713| 
	.dwpsn	file "src/csl_msc.c",line 714,column 3,is_stmt
        MOV dbl(*SP(#8)), XAR3
        MPYMK *SP(#4), #62, AC0 ; |714| 
        MOV AC0, AR1 ; |714| 
        MOV dbl(*SP(#2)), XAR2
        AADD AR1, AR3 ; |714| 
        AADD #72, AR3 ; |714| 
        MOV dbl(*AR2), dbl(*AR3) ; |714| 
	.dwpsn	file "src/csl_msc.c",line 717,column 3,is_stmt
        MOV dbl(*SP(#8)), XAR3
        MPYMK *SP(#4), #62, AC0 ; |717| 
        MOV AC0, AR1 ; |717| 
        AADD AR1, AR3 ; |717| 
        MOV #96, *AR3(#18) ; |717| 
	.dwpsn	file "src/csl_msc.c",line 718,column 3,is_stmt
        MOV dbl(*SP(#8)), XAR3
        MPYMK *SP(#4), #62, AC0 ; |718| 
        MOV AC0, AR1 ; |718| 
        AADD AR1, AR3 ; |718| 
        MOV #0, *AR3(#19) ; |718| 
	.dwpsn	file "src/csl_msc.c",line 719,column 3,is_stmt
        MOV dbl(*SP(#8)), XAR3
        MPYMK *SP(#4), #62, AC0 ; |719| 
        MOV AC0, AR1 ; |719| 
        AADD AR1, AR3 ; |719| 
        MOV #512, *AR3(#21) ; |719| 
	.dwpsn	file "src/csl_msc.c",line 720,column 3,is_stmt
        MOV dbl(*SP(#8)), XAR3
        MPYMK *SP(#4), #62, AC0 ; |720| 
        MOV AC0, AR1 ; |720| 
        AADD AR1, AR3 ; |720| 
        MOV #92, *AR3(#22) ; |720| 
	.dwpsn	file "src/csl_msc.c",line 721,column 3,is_stmt
        MOV dbl(*SP(#8)), XAR3
        MPYMK *SP(#4), #62, AC0 ; |721| 
        MOV AC0, AR1 ; |721| 
        AADD AR1, AR3 ; |721| 
        MOV #0, *AR3(#23) ; |721| 
	.dwpsn	file "src/csl_msc.c",line 724,column 3,is_stmt
        MOV #0, *SP(#12) ; |724| 
	.dwpsn	file "src/csl_msc.c",line 725,column 7,is_stmt
        MOV #6, *SP(#11) ; |725| 
	.dwpsn	file "src/csl_msc.c",line 726,column 7,is_stmt
        MOV #30, AR2 ; |726| 
        MOV *SP(#11), AR1 ; |726| 
        CMPU AR1 >= AR2, TC1 ; |726| 
        BCC $C$L84,TC1 ; |726| 
                                        ; branchcc occurs ; |726| 
$C$L83:    
$C$DW$L$_MSC_SetLunAttr$4$B:
	.dwpsn	file "src/csl_msc.c",line 728,column 4,is_stmt
        MOV dbl(*SP(#2)), XAR3
        MOV *SP(#12), AR1 ; |728| 
        MPYMK *SP(#4), #62, AC0 ; |728| 

        MOV AC0, AR1 ; |728| 
||      AADD AR1, AR3 ; |728| 

        MOV *AR3(short(#5)), AR2 ; |728| 
        MOV dbl(*SP(#8)), XAR3

        MOV *SP(#11), AR1 ; |728| 
||      AADD AR1, AR3 ; |728| 

        AADD AR1, AR3 ; |728| 
        MOV AR2, *AR3(#18) ; |728| 
	.dwpsn	file "src/csl_msc.c",line 726,column 41,is_stmt
        ADD #1, *SP(#11) ; |726| 
        ADD #1, *SP(#12) ; |726| 
	.dwpsn	file "src/csl_msc.c",line 726,column 7,is_stmt
        MOV #30, AR2 ; |726| 
        MOV *SP(#11), AR1 ; |726| 
        CMPU AR1 < AR2, TC1 ; |726| 
        BCC $C$L83,TC1 ; |726| 
                                        ; branchcc occurs ; |726| 
$C$DW$L$_MSC_SetLunAttr$4$E:
$C$L84:    
	.dwpsn	file "src/csl_msc.c",line 733,column 3,is_stmt
        MOV dbl(*SP(#8)), XAR3
        MPYMK *SP(#4), #62, AC0 ; |733| 
        MOV AC0, AR1 ; |733| 
        AADD AR1, AR3 ; |733| 
        MOV #0, *AR3(#48) ; |733| 
	.dwpsn	file "src/csl_msc.c",line 735,column 3,is_stmt
        MOV dbl(*SP(#8)), XAR3
        MPYMK *SP(#4), #62, AC0 ; |735| 
        MOV AC0, AR1 ; |735| 
        AADD AR1, AR3 ; |735| 
        MOV #8194, *AR3(#49) ; |735| 
	.dwpsn	file "src/csl_msc.c",line 737,column 3,is_stmt
        MOV dbl(*SP(#8)), XAR3
        MPYMK *SP(#4), #62, AC0 ; |737| 
        MOV AC0, AR1 ; |737| 
        AADD AR1, AR3 ; |737| 
        MOV #14338, *AR3(#50) ; |737| 
	.dwpsn	file "src/csl_msc.c",line 739,column 8,is_stmt
        MOV #33, *SP(#11) ; |739| 
	.dwpsn	file "src/csl_msc.c",line 740,column 8,is_stmt
        MOV #50, AR2 ; |740| 
        MOV *SP(#11), AR1 ; |740| 
        CMPU AR1 >= AR2, TC1 ; |740| 
        BCC $C$L86,TC1 ; |740| 
                                        ; branchcc occurs ; |740| 
$C$L85:    
$C$DW$L$_MSC_SetLunAttr$6$B:
	.dwpsn	file "src/csl_msc.c",line 742,column 4,is_stmt
        MOV dbl(*SP(#8)), XAR3
        MPYMK *SP(#4), #62, AC0 ; |742| 
        MOV AC0, AR1 ; |742| 

        MOV *SP(#11), AR1 ; |742| 
||      AADD AR1, AR3 ; |742| 

        AADD AR1, AR3 ; |742| 
        MOV #0, *AR3(#18) ; |742| 
	.dwpsn	file "src/csl_msc.c",line 740,column 42,is_stmt
        ADD #1, *SP(#11) ; |740| 
	.dwpsn	file "src/csl_msc.c",line 740,column 8,is_stmt
        MOV *SP(#11), AR1 ; |740| 
        CMPU AR1 < AR2, TC1 ; |740| 
        BCC $C$L85,TC1 ; |740| 
                                        ; branchcc occurs ; |740| 
$C$DW$L$_MSC_SetLunAttr$6$E:
$C$L86:    
	.dwpsn	file "src/csl_msc.c",line 747,column 3,is_stmt
        MOV dbl(*SP(#8)), XAR3
        MPYMK *SP(#4), #62, AC0 ; |747| 
        MOV AC0, AR1 ; |747| 
        AADD AR1, AR3 ; |747| 
        MOV *AR3(#74), AR1 ; |747| 
        BCC $C$L87,AR1 == #0 ; |747| 
                                        ; branchcc occurs ; |747| 
	.dwpsn	file "src/csl_msc.c",line 749,column 4,is_stmt
        MOV dbl(*SP(#8)), XAR3
        MPYMK *SP(#4), #62, AC0 ; |749| 
        MOV AC0, AR1 ; |749| 
        AADD AR1, AR3 ; |749| 
        MOV #32768, *AR3(#20) ; |749| 
	.dwpsn	file "src/csl_msc.c",line 750,column 3,is_stmt
        B $C$L88  ; |750| 
                                        ; branch occurs ; |750| 
$C$L87:    
	.dwpsn	file "src/csl_msc.c",line 753,column 4,is_stmt
        MOV dbl(*SP(#8)), XAR3
        MPYMK *SP(#4), #62, AC0 ; |753| 
        MOV AC0, AR1 ; |753| 
        AADD AR1, AR3 ; |753| 
        MOV #0, *AR3(#20) ; |753| 
$C$L88:    
	.dwpsn	file "src/csl_msc.c",line 755,column 3,is_stmt
        MOV dbl(*SP(#8)), XAR3
        MPYMK *SP(#4), #62, AC0 ; |755| 
        MOV AC0, AR1 ; |755| 
        AADD AR1, AR3 ; |755| 
        MOV #0, *AR3(#78) ; |755| 
	.dwpsn	file "src/csl_msc.c",line 756,column 2,is_stmt
        B $C$L90  ; |756| 
                                        ; branch occurs ; |756| 
$C$L89:    
	.dwpsn	file "src/csl_msc.c",line 759,column 3,is_stmt
        MOV #-5, *SP(#10) ; |759| 
$C$L90:    
	.dwpsn	file "src/csl_msc.c",line 762,column 2,is_stmt
        MOV *SP(#10), T0 ; |762| 
	.dwpsn	file "src/csl_msc.c",line 763,column 1,is_stmt
        AADD #13, SP
	.dwcfi	cfa_offset, 1
$C$DW$337	.dwtag  DW_TAG_TI_branch
	.dwattr $C$DW$337, DW_AT_low_pc(0x00)
	.dwattr $C$DW$337, DW_AT_TI_return
        RET
                                        ; return occurs

$C$DW$338	.dwtag  DW_TAG_TI_loop
	.dwattr $C$DW$338, DW_AT_name("/home/santiago/dspfuzz/on_board/library/csl_msc.asm:$C$L85:1:1714639447")
	.dwattr $C$DW$338, DW_AT_TI_begin_file("src/csl_msc.c")
	.dwattr $C$DW$338, DW_AT_TI_begin_line(0x2e3)
	.dwattr $C$DW$338, DW_AT_TI_end_line(0x2e8)
$C$DW$339	.dwtag  DW_TAG_TI_loop_range
	.dwattr $C$DW$339, DW_AT_low_pc($C$DW$L$_MSC_SetLunAttr$6$B)
	.dwattr $C$DW$339, DW_AT_high_pc($C$DW$L$_MSC_SetLunAttr$6$E)
	.dwendtag $C$DW$338


$C$DW$340	.dwtag  DW_TAG_TI_loop
	.dwattr $C$DW$340, DW_AT_name("/home/santiago/dspfuzz/on_board/library/csl_msc.asm:$C$L83:1:1714639447")
	.dwattr $C$DW$340, DW_AT_TI_begin_file("src/csl_msc.c")
	.dwattr $C$DW$340, DW_AT_TI_begin_line(0x2d5)
	.dwattr $C$DW$340, DW_AT_TI_end_line(0x2da)
$C$DW$341	.dwtag  DW_TAG_TI_loop_range
	.dwattr $C$DW$341, DW_AT_low_pc($C$DW$L$_MSC_SetLunAttr$4$B)
	.dwattr $C$DW$341, DW_AT_high_pc($C$DW$L$_MSC_SetLunAttr$4$E)
	.dwendtag $C$DW$340

	.dwattr $C$DW$325, DW_AT_TI_end_file("src/csl_msc.c")
	.dwattr $C$DW$325, DW_AT_TI_end_line(0x2fb)
	.dwattr $C$DW$325, DW_AT_TI_end_column(0x01)
	.dwendentry
	.dwendtag $C$DW$325

	.sect	".text"
	.global	_MSC_Ctrl

$C$DW$342	.dwtag  DW_TAG_subprogram, DW_AT_name("MSC_Ctrl")
	.dwattr $C$DW$342, DW_AT_low_pc(_MSC_Ctrl)
	.dwattr $C$DW$342, DW_AT_high_pc(0x00)
	.dwattr $C$DW$342, DW_AT_TI_symbol_name("_MSC_Ctrl")
	.dwattr $C$DW$342, DW_AT_external
	.dwattr $C$DW$342, DW_AT_type(*$C$DW$T$86)
	.dwattr $C$DW$342, DW_AT_TI_begin_file("src/csl_msc.c")
	.dwattr $C$DW$342, DW_AT_TI_begin_line(0x32c)
	.dwattr $C$DW$342, DW_AT_TI_begin_column(0x0c)
	.dwattr $C$DW$342, DW_AT_TI_max_frame_size(0x10)
	.dwpsn	file "src/csl_msc.c",line 813,column 1,is_stmt,address _MSC_Ctrl

	.dwfde $C$DW$CIE, _MSC_Ctrl
$C$DW$343	.dwtag  DW_TAG_formal_parameter, DW_AT_name("pMSC")
	.dwattr $C$DW$343, DW_AT_TI_symbol_name("_pMSC")
	.dwattr $C$DW$343, DW_AT_type(*$C$DW$T$3)
	.dwattr $C$DW$343, DW_AT_location[DW_OP_reg17]
;*******************************************************************************
;* FUNCTION NAME: MSC_Ctrl                                                     *
;*                                                                             *
;*   Function Uses Regs : AC0,AC0,T0,T1,T2,AR0,XAR0,AR1,XAR1,AR2,XAR2,AR3,XAR3,*
;*                        AR4,XAR4,SP,CARRY,TC1,M40,SATA,SATD,RDM,FRCT,SMUL    *
;*   Save On Entry Regs : T2                                                   *
;*   Stack Frame        : Compact (No Frame Pointer, w/ debug)                 *
;*   Total Frame Size   : 16 words                                             *
;*                        (1 return address/alignment)                         *
;*                        (14 local values)                                    *
;*                        (1 register save area)                               *
;*   Min System Stack   : 1 word                                               *
;*******************************************************************************
_MSC_Ctrl:
	.dwcfi	cfa_offset, 1
	.dwcfi	save_reg_to_mem, 91, -1
        PSH T2
	.dwcfi	cfa_offset, 2
	.dwcfi	save_reg_to_mem, 14, -2
        AADD #-14, SP
	.dwcfi	cfa_offset, 16
$C$DW$344	.dwtag  DW_TAG_variable, DW_AT_name("pMSC")
	.dwattr $C$DW$344, DW_AT_TI_symbol_name("_pMSC")
	.dwattr $C$DW$344, DW_AT_type(*$C$DW$T$3)
	.dwattr $C$DW$344, DW_AT_location[DW_OP_bregx 0x24 0]
$C$DW$345	.dwtag  DW_TAG_variable, DW_AT_name("pMscClassHdl")
	.dwattr $C$DW$345, DW_AT_TI_symbol_name("_pMscClassHdl")
	.dwattr $C$DW$345, DW_AT_type(*$C$DW$T$131)
	.dwattr $C$DW$345, DW_AT_location[DW_OP_bregx 0x24 2]
$C$DW$346	.dwtag  DW_TAG_variable, DW_AT_name("pCtrlHandle")
	.dwattr $C$DW$346, DW_AT_TI_symbol_name("_pCtrlHandle")
	.dwattr $C$DW$346, DW_AT_type(*$C$DW$T$132)
	.dwattr $C$DW$346, DW_AT_location[DW_OP_bregx 0x24 4]
$C$DW$347	.dwtag  DW_TAG_variable, DW_AT_name("reqHandlerRet")
	.dwattr $C$DW$347, DW_AT_TI_symbol_name("_reqHandlerRet")
	.dwattr $C$DW$347, DW_AT_type(*$C$DW$T$45)
	.dwattr $C$DW$347, DW_AT_location[DW_OP_bregx 0x24 6]
$C$DW$348	.dwtag  DW_TAG_variable, DW_AT_name("usbCtrlEvents")
	.dwattr $C$DW$348, DW_AT_TI_symbol_name("_usbCtrlEvents")
	.dwattr $C$DW$348, DW_AT_type(*$C$DW$T$197)
	.dwattr $C$DW$348, DW_AT_location[DW_OP_bregx 0x24 7]
$C$DW$349	.dwtag  DW_TAG_variable, DW_AT_name("hCtrlEpIn")
	.dwattr $C$DW$349, DW_AT_TI_symbol_name("_hCtrlEpIn")
	.dwattr $C$DW$349, DW_AT_type(*$C$DW$T$27)
	.dwattr $C$DW$349, DW_AT_location[DW_OP_bregx 0x24 8]
$C$DW$350	.dwtag  DW_TAG_variable, DW_AT_name("hCtrlEpOut")
	.dwattr $C$DW$350, DW_AT_TI_symbol_name("_hCtrlEpOut")
	.dwattr $C$DW$350, DW_AT_type(*$C$DW$T$27)
	.dwattr $C$DW$350, DW_AT_location[DW_OP_bregx 0x24 10]
$C$DW$351	.dwtag  DW_TAG_variable, DW_AT_name("status")
	.dwattr $C$DW$351, DW_AT_TI_symbol_name("_status")
	.dwattr $C$DW$351, DW_AT_type(*$C$DW$T$86)
	.dwattr $C$DW$351, DW_AT_location[DW_OP_bregx 0x24 12]
$C$DW$352	.dwtag  DW_TAG_variable, DW_AT_name("request")
	.dwattr $C$DW$352, DW_AT_TI_symbol_name("_request")
	.dwattr $C$DW$352, DW_AT_type(*$C$DW$T$30)
	.dwattr $C$DW$352, DW_AT_location[DW_OP_bregx 0x24 13]
        MOV XAR0, dbl(*SP(#0))
	.dwpsn	file "src/csl_msc.c",line 823,column 5,is_stmt
        MOV dbl(*SP(#0)), XAR3
        MOV XAR3, AC0
        BCC $C$L91,AC0 != #0 ; |823| 
                                        ; branchcc occurs ; |823| 
	.dwpsn	file "src/csl_msc.c",line 825,column 3,is_stmt
        MOV #-5, T0
        B $C$L104 ; |825| 
                                        ; branch occurs ; |825| 
$C$L91:    
	.dwpsn	file "src/csl_msc.c",line 828,column 5,is_stmt
        MOV XAR3, dbl(*SP(#2))
	.dwpsn	file "src/csl_msc.c",line 829,column 5,is_stmt

        MOV XAR3, dbl(*SP(#4))
||      AADD #2, AR3 ; |829| 

	.dwpsn	file "src/csl_msc.c",line 830,column 5,is_stmt
        MOV dbl(*AR3), XAR3
        MOV XAR3, dbl(*SP(#8))
	.dwpsn	file "src/csl_msc.c",line 831,column 5,is_stmt
        MOV dbl(*SP(#4)), XAR3
        MOV dbl(*AR3(short(#4))), XAR3
        MOV XAR3, dbl(*SP(#10))
	.dwpsn	file "src/csl_msc.c",line 832,column 5,is_stmt
        MOV #0, *SP(#6) ; |832| 
	.dwpsn	file "src/csl_msc.c",line 834,column 5,is_stmt
        MOV dbl(*SP(#4)), XAR3
        MOV #(_MSC_reqUnknown >> 16) << #16, AC0 ; |834| 
        OR #(_MSC_reqUnknown & 0xffff), AC0, AC0 ; |834| 
        MOV AC0, dbl(*AR3(#138)) ; |834| 
	.dwpsn	file "src/csl_msc.c",line 836,column 5,is_stmt
        AMAR *SP(#12), XAR1
        MOV dbl(*SP(#10)), XAR0
$C$DW$353	.dwtag  DW_TAG_TI_branch
	.dwattr $C$DW$353, DW_AT_low_pc(0x00)
	.dwattr $C$DW$353, DW_AT_name("_USB_getEvents")
	.dwattr $C$DW$353, DW_AT_TI_call
        CALL #_USB_getEvents ; |836| 
                                        ; call occurs [#_USB_getEvents] ; |836| 
        AMAR *SP(#12), XAR1
        MOV dbl(*SP(#8)), XAR0
$C$DW$354	.dwtag  DW_TAG_TI_branch
	.dwattr $C$DW$354, DW_AT_low_pc(0x00)
	.dwattr $C$DW$354, DW_AT_name("_USB_getEvents")
	.dwattr $C$DW$354, DW_AT_TI_call

        CALL #_USB_getEvents ; |836| 
||      MOV T0, T2 ; |836| 

                                        ; call occurs [#_USB_getEvents] ; |836| 
        OR T2, T0 ; |836| 
        MOV T0, *SP(#7) ; |836| 
	.dwpsn	file "src/csl_msc.c",line 841,column 2,is_stmt
        BTST #0, *SP(#7), TC1 ; |841| 
        BCC $C$L92,!TC1 ; |841| 
                                        ; branchcc occurs ; |841| 
	.dwpsn	file "src/csl_msc.c",line 843,column 3,is_stmt
        MOV dbl(*SP(#4)), XAR3
        MOV #0, *AR3(short(#6)) ; |843| 
	.dwpsn	file "src/csl_msc.c",line 845,column 3,is_stmt
        MOV dbl(*SP(#2)), XAR3
        MOV dbl(*AR3), XAR0
$C$DW$355	.dwtag  DW_TAG_TI_branch
	.dwattr $C$DW$355, DW_AT_low_pc(0x00)
	.dwattr $C$DW$355, DW_AT_name("_USB_abortAllTransaction")
	.dwattr $C$DW$355, DW_AT_TI_call
        CALL #_USB_abortAllTransaction ; |845| 
                                        ; call occurs [#_USB_abortAllTransaction] ; |845| 
        OR *SP(#12), T0, AR1 ; |845| 
        MOV AR1, *SP(#12) ; |845| 
	.dwpsn	file "src/csl_msc.c",line 847,column 3,is_stmt
        MOV dbl(*SP(#4)), XAR1
        MOV dbl(*SP(#2)), XAR3
        AADD #8, AR1 ; |847| 
        MOV dbl(*AR3), XAR0
$C$DW$356	.dwtag  DW_TAG_TI_branch
	.dwattr $C$DW$356, DW_AT_low_pc(0x00)
	.dwattr $C$DW$356, DW_AT_name("_USB_setParams")
	.dwattr $C$DW$356, DW_AT_TI_call

        CALL #_USB_setParams ; |847| 
||      MOV #0, T0

                                        ; call occurs [#_USB_setParams] ; |847| 
        OR *SP(#12), T0, AR1 ; |847| 
        MOV AR1, *SP(#12) ; |847| 
	.dwpsn	file "src/csl_msc.c",line 850,column 3,is_stmt
        MOV dbl(*SP(#4)), XAR3
        MOV #0, *AR3(#114) ; |850| 
$C$L92:    
	.dwpsn	file "src/csl_msc.c",line 853,column 2,is_stmt
        BTST #2, *SP(#7), TC1 ; |853| 
        BCC $C$L93,!TC1 ; |853| 
                                        ; branchcc occurs ; |853| 
	.dwpsn	file "src/csl_msc.c",line 855,column 3,is_stmt
        MOV dbl(*SP(#4)), XAR3
        MOV #1, *AR3(short(#6)) ; |855| 
$C$L93:    
	.dwpsn	file "src/csl_msc.c",line 858,column 2,is_stmt
        BTST #3, *SP(#7), TC1 ; |858| 
        BCC $C$L94,!TC1 ; |858| 
                                        ; branchcc occurs ; |858| 
	.dwpsn	file "src/csl_msc.c",line 860,column 3,is_stmt
        MOV dbl(*SP(#4)), XAR3
        MOV #0, *AR3(short(#6)) ; |860| 
$C$L94:    
	.dwpsn	file "src/csl_msc.c",line 865,column 3,is_stmt
        MOV *SP(#7), AR1 ; |865| 

        AND #0x0010, AR1, AR1 ; |865| 
||      MOV #16, AR2 ; |865| 

        CMPU AR1 != AR2, TC1 ; |865| 
        BCC $C$L103,TC1 ; |865| 
                                        ; branchcc occurs ; |865| 
	.dwpsn	file "src/csl_msc.c",line 868,column 3,is_stmt
        MOV dbl(*SP(#2)), XAR3
        MOV dbl(*SP(#4)), XAR1
        MOV dbl(*AR3), XAR0
        AADD #18, AR1 ; |868| 
$C$DW$357	.dwtag  DW_TAG_TI_branch
	.dwattr $C$DW$357, DW_AT_low_pc(0x00)
	.dwattr $C$DW$357, DW_AT_name("_USB_getSetupPacket")
	.dwattr $C$DW$357, DW_AT_TI_call

        CALL #_USB_getSetupPacket ; |868| 
||      MOV #0, T0

                                        ; call occurs [#_USB_getSetupPacket] ; |868| 
        OR *SP(#12), T0, AR1 ; |868| 
        MOV AR1, *SP(#12) ; |868| 
	.dwpsn	file "src/csl_msc.c",line 870,column 3,is_stmt
        MOV dbl(*SP(#4)), XAR2
        MOV dbl(*SP(#4)), XAR3
        MOV *AR2(#19), AC0 ; |870| 
        SFTL AC0, #8, AC0 ; |870| 
        AND #0xf000, AC0, AR1 ; |870| 
        OR *AR3(#20), AR1, AR1 ; |870| 
        MOV AR1, *SP(#13) ; |870| 
	.dwpsn	file "src/csl_msc.c",line 874,column 3,is_stmt
        MOV dbl(*SP(#4)), XAR3
        MOV dbl(*AR3(#136)), XAR0
$C$DW$358	.dwtag  DW_TAG_TI_branch
	.dwattr $C$DW$358, DW_AT_low_pc(0x00)
	.dwattr $C$DW$358, DW_AT_name("_MSC_lookupReqHandler")
	.dwattr $C$DW$358, DW_AT_TI_call

        CALL #_MSC_lookupReqHandler ; |874| 
||      MOV AR1, T0

                                        ; call occurs [#_MSC_lookupReqHandler] ; |874| 
        MOV dbl(*SP(#4)), XAR3
        MOV AC0, dbl(*AR3(#138)) ; |874| 
	.dwpsn	file "src/csl_msc.c",line 877,column 6,is_stmt
        MOV *SP(#6), AR1 ; |877| 
        BCC $C$L100,AR1 != #0 ; |877| 
                                        ; branchcc occurs ; |877| 
	.dwpsn	file "src/csl_msc.c",line 879,column 4,is_stmt
        MOV dbl(*SP(#4)), XAR3
        MOV dbl(*SP(#4)), XAR1
        MOV dbl(*AR3(#138)), AC0 ; |879| 
        MOV dbl(*SP(#2)), XAR3
        MOV dbl(*SP(#8)), XAR2
        MOV dbl(*SP(#0)), XAR4
        AADD #18, AR1 ; |879| 
        MOV dbl(*AR3), XAR0
        MOV dbl(*SP(#10)), XAR3
$C$DW$359	.dwtag  DW_TAG_TI_branch
	.dwattr $C$DW$359, DW_AT_low_pc(0x00)
	.dwattr $C$DW$359, DW_AT_TI_call
	.dwattr $C$DW$359, DW_AT_TI_indirect
        CALL AC0  ; |879| 
                                        ; call occurs [AC0] ; |879| 
        MOV T0, *SP(#6) ; |879| 
	.dwpsn	file "src/csl_msc.c",line 883,column 3,is_stmt
        B $C$L100 ; |883| 
                                        ; branch occurs ; |883| 
$C$L95:    
	.dwpsn	file "src/csl_msc.c",line 888,column 5,is_stmt
        MOV dbl(*SP(#8)), XAR0
        AMOV #0, XAR1 ; |888| 
        MOV #0, T0
$C$DW$360	.dwtag  DW_TAG_TI_branch
	.dwattr $C$DW$360, DW_AT_low_pc(0x00)
	.dwattr $C$DW$360, DW_AT_name("_USB_postTransaction")
	.dwattr $C$DW$360, DW_AT_TI_call

        CALL #_USB_postTransaction ; |888| 
||      MOV #0, T1

                                        ; call occurs [#_USB_postTransaction] ; |888| 
        OR *SP(#12), T0, AR1 ; |888| 
        MOV AR1, *SP(#12) ; |888| 
	.dwpsn	file "src/csl_msc.c",line 890,column 5,is_stmt
        MOV dbl(*SP(#4)), XAR3
        MOV #(_MSC_reqUnknown >> 16) << #16, AC0 ; |890| 
        OR #(_MSC_reqUnknown & 0xffff), AC0, AC0 ; |890| 
        MOV AC0, dbl(*AR3(#138)) ; |890| 
	.dwpsn	file "src/csl_msc.c",line 891,column 10,is_stmt
        B $C$L102 ; |891| 
                                        ; branch occurs ; |891| 
$C$L96:    
	.dwpsn	file "src/csl_msc.c",line 900,column 5,is_stmt
        MOV dbl(*SP(#10)), XAR0
        AMOV #0, XAR1 ; |900| 
        MOV #0, T0
$C$DW$361	.dwtag  DW_TAG_TI_branch
	.dwattr $C$DW$361, DW_AT_low_pc(0x00)
	.dwattr $C$DW$361, DW_AT_name("_USB_postTransaction")
	.dwattr $C$DW$361, DW_AT_TI_call

        CALL #_USB_postTransaction ; |900| 
||      MOV #0, T1

                                        ; call occurs [#_USB_postTransaction] ; |900| 
        OR *SP(#12), T0, AR1 ; |900| 
        MOV AR1, *SP(#12) ; |900| 
	.dwpsn	file "src/csl_msc.c",line 902,column 5,is_stmt
        MOV dbl(*SP(#4)), XAR3
        MOV #(_MSC_reqUnknown >> 16) << #16, AC0 ; |902| 
        OR #(_MSC_reqUnknown & 0xffff), AC0, AC0 ; |902| 
        MOV AC0, dbl(*AR3(#138)) ; |902| 
	.dwpsn	file "src/csl_msc.c",line 903,column 10,is_stmt
        B $C$L102 ; |903| 
                                        ; branch occurs ; |903| 
$C$L97:    
	.dwpsn	file "src/csl_msc.c",line 912,column 5,is_stmt
        MOV dbl(*SP(#10)), XAR0
$C$DW$362	.dwtag  DW_TAG_TI_branch
	.dwattr $C$DW$362, DW_AT_low_pc(0x00)
	.dwattr $C$DW$362, DW_AT_name("_USB_stallEndpt")
	.dwattr $C$DW$362, DW_AT_TI_call
        CALL #_USB_stallEndpt ; |912| 
                                        ; call occurs [#_USB_stallEndpt] ; |912| 
        OR *SP(#12), T0, AR1 ; |912| 
        MOV AR1, *SP(#12) ; |912| 
	.dwpsn	file "src/csl_msc.c",line 913,column 5,is_stmt
        MOV dbl(*SP(#8)), XAR0
$C$DW$363	.dwtag  DW_TAG_TI_branch
	.dwattr $C$DW$363, DW_AT_low_pc(0x00)
	.dwattr $C$DW$363, DW_AT_name("_USB_stallEndpt")
	.dwattr $C$DW$363, DW_AT_TI_call
        CALL #_USB_stallEndpt ; |913| 
                                        ; call occurs [#_USB_stallEndpt] ; |913| 
        OR *SP(#12), T0, AR1 ; |913| 
        MOV AR1, *SP(#12) ; |913| 
	.dwpsn	file "src/csl_msc.c",line 914,column 10,is_stmt
        B $C$L102 ; |914| 
                                        ; branch occurs ; |914| 
$C$L98:    
	.dwpsn	file "src/csl_msc.c",line 917,column 5,is_stmt
        MOV dbl(*SP(#4)), XAR3
        MOV #(_MSC_reqUnknown >> 16) << #16, AC0 ; |917| 
        OR #(_MSC_reqUnknown & 0xffff), AC0, AC0 ; |917| 
        MOV AC0, dbl(*AR3(#138)) ; |917| 
	.dwpsn	file "src/csl_msc.c",line 918,column 10,is_stmt
        B $C$L102 ; |918| 
                                        ; branch occurs ; |918| 
$C$L99:    
	.dwpsn	file "src/csl_msc.c",line 921,column 5,is_stmt
        MOV #-578, *SP(#12) ; |921| 
	.dwpsn	file "src/csl_msc.c",line 922,column 10,is_stmt
        B $C$L102 ; |922| 
                                        ; branch occurs ; |922| 
$C$L100:    
	.dwpsn	file "src/csl_msc.c",line 883,column 3,is_stmt

        MOV *SP(#6), AR1 ; |883| 
||      MOV #3, AR2

        CMP AR1 > AR2, TC1 ; |883| 
        BCC $C$L101,TC1 ; |883| 
                                        ; branchcc occurs ; |883| 
        CMP AR1 == AR2, TC1 ; |883| 
        BCC $C$L96,TC1 ; |883| 
                                        ; branchcc occurs ; |883| 
        BCC $C$L98,AR1 == #0 ; |883| 
                                        ; branchcc occurs ; |883| 
        MOV #1, AR2
        CMP AR1 == AR2, TC1 ; |883| 
        BCC $C$L97,TC1 ; |883| 
                                        ; branchcc occurs ; |883| 
        MOV #2, AR2
        CMP AR1 == AR2, TC1 ; |883| 
        BCC $C$L95,TC1 ; |883| 
                                        ; branchcc occurs ; |883| 
        B $C$L99  ; |883| 
                                        ; branch occurs ; |883| 
$C$L101:    
        MOV #4, AR2
        CMP AR1 == AR2, TC1 ; |883| 
        BCC $C$L102,TC1 ; |883| 
                                        ; branchcc occurs ; |883| 
        MOV #5, AR2
        CMP AR1 == AR2, TC1 ; |883| 
        BCC $C$L99,!TC1 ; |883| 
                                        ; branchcc occurs ; |883| 
$C$L102:    
	.dwpsn	file "src/csl_msc.c",line 926,column 6,is_stmt
        MOV dbl(*SP(#4)), XAR3
        MOV *AR3(#18), AR1 ; |926| 
        BCC $C$L103,AR1 == #0 ; |926| 
                                        ; branchcc occurs ; |926| 
	.dwpsn	file "src/csl_msc.c",line 928,column 4,is_stmt
        MOV #0, *AR3(#18) ; |928| 
$C$L103:    
	.dwpsn	file "src/csl_msc.c",line 932,column 2,is_stmt
        MOV *SP(#12), T0 ; |932| 
$C$L104:    
	.dwpsn	file "src/csl_msc.c",line 933,column 1,is_stmt
        AADD #14, SP
	.dwcfi	cfa_offset, 2
        POP T2
	.dwcfi	restore_reg, 14
	.dwcfi	cfa_offset, 1
$C$DW$364	.dwtag  DW_TAG_TI_branch
	.dwattr $C$DW$364, DW_AT_low_pc(0x00)
	.dwattr $C$DW$364, DW_AT_TI_return
        RET
                                        ; return occurs
	.dwattr $C$DW$342, DW_AT_TI_end_file("src/csl_msc.c")
	.dwattr $C$DW$342, DW_AT_TI_end_line(0x3a5)
	.dwattr $C$DW$342, DW_AT_TI_end_column(0x01)
	.dwendentry
	.dwendtag $C$DW$342

	.sect	".text"
	.global	_MSC_Bulk

$C$DW$365	.dwtag  DW_TAG_subprogram, DW_AT_name("MSC_Bulk")
	.dwattr $C$DW$365, DW_AT_low_pc(_MSC_Bulk)
	.dwattr $C$DW$365, DW_AT_high_pc(0x00)
	.dwattr $C$DW$365, DW_AT_TI_symbol_name("_MSC_Bulk")
	.dwattr $C$DW$365, DW_AT_external
	.dwattr $C$DW$365, DW_AT_type(*$C$DW$T$86)
	.dwattr $C$DW$365, DW_AT_TI_begin_file("src/csl_msc.c")
	.dwattr $C$DW$365, DW_AT_TI_begin_line(0x3d6)
	.dwattr $C$DW$365, DW_AT_TI_begin_column(0x0c)
	.dwattr $C$DW$365, DW_AT_TI_max_frame_size(0x0e)
	.dwpsn	file "src/csl_msc.c",line 983,column 1,is_stmt,address _MSC_Bulk

	.dwfde $C$DW$CIE, _MSC_Bulk
$C$DW$366	.dwtag  DW_TAG_formal_parameter, DW_AT_name("pMSC")
	.dwattr $C$DW$366, DW_AT_TI_symbol_name("_pMSC")
	.dwattr $C$DW$366, DW_AT_type(*$C$DW$T$3)
	.dwattr $C$DW$366, DW_AT_location[DW_OP_reg17]
;*******************************************************************************
;* FUNCTION NAME: MSC_Bulk                                                     *
;*                                                                             *
;*   Function Uses Regs : AC0,AC0,AC1,AC1,T0,T1,AR0,XAR0,AR1,XAR1,AR2,XAR2,AR3,*
;*                        XAR3,SP,CARRY,TC1,M40,SATA,SATD,RDM,FRCT,SMUL        *
;*   Stack Frame        : Compact (No Frame Pointer, w/ debug)                 *
;*   Total Frame Size   : 14 words                                             *
;*                        (2 return address/alignment)                         *
;*                        (12 local values)                                    *
;*   Min System Stack   : 1 word                                               *
;*******************************************************************************
_MSC_Bulk:
	.dwcfi	cfa_offset, 1
	.dwcfi	save_reg_to_mem, 91, -1
        AADD #-13, SP
	.dwcfi	cfa_offset, 14
$C$DW$367	.dwtag  DW_TAG_variable, DW_AT_name("pMSC")
	.dwattr $C$DW$367, DW_AT_TI_symbol_name("_pMSC")
	.dwattr $C$DW$367, DW_AT_type(*$C$DW$T$3)
	.dwattr $C$DW$367, DW_AT_location[DW_OP_bregx 0x24 0]
$C$DW$368	.dwtag  DW_TAG_variable, DW_AT_name("pMscClassHdl")
	.dwattr $C$DW$368, DW_AT_TI_symbol_name("_pMscClassHdl")
	.dwattr $C$DW$368, DW_AT_type(*$C$DW$T$131)
	.dwattr $C$DW$368, DW_AT_location[DW_OP_bregx 0x24 2]
$C$DW$369	.dwtag  DW_TAG_variable, DW_AT_name("pMscHandle")
	.dwattr $C$DW$369, DW_AT_TI_symbol_name("_pMscHandle")
	.dwattr $C$DW$369, DW_AT_type(*$C$DW$T$140)
	.dwattr $C$DW$369, DW_AT_location[DW_OP_bregx 0x24 4]
$C$DW$370	.dwtag  DW_TAG_variable, DW_AT_name("hUsbInEp")
	.dwattr $C$DW$370, DW_AT_TI_symbol_name("_hUsbInEp")
	.dwattr $C$DW$370, DW_AT_type(*$C$DW$T$27)
	.dwattr $C$DW$370, DW_AT_location[DW_OP_bregx 0x24 6]
$C$DW$371	.dwtag  DW_TAG_variable, DW_AT_name("hUsbOutEp")
	.dwattr $C$DW$371, DW_AT_TI_symbol_name("_hUsbOutEp")
	.dwattr $C$DW$371, DW_AT_type(*$C$DW$T$27)
	.dwattr $C$DW$371, DW_AT_location[DW_OP_bregx 0x24 8]
$C$DW$372	.dwtag  DW_TAG_variable, DW_AT_name("status")
	.dwattr $C$DW$372, DW_AT_TI_symbol_name("_status")
	.dwattr $C$DW$372, DW_AT_type(*$C$DW$T$86)
	.dwattr $C$DW$372, DW_AT_location[DW_OP_bregx 0x24 10]
$C$DW$373	.dwtag  DW_TAG_variable, DW_AT_name("logicalUnit")
	.dwattr $C$DW$373, DW_AT_TI_symbol_name("_logicalUnit")
	.dwattr $C$DW$373, DW_AT_type(*$C$DW$T$30)
	.dwattr $C$DW$373, DW_AT_location[DW_OP_bregx 0x24 11]
        MOV XAR0, dbl(*SP(#0))
	.dwpsn	file "src/csl_msc.c",line 991,column 2,is_stmt
        MOV #0, *SP(#10) ; |991| 
	.dwpsn	file "src/csl_msc.c",line 993,column 2,is_stmt
        MOV dbl(*SP(#0)), XAR3
        MOV XAR3, AC0
        BCC $C$L116,AC0 == #0 ; |993| 
                                        ; branchcc occurs ; |993| 
	.dwpsn	file "src/csl_msc.c",line 995,column 3,is_stmt
        MOV XAR3, dbl(*SP(#2))
	.dwpsn	file "src/csl_msc.c",line 996,column 3,is_stmt
        AMAR *+AR3(#148) ; |996| 
        MOV XAR3, dbl(*SP(#4))
	.dwpsn	file "src/csl_msc.c",line 997,column 3,is_stmt
        MOV dbl(*AR3(#314)), XAR3
        MOV XAR3, dbl(*SP(#6))
	.dwpsn	file "src/csl_msc.c",line 998,column 3,is_stmt
        MOV dbl(*SP(#4)), XAR3
        MOV dbl(*AR3(#316)), XAR3
        MOV XAR3, dbl(*SP(#8))
	.dwpsn	file "src/csl_msc.c",line 1000,column 3,is_stmt
        AMAR *SP(#10), XAR1
        MOV dbl(*SP(#6)), XAR0
$C$DW$374	.dwtag  DW_TAG_TI_branch
	.dwattr $C$DW$374, DW_AT_low_pc(0x00)
	.dwattr $C$DW$374, DW_AT_name("_USB_getEvents")
	.dwattr $C$DW$374, DW_AT_TI_call
        CALL #_USB_getEvents ; |1000| 
                                        ; call occurs [#_USB_getEvents] ; |1000| 
        BTST @#0, T0, TC1 ; |1000| 
        BCC $C$L105,!TC1 ; |1000| 
                                        ; branchcc occurs ; |1000| 
	.dwpsn	file "src/csl_msc.c",line 1002,column 7,is_stmt
        MOV dbl(*SP(#4)), XAR3
        MOV #0, *AR3(#319) ; |1002| 
$C$L105:    
	.dwpsn	file "src/csl_msc.c",line 1005,column 3,is_stmt
        MOV dbl(*SP(#4)), XAR3
        MOV uns(high_byte(*AR3(#303))), AR1 ; |1005| 
        MOV AR1, *SP(#11) ; |1005| 
	.dwpsn	file "src/csl_msc.c",line 1008,column 3,is_stmt
        B $C$L115 ; |1008| 
                                        ; branch occurs ; |1008| 
$C$L106:    
	.dwpsn	file "src/csl_msc.c",line 1011,column 5,is_stmt
        MOV dbl(*SP(#4)), XAR0
        MOV dbl(*SP(#8)), XAR1
$C$DW$375	.dwtag  DW_TAG_TI_branch
	.dwattr $C$DW$375, DW_AT_low_pc(0x00)
	.dwattr $C$DW$375, DW_AT_name("_MSC_HandleStateReset")
	.dwattr $C$DW$375, DW_AT_TI_call
        CALL #_MSC_HandleStateReset ; |1011| 
                                        ; call occurs [#_MSC_HandleStateReset] ; |1011| 
        MOV T0, *SP(#10) ; |1011| 
	.dwpsn	file "src/csl_msc.c",line 1012,column 10,is_stmt
        B $C$L117 ; |1012| 
                                        ; branch occurs ; |1012| 
$C$L107:    
	.dwpsn	file "src/csl_msc.c",line 1015,column 5,is_stmt
        MOV dbl(*SP(#2)), XAR3
        MOV dbl(*SP(#4)), XAR1
        MOV dbl(*SP(#8)), XAR2
        MOV dbl(*AR3), XAR0
        MOV dbl(*SP(#6)), XAR3
$C$DW$376	.dwtag  DW_TAG_TI_branch
	.dwattr $C$DW$376, DW_AT_low_pc(0x00)
	.dwattr $C$DW$376, DW_AT_name("_MSC_HandleStateWaitForCBW")
	.dwattr $C$DW$376, DW_AT_TI_call
        CALL #_MSC_HandleStateWaitForCBW ; |1015| 
                                        ; call occurs [#_MSC_HandleStateWaitForCBW] ; |1015| 
        MOV T0, *SP(#10) ; |1015| 
	.dwpsn	file "src/csl_msc.c",line 1019,column 10,is_stmt
        B $C$L117 ; |1019| 
                                        ; branch occurs ; |1019| 
$C$L108:    
	.dwpsn	file "src/csl_msc.c",line 1022,column 5,is_stmt
        MOV dbl(*SP(#4)), XAR0
        MOV dbl(*SP(#8)), XAR1
        MOV dbl(*SP(#6)), XAR2
$C$DW$377	.dwtag  DW_TAG_TI_branch
	.dwattr $C$DW$377, DW_AT_low_pc(0x00)
	.dwattr $C$DW$377, DW_AT_name("_MSC_HandleStateSendCSW")
	.dwattr $C$DW$377, DW_AT_TI_call
        CALL #_MSC_HandleStateSendCSW ; |1022| 
                                        ; call occurs [#_MSC_HandleStateSendCSW] ; |1022| 
        MOV T0, *SP(#10) ; |1022| 
	.dwpsn	file "src/csl_msc.c",line 1023,column 10,is_stmt
        B $C$L117 ; |1023| 
                                        ; branch occurs ; |1023| 
$C$L109:    
	.dwpsn	file "src/csl_msc.c",line 1026,column 5,is_stmt
        MOV dbl(*SP(#4)), XAR0
        MOV dbl(*SP(#6)), XAR1
$C$DW$378	.dwtag  DW_TAG_TI_branch
	.dwattr $C$DW$378, DW_AT_low_pc(0x00)
	.dwattr $C$DW$378, DW_AT_name("_MSC_HandleStateSendData")
	.dwattr $C$DW$378, DW_AT_TI_call
        CALL #_MSC_HandleStateSendData ; |1026| 
                                        ; call occurs [#_MSC_HandleStateSendData] ; |1026| 
        MOV T0, *SP(#10) ; |1026| 
	.dwpsn	file "src/csl_msc.c",line 1027,column 10,is_stmt
        B $C$L117 ; |1027| 
                                        ; branch occurs ; |1027| 
$C$L110:    
	.dwpsn	file "src/csl_msc.c",line 1030,column 5,is_stmt
        MOV dbl(*SP(#4)), XAR0
        MOV dbl(*SP(#6)), XAR1
$C$DW$379	.dwtag  DW_TAG_TI_branch
	.dwattr $C$DW$379, DW_AT_low_pc(0x00)
	.dwattr $C$DW$379, DW_AT_name("_MSC_HandleStateSendStall")
	.dwattr $C$DW$379, DW_AT_TI_call
        CALL #_MSC_HandleStateSendStall ; |1030| 
                                        ; call occurs [#_MSC_HandleStateSendStall] ; |1030| 
        MOV T0, *SP(#10) ; |1030| 
	.dwpsn	file "src/csl_msc.c",line 1031,column 10,is_stmt
        B $C$L117 ; |1031| 
                                        ; branch occurs ; |1031| 
$C$L111:    
	.dwpsn	file "src/csl_msc.c",line 1034,column 5,is_stmt
        MOV dbl(*SP(#4)), XAR0
        MOV *SP(#11), T0 ; |1034| 
$C$DW$380	.dwtag  DW_TAG_TI_branch
	.dwattr $C$DW$380, DW_AT_low_pc(0x00)
	.dwattr $C$DW$380, DW_AT_name("_MSC_ExecuteRead")
	.dwattr $C$DW$380, DW_AT_TI_call

        CALL #_MSC_ExecuteRead ; |1034| 
||      MOV #0, T1

                                        ; call occurs [#_MSC_ExecuteRead] ; |1034| 
        MOV T0, *SP(#10) ; |1034| 
	.dwpsn	file "src/csl_msc.c",line 1035,column 10,is_stmt
        B $C$L117 ; |1035| 
                                        ; branch occurs ; |1035| 
$C$L112:    
	.dwpsn	file "src/csl_msc.c",line 1038,column 5,is_stmt
        MOV dbl(*SP(#4)), XAR0
        MOV *SP(#11), T0 ; |1038| 
$C$DW$381	.dwtag  DW_TAG_TI_branch
	.dwattr $C$DW$381, DW_AT_low_pc(0x00)
	.dwattr $C$DW$381, DW_AT_name("_MSC_ExecuteWrite")
	.dwattr $C$DW$381, DW_AT_TI_call

        CALL #_MSC_ExecuteWrite ; |1038| 
||      MOV #0, T1

                                        ; call occurs [#_MSC_ExecuteWrite] ; |1038| 
        MOV T0, *SP(#10) ; |1038| 
	.dwpsn	file "src/csl_msc.c",line 1039,column 10,is_stmt
        B $C$L117 ; |1039| 
                                        ; branch occurs ; |1039| 
$C$L113:    
	.dwpsn	file "src/csl_msc.c",line 1042,column 5,is_stmt
        MOV dbl(*SP(#4)), XAR0
        MOV dbl(*SP(#6)), XAR1
$C$DW$382	.dwtag  DW_TAG_TI_branch
	.dwattr $C$DW$382, DW_AT_low_pc(0x00)
	.dwattr $C$DW$382, DW_AT_name("_MSC_HandleStateSendingShortPkt")
	.dwattr $C$DW$382, DW_AT_TI_call
        CALL #_MSC_HandleStateSendingShortPkt ; |1042| 
                                        ; call occurs [#_MSC_HandleStateSendingShortPkt] ; |1042| 
        MOV T0, *SP(#10) ; |1042| 
	.dwpsn	file "src/csl_msc.c",line 1043,column 10,is_stmt
        B $C$L117 ; |1043| 
                                        ; branch occurs ; |1043| 
$C$L114:    
	.dwpsn	file "src/csl_msc.c",line 1046,column 5,is_stmt
        MOV #-6, *SP(#10) ; |1046| 
	.dwpsn	file "src/csl_msc.c",line 1047,column 13,is_stmt
        B $C$L117 ; |1047| 
                                        ; branch occurs ; |1047| 
$C$L115:    
	.dwpsn	file "src/csl_msc.c",line 1008,column 3,is_stmt
        MOV dbl(*SP(#4)), XAR3
        MOV *AR3(#319), AC0 ; |1008| 

        MOV AC0, AR1 ; |1008| 
||      MOV #7, AR2

        CMPU AR1 <= AR2, TC1 ; |1008| 
        BCC $C$L114,!TC1 ; |1008| 
                                        ; branchcc occurs ; |1008| 
        SFTL AC0, #1, AC0 ; |1008| 
        AND #0xffff, AC0, AC1 ; |1008| 
        MOV #($C$SW1 >> 16) << #16, AC0 ; |1008| 
        OR #($C$SW1 & 0xffff), AC0, AC0 ; |1008| 
        ADD AC1, AC0 ; |1008| 
        MOV AC0, XAR3
        MOV dbl(*AR3), AC0 ; |1008| 
        B AC0     ; |1008| 
                                        ; branch occurs ; |1008| 
	.sect	".switch:_MSC_Bulk"
	.clink
$C$SW1:	.long	$C$L106	; 0
	.long	$C$L107	; 1
	.long	$C$L110	; 2
	.long	$C$L109	; 3
	.long	$C$L108	; 4
	.long	$C$L111	; 5
	.long	$C$L112	; 6
	.long	$C$L113	; 7
	.sect	".text"
$C$L116:    
	.dwpsn	file "src/csl_msc.c",line 1052,column 3,is_stmt
        MOV #-5, *SP(#10) ; |1052| 
$C$L117:    
	.dwpsn	file "src/csl_msc.c",line 1055,column 2,is_stmt
        MOV *SP(#10), T0 ; |1055| 
	.dwpsn	file "src/csl_msc.c",line 1056,column 1,is_stmt
        AADD #13, SP
	.dwcfi	cfa_offset, 1
$C$DW$383	.dwtag  DW_TAG_TI_branch
	.dwattr $C$DW$383, DW_AT_low_pc(0x00)
	.dwattr $C$DW$383, DW_AT_TI_return
        RET
                                        ; return occurs
	.dwattr $C$DW$365, DW_AT_TI_end_file("src/csl_msc.c")
	.dwattr $C$DW$365, DW_AT_TI_end_line(0x420)
	.dwattr $C$DW$365, DW_AT_TI_end_column(0x01)
	.dwendentry
	.dwendtag $C$DW$365

	.sect	".text"
	.global	_MSC_GetLunLockedStatus

$C$DW$384	.dwtag  DW_TAG_subprogram, DW_AT_name("MSC_GetLunLockedStatus")
	.dwattr $C$DW$384, DW_AT_low_pc(_MSC_GetLunLockedStatus)
	.dwattr $C$DW$384, DW_AT_high_pc(0x00)
	.dwattr $C$DW$384, DW_AT_TI_symbol_name("_MSC_GetLunLockedStatus")
	.dwattr $C$DW$384, DW_AT_external
	.dwattr $C$DW$384, DW_AT_type(*$C$DW$T$30)
	.dwattr $C$DW$384, DW_AT_TI_begin_file("src/csl_msc.c")
	.dwattr $C$DW$384, DW_AT_TI_begin_line(0x450)
	.dwattr $C$DW$384, DW_AT_TI_begin_column(0x08)
	.dwattr $C$DW$384, DW_AT_TI_max_frame_size(0x0a)
	.dwpsn	file "src/csl_msc.c",line 1106,column 1,is_stmt,address _MSC_GetLunLockedStatus

	.dwfde $C$DW$CIE, _MSC_GetLunLockedStatus
$C$DW$385	.dwtag  DW_TAG_formal_parameter, DW_AT_name("pMSC")
	.dwattr $C$DW$385, DW_AT_TI_symbol_name("_pMSC")
	.dwattr $C$DW$385, DW_AT_type(*$C$DW$T$3)
	.dwattr $C$DW$385, DW_AT_location[DW_OP_reg17]
$C$DW$386	.dwtag  DW_TAG_formal_parameter, DW_AT_name("lunNum")
	.dwattr $C$DW$386, DW_AT_TI_symbol_name("_lunNum")
	.dwattr $C$DW$386, DW_AT_type(*$C$DW$T$30)
	.dwattr $C$DW$386, DW_AT_location[DW_OP_reg12]
;*******************************************************************************
;* FUNCTION NAME: MSC_GetLunLockedStatus                                       *
;*                                                                             *
;*   Function Uses Regs : AC0,T0,AR0,XAR0,AR1,AR3,XAR3,SP,TC1,M40,SATA,SATD,   *
;*                        RDM,FRCT,SMUL                                        *
;*   Stack Frame        : Compact (No Frame Pointer, w/ debug)                 *
;*   Total Frame Size   : 10 words                                             *
;*                        (2 return address/alignment)                         *
;*                        (8 local values)                                     *
;*   Min System Stack   : 1 word                                               *
;*******************************************************************************
_MSC_GetLunLockedStatus:
	.dwcfi	cfa_offset, 1
	.dwcfi	save_reg_to_mem, 91, -1
        AADD #-9, SP
	.dwcfi	cfa_offset, 10
$C$DW$387	.dwtag  DW_TAG_variable, DW_AT_name("pMSC")
	.dwattr $C$DW$387, DW_AT_TI_symbol_name("_pMSC")
	.dwattr $C$DW$387, DW_AT_type(*$C$DW$T$3)
	.dwattr $C$DW$387, DW_AT_location[DW_OP_bregx 0x24 0]
$C$DW$388	.dwtag  DW_TAG_variable, DW_AT_name("lunNum")
	.dwattr $C$DW$388, DW_AT_TI_symbol_name("_lunNum")
	.dwattr $C$DW$388, DW_AT_type(*$C$DW$T$30)
	.dwattr $C$DW$388, DW_AT_location[DW_OP_bregx 0x24 2]
$C$DW$389	.dwtag  DW_TAG_variable, DW_AT_name("pMscClassHdl")
	.dwattr $C$DW$389, DW_AT_TI_symbol_name("_pMscClassHdl")
	.dwattr $C$DW$389, DW_AT_type(*$C$DW$T$131)
	.dwattr $C$DW$389, DW_AT_location[DW_OP_bregx 0x24 4]
$C$DW$390	.dwtag  DW_TAG_variable, DW_AT_name("pMscHandle")
	.dwattr $C$DW$390, DW_AT_TI_symbol_name("_pMscHandle")
	.dwattr $C$DW$390, DW_AT_type(*$C$DW$T$140)
	.dwattr $C$DW$390, DW_AT_location[DW_OP_bregx 0x24 6]
        MOV T0, *SP(#2) ; |1106| 
        MOV XAR0, dbl(*SP(#0))
	.dwpsn	file "src/csl_msc.c",line 1110,column 4,is_stmt
        MOV dbl(*SP(#0)), XAR3
        MOV XAR3, dbl(*SP(#4))
	.dwpsn	file "src/csl_msc.c",line 1111,column 4,is_stmt
        AMAR *+AR3(#148) ; |1111| 
        MOV XAR3, dbl(*SP(#6))
	.dwpsn	file "src/csl_msc.c",line 1113,column 4,is_stmt
        MPYMK *SP(#2), #62, AC0 ; |1113| 
        MOV AC0, AR1 ; |1113| 
        AADD AR1, AR3 ; |1113| 
        BTST #1, *AR3(#75), TC1 ; |1113| 
        BCC $C$L118,!TC1 ; |1113| 
                                        ; branchcc occurs ; |1113| 
	.dwpsn	file "src/csl_msc.c",line 1115,column 8,is_stmt
        MOV #1, T0
        B $C$L119 ; |1115| 
                                        ; branch occurs ; |1115| 
$C$L118:    
	.dwpsn	file "src/csl_msc.c",line 1119,column 8,is_stmt
        MOV #0, T0
$C$L119:    
	.dwpsn	file "src/csl_msc.c",line 1121,column 1,is_stmt
        AADD #9, SP
	.dwcfi	cfa_offset, 1
$C$DW$391	.dwtag  DW_TAG_TI_branch
	.dwattr $C$DW$391, DW_AT_low_pc(0x00)
	.dwattr $C$DW$391, DW_AT_TI_return
        RET
                                        ; return occurs
	.dwattr $C$DW$384, DW_AT_TI_end_file("src/csl_msc.c")
	.dwattr $C$DW$384, DW_AT_TI_end_line(0x461)
	.dwattr $C$DW$384, DW_AT_TI_end_column(0x01)
	.dwendentry
	.dwendtag $C$DW$384

	.sect	".text"
	.global	_MSC_GetactivityFlagStatus

$C$DW$392	.dwtag  DW_TAG_subprogram, DW_AT_name("MSC_GetactivityFlagStatus")
	.dwattr $C$DW$392, DW_AT_low_pc(_MSC_GetactivityFlagStatus)
	.dwattr $C$DW$392, DW_AT_high_pc(0x00)
	.dwattr $C$DW$392, DW_AT_TI_symbol_name("_MSC_GetactivityFlagStatus")
	.dwattr $C$DW$392, DW_AT_external
	.dwattr $C$DW$392, DW_AT_type(*$C$DW$T$30)
	.dwattr $C$DW$392, DW_AT_TI_begin_file("src/csl_msc.c")
	.dwattr $C$DW$392, DW_AT_TI_begin_line(0x490)
	.dwattr $C$DW$392, DW_AT_TI_begin_column(0x08)
	.dwattr $C$DW$392, DW_AT_TI_max_frame_size(0x08)
	.dwpsn	file "src/csl_msc.c",line 1169,column 1,is_stmt,address _MSC_GetactivityFlagStatus

	.dwfde $C$DW$CIE, _MSC_GetactivityFlagStatus
$C$DW$393	.dwtag  DW_TAG_formal_parameter, DW_AT_name("pMSC")
	.dwattr $C$DW$393, DW_AT_TI_symbol_name("_pMSC")
	.dwattr $C$DW$393, DW_AT_type(*$C$DW$T$3)
	.dwattr $C$DW$393, DW_AT_location[DW_OP_reg17]
;*******************************************************************************
;* FUNCTION NAME: MSC_GetactivityFlagStatus                                    *
;*                                                                             *
;*   Function Uses Regs : T0,AR0,XAR0,AR3,XAR3,SP,M40,SATA,SATD,RDM,FRCT,SMUL  *
;*   Stack Frame        : Compact (No Frame Pointer, w/ debug)                 *
;*   Total Frame Size   : 8 words                                              *
;*                        (2 return address/alignment)                         *
;*                        (6 local values)                                     *
;*   Min System Stack   : 1 word                                               *
;*******************************************************************************
_MSC_GetactivityFlagStatus:
	.dwcfi	cfa_offset, 1
	.dwcfi	save_reg_to_mem, 91, -1
        AADD #-7, SP
	.dwcfi	cfa_offset, 8
$C$DW$394	.dwtag  DW_TAG_variable, DW_AT_name("pMSC")
	.dwattr $C$DW$394, DW_AT_TI_symbol_name("_pMSC")
	.dwattr $C$DW$394, DW_AT_type(*$C$DW$T$3)
	.dwattr $C$DW$394, DW_AT_location[DW_OP_bregx 0x24 0]
$C$DW$395	.dwtag  DW_TAG_variable, DW_AT_name("pMscClassHdl")
	.dwattr $C$DW$395, DW_AT_TI_symbol_name("_pMscClassHdl")
	.dwattr $C$DW$395, DW_AT_type(*$C$DW$T$131)
	.dwattr $C$DW$395, DW_AT_location[DW_OP_bregx 0x24 2]
$C$DW$396	.dwtag  DW_TAG_variable, DW_AT_name("pMscHandle")
	.dwattr $C$DW$396, DW_AT_TI_symbol_name("_pMscHandle")
	.dwattr $C$DW$396, DW_AT_type(*$C$DW$T$140)
	.dwattr $C$DW$396, DW_AT_location[DW_OP_bregx 0x24 4]
        MOV XAR0, dbl(*SP(#0))
	.dwpsn	file "src/csl_msc.c",line 1173,column 4,is_stmt
        MOV dbl(*SP(#0)), XAR3
        MOV XAR3, dbl(*SP(#2))
	.dwpsn	file "src/csl_msc.c",line 1174,column 4,is_stmt
        AMAR *+AR3(#148) ; |1174| 
        MOV XAR3, dbl(*SP(#4))
	.dwpsn	file "src/csl_msc.c",line 1176,column 4,is_stmt
        MOV *AR3(#281), T0 ; |1176| 
	.dwpsn	file "src/csl_msc.c",line 1177,column 1,is_stmt
        AADD #7, SP
	.dwcfi	cfa_offset, 1
$C$DW$397	.dwtag  DW_TAG_TI_branch
	.dwattr $C$DW$397, DW_AT_low_pc(0x00)
	.dwattr $C$DW$397, DW_AT_TI_return
        RET
                                        ; return occurs
	.dwattr $C$DW$392, DW_AT_TI_end_file("src/csl_msc.c")
	.dwattr $C$DW$392, DW_AT_TI_end_line(0x499)
	.dwattr $C$DW$392, DW_AT_TI_end_column(0x01)
	.dwendentry
	.dwendtag $C$DW$392

	.sect	".text"
	.global	_MSC_GetsuspendFlagStatus

$C$DW$398	.dwtag  DW_TAG_subprogram, DW_AT_name("MSC_GetsuspendFlagStatus")
	.dwattr $C$DW$398, DW_AT_low_pc(_MSC_GetsuspendFlagStatus)
	.dwattr $C$DW$398, DW_AT_high_pc(0x00)
	.dwattr $C$DW$398, DW_AT_TI_symbol_name("_MSC_GetsuspendFlagStatus")
	.dwattr $C$DW$398, DW_AT_external
	.dwattr $C$DW$398, DW_AT_type(*$C$DW$T$30)
	.dwattr $C$DW$398, DW_AT_TI_begin_file("src/csl_msc.c")
	.dwattr $C$DW$398, DW_AT_TI_begin_line(0x4c8)
	.dwattr $C$DW$398, DW_AT_TI_begin_column(0x08)
	.dwattr $C$DW$398, DW_AT_TI_max_frame_size(0x08)
	.dwpsn	file "src/csl_msc.c",line 1225,column 1,is_stmt,address _MSC_GetsuspendFlagStatus

	.dwfde $C$DW$CIE, _MSC_GetsuspendFlagStatus
$C$DW$399	.dwtag  DW_TAG_formal_parameter, DW_AT_name("pMSC")
	.dwattr $C$DW$399, DW_AT_TI_symbol_name("_pMSC")
	.dwattr $C$DW$399, DW_AT_type(*$C$DW$T$3)
	.dwattr $C$DW$399, DW_AT_location[DW_OP_reg17]
;*******************************************************************************
;* FUNCTION NAME: MSC_GetsuspendFlagStatus                                     *
;*                                                                             *
;*   Function Uses Regs : T0,AR0,XAR0,AR3,XAR3,SP,M40,SATA,SATD,RDM,FRCT,SMUL  *
;*   Stack Frame        : Compact (No Frame Pointer, w/ debug)                 *
;*   Total Frame Size   : 8 words                                              *
;*                        (2 return address/alignment)                         *
;*                        (6 local values)                                     *
;*   Min System Stack   : 1 word                                               *
;*******************************************************************************
_MSC_GetsuspendFlagStatus:
	.dwcfi	cfa_offset, 1
	.dwcfi	save_reg_to_mem, 91, -1
        AADD #-7, SP
	.dwcfi	cfa_offset, 8
$C$DW$400	.dwtag  DW_TAG_variable, DW_AT_name("pMSC")
	.dwattr $C$DW$400, DW_AT_TI_symbol_name("_pMSC")
	.dwattr $C$DW$400, DW_AT_type(*$C$DW$T$3)
	.dwattr $C$DW$400, DW_AT_location[DW_OP_bregx 0x24 0]
$C$DW$401	.dwtag  DW_TAG_variable, DW_AT_name("pMscClassHdl")
	.dwattr $C$DW$401, DW_AT_TI_symbol_name("_pMscClassHdl")
	.dwattr $C$DW$401, DW_AT_type(*$C$DW$T$131)
	.dwattr $C$DW$401, DW_AT_location[DW_OP_bregx 0x24 2]
$C$DW$402	.dwtag  DW_TAG_variable, DW_AT_name("pCtrlHandle")
	.dwattr $C$DW$402, DW_AT_TI_symbol_name("_pCtrlHandle")
	.dwattr $C$DW$402, DW_AT_type(*$C$DW$T$132)
	.dwattr $C$DW$402, DW_AT_location[DW_OP_bregx 0x24 4]
        MOV XAR0, dbl(*SP(#0))
	.dwpsn	file "src/csl_msc.c",line 1229,column 4,is_stmt
        MOV dbl(*SP(#0)), XAR3
        MOV XAR3, dbl(*SP(#2))
	.dwpsn	file "src/csl_msc.c",line 1230,column 4,is_stmt

        MOV XAR3, dbl(*SP(#4))
||      AADD #2, AR3 ; |1230| 

	.dwpsn	file "src/csl_msc.c",line 1232,column 4,is_stmt
        MOV *AR3(short(#6)), T0 ; |1232| 
	.dwpsn	file "src/csl_msc.c",line 1233,column 1,is_stmt
        AADD #7, SP
	.dwcfi	cfa_offset, 1
$C$DW$403	.dwtag  DW_TAG_TI_branch
	.dwattr $C$DW$403, DW_AT_low_pc(0x00)
	.dwattr $C$DW$403, DW_AT_TI_return
        RET
                                        ; return occurs
	.dwattr $C$DW$398, DW_AT_TI_end_file("src/csl_msc.c")
	.dwattr $C$DW$398, DW_AT_TI_end_line(0x4d1)
	.dwattr $C$DW$398, DW_AT_TI_end_column(0x01)
	.dwendentry
	.dwendtag $C$DW$398

	.sect	".text"

$C$DW$404	.dwtag  DW_TAG_subprogram, DW_AT_name("MSC_initCtrlDesc")
	.dwattr $C$DW$404, DW_AT_low_pc(_MSC_initCtrlDesc)
	.dwattr $C$DW$404, DW_AT_high_pc(0x00)
	.dwattr $C$DW$404, DW_AT_TI_symbol_name("_MSC_initCtrlDesc")
	.dwattr $C$DW$404, DW_AT_type(*$C$DW$T$86)
	.dwattr $C$DW$404, DW_AT_TI_begin_file("src/csl_msc.c")
	.dwattr $C$DW$404, DW_AT_TI_begin_line(0x4f5)
	.dwattr $C$DW$404, DW_AT_TI_begin_column(0x13)
	.dwattr $C$DW$404, DW_AT_TI_max_frame_size(0x0a)
	.dwpsn	file "src/csl_msc.c",line 1270,column 1,is_stmt,address _MSC_initCtrlDesc

	.dwfde $C$DW$CIE, _MSC_initCtrlDesc
$C$DW$405	.dwtag  DW_TAG_formal_parameter, DW_AT_name("pMscHandle")
	.dwattr $C$DW$405, DW_AT_TI_symbol_name("_pMscHandle")
	.dwattr $C$DW$405, DW_AT_type(*$C$DW$T$131)
	.dwattr $C$DW$405, DW_AT_location[DW_OP_reg17]
;*******************************************************************************
;* FUNCTION NAME: MSC_initCtrlDesc                                             *
;*                                                                             *
;*   Function Uses Regs : AC0,AC0,T0,AR0,XAR0,AR1,AR2,XAR2,AR3,XAR3,SP,TC1,M40,*
;*                        SATA,SATD,RDM,FRCT,SMUL                              *
;*   Stack Frame        : Compact (No Frame Pointer, w/ debug)                 *
;*   Total Frame Size   : 10 words                                             *
;*                        (2 return address/alignment)                         *
;*                        (8 local values)                                     *
;*   Min System Stack   : 1 word                                               *
;*******************************************************************************
_MSC_initCtrlDesc:
	.dwcfi	cfa_offset, 1
	.dwcfi	save_reg_to_mem, 91, -1
        AADD #-9, SP
	.dwcfi	cfa_offset, 10
$C$DW$406	.dwtag  DW_TAG_variable, DW_AT_name("pMscHandle")
	.dwattr $C$DW$406, DW_AT_TI_symbol_name("_pMscHandle")
	.dwattr $C$DW$406, DW_AT_type(*$C$DW$T$131)
	.dwattr $C$DW$406, DW_AT_location[DW_OP_bregx 0x24 0]
$C$DW$407	.dwtag  DW_TAG_variable, DW_AT_name("status")
	.dwattr $C$DW$407, DW_AT_TI_symbol_name("_status")
	.dwattr $C$DW$407, DW_AT_type(*$C$DW$T$86)
	.dwattr $C$DW$407, DW_AT_location[DW_OP_bregx 0x24 2]
$C$DW$408	.dwtag  DW_TAG_variable, DW_AT_name("pHandle")
	.dwattr $C$DW$408, DW_AT_TI_symbol_name("_pHandle")
	.dwattr $C$DW$408, DW_AT_type(*$C$DW$T$131)
	.dwattr $C$DW$408, DW_AT_location[DW_OP_bregx 0x24 4]
$C$DW$409	.dwtag  DW_TAG_variable, DW_AT_name("pCtrlHandle")
	.dwattr $C$DW$409, DW_AT_TI_symbol_name("_pCtrlHandle")
	.dwattr $C$DW$409, DW_AT_type(*$C$DW$T$132)
	.dwattr $C$DW$409, DW_AT_location[DW_OP_bregx 0x24 6]
        MOV XAR0, dbl(*SP(#0))
	.dwpsn	file "src/csl_msc.c",line 1275,column 2,is_stmt
        MOV #0, *SP(#2) ; |1275| 
	.dwpsn	file "src/csl_msc.c",line 1276,column 5,is_stmt
        MOV dbl(*SP(#0)), XAR3
        MOV XAR3, dbl(*SP(#4))
	.dwpsn	file "src/csl_msc.c",line 1277,column 5,is_stmt
        MOV dbl(*SP(#0)), XAR3

        MOV XAR3, dbl(*SP(#6))
||      AADD #2, AR3 ; |1277| 

	.dwpsn	file "src/csl_msc.c",line 1279,column 2,is_stmt
        MOV XAR3, AC0
        BCC $C$L122,AC0 == #0 ; |1279| 
                                        ; branchcc occurs ; |1279| 
	.dwpsn	file "src/csl_msc.c",line 1287,column 3,is_stmt
        MOV #0, *AR3(#58) ; |1287| 
	.dwpsn	file "src/csl_msc.c",line 1289,column 3,is_stmt
        MOV dbl(*SP(#6)), XAR3
        MOV #274, *AR3(#59) ; |1289| 
	.dwpsn	file "src/csl_msc.c",line 1293,column 3,is_stmt
        MOV dbl(*SP(#6)), XAR3
        MOV #512, *AR3(#60) ; |1293| 
	.dwpsn	file "src/csl_msc.c",line 1295,column 3,is_stmt
        MOV dbl(*SP(#6)), XAR3
        MOV #0, *AR3(#61) ; |1295| 
	.dwpsn	file "src/csl_msc.c",line 1297,column 3,is_stmt
        MOV dbl(*SP(#6)), XAR3
        MOV #16384, *AR3(#62) ; |1297| 
	.dwpsn	file "src/csl_msc.c",line 1299,column 3,is_stmt
        MOV dbl(*SP(#6)), XAR3
        MOV #1105, *AR3(#63) ; |1299| 
	.dwpsn	file "src/csl_msc.c",line 1301,column 3,is_stmt
        MOV dbl(*SP(#6)), XAR3
        MOV #36880, *AR3(#64) ; |1301| 
	.dwpsn	file "src/csl_msc.c",line 1303,column 3,is_stmt
        MOV dbl(*SP(#6)), XAR3
        MOV #1, *AR3(#65) ; |1303| 
	.dwpsn	file "src/csl_msc.c",line 1305,column 3,is_stmt
        MOV dbl(*SP(#6)), XAR3
        MOV #513, *AR3(#66) ; |1305| 
	.dwpsn	file "src/csl_msc.c",line 1307,column 3,is_stmt
        MOV dbl(*SP(#6)), XAR3
        MOV #259, *AR3(#67) ; |1307| 
	.dwpsn	file "src/csl_msc.c",line 1310,column 3,is_stmt
        MOV dbl(*SP(#6)), XAR3
        MOV #0, *AR3(#68) ; |1310| 
	.dwpsn	file "src/csl_msc.c",line 1312,column 3,is_stmt
        MOV dbl(*SP(#6)), XAR3
        MOV #1546, *AR3(#69) ; |1312| 
	.dwpsn	file "src/csl_msc.c",line 1316,column 3,is_stmt
        MOV dbl(*SP(#6)), XAR3
        MOV #512, *AR3(#70) ; |1316| 
	.dwpsn	file "src/csl_msc.c",line 1318,column 3,is_stmt
        MOV dbl(*SP(#6)), XAR3
        MOV #0, *AR3(#71) ; |1318| 
	.dwpsn	file "src/csl_msc.c",line 1320,column 3,is_stmt
        MOV dbl(*SP(#6)), XAR3
        MOV #16384, *AR3(#72) ; |1320| 
	.dwpsn	file "src/csl_msc.c",line 1322,column 3,is_stmt
        MOV dbl(*SP(#6)), XAR3
        MOV #1, *AR3(#73) ; |1322| 
	.dwpsn	file "src/csl_msc.c",line 1325,column 3,is_stmt
        MOV dbl(*SP(#6)), XAR3
        MOV #0, *AR3(#74) ; |1325| 
	.dwpsn	file "src/csl_msc.c",line 1327,column 3,is_stmt
        MOV dbl(*SP(#6)), XAR3
        MOV #521, *AR3(#75) ; |1327| 
	.dwpsn	file "src/csl_msc.c",line 1331,column 3,is_stmt
        MOV dbl(*SP(#6)), XAR3
        MOV #32, *AR3(#76) ; |1331| 
	.dwpsn	file "src/csl_msc.c",line 1333,column 3,is_stmt
        MOV dbl(*SP(#6)), XAR3
        MOV #257, *AR3(#77) ; |1333| 
	.dwpsn	file "src/csl_msc.c",line 1335,column 3,is_stmt
        MOV dbl(*SP(#6)), XAR3
        MOV #49156, *AR3(#78) ; |1335| 
	.dwpsn	file "src/csl_msc.c",line 1337,column 3,is_stmt
        MOV dbl(*SP(#4)), XAR3
        MOV dbl(*AR3), XAR0
$C$DW$410	.dwtag  DW_TAG_TI_branch
	.dwattr $C$DW$410, DW_AT_low_pc(0x00)
	.dwattr $C$DW$410, DW_AT_name("_USB_getMaxPower")
	.dwattr $C$DW$410, DW_AT_TI_call
        CALL #_USB_getMaxPower ; |1337| 
                                        ; call occurs [#_USB_getMaxPower] ; |1337| 
        MOV dbl(*SP(#6)), XAR3
        MOV T0, *AR3(#79) ; |1337| 
	.dwpsn	file "src/csl_msc.c",line 1340,column 3,is_stmt
        MOV dbl(*SP(#6)), XAR3
        MOV #0, *AR3(#80) ; |1340| 
	.dwpsn	file "src/csl_msc.c",line 1342,column 3,is_stmt
        MOV dbl(*SP(#6)), XAR3
        MOV #1033, *AR3(#81) ; |1342| 
	.dwpsn	file "src/csl_msc.c",line 1346,column 3,is_stmt
        MOV dbl(*SP(#6)), XAR3
        MOV #0, *AR3(#82) ; |1346| 
	.dwpsn	file "src/csl_msc.c",line 1348,column 3,is_stmt
        MOV dbl(*SP(#6)), XAR3
        MOV #2050, *AR3(#83) ; |1348| 
	.dwpsn	file "src/csl_msc.c",line 1350,column 3,is_stmt
        MOV dbl(*SP(#6)), XAR3
        MOV #20486, *AR3(#84) ; |1350| 
	.dwpsn	file "src/csl_msc.c",line 1352,column 3,is_stmt
        MOV dbl(*SP(#6)), XAR3
        MOV #5, *AR3(#85) ; |1352| 
	.dwpsn	file "src/csl_msc.c",line 1355,column 3,is_stmt
        MOV dbl(*SP(#6)), XAR3
        MOV #0, *AR3(#86) ; |1355| 
	.dwpsn	file "src/csl_msc.c",line 1358,column 3,is_stmt
        MOV dbl(*SP(#6)), XAR3
        MOV #1287, *AR3(#87) ; |1358| 
	.dwpsn	file "src/csl_msc.c",line 1362,column 3,is_stmt
        MOV dbl(*SP(#6)), XAR3
        MOV #514, *AR3(#88) ; |1362| 
	.dwpsn	file "src/csl_msc.c",line 1365,column 3,is_stmt
        MOV dbl(*SP(#6)), XAR3
        MOV #64, *AR3(#89) ; |1365| 
	.dwpsn	file "src/csl_msc.c",line 1368,column 3,is_stmt
        MOV dbl(*SP(#6)), XAR3
        MOV #0, *AR3(#90) ; |1368| 
	.dwpsn	file "src/csl_msc.c",line 1372,column 3,is_stmt
        MOV dbl(*SP(#6)), XAR3
        MOV #0, *AR3(#98) ; |1372| 
	.dwpsn	file "src/csl_msc.c",line 1375,column 3,is_stmt
        MOV dbl(*SP(#6)), XAR3
        MOV #1287, *AR3(#99) ; |1375| 
	.dwpsn	file "src/csl_msc.c",line 1379,column 3,is_stmt
        MOV dbl(*SP(#6)), XAR3
        MOV #642, *AR3(#100) ; |1379| 
	.dwpsn	file "src/csl_msc.c",line 1382,column 3,is_stmt
        MOV dbl(*SP(#6)), XAR3
        MOV #64, *AR3(#101) ; |1382| 
	.dwpsn	file "src/csl_msc.c",line 1385,column 3,is_stmt
        MOV dbl(*SP(#6)), XAR3
        MOV #0, *AR3(#102) ; |1385| 
	.dwpsn	file "src/csl_msc.c",line 1399,column 3,is_stmt
        MOV dbl(*SP(#6)), XAR3
        MOV #0, *AR3(#24) ; |1399| 
	.dwpsn	file "src/csl_msc.c",line 1403,column 3,is_stmt
        MOV dbl(*SP(#6)), XAR3
        MOV #521, *AR3(#25) ; |1403| 
	.dwpsn	file "src/csl_msc.c",line 1407,column 3,is_stmt
        MOV dbl(*SP(#6)), XAR3
        MOV #32, *AR3(#26) ; |1407| 
	.dwpsn	file "src/csl_msc.c",line 1409,column 3,is_stmt
        MOV dbl(*SP(#6)), XAR3
        MOV #257, *AR3(#27) ; |1409| 
	.dwpsn	file "src/csl_msc.c",line 1411,column 3,is_stmt
        MOV dbl(*SP(#6)), XAR3
        MOV #49156, *AR3(#28) ; |1411| 
	.dwpsn	file "src/csl_msc.c",line 1413,column 3,is_stmt
        MOV dbl(*SP(#4)), XAR3
        MOV dbl(*AR3), XAR0
$C$DW$411	.dwtag  DW_TAG_TI_branch
	.dwattr $C$DW$411, DW_AT_low_pc(0x00)
	.dwattr $C$DW$411, DW_AT_name("_USB_getMaxPower")
	.dwattr $C$DW$411, DW_AT_TI_call
        CALL #_USB_getMaxPower ; |1413| 
                                        ; call occurs [#_USB_getMaxPower] ; |1413| 
        MOV dbl(*SP(#6)), XAR3
        AND #0x00ff, T0, AR1 ; |1413| 
        OR #0x0900, AR1, AR1 ; |1413| 
        MOV AR1, *AR3(#29) ; |1413| 
	.dwpsn	file "src/csl_msc.c",line 1418,column 3,is_stmt
        MOV dbl(*SP(#6)), XAR3
        MOV #4, *AR3(#30) ; |1418| 
	.dwpsn	file "src/csl_msc.c",line 1420,column 3,is_stmt
        MOV dbl(*SP(#6)), XAR3
        MOV #512, *AR3(#31) ; |1420| 
	.dwpsn	file "src/csl_msc.c",line 1422,column 3,is_stmt
        MOV dbl(*SP(#6)), XAR3
        MOV #1544, *AR3(#32) ; |1422| 
	.dwpsn	file "src/csl_msc.c",line 1423,column 3,is_stmt
        MOV dbl(*SP(#6)), XAR3
        MOV #1360, *AR3(#33) ; |1423| 
	.dwpsn	file "src/csl_msc.c",line 1429,column 3,is_stmt
        MOV dbl(*SP(#6)), XAR3
        MOV #1287, *AR3(#34) ; |1429| 
	.dwpsn	file "src/csl_msc.c",line 1431,column 3,is_stmt
        MOV dbl(*SP(#6)), XAR3
        MOV #514, *AR3(#35) ; |1431| 
	.dwpsn	file "src/csl_msc.c",line 1433,column 3,is_stmt
        MOV dbl(*SP(#6)), XAR3
        MOV #512, *AR3(#36) ; |1433| 
	.dwpsn	file "src/csl_msc.c",line 1435,column 3,is_stmt
        MOV dbl(*SP(#6)), XAR3
        MOV #1792, *AR3(#37) ; |1435| 
	.dwpsn	file "src/csl_msc.c",line 1437,column 3,is_stmt
        MOV dbl(*SP(#6)), XAR3
        MOV #33029, *AR3(#38) ; |1437| 
	.dwpsn	file "src/csl_msc.c",line 1439,column 3,is_stmt
        MOV dbl(*SP(#6)), XAR3
        MOV #2, *AR3(#39) ; |1439| 
	.dwpsn	file "src/csl_msc.c",line 1441,column 3,is_stmt
        MOV dbl(*SP(#6)), XAR3
        MOV #2, *AR3(#40) ; |1441| 
	.dwpsn	file "src/csl_msc.c",line 1454,column 3,is_stmt
        MOV dbl(*SP(#6)), XAR3
        MOV #0, *AR3(#41) ; |1454| 
	.dwpsn	file "src/csl_msc.c",line 1458,column 3,is_stmt
        MOV dbl(*SP(#6)), XAR3
        MOV #521, *AR3(#42) ; |1458| 
	.dwpsn	file "src/csl_msc.c",line 1462,column 3,is_stmt
        MOV dbl(*SP(#6)), XAR3
        MOV #32, *AR3(#43) ; |1462| 
	.dwpsn	file "src/csl_msc.c",line 1464,column 3,is_stmt
        MOV dbl(*SP(#6)), XAR3
        MOV #257, *AR3(#44) ; |1464| 
	.dwpsn	file "src/csl_msc.c",line 1466,column 3,is_stmt
        MOV dbl(*SP(#6)), XAR3
        MOV #49156, *AR3(#45) ; |1466| 
	.dwpsn	file "src/csl_msc.c",line 1468,column 3,is_stmt
        MOV dbl(*SP(#4)), XAR3
        MOV dbl(*AR3), XAR0
$C$DW$412	.dwtag  DW_TAG_TI_branch
	.dwattr $C$DW$412, DW_AT_low_pc(0x00)
	.dwattr $C$DW$412, DW_AT_name("_USB_getMaxPower")
	.dwattr $C$DW$412, DW_AT_TI_call
        CALL #_USB_getMaxPower ; |1468| 
                                        ; call occurs [#_USB_getMaxPower] ; |1468| 
        MOV dbl(*SP(#6)), XAR3
        AND #0x00ff, T0, AR1 ; |1468| 
        OR #0x0900, AR1, AR1 ; |1468| 
        MOV AR1, *AR3(#46) ; |1468| 
	.dwpsn	file "src/csl_msc.c",line 1473,column 3,is_stmt
        MOV dbl(*SP(#6)), XAR3
        MOV #4, *AR3(#47) ; |1473| 
	.dwpsn	file "src/csl_msc.c",line 1475,column 3,is_stmt
        MOV dbl(*SP(#6)), XAR3
        MOV #512, *AR3(#48) ; |1475| 
	.dwpsn	file "src/csl_msc.c",line 1477,column 3,is_stmt
        MOV dbl(*SP(#6)), XAR3
        MOV #1544, *AR3(#49) ; |1477| 
	.dwpsn	file "src/csl_msc.c",line 1479,column 3,is_stmt
        MOV dbl(*SP(#6)), XAR3
        MOV #1360, *AR3(#50) ; |1479| 
	.dwpsn	file "src/csl_msc.c",line 1484,column 3,is_stmt
        MOV dbl(*SP(#6)), XAR3
        MOV #1287, *AR3(#51) ; |1484| 
	.dwpsn	file "src/csl_msc.c",line 1486,column 3,is_stmt
        MOV dbl(*SP(#6)), XAR3
        MOV #514, *AR3(#52) ; |1486| 
	.dwpsn	file "src/csl_msc.c",line 1488,column 3,is_stmt
        MOV dbl(*SP(#6)), XAR3
        MOV #64, *AR3(#53) ; |1488| 
	.dwpsn	file "src/csl_msc.c",line 1490,column 3,is_stmt
        MOV dbl(*SP(#6)), XAR3
        MOV #1792, *AR3(#54) ; |1490| 
	.dwpsn	file "src/csl_msc.c",line 1494,column 3,is_stmt
        MOV dbl(*SP(#6)), XAR3
        MOV #33029, *AR3(#55) ; |1494| 
	.dwpsn	file "src/csl_msc.c",line 1496,column 3,is_stmt
        MOV dbl(*SP(#6)), XAR3
        MOV #16386, *AR3(#56) ; |1496| 
	.dwpsn	file "src/csl_msc.c",line 1498,column 3,is_stmt
        MOV dbl(*SP(#6)), XAR3
        MOV #0, *AR3(#57) ; |1498| 
	.dwpsn	file "src/csl_msc.c",line 1503,column 3,is_stmt
        MOV dbl(*SP(#6)), XAR3
        MOV #7, *AR3(#116) ; |1503| 
	.dwpsn	file "src/csl_msc.c",line 1505,column 3,is_stmt
        MOV dbl(*SP(#6)), XAR3
        MOV dbl(*SP(#6)), XAR2
        AADD #98, AR3 ; |1505| 
        MOV XAR3, dbl(*AR2(#118))
	.dwpsn	file "src/csl_msc.c",line 1508,column 3,is_stmt
        MOV dbl(*SP(#6)), XAR3
        MOV #0, AC0 ; |1508| 
        MOV AC0, dbl(*AR3(#120))
	.dwpsn	file "src/csl_msc.c",line 1512,column 3,is_stmt
        MOV dbl(*SP(#6)), XAR3
        MOV #7, *AR3(#104) ; |1512| 
	.dwpsn	file "src/csl_msc.c",line 1514,column 3,is_stmt
        MOV dbl(*SP(#6)), XAR3
        MOV dbl(*SP(#6)), XAR2
        AADD #86, AR3 ; |1514| 
        MOV XAR3, dbl(*AR2(#106))
	.dwpsn	file "src/csl_msc.c",line 1517,column 3,is_stmt
        MOV dbl(*SP(#6)), XAR3
        MOV dbl(*SP(#6)), XAR2
        AADD #116, AR3 ; |1517| 
        MOV XAR3, dbl(*AR2(#108))
	.dwpsn	file "src/csl_msc.c",line 1522,column 3,is_stmt
        MOV dbl(*SP(#6)), XAR3
        MOV #9, *AR3(#92) ; |1522| 
	.dwpsn	file "src/csl_msc.c",line 1525,column 3,is_stmt
        MOV dbl(*SP(#6)), XAR3
        MOV dbl(*SP(#6)), XAR2
        AADD #80, AR3 ; |1525| 
        MOV XAR3, dbl(*AR2(#94))
	.dwpsn	file "src/csl_msc.c",line 1528,column 3,is_stmt
        MOV dbl(*SP(#6)), XAR3
        MOV dbl(*SP(#6)), XAR2
        AADD #104, AR3 ; |1528| 
        MOV XAR3, dbl(*AR2(#96))
	.dwpsn	file "src/csl_msc.c",line 1534,column 3,is_stmt
        MOV dbl(*SP(#6)), XAR3
        MOV #9, *AR3(#128) ; |1534| 
	.dwpsn	file "src/csl_msc.c",line 1536,column 3,is_stmt
        MOV dbl(*SP(#6)), XAR3
        MOV dbl(*SP(#6)), XAR2
        AADD #74, AR3 ; |1536| 
        MOV XAR3, dbl(*AR2(#130))
	.dwpsn	file "src/csl_msc.c",line 1539,column 3,is_stmt
        MOV dbl(*SP(#6)), XAR3
        MOV dbl(*SP(#6)), XAR2
        AADD #92, AR3 ; |1539| 
        MOV XAR3, dbl(*AR2(#132))
	.dwpsn	file "src/csl_msc.c",line 1545,column 3,is_stmt
        MOV dbl(*SP(#6)), XAR3
        MOV #0, *AR3(#110) ; |1545| 
	.dwpsn	file "src/csl_msc.c",line 1547,column 3,is_stmt
        MOV dbl(*SP(#6)), XAR3
        MOV #772, *AR3(#111) ; |1547| 
	.dwpsn	file "src/csl_msc.c",line 1551,column 3,is_stmt
        MOV dbl(*SP(#6)), XAR3
        MOV #1033, *AR3(#112) ; |1551| 
	.dwpsn	file "src/csl_msc.c",line 1552,column 3,is_stmt
        MOV dbl(*SP(#6)), XAR3
        MOV #0, *AR3(#113) ; |1552| 
	.dwpsn	file "src/csl_msc.c",line 1561,column 3,is_stmt
        MOV dbl(*SP(#6)), XAR3
        CMP *AR3(#140) == #1, TC1 ; |1561| 
        BCC $C$L120,!TC1 ; |1561| 
                                        ; branchcc occurs ; |1561| 
	.dwpsn	file "src/csl_msc.c",line 1564,column 4,is_stmt
        MOV dbl(*SP(#6)), XAR2
        AADD #24, AR3 ; |1564| 
        MOV XAR3, dbl(*AR2(#142))
	.dwpsn	file "src/csl_msc.c",line 1565,column 4,is_stmt
        MOV dbl(*SP(#6)), XAR3
        MOV dbl(*SP(#6)), XAR2
        AADD #41, AR3 ; |1565| 
        MOV XAR3, dbl(*AR2(#144))
	.dwpsn	file "src/csl_msc.c",line 1566,column 3,is_stmt
        B $C$L121 ; |1566| 
                                        ; branch occurs ; |1566| 
$C$L120:    
	.dwpsn	file "src/csl_msc.c",line 1570,column 4,is_stmt
        MOV dbl(*SP(#6)), XAR2
        AADD #41, AR3 ; |1570| 
        MOV XAR3, dbl(*AR2(#142))
	.dwpsn	file "src/csl_msc.c",line 1571,column 4,is_stmt
        MOV dbl(*SP(#6)), XAR3
        MOV dbl(*SP(#6)), XAR2
        AADD #24, AR3 ; |1571| 
        MOV XAR3, dbl(*AR2(#144))
$C$L121:    
	.dwpsn	file "src/csl_msc.c",line 1575,column 3,is_stmt
        MOV dbl(*SP(#6)), XAR3
        MOV dbl(*AR3(#144)), XAR3
        MOV #1801, *AR3(short(#1)) ; |1575| 
	.dwpsn	file "src/csl_msc.c",line 1578,column 2,is_stmt
        B $C$L123 ; |1578| 
                                        ; branch occurs ; |1578| 
$C$L122:    
	.dwpsn	file "src/csl_msc.c",line 1581,column 3,is_stmt
        MOV #-5, *SP(#2) ; |1581| 
$C$L123:    
	.dwpsn	file "src/csl_msc.c",line 1584,column 2,is_stmt
        MOV *SP(#2), T0 ; |1584| 
	.dwpsn	file "src/csl_msc.c",line 1585,column 1,is_stmt
        AADD #9, SP
	.dwcfi	cfa_offset, 1
$C$DW$413	.dwtag  DW_TAG_TI_branch
	.dwattr $C$DW$413, DW_AT_low_pc(0x00)
	.dwattr $C$DW$413, DW_AT_TI_return
        RET
                                        ; return occurs
	.dwattr $C$DW$404, DW_AT_TI_end_file("src/csl_msc.c")
	.dwattr $C$DW$404, DW_AT_TI_end_line(0x631)
	.dwattr $C$DW$404, DW_AT_TI_end_column(0x01)
	.dwendentry
	.dwendtag $C$DW$404

	.sect	".text"

$C$DW$414	.dwtag  DW_TAG_subprogram, DW_AT_name("MSC_initMscVal")
	.dwattr $C$DW$414, DW_AT_low_pc(_MSC_initMscVal)
	.dwattr $C$DW$414, DW_AT_high_pc(0x00)
	.dwattr $C$DW$414, DW_AT_TI_symbol_name("_MSC_initMscVal")
	.dwattr $C$DW$414, DW_AT_type(*$C$DW$T$86)
	.dwattr $C$DW$414, DW_AT_TI_begin_file("src/csl_msc.c")
	.dwattr $C$DW$414, DW_AT_TI_begin_line(0x655)
	.dwattr $C$DW$414, DW_AT_TI_begin_column(0x13)
	.dwattr $C$DW$414, DW_AT_TI_max_frame_size(0x06)
	.dwpsn	file "src/csl_msc.c",line 1622,column 1,is_stmt,address _MSC_initMscVal

	.dwfde $C$DW$CIE, _MSC_initMscVal
$C$DW$415	.dwtag  DW_TAG_formal_parameter, DW_AT_name("pMscHandle")
	.dwattr $C$DW$415, DW_AT_TI_symbol_name("_pMscHandle")
	.dwattr $C$DW$415, DW_AT_type(*$C$DW$T$140)
	.dwattr $C$DW$415, DW_AT_location[DW_OP_reg17]
;*******************************************************************************
;* FUNCTION NAME: MSC_initMscVal                                               *
;*                                                                             *
;*   Function Uses Regs : AC0,AC0,T0,AR0,XAR0,AR1,AR2,AR3,XAR3,SP,CARRY,TC1,   *
;*                        M40,SATA,SATD,RDM,FRCT,SMUL                          *
;*   Stack Frame        : Compact (No Frame Pointer, w/ debug)                 *
;*   Total Frame Size   : 6 words                                              *
;*                        (2 return address/alignment)                         *
;*                        (4 local values)                                     *
;*   Min System Stack   : 1 word                                               *
;*******************************************************************************
_MSC_initMscVal:
	.dwcfi	cfa_offset, 1
	.dwcfi	save_reg_to_mem, 91, -1
        AADD #-5, SP
	.dwcfi	cfa_offset, 6
$C$DW$416	.dwtag  DW_TAG_variable, DW_AT_name("pMscHandle")
	.dwattr $C$DW$416, DW_AT_TI_symbol_name("_pMscHandle")
	.dwattr $C$DW$416, DW_AT_type(*$C$DW$T$140)
	.dwattr $C$DW$416, DW_AT_location[DW_OP_bregx 0x24 0]
$C$DW$417	.dwtag  DW_TAG_variable, DW_AT_name("copyCnt")
	.dwattr $C$DW$417, DW_AT_TI_symbol_name("_copyCnt")
	.dwattr $C$DW$417, DW_AT_type(*$C$DW$T$30)
	.dwattr $C$DW$417, DW_AT_location[DW_OP_bregx 0x24 2]
$C$DW$418	.dwtag  DW_TAG_variable, DW_AT_name("status")
	.dwattr $C$DW$418, DW_AT_TI_symbol_name("_status")
	.dwattr $C$DW$418, DW_AT_type(*$C$DW$T$86)
	.dwattr $C$DW$418, DW_AT_location[DW_OP_bregx 0x24 3]
        MOV XAR0, dbl(*SP(#0))
	.dwpsn	file "src/csl_msc.c",line 1626,column 2,is_stmt
        MOV #0, *SP(#3) ; |1626| 
	.dwpsn	file "src/csl_msc.c",line 1628,column 2,is_stmt
        MOV dbl(*SP(#0)), XAR3
        MOV XAR3, AC0
        BCC $C$L128,AC0 == #0 ; |1628| 
                                        ; branchcc occurs ; |1628| 
	.dwpsn	file "src/csl_msc.c",line 1630,column 3,is_stmt
        MOV #0, *AR3(#319) ; |1630| 
	.dwpsn	file "src/csl_msc.c",line 1631,column 3,is_stmt
        MOV dbl(*SP(#0)), XAR3
        MOV #0, *AR3(#281) ; |1631| 
	.dwpsn	file "src/csl_msc.c",line 1635,column 3,is_stmt
        MOV dbl(*SP(#0)), XAR3
        MOV #26, *AR3(#266) ; |1635| 
	.dwpsn	file "src/csl_msc.c",line 1637,column 3,is_stmt
        MOV dbl(*SP(#0)), XAR3
        MOV #0, *AR3(#267) ; |1637| 
	.dwpsn	file "src/csl_msc.c",line 1639,column 3,is_stmt
        MOV dbl(*SP(#0)), XAR3
        MOV #112, *AR3(#268) ; |1639| 
	.dwpsn	file "src/csl_msc.c",line 1641,column 3,is_stmt
        MOV dbl(*SP(#0)), XAR3
        MOV #0, *AR3(#269) ; |1641| 
	.dwpsn	file "src/csl_msc.c",line 1643,column 3,is_stmt
        MOV dbl(*SP(#0)), XAR3
        MOV #0, *AR3(#270) ; |1643| 
	.dwpsn	file "src/csl_msc.c",line 1645,column 3,is_stmt
        MOV dbl(*SP(#0)), XAR3
        MOV #2816, *AR3(#271) ; |1645| 
	.dwpsn	file "src/csl_msc.c",line 1647,column 3,is_stmt
        MOV dbl(*SP(#0)), XAR3
        MOV #8, *AR3(#290) ; |1647| 
	.dwpsn	file "src/csl_msc.c",line 1649,column 7,is_stmt
        MOV #6, *SP(#2) ; |1649| 
	.dwpsn	file "src/csl_msc.c",line 1649,column 20,is_stmt

        MOV *SP(#2), AR1 ; |1649| 
||      MOV #15, AR2

        CMPU AR1 >= AR2, TC1 ; |1649| 
        BCC $C$L125,TC1 ; |1649| 
                                        ; branchcc occurs ; |1649| 
$C$L124:    
$C$DW$L$_MSC_initMscVal$3$B:
	.dwpsn	file "src/csl_msc.c",line 1651,column 4,is_stmt
        MOV *SP(#2), AR1 ; |1651| 
        MOV dbl(*SP(#0)), XAR3
        AADD AR1, AR3 ; |1651| 
        MOV #0, *AR3(#266) ; |1651| 
	.dwpsn	file "src/csl_msc.c",line 1649,column 34,is_stmt
        ADD #1, *SP(#2) ; |1649| 
	.dwpsn	file "src/csl_msc.c",line 1649,column 20,is_stmt
        MOV *SP(#2), AR1 ; |1649| 
        CMPU AR1 < AR2, TC1 ; |1649| 
        BCC $C$L124,TC1 ; |1649| 
                                        ; branchcc occurs ; |1649| 
$C$DW$L$_MSC_initMscVal$3$E:
$C$L125:    
	.dwpsn	file "src/csl_msc.c",line 1656,column 3,is_stmt
        MOV dbl(*SP(#0)), XAR3
        MOV #0, *AR3(#282) ; |1656| 
	.dwpsn	file "src/csl_msc.c",line 1657,column 3,is_stmt
        MOV dbl(*SP(#0)), XAR3
        MOV #21333, *AR3(#283) ; |1657| 
	.dwpsn	file "src/csl_msc.c",line 1658,column 3,is_stmt
        MOV dbl(*SP(#0)), XAR3
        MOV #21314, *AR3(#284) ; |1658| 
	.dwpsn	file "src/csl_msc.c",line 1659,column 8,is_stmt
        MOV #3, *SP(#2) ; |1659| 
	.dwpsn	file "src/csl_msc.c",line 1659,column 21,is_stmt

        MOV *SP(#2), AR1 ; |1659| 
||      MOV #8, AR2

        CMPU AR1 >= AR2, TC1 ; |1659| 
        BCC $C$L127,TC1 ; |1659| 
                                        ; branchcc occurs ; |1659| 
$C$L126:    
$C$DW$L$_MSC_initMscVal$5$B:
	.dwpsn	file "src/csl_msc.c",line 1661,column 4,is_stmt
        MOV *SP(#2), AR1 ; |1661| 
        MOV dbl(*SP(#0)), XAR3
        AADD AR1, AR3 ; |1661| 
        MOV #0, *AR3(#282) ; |1661| 
	.dwpsn	file "src/csl_msc.c",line 1659,column 34,is_stmt
        ADD #1, *SP(#2) ; |1659| 
	.dwpsn	file "src/csl_msc.c",line 1659,column 21,is_stmt
        MOV *SP(#2), AR1 ; |1659| 
        CMPU AR1 < AR2, TC1 ; |1659| 
        BCC $C$L126,TC1 ; |1659| 
                                        ; branchcc occurs ; |1659| 
$C$DW$L$_MSC_initMscVal$5$E:
$C$L127:    
	.dwpsn	file "src/csl_msc.c",line 1664,column 3,is_stmt
        MOV dbl(*SP(#0)), XAR3
        MOV #8, *AR3(#320) ; |1664| 
	.dwpsn	file "src/csl_msc.c",line 1665,column 3,is_stmt
        MOV dbl(*SP(#0)), XAR3
        MOV #0, *AR3(#321) ; |1665| 
	.dwpsn	file "src/csl_msc.c",line 1666,column 3,is_stmt
        MOV dbl(*SP(#0)), XAR3
        MOV #3, *AR3(#322) ; |1666| 
	.dwpsn	file "src/csl_msc.c",line 1667,column 3,is_stmt
        MOV dbl(*SP(#0)), XAR3
        MOV #0, *AR3(#323) ; |1667| 
	.dwpsn	file "src/csl_msc.c",line 1668,column 3,is_stmt
        MOV dbl(*SP(#0)), XAR3
        MOV #0, *AR3(#324) ; |1668| 
	.dwpsn	file "src/csl_msc.c",line 1669,column 2,is_stmt
        B $C$L129 ; |1669| 
                                        ; branch occurs ; |1669| 
$C$L128:    
	.dwpsn	file "src/csl_msc.c",line 1672,column 3,is_stmt
        MOV #-5, *SP(#3) ; |1672| 
$C$L129:    
	.dwpsn	file "src/csl_msc.c",line 1675,column 2,is_stmt
        MOV *SP(#3), T0 ; |1675| 
	.dwpsn	file "src/csl_msc.c",line 1676,column 1,is_stmt
        AADD #5, SP
	.dwcfi	cfa_offset, 1
$C$DW$419	.dwtag  DW_TAG_TI_branch
	.dwattr $C$DW$419, DW_AT_low_pc(0x00)
	.dwattr $C$DW$419, DW_AT_TI_return
        RET
                                        ; return occurs

$C$DW$420	.dwtag  DW_TAG_TI_loop
	.dwattr $C$DW$420, DW_AT_name("/home/santiago/dspfuzz/on_board/library/csl_msc.asm:$C$L126:1:1714639447")
	.dwattr $C$DW$420, DW_AT_TI_begin_file("src/csl_msc.c")
	.dwattr $C$DW$420, DW_AT_TI_begin_line(0x67b)
	.dwattr $C$DW$420, DW_AT_TI_end_line(0x67e)
$C$DW$421	.dwtag  DW_TAG_TI_loop_range
	.dwattr $C$DW$421, DW_AT_low_pc($C$DW$L$_MSC_initMscVal$5$B)
	.dwattr $C$DW$421, DW_AT_high_pc($C$DW$L$_MSC_initMscVal$5$E)
	.dwendtag $C$DW$420


$C$DW$422	.dwtag  DW_TAG_TI_loop
	.dwattr $C$DW$422, DW_AT_name("/home/santiago/dspfuzz/on_board/library/csl_msc.asm:$C$L124:1:1714639447")
	.dwattr $C$DW$422, DW_AT_TI_begin_file("src/csl_msc.c")
	.dwattr $C$DW$422, DW_AT_TI_begin_line(0x671)
	.dwattr $C$DW$422, DW_AT_TI_end_line(0x674)
$C$DW$423	.dwtag  DW_TAG_TI_loop_range
	.dwattr $C$DW$423, DW_AT_low_pc($C$DW$L$_MSC_initMscVal$3$B)
	.dwattr $C$DW$423, DW_AT_high_pc($C$DW$L$_MSC_initMscVal$3$E)
	.dwendtag $C$DW$422

	.dwattr $C$DW$414, DW_AT_TI_end_file("src/csl_msc.c")
	.dwattr $C$DW$414, DW_AT_TI_end_line(0x68c)
	.dwattr $C$DW$414, DW_AT_TI_end_column(0x01)
	.dwendentry
	.dwendtag $C$DW$414

	.sect	".text"
	.global	_MSC_HandleStateWaitForCBW

$C$DW$424	.dwtag  DW_TAG_subprogram, DW_AT_name("MSC_HandleStateWaitForCBW")
	.dwattr $C$DW$424, DW_AT_low_pc(_MSC_HandleStateWaitForCBW)
	.dwattr $C$DW$424, DW_AT_high_pc(0x00)
	.dwattr $C$DW$424, DW_AT_TI_symbol_name("_MSC_HandleStateWaitForCBW")
	.dwattr $C$DW$424, DW_AT_external
	.dwattr $C$DW$424, DW_AT_type(*$C$DW$T$86)
	.dwattr $C$DW$424, DW_AT_TI_begin_file("src/csl_msc.c")
	.dwattr $C$DW$424, DW_AT_TI_begin_line(0x6be)
	.dwattr $C$DW$424, DW_AT_TI_begin_column(0x0c)
	.dwattr $C$DW$424, DW_AT_TI_max_frame_size(0x0c)
	.dwpsn	file "src/csl_msc.c",line 1730,column 1,is_stmt,address _MSC_HandleStateWaitForCBW

	.dwfde $C$DW$CIE, _MSC_HandleStateWaitForCBW
$C$DW$425	.dwtag  DW_TAG_formal_parameter, DW_AT_name("hUsbDev")
	.dwattr $C$DW$425, DW_AT_TI_symbol_name("_hUsbDev")
	.dwattr $C$DW$425, DW_AT_type(*$C$DW$T$21)
	.dwattr $C$DW$425, DW_AT_location[DW_OP_reg17]
$C$DW$426	.dwtag  DW_TAG_formal_parameter, DW_AT_name("pMscHandle")
	.dwattr $C$DW$426, DW_AT_TI_symbol_name("_pMscHandle")
	.dwattr $C$DW$426, DW_AT_type(*$C$DW$T$140)
	.dwattr $C$DW$426, DW_AT_location[DW_OP_reg19]
$C$DW$427	.dwtag  DW_TAG_formal_parameter, DW_AT_name("hUsbOutEp")
	.dwattr $C$DW$427, DW_AT_TI_symbol_name("_hUsbOutEp")
	.dwattr $C$DW$427, DW_AT_type(*$C$DW$T$27)
	.dwattr $C$DW$427, DW_AT_location[DW_OP_reg21]
$C$DW$428	.dwtag  DW_TAG_formal_parameter, DW_AT_name("hUsbInEp")
	.dwattr $C$DW$428, DW_AT_TI_symbol_name("_hUsbInEp")
	.dwattr $C$DW$428, DW_AT_type(*$C$DW$T$27)
	.dwattr $C$DW$428, DW_AT_location[DW_OP_reg23]
;*******************************************************************************
;* FUNCTION NAME: MSC_HandleStateWaitForCBW                                    *
;*                                                                             *
;*   Function Uses Regs : AC0,AC0,T0,T1,AR0,XAR0,AR1,XAR1,AR2,XAR2,AR3,XAR3,SP,*
;*                        CARRY,TC1,M40,SATA,SATD,RDM,FRCT,SMUL                *
;*   Stack Frame        : Compact (No Frame Pointer, w/ debug)                 *
;*   Total Frame Size   : 12 words                                             *
;*                        (1 return address/alignment)                         *
;*                        (11 local values)                                    *
;*   Min System Stack   : 1 word                                               *
;*******************************************************************************
_MSC_HandleStateWaitForCBW:
	.dwcfi	cfa_offset, 1
	.dwcfi	save_reg_to_mem, 91, -1
        AADD #-11, SP
	.dwcfi	cfa_offset, 12
$C$DW$429	.dwtag  DW_TAG_variable, DW_AT_name("hUsbDev")
	.dwattr $C$DW$429, DW_AT_TI_symbol_name("_hUsbDev")
	.dwattr $C$DW$429, DW_AT_type(*$C$DW$T$21)
	.dwattr $C$DW$429, DW_AT_location[DW_OP_bregx 0x24 0]
$C$DW$430	.dwtag  DW_TAG_variable, DW_AT_name("pMscHandle")
	.dwattr $C$DW$430, DW_AT_TI_symbol_name("_pMscHandle")
	.dwattr $C$DW$430, DW_AT_type(*$C$DW$T$140)
	.dwattr $C$DW$430, DW_AT_location[DW_OP_bregx 0x24 2]
$C$DW$431	.dwtag  DW_TAG_variable, DW_AT_name("hUsbOutEp")
	.dwattr $C$DW$431, DW_AT_TI_symbol_name("_hUsbOutEp")
	.dwattr $C$DW$431, DW_AT_type(*$C$DW$T$27)
	.dwattr $C$DW$431, DW_AT_location[DW_OP_bregx 0x24 4]
$C$DW$432	.dwtag  DW_TAG_variable, DW_AT_name("hUsbInEp")
	.dwattr $C$DW$432, DW_AT_TI_symbol_name("_hUsbInEp")
	.dwattr $C$DW$432, DW_AT_type(*$C$DW$T$27)
	.dwattr $C$DW$432, DW_AT_location[DW_OP_bregx 0x24 6]
$C$DW$433	.dwtag  DW_TAG_variable, DW_AT_name("status")
	.dwattr $C$DW$433, DW_AT_TI_symbol_name("_status")
	.dwattr $C$DW$433, DW_AT_type(*$C$DW$T$86)
	.dwattr $C$DW$433, DW_AT_location[DW_OP_bregx 0x24 8]
$C$DW$434	.dwtag  DW_TAG_variable, DW_AT_name("logicalUnit")
	.dwattr $C$DW$434, DW_AT_TI_symbol_name("_logicalUnit")
	.dwattr $C$DW$434, DW_AT_type(*$C$DW$T$30)
