;*******************************************************************************
;* TMS320C55x C/C++ Codegen                                        Unix v4.4.1 *
;* Date/Time created: Thu May  2 04:44:16 2024                                 *
;*******************************************************************************
	.compiler_opts --hll_source=on --mem_model:code=flat --mem_model:data=large --object_format=coff --silicon_core_3_3 --symdebug:dwarf 
	.mmregs
	.cpl_on
	.arms_on
	.c54cm_off
	.asg AR6, FP
	.asg XAR6, XFP
	.asg DPH, MDP
	.model call=c55_std
	.model mem=large
	.noremark 5002  ; code respects overwrite rules
;*******************************************************************************
;* GLOBAL FILE PARAMETERS                                                      *
;*                                                                             *
;*   Architecture       : TMS320C55x                                           *
;*   Optimizing for     : Speed                                                *
;*   Memory             : Large Model (23-Bit Data Pointers)                   *
;*   Calls              : Normal Library ASM calls                             *
;*   Debug Info         : Standard TI Debug Information                        *
;*******************************************************************************

$C$DW$CU	.dwtag  DW_TAG_compile_unit
	.dwattr $C$DW$CU, DW_AT_name("src/csl_usb.c")
	.dwattr $C$DW$CU, DW_AT_producer("TMS320C55x C/C++ Codegen Unix v4.4.1 Copyright (c) 1996-2012 Texas Instruments Incorporated")
	.dwattr $C$DW$CU, DW_AT_TI_version(0x01)
	.dwattr $C$DW$CU, DW_AT_comp_dir("/home/santiago/dspfuzz/on_board/library")
	.global	_usbRegisters
	.bss	_usbRegisters,1,0,0
$C$DW$1	.dwtag  DW_TAG_variable, DW_AT_name("usbRegisters")
	.dwattr $C$DW$1, DW_AT_TI_symbol_name("_usbRegisters")
	.dwattr $C$DW$1, DW_AT_location[DW_OP_addr _usbRegisters]
	.dwattr $C$DW$1, DW_AT_type(*$C$DW$T$133)
	.dwattr $C$DW$1, DW_AT_external
	.global	_sysCtrlRegs
	.bss	_sysCtrlRegs,1,0,0
$C$DW$2	.dwtag  DW_TAG_variable, DW_AT_name("sysCtrlRegs")
	.dwattr $C$DW$2, DW_AT_TI_symbol_name("_sysCtrlRegs")
	.dwattr $C$DW$2, DW_AT_location[DW_OP_addr _sysCtrlRegs]
	.dwattr $C$DW$2, DW_AT_type(*$C$DW$T$137)
	.dwattr $C$DW$2, DW_AT_external
	.global	_gUsbContext
	.bss	_gUsbContext,218,0,2
$C$DW$3	.dwtag  DW_TAG_variable, DW_AT_name("gUsbContext")
	.dwattr $C$DW$3, DW_AT_TI_symbol_name("_gUsbContext")
	.dwattr $C$DW$3, DW_AT_location[DW_OP_addr _gUsbContext]
	.dwattr $C$DW$3, DW_AT_type(*$C$DW$T$124)
	.dwattr $C$DW$3, DW_AT_external
	.global	_gUsbTransfer
	.bss	_gUsbTransfer,168,0,2
$C$DW$4	.dwtag  DW_TAG_variable, DW_AT_name("gUsbTransfer")
	.dwattr $C$DW$4, DW_AT_TI_symbol_name("_gUsbTransfer")
	.dwattr $C$DW$4, DW_AT_location[DW_OP_addr _gUsbTransfer]
	.dwattr $C$DW$4, DW_AT_type(*$C$DW$T$154)
	.dwattr $C$DW$4, DW_AT_external
	.global	_gEpStatus
	.bss	_gEpStatus,180,0,2
$C$DW$5	.dwtag  DW_TAG_variable, DW_AT_name("gEpStatus")
	.dwattr $C$DW$5, DW_AT_TI_symbol_name("_gEpStatus")
	.dwattr $C$DW$5, DW_AT_location[DW_OP_addr _gEpStatus]
	.dwattr $C$DW$5, DW_AT_type(*$C$DW$T$151)
	.dwattr $C$DW$5, DW_AT_external
	.global	_gEpObj
	.bss	_gEpObj,544,0,2
$C$DW$6	.dwtag  DW_TAG_variable, DW_AT_name("gEpObj")
	.dwattr $C$DW$6, DW_AT_TI_symbol_name("_gEpObj")
	.dwattr $C$DW$6, DW_AT_location[DW_OP_addr _gEpObj]
	.dwattr $C$DW$6, DW_AT_type(*$C$DW$T$149)
	.dwattr $C$DW$6, DW_AT_external
	.global	_gUsbEpHandle
	.bss	_gUsbEpHandle,24,0,2
$C$DW$7	.dwtag  DW_TAG_variable, DW_AT_name("gUsbEpHandle")
	.dwattr $C$DW$7, DW_AT_TI_symbol_name("_gUsbEpHandle")
	.dwattr $C$DW$7, DW_AT_location[DW_OP_addr _gUsbEpHandle]
	.dwattr $C$DW$7, DW_AT_type(*$C$DW$T$148)
	.dwattr $C$DW$7, DW_AT_external
	.global	_curConfigureNum
	.bss	_curConfigureNum,1,0,0
$C$DW$8	.dwtag  DW_TAG_variable, DW_AT_name("curConfigureNum")
	.dwattr $C$DW$8, DW_AT_TI_symbol_name("_curConfigureNum")
	.dwattr $C$DW$8, DW_AT_location[DW_OP_addr _curConfigureNum]
	.dwattr $C$DW$8, DW_AT_type(*$C$DW$T$19)
	.dwattr $C$DW$8, DW_AT_external
	.global	_curInterfaceNum
	.bss	_curInterfaceNum,1,0,0
$C$DW$9	.dwtag  DW_TAG_variable, DW_AT_name("curInterfaceNum")
	.dwattr $C$DW$9, DW_AT_TI_symbol_name("_curInterfaceNum")
	.dwattr $C$DW$9, DW_AT_location[DW_OP_addr _curInterfaceNum]
	.dwattr $C$DW$9, DW_AT_type(*$C$DW$T$19)
	.dwattr $C$DW$9, DW_AT_external
;	/home/santiago/ti/55x_Tools/bin/acp55 -@/tmp/17618OXGsnk 
	.sect	".text"

$C$DW$10	.dwtag  DW_TAG_subprogram, DW_AT_name("USB_handleRxIntr")
	.dwattr $C$DW$10, DW_AT_low_pc(_USB_handleRxIntr)
	.dwattr $C$DW$10, DW_AT_high_pc(0x00)
	.dwattr $C$DW$10, DW_AT_TI_symbol_name("_USB_handleRxIntr")
	.dwattr $C$DW$10, DW_AT_TI_begin_file("./inc/csl_usbAux.h")
	.dwattr $C$DW$10, DW_AT_TI_begin_line(0x692)
	.dwattr $C$DW$10, DW_AT_TI_begin_column(0x06)
	.dwattr $C$DW$10, DW_AT_TI_max_frame_size(0x08)
	.dwpsn	file "./inc/csl_usbAux.h",line 1683,column 1,is_stmt,address _USB_handleRxIntr

	.dwfde $C$DW$CIE, _USB_handleRxIntr
$C$DW$11	.dwtag  DW_TAG_formal_parameter, DW_AT_name("hUsbDev")
	.dwattr $C$DW$11, DW_AT_TI_symbol_name("_hUsbDev")
	.dwattr $C$DW$11, DW_AT_type(*$C$DW$T$126)
	.dwattr $C$DW$11, DW_AT_location[DW_OP_reg17]
;*******************************************************************************
;* FUNCTION NAME: USB_handleRxIntr                                             *
;*                                                                             *
;*   Function Uses Regs : T0,AR0,XAR0,AR1,AR2,AR3,XAR3,SP,TC1,M40,SATA,SATD,   *
;*                        RDM,FRCT,SMUL                                        *
;*   Stack Frame        : Compact (No Frame Pointer, w/ debug)                 *
;*   Total Frame Size   : 8 words                                              *
;*                        (2 return address/alignment)                         *
;*                        (6 local values)                                     *
;*   Min System Stack   : 1 word                                               *
;*******************************************************************************
_USB_handleRxIntr:
	.dwcfi	cfa_offset, 1
	.dwcfi	save_reg_to_mem, 91, -1
        AADD #-7, SP
	.dwcfi	cfa_offset, 8
$C$DW$12	.dwtag  DW_TAG_variable, DW_AT_name("hUsbDev")
	.dwattr $C$DW$12, DW_AT_TI_symbol_name("_hUsbDev")
	.dwattr $C$DW$12, DW_AT_type(*$C$DW$T$126)
	.dwattr $C$DW$12, DW_AT_location[DW_OP_bregx 0x24 0]
$C$DW$13	.dwtag  DW_TAG_variable, DW_AT_name("saveIndex")
	.dwattr $C$DW$13, DW_AT_TI_symbol_name("_saveIndex")
	.dwattr $C$DW$13, DW_AT_type(*$C$DW$T$19)
	.dwattr $C$DW$13, DW_AT_location[DW_OP_bregx 0x24 2]
$C$DW$14	.dwtag  DW_TAG_variable, DW_AT_name("peps")
	.dwattr $C$DW$14, DW_AT_TI_symbol_name("_peps")
	.dwattr $C$DW$14, DW_AT_type(*$C$DW$T$150)
	.dwattr $C$DW$14, DW_AT_location[DW_OP_bregx 0x24 4]
        MOV XAR0, dbl(*SP(#0))
	.dwpsn	file "./inc/csl_usbAux.h",line 1687,column 2,is_stmt
        MOV dbl(*SP(#0)), XAR3
        MOV dbl(*AR3(#90)), XAR3

        MOV XAR3, dbl(*SP(#4))
||      AADD #36, AR3 ; |1687| 

	.dwpsn	file "./inc/csl_usbAux.h",line 1688,column 2,is_stmt
        MOV #0, *SP(#2) ; |1688| 
	.dwpsn	file "./inc/csl_usbAux.h",line 1691,column 2,is_stmt
        MOV #1038, T0 ; |1691| 
        MOV *(#_usbRegisters), AR3 ; |1691| 
        MOV port(*AR3(T0)), AR1 ; |1691| 
        MOV AR1, *SP(#2) ; |1691| 
	.dwpsn	file "./inc/csl_usbAux.h",line 1693,column 5,is_stmt
        AND #0xfff0, port(*AR3(T0)) ; |1693| 
	.dwpsn	file "./inc/csl_usbAux.h",line 1694,column 5,is_stmt
        MOV *(#_usbRegisters), AR3 ; |1694| 
        OR #0x0002, port(*AR3(T0)) ; |1694| 
	.dwpsn	file "./inc/csl_usbAux.h",line 1697,column 5,is_stmt
        MOV #1042, T0 ; |1697| 
        MOV *(#_usbRegisters), AR3 ; |1697| 
        MOV port(*AR3(T0)), AR1 ; |1697| 

        AND #0x0010, AR1, AR1 ; |1697| 
||      MOV #16, AR2 ; |1697| 

        CMPU AR1 != AR2, TC1 ; |1697| 
        BCC $C$L1,TC1 ; |1697| 
                                        ; branchcc occurs ; |1697| 
	.dwpsn	file "./inc/csl_usbAux.h",line 1700,column 3,is_stmt
        MOV port(*AR3(T0)), AR1 ; |1700| 
        BCLR @#4, AR1 ; |1700| 
        MOV AR1, port(*AR3(T0)) ; |1700| 
$C$L1:    
	.dwpsn	file "./inc/csl_usbAux.h",line 1704,column 5,is_stmt
        MOV #1046, T0 ; |1704| 
        MOV *(#_usbRegisters), AR3 ; |1704| 
        MOV port(*AR3(T0)), AR1 ; |1704| 

        AND #0x0001, AR1, AR1 ; |1704| 
||      MOV #1, AR2

        CMPU AR1 != AR2, TC1 ; |1704| 
        BCC $C$L3,TC1 ; |1704| 
                                        ; branchcc occurs ; |1704| 
	.dwpsn	file "./inc/csl_usbAux.h",line 1707,column 3,is_stmt
        MOV dbl(*SP(#4)), XAR3
        CMP *AR3(short(#2)) == #3, TC1 ; |1707| 
        BCC $C$L2,!TC1 ; |1707| 
                                        ; branchcc occurs ; |1707| 
	.dwpsn	file "./inc/csl_usbAux.h",line 1709,column 4,is_stmt
        MOV dbl(*SP(#0)), XAR3
        MOV #1, *AR3(short(#4)) ; |1709| 
	.dwpsn	file "./inc/csl_usbAux.h",line 1710,column 3,is_stmt
        B $C$L3   ; |1710| 
                                        ; branch occurs ; |1710| 
$C$L2:    
	.dwpsn	file "./inc/csl_usbAux.h",line 1713,column 4,is_stmt
        MOV dbl(*SP(#0)), XAR3
        MOV #1, *AR3(short(#7)) ; |1713| 
$C$L3:    
	.dwpsn	file "./inc/csl_usbAux.h",line 1718,column 2,is_stmt
        MOV *(#_usbRegisters), AR3 ; |1718| 
        MOV #1038, T0 ; |1718| 
        MOV *SP(#2), AR1 ; |1718| 
        MOV AR1, port(*AR3(T0)) ; |1718| 
	.dwpsn	file "./inc/csl_usbAux.h",line 1719,column 1,is_stmt
        AADD #7, SP
	.dwcfi	cfa_offset, 1
$C$DW$15	.dwtag  DW_TAG_TI_branch
	.dwattr $C$DW$15, DW_AT_low_pc(0x00)
	.dwattr $C$DW$15, DW_AT_TI_return
        RET
                                        ; return occurs
	.dwattr $C$DW$10, DW_AT_TI_end_file("./inc/csl_usbAux.h")
	.dwattr $C$DW$10, DW_AT_TI_end_line(0x6b7)
	.dwattr $C$DW$10, DW_AT_TI_end_column(0x01)
	.dwendentry
	.dwendtag $C$DW$10

	.sect	".text"

$C$DW$16	.dwtag  DW_TAG_subprogram, DW_AT_name("USB_handleTxIntr")
	.dwattr $C$DW$16, DW_AT_low_pc(_USB_handleTxIntr)
	.dwattr $C$DW$16, DW_AT_high_pc(0x00)
	.dwattr $C$DW$16, DW_AT_TI_symbol_name("_USB_handleTxIntr")
	.dwattr $C$DW$16, DW_AT_TI_begin_file("./inc/csl_usbAux.h")
	.dwattr $C$DW$16, DW_AT_TI_begin_line(0x6e4)
	.dwattr $C$DW$16, DW_AT_TI_begin_column(0x06)
	.dwattr $C$DW$16, DW_AT_TI_max_frame_size(0x04)
	.dwpsn	file "./inc/csl_usbAux.h",line 1765,column 1,is_stmt,address _USB_handleTxIntr

	.dwfde $C$DW$CIE, _USB_handleTxIntr
$C$DW$17	.dwtag  DW_TAG_formal_parameter, DW_AT_name("hUsbDev")
	.dwattr $C$DW$17, DW_AT_TI_symbol_name("_hUsbDev")
	.dwattr $C$DW$17, DW_AT_type(*$C$DW$T$126)
	.dwattr $C$DW$17, DW_AT_location[DW_OP_reg17]
;*******************************************************************************
;* FUNCTION NAME: USB_handleTxIntr                                             *
;*                                                                             *
;*   Function Uses Regs : T0,AR0,XAR0,AR1,AR2,AR3,SP,TC1,M40,SATA,SATD,RDM,    *
;*                        FRCT,SMUL                                            *
;*   Stack Frame        : Compact (No Frame Pointer, w/ debug)                 *
;*   Total Frame Size   : 4 words                                              *
;*                        (1 return address/alignment)                         *
;*                        (3 local values)                                     *
;*   Min System Stack   : 1 word                                               *
;*******************************************************************************
_USB_handleTxIntr:
	.dwcfi	cfa_offset, 1
	.dwcfi	save_reg_to_mem, 91, -1
        AADD #-3, SP
	.dwcfi	cfa_offset, 4
$C$DW$18	.dwtag  DW_TAG_variable, DW_AT_name("hUsbDev")
	.dwattr $C$DW$18, DW_AT_TI_symbol_name("_hUsbDev")
	.dwattr $C$DW$18, DW_AT_type(*$C$DW$T$126)
	.dwattr $C$DW$18, DW_AT_location[DW_OP_bregx 0x24 0]
$C$DW$19	.dwtag  DW_TAG_variable, DW_AT_name("saveIndex")
	.dwattr $C$DW$19, DW_AT_TI_symbol_name("_saveIndex")
	.dwattr $C$DW$19, DW_AT_type(*$C$DW$T$19)
	.dwattr $C$DW$19, DW_AT_location[DW_OP_bregx 0x24 2]
        MOV XAR0, dbl(*SP(#0))
	.dwpsn	file "./inc/csl_usbAux.h",line 1768,column 2,is_stmt
        MOV #0, *SP(#2) ; |1768| 
	.dwpsn	file "./inc/csl_usbAux.h",line 1771,column 2,is_stmt
        MOV #1038, T0 ; |1771| 
        MOV *(#_usbRegisters), AR3 ; |1771| 
        MOV port(*AR3(T0)), AR1 ; |1771| 
        MOV AR1, *SP(#2) ; |1771| 
	.dwpsn	file "./inc/csl_usbAux.h",line 1773,column 5,is_stmt
        AND #0xfff0, port(*AR3(T0)) ; |1773| 
	.dwpsn	file "./inc/csl_usbAux.h",line 1775,column 5,is_stmt
        MOV *(#_usbRegisters), AR3 ; |1775| 
        OR #0x0002, port(*AR3(T0)) ; |1775| 
	.dwpsn	file "./inc/csl_usbAux.h",line 1778,column 5,is_stmt
        MOV #1042, T0 ; |1778| 
        MOV *(#_usbRegisters), AR3 ; |1778| 
        MOV port(*AR3(T0)), AR1 ; |1778| 

        AND #0x0010, AR1, AR1 ; |1778| 
||      MOV #16, AR2 ; |1778| 

        CMPU AR1 != AR2, TC1 ; |1778| 
        BCC $C$L4,TC1 ; |1778| 
                                        ; branchcc occurs ; |1778| 
	.dwpsn	file "./inc/csl_usbAux.h",line 1781,column 3,is_stmt
        MOV port(*AR3(T0)), AR1 ; |1781| 
        BCLR @#4, AR1 ; |1781| 
        MOV AR1, port(*AR3(T0)) ; |1781| 
$C$L4:    
	.dwpsn	file "./inc/csl_usbAux.h",line 1785,column 2,is_stmt
        MOV *(#_usbRegisters), AR3 ; |1785| 
        MOV #1038, T0 ; |1785| 
        MOV *SP(#2), AR1 ; |1785| 
        MOV AR1, port(*AR3(T0)) ; |1785| 
	.dwpsn	file "./inc/csl_usbAux.h",line 1786,column 1,is_stmt
        AADD #3, SP
	.dwcfi	cfa_offset, 1
$C$DW$20	.dwtag  DW_TAG_TI_branch
	.dwattr $C$DW$20, DW_AT_low_pc(0x00)
	.dwattr $C$DW$20, DW_AT_TI_return
        RET
                                        ; return occurs
	.dwattr $C$DW$16, DW_AT_TI_end_file("./inc/csl_usbAux.h")
	.dwattr $C$DW$16, DW_AT_TI_end_line(0x6fa)
	.dwattr $C$DW$16, DW_AT_TI_end_column(0x01)
	.dwendentry
	.dwendtag $C$DW$16

	.sect	".text"

$C$DW$21	.dwtag  DW_TAG_subprogram, DW_AT_name("USB_checkSpeed")
	.dwattr $C$DW$21, DW_AT_low_pc(_USB_checkSpeed)
	.dwattr $C$DW$21, DW_AT_high_pc(0x00)
	.dwattr $C$DW$21, DW_AT_TI_symbol_name("_USB_checkSpeed")
	.dwattr $C$DW$21, DW_AT_type(*$C$DW$T$74)
	.dwattr $C$DW$21, DW_AT_TI_begin_file("./inc/csl_usbAux.h")
	.dwattr $C$DW$21, DW_AT_TI_begin_line(0x72a)
	.dwattr $C$DW$21, DW_AT_TI_begin_column(0x06)
	.dwattr $C$DW$21, DW_AT_TI_max_frame_size(0x06)
	.dwpsn	file "./inc/csl_usbAux.h",line 1836,column 1,is_stmt,address _USB_checkSpeed

	.dwfde $C$DW$CIE, _USB_checkSpeed
$C$DW$22	.dwtag  DW_TAG_formal_parameter, DW_AT_name("hUsbDev")
	.dwattr $C$DW$22, DW_AT_TI_symbol_name("_hUsbDev")
	.dwattr $C$DW$22, DW_AT_type(*$C$DW$T$126)
	.dwattr $C$DW$22, DW_AT_location[DW_OP_reg17]
$C$DW$23	.dwtag  DW_TAG_formal_parameter, DW_AT_name("pBusSpeed")
	.dwattr $C$DW$23, DW_AT_TI_symbol_name("_pBusSpeed")
	.dwattr $C$DW$23, DW_AT_type(*$C$DW$T$129)
	.dwattr $C$DW$23, DW_AT_location[DW_OP_reg19]
;*******************************************************************************
;* FUNCTION NAME: USB_checkSpeed                                               *
;*                                                                             *
;*   Function Uses Regs : AC0,AC0,T0,AR0,XAR0,AR1,XAR1,AR3,XAR3,SP,TC1,M40,    *
;*                        SATA,SATD,RDM,FRCT,SMUL                              *
;*   Stack Frame        : Compact (No Frame Pointer, w/ debug)                 *
;*   Total Frame Size   : 6 words                                              *
;*                        (1 return address/alignment)                         *
;*                        (5 local values)                                     *
;*   Min System Stack   : 1 word                                               *
;*******************************************************************************
_USB_checkSpeed:
	.dwcfi	cfa_offset, 1
	.dwcfi	save_reg_to_mem, 91, -1
        AADD #-5, SP
	.dwcfi	cfa_offset, 6
$C$DW$24	.dwtag  DW_TAG_variable, DW_AT_name("hUsbDev")
	.dwattr $C$DW$24, DW_AT_TI_symbol_name("_hUsbDev")
	.dwattr $C$DW$24, DW_AT_type(*$C$DW$T$126)
	.dwattr $C$DW$24, DW_AT_location[DW_OP_bregx 0x24 0]
$C$DW$25	.dwtag  DW_TAG_variable, DW_AT_name("pBusSpeed")
	.dwattr $C$DW$25, DW_AT_TI_symbol_name("_pBusSpeed")
	.dwattr $C$DW$25, DW_AT_type(*$C$DW$T$129)
	.dwattr $C$DW$25, DW_AT_location[DW_OP_bregx 0x24 2]
$C$DW$26	.dwtag  DW_TAG_variable, DW_AT_name("wPower")
	.dwattr $C$DW$26, DW_AT_TI_symbol_name("_wPower")
	.dwattr $C$DW$26, DW_AT_type(*$C$DW$T$19)
	.dwattr $C$DW$26, DW_AT_location[DW_OP_bregx 0x24 4]
        MOV XAR1, dbl(*SP(#2))
        MOV XAR0, dbl(*SP(#0))
	.dwpsn	file "./inc/csl_usbAux.h",line 1839,column 2,is_stmt
        MOV #1025, T0 ; |1839| 
        MOV *(#_usbRegisters), AR3 ; |1839| 
        MOV port(*AR3(T0)), AR1 ; |1839| 
        MOV AR1, *SP(#4) ; |1839| 
	.dwpsn	file "./inc/csl_usbAux.h",line 1841,column 2,is_stmt
        BCC $C$L5,AR1 == #0 ; |1841| 
                                        ; branchcc occurs ; |1841| 
        MOV dbl(*SP(#2)), XAR3
        MOV XAR3, AC0
        BCC $C$L6,AC0 != #0 ; |1841| 
                                        ; branchcc occurs ; |1841| 
$C$L5:    
	.dwpsn	file "./inc/csl_usbAux.h",line 1843,column 3,is_stmt
        MOV #0, T0
        B $C$L9   ; |1843| 
                                        ; branch occurs ; |1843| 
$C$L6:    
	.dwpsn	file "./inc/csl_usbAux.h",line 1850,column 5,is_stmt
        MOV *(#_usbRegisters), AR3 ; |1850| 
        BTST #12, port(*AR3(T0)), TC1 ; |1850| 
        BCC $C$L7,!TC1 ; |1850| 
                                        ; branchcc occurs ; |1850| 
	.dwpsn	file "./inc/csl_usbAux.h",line 1852,column 9,is_stmt
        MOV dbl(*SP(#2)), XAR3
        MOV #4, *AR3 ; |1852| 
	.dwpsn	file "./inc/csl_usbAux.h",line 1853,column 2,is_stmt
        B $C$L8   ; |1853| 
                                        ; branch occurs ; |1853| 
$C$L7:    
	.dwpsn	file "./inc/csl_usbAux.h",line 1856,column 9,is_stmt
        MOV dbl(*SP(#2)), XAR3
        MOV #2, *AR3 ; |1856| 
$C$L8:    
	.dwpsn	file "./inc/csl_usbAux.h",line 1859,column 5,is_stmt
        MOV #1, T0
$C$L9:    
	.dwpsn	file "./inc/csl_usbAux.h",line 1860,column 1,is_stmt
        AADD #5, SP
	.dwcfi	cfa_offset, 1
$C$DW$27	.dwtag  DW_TAG_TI_branch
	.dwattr $C$DW$27, DW_AT_low_pc(0x00)
	.dwattr $C$DW$27, DW_AT_TI_return
        RET
                                        ; return occurs
	.dwattr $C$DW$21, DW_AT_TI_end_file("./inc/csl_usbAux.h")
	.dwattr $C$DW$21, DW_AT_TI_end_line(0x744)
	.dwattr $C$DW$21, DW_AT_TI_end_column(0x01)
	.dwendentry
	.dwendtag $C$DW$21

	.sect	".text"

$C$DW$28	.dwtag  DW_TAG_subprogram, DW_AT_name("USB_setConfiguration")
	.dwattr $C$DW$28, DW_AT_low_pc(_USB_setConfiguration)
	.dwattr $C$DW$28, DW_AT_high_pc(0x00)
	.dwattr $C$DW$28, DW_AT_TI_symbol_name("_USB_setConfiguration")
	.dwattr $C$DW$28, DW_AT_TI_begin_file("./inc/csl_usbAux.h")
	.dwattr $C$DW$28, DW_AT_TI_begin_line(0x7f2)
	.dwattr $C$DW$28, DW_AT_TI_begin_column(0x06)
	.dwattr $C$DW$28, DW_AT_TI_max_frame_size(0x06)
	.dwpsn	file "./inc/csl_usbAux.h",line 2036,column 1,is_stmt,address _USB_setConfiguration

	.dwfde $C$DW$CIE, _USB_setConfiguration
$C$DW$29	.dwtag  DW_TAG_formal_parameter, DW_AT_name("hUsbDev")
	.dwattr $C$DW$29, DW_AT_TI_symbol_name("_hUsbDev")
	.dwattr $C$DW$29, DW_AT_type(*$C$DW$T$126)
	.dwattr $C$DW$29, DW_AT_location[DW_OP_reg17]
$C$DW$30	.dwtag  DW_TAG_formal_parameter, DW_AT_name("confVal")
	.dwattr $C$DW$30, DW_AT_TI_symbol_name("_confVal")
	.dwattr $C$DW$30, DW_AT_type(*$C$DW$T$19)
	.dwattr $C$DW$30, DW_AT_location[DW_OP_reg12]
;*******************************************************************************
;* FUNCTION NAME: USB_setConfiguration                                         *
;*                                                                             *
;*   Function Uses Regs : T0,AR0,XAR0,AR1,AR2,AR3,XAR3,SP,TC1,M40,SATA,SATD,   *
;*                        RDM,FRCT,SMUL                                        *
;*   Stack Frame        : Compact (No Frame Pointer, w/ debug)                 *
;*   Total Frame Size   : 6 words                                              *
;*                        (1 return address/alignment)                         *
;*                        (5 local values)                                     *
;*   Min System Stack   : 1 word                                               *
;*******************************************************************************
_USB_setConfiguration:
	.dwcfi	cfa_offset, 1
	.dwcfi	save_reg_to_mem, 91, -1
        AADD #-5, SP
	.dwcfi	cfa_offset, 6
$C$DW$31	.dwtag  DW_TAG_variable, DW_AT_name("hUsbDev")
	.dwattr $C$DW$31, DW_AT_TI_symbol_name("_hUsbDev")
	.dwattr $C$DW$31, DW_AT_type(*$C$DW$T$126)
	.dwattr $C$DW$31, DW_AT_location[DW_OP_bregx 0x24 0]
$C$DW$32	.dwtag  DW_TAG_variable, DW_AT_name("confVal")
	.dwattr $C$DW$32, DW_AT_TI_symbol_name("_confVal")
	.dwattr $C$DW$32, DW_AT_type(*$C$DW$T$19)
	.dwattr $C$DW$32, DW_AT_location[DW_OP_bregx 0x24 2]
$C$DW$33	.dwtag  DW_TAG_variable, DW_AT_name("saveIndex")
	.dwattr $C$DW$33, DW_AT_TI_symbol_name("_saveIndex")
	.dwattr $C$DW$33, DW_AT_type(*$C$DW$T$19)
	.dwattr $C$DW$33, DW_AT_location[DW_OP_bregx 0x24 3]
$C$DW$34	.dwtag  DW_TAG_variable, DW_AT_name("tempVal")
	.dwattr $C$DW$34, DW_AT_TI_symbol_name("_tempVal")
	.dwattr $C$DW$34, DW_AT_type(*$C$DW$T$19)
	.dwattr $C$DW$34, DW_AT_location[DW_OP_bregx 0x24 4]
        MOV T0, *SP(#2) ; |2036| 
        MOV XAR0, dbl(*SP(#0))
	.dwpsn	file "./inc/csl_usbAux.h",line 2040,column 2,is_stmt
        MOV #0, *SP(#3) ; |2040| 
	.dwpsn	file "./inc/csl_usbAux.h",line 2042,column 2,is_stmt
        MOV dbl(*SP(#0)), XAR3
        MOV *AR3, AR1 ; |2042| 
        BCC $C$L14,AR1 != #0 ; |2042| 
                                        ; branchcc occurs ; |2042| 
	.dwpsn	file "./inc/csl_usbAux.h",line 2045,column 3,is_stmt
        MOV #1038, T0 ; |2045| 
        MOV *(#_usbRegisters), AR3 ; |2045| 
        MOV port(*AR3(T0)), AR1 ; |2045| 
        MOV AR1, *SP(#3) ; |2045| 
	.dwpsn	file "./inc/csl_usbAux.h",line 2049,column 3,is_stmt
        AND #0xfff0, port(*AR3(T0)) ; |2049| 
	.dwpsn	file "./inc/csl_usbAux.h",line 2050,column 3,is_stmt
        MOV *(#_usbRegisters), AR3 ; |2050| 
        OR #0x0001, port(*AR3(T0)) ; |2050| 
	.dwpsn	file "./inc/csl_usbAux.h",line 2053,column 3,is_stmt
        MOV #1042, T0 ; |2053| 
        MOV *(#_usbRegisters), AR3 ; |2053| 
        OR #0x0040, port(*AR3(T0)) ; |2053| 
	.dwpsn	file "./inc/csl_usbAux.h",line 2055,column 3,is_stmt
        MOV #1046, T0 ; |2055| 
        MOV *(#_usbRegisters), AR3 ; |2055| 
        OR #0x0080, port(*AR3(T0)) ; |2055| 
	.dwpsn	file "./inc/csl_usbAux.h",line 2058,column 3,is_stmt
        MOV #1042, T0 ; |2058| 
        MOV *(#_usbRegisters), AR3 ; |2058| 
        MOV port(*AR3(T0)), AR1 ; |2058| 

        AND #0x0002, AR1, AR1 ; |2058| 
||      MOV #2, AR2

        CMPU AR1 != AR2, TC1 ; |2058| 
        BCC $C$L10,TC1 ; |2058| 
                                        ; branchcc occurs ; |2058| 
	.dwpsn	file "./inc/csl_usbAux.h",line 2063,column 4,is_stmt
        MOV port(*AR3(T0)), AR1 ; |2063| 
        MOV AR1, *SP(#4) ; |2063| 
	.dwpsn	file "./inc/csl_usbAux.h",line 2065,column 4,is_stmt
        OR #0x0008, *SP(#4) ; |2065| 
	.dwpsn	file "./inc/csl_usbAux.h",line 2066,column 4,is_stmt
        AND #0xfffc, *SP(#4) ; |2066| 
	.dwpsn	file "./inc/csl_usbAux.h",line 2068,column 4,is_stmt
        MOV *SP(#4), AR1 ; |2068| 
        MOV AR1, port(*AR3(T0)) ; |2068| 
$C$L10:    
	.dwpsn	file "./inc/csl_usbAux.h",line 2073,column 3,is_stmt
        MOV #1038, T0 ; |2073| 
        MOV *(#_usbRegisters), AR3 ; |2073| 
        AND #0xfff0, port(*AR3(T0)) ; |2073| 
	.dwpsn	file "./inc/csl_usbAux.h",line 2074,column 3,is_stmt
        MOV *(#_usbRegisters), AR3 ; |2074| 
        OR #0x0002, port(*AR3(T0)) ; |2074| 
	.dwpsn	file "./inc/csl_usbAux.h",line 2077,column 3,is_stmt
        MOV #1042, T0 ; |2077| 
        MOV *(#_usbRegisters), AR3 ; |2077| 
        OR #0x0040, port(*AR3(T0)) ; |2077| 
	.dwpsn	file "./inc/csl_usbAux.h",line 2079,column 3,is_stmt
        MOV #1046, T0 ; |2079| 
        MOV *(#_usbRegisters), AR3 ; |2079| 
        OR #0x0080, port(*AR3(T0)) ; |2079| 
	.dwpsn	file "./inc/csl_usbAux.h",line 2082,column 3,is_stmt
        MOV #1042, T0 ; |2082| 
        MOV *(#_usbRegisters), AR3 ; |2082| 
        MOV port(*AR3(T0)), AR1 ; |2082| 
        AND #0x0002, AR1, AR1 ; |2082| 
        CMPU AR1 != AR2, TC1 ; |2082| 
        BCC $C$L11,TC1 ; |2082| 
                                        ; branchcc occurs ; |2082| 
	.dwpsn	file "./inc/csl_usbAux.h",line 2087,column 4,is_stmt
        MOV port(*AR3(T0)), AR1 ; |2087| 
        MOV AR1, *SP(#4) ; |2087| 
	.dwpsn	file "./inc/csl_usbAux.h",line 2089,column 4,is_stmt
        OR #0x0008, *SP(#4) ; |2089| 
	.dwpsn	file "./inc/csl_usbAux.h",line 2090,column 4,is_stmt
        AND #0xfffc, *SP(#4) ; |2090| 
	.dwpsn	file "./inc/csl_usbAux.h",line 2092,column 4,is_stmt
        MOV *SP(#4), AR1 ; |2092| 
        MOV AR1, port(*AR3(T0)) ; |2092| 
$C$L11:    
	.dwpsn	file "./inc/csl_usbAux.h",line 2097,column 3,is_stmt
        MOV #1038, T0 ; |2097| 
        MOV *(#_usbRegisters), AR3 ; |2097| 
        AND #0xfff0, port(*AR3(T0)) ; |2097| 
	.dwpsn	file "./inc/csl_usbAux.h",line 2098,column 3,is_stmt
        MOV *(#_usbRegisters), AR3 ; |2098| 
        OR #0x0003, port(*AR3(T0)) ; |2098| 
	.dwpsn	file "./inc/csl_usbAux.h",line 2101,column 3,is_stmt
        MOV #1042, T0 ; |2101| 
        MOV *(#_usbRegisters), AR3 ; |2101| 
        OR #0x0040, port(*AR3(T0)) ; |2101| 
	.dwpsn	file "./inc/csl_usbAux.h",line 2103,column 3,is_stmt
        MOV #1046, T0 ; |2103| 
        MOV *(#_usbRegisters), AR3 ; |2103| 
        OR #0x0080, port(*AR3(T0)) ; |2103| 
	.dwpsn	file "./inc/csl_usbAux.h",line 2106,column 3,is_stmt
        MOV #1042, T0 ; |2106| 
        MOV *(#_usbRegisters), AR3 ; |2106| 
        MOV port(*AR3(T0)), AR1 ; |2106| 
        AND #0x0002, AR1, AR1 ; |2106| 
        CMPU AR1 != AR2, TC1 ; |2106| 
        BCC $C$L12,TC1 ; |2106| 
                                        ; branchcc occurs ; |2106| 
	.dwpsn	file "./inc/csl_usbAux.h",line 2111,column 4,is_stmt
        MOV port(*AR3(T0)), AR1 ; |2111| 
        MOV AR1, *SP(#4) ; |2111| 
	.dwpsn	file "./inc/csl_usbAux.h",line 2113,column 4,is_stmt
        OR #0x0008, *SP(#4) ; |2113| 
	.dwpsn	file "./inc/csl_usbAux.h",line 2114,column 4,is_stmt
        AND #0xfffc, *SP(#4) ; |2114| 
	.dwpsn	file "./inc/csl_usbAux.h",line 2116,column 4,is_stmt
        MOV *SP(#4), AR1 ; |2116| 
        MOV AR1, port(*AR3(T0)) ; |2116| 
$C$L12:    
	.dwpsn	file "./inc/csl_usbAux.h",line 2121,column 3,is_stmt
        MOV #1038, T0 ; |2121| 
        MOV *(#_usbRegisters), AR3 ; |2121| 
        AND #0xfff0, port(*AR3(T0)) ; |2121| 
	.dwpsn	file "./inc/csl_usbAux.h",line 2122,column 3,is_stmt
        MOV *(#_usbRegisters), AR3 ; |2122| 
        OR #0x0004, port(*AR3(T0)) ; |2122| 
	.dwpsn	file "./inc/csl_usbAux.h",line 2125,column 3,is_stmt
        MOV #1042, T0 ; |2125| 
        MOV *(#_usbRegisters), AR3 ; |2125| 
        OR #0x0040, port(*AR3(T0)) ; |2125| 
	.dwpsn	file "./inc/csl_usbAux.h",line 2127,column 3,is_stmt
        MOV #1046, T0 ; |2127| 
        MOV *(#_usbRegisters), AR3 ; |2127| 
        OR #0x0080, port(*AR3(T0)) ; |2127| 
	.dwpsn	file "./inc/csl_usbAux.h",line 2130,column 3,is_stmt
        MOV #1042, T0 ; |2130| 
        MOV *(#_usbRegisters), AR3 ; |2130| 
        MOV port(*AR3(T0)), AR1 ; |2130| 
        AND #0x0002, AR1, AR1 ; |2130| 
        CMPU AR1 != AR2, TC1 ; |2130| 
        BCC $C$L13,TC1 ; |2130| 
                                        ; branchcc occurs ; |2130| 
	.dwpsn	file "./inc/csl_usbAux.h",line 2135,column 4,is_stmt
        MOV port(*AR3(T0)), AR1 ; |2135| 
        MOV AR1, *SP(#4) ; |2135| 
	.dwpsn	file "./inc/csl_usbAux.h",line 2137,column 4,is_stmt
        OR #0x0008, *SP(#4) ; |2137| 
	.dwpsn	file "./inc/csl_usbAux.h",line 2138,column 4,is_stmt
        AND #0xfffc, *SP(#4) ; |2138| 
	.dwpsn	file "./inc/csl_usbAux.h",line 2140,column 4,is_stmt
        MOV *SP(#4), AR1 ; |2140| 
        MOV AR1, port(*AR3(T0)) ; |2140| 
$C$L13:    
	.dwpsn	file "./inc/csl_usbAux.h",line 2144,column 3,is_stmt
        MOV *(#_usbRegisters), AR3 ; |2144| 
        MOV #1038, T0 ; |2144| 
        MOV *SP(#3), AR1 ; |2144| 
        MOV AR1, port(*AR3(T0)) ; |2144| 
	.dwpsn	file "./inc/csl_usbAux.h",line 2146,column 1,is_stmt
$C$L14:    
        AADD #5, SP
	.dwcfi	cfa_offset, 1
$C$DW$35	.dwtag  DW_TAG_TI_branch
	.dwattr $C$DW$35, DW_AT_low_pc(0x00)
	.dwattr $C$DW$35, DW_AT_TI_return
        RET
                                        ; return occurs
	.dwattr $C$DW$28, DW_AT_TI_end_file("./inc/csl_usbAux.h")
	.dwattr $C$DW$28, DW_AT_TI_end_line(0x862)
	.dwattr $C$DW$28, DW_AT_TI_end_column(0x01)
	.dwendentry
	.dwendtag $C$DW$28

	.sect	".text"

$C$DW$36	.dwtag  DW_TAG_subprogram, DW_AT_name("USB_flushFifo")
	.dwattr $C$DW$36, DW_AT_low_pc(_USB_flushFifo)
	.dwattr $C$DW$36, DW_AT_high_pc(0x00)
	.dwattr $C$DW$36, DW_AT_TI_symbol_name("_USB_flushFifo")
	.dwattr $C$DW$36, DW_AT_TI_begin_file("./inc/csl_usbAux.h")
	.dwattr $C$DW$36, DW_AT_TI_begin_line(0x8e8)
	.dwattr $C$DW$36, DW_AT_TI_begin_column(0x06)
	.dwattr $C$DW$36, DW_AT_TI_max_frame_size(0x06)
	.dwpsn	file "./inc/csl_usbAux.h",line 2282,column 1,is_stmt,address _USB_flushFifo

	.dwfde $C$DW$CIE, _USB_flushFifo
$C$DW$37	.dwtag  DW_TAG_formal_parameter, DW_AT_name("dwEndpoint")
	.dwattr $C$DW$37, DW_AT_TI_symbol_name("_dwEndpoint")
	.dwattr $C$DW$37, DW_AT_type(*$C$DW$T$85)
	.dwattr $C$DW$37, DW_AT_location[DW_OP_reg0]
$C$DW$38	.dwtag  DW_TAG_formal_parameter, DW_AT_name("fifoDirFlag")
	.dwattr $C$DW$38, DW_AT_TI_symbol_name("_fifoDirFlag")
	.dwattr $C$DW$38, DW_AT_type(*$C$DW$T$74)
	.dwattr $C$DW$38, DW_AT_location[DW_OP_reg12]
;*******************************************************************************
;* FUNCTION NAME: USB_flushFifo                                                *
;*                                                                             *
;*   Function Uses Regs : AC0,AC0,T0,AR1,AR2,AR3,SP,TC1,M40,SATA,SATD,RDM,FRCT,*
;*                        SMUL                                                 *
;*   Stack Frame        : Compact (No Frame Pointer, w/ debug)                 *
;*   Total Frame Size   : 6 words                                              *
;*                        (1 return address/alignment)                         *
;*                        (5 local values)                                     *
;*   Min System Stack   : 1 word                                               *
;*******************************************************************************
_USB_flushFifo:
	.dwcfi	cfa_offset, 1
	.dwcfi	save_reg_to_mem, 91, -1
        AADD #-5, SP
	.dwcfi	cfa_offset, 6
$C$DW$39	.dwtag  DW_TAG_variable, DW_AT_name("dwEndpoint")
	.dwattr $C$DW$39, DW_AT_TI_symbol_name("_dwEndpoint")
	.dwattr $C$DW$39, DW_AT_type(*$C$DW$T$85)
	.dwattr $C$DW$39, DW_AT_location[DW_OP_bregx 0x24 0]
$C$DW$40	.dwtag  DW_TAG_variable, DW_AT_name("fifoDirFlag")
	.dwattr $C$DW$40, DW_AT_TI_symbol_name("_fifoDirFlag")
	.dwattr $C$DW$40, DW_AT_type(*$C$DW$T$74)
	.dwattr $C$DW$40, DW_AT_location[DW_OP_bregx 0x24 2]
$C$DW$41	.dwtag  DW_TAG_variable, DW_AT_name("saveIndex")
	.dwattr $C$DW$41, DW_AT_TI_symbol_name("_saveIndex")
	.dwattr $C$DW$41, DW_AT_type(*$C$DW$T$19)
	.dwattr $C$DW$41, DW_AT_location[DW_OP_bregx 0x24 3]
$C$DW$42	.dwtag  DW_TAG_variable, DW_AT_name("tempVal")
	.dwattr $C$DW$42, DW_AT_TI_symbol_name("_tempVal")
	.dwattr $C$DW$42, DW_AT_type(*$C$DW$T$19)
	.dwattr $C$DW$42, DW_AT_location[DW_OP_bregx 0x24 4]
        MOV T0, *SP(#2) ; |2282| 
        MOV AC0, dbl(*SP(#0)) ; |2282| 
	.dwpsn	file "./inc/csl_usbAux.h",line 2286,column 2,is_stmt
        MOV #0, *SP(#3) ; |2286| 
	.dwpsn	file "./inc/csl_usbAux.h",line 2289,column 2,is_stmt
        MOV *(#_usbRegisters), AR3 ; |2289| 
        MOV #1038, T0 ; |2289| 
        MOV port(*AR3(T0)), AR1 ; |2289| 
        MOV AR1, *SP(#3) ; |2289| 
	.dwpsn	file "./inc/csl_usbAux.h",line 2292,column 2,is_stmt
        AND #0xfff0, port(*AR3(T0)) ; |2292| 
	.dwpsn	file "./inc/csl_usbAux.h",line 2293,column 5,is_stmt
        MOV *(#_usbRegisters), AR3 ; |2293| 
        MOV dbl(*SP(#0)), AC0 ; |2293| 
        OR port(*AR3(T0)), AC0, AC0 ; |2293| 
        MOV AC0, port(*AR3(T0)) ; |2293| 
	.dwpsn	file "./inc/csl_usbAux.h",line 2295,column 2,is_stmt
        MOV dbl(*SP(#0)), AC0 ; |2295| 
        BCC $C$L15,AC0 != #0 ; |2295| 
                                        ; branchcc occurs ; |2295| 
	.dwpsn	file "./inc/csl_usbAux.h",line 2298,column 3,is_stmt
        MOV #1042, T0 ; |2298| 
        MOV *(#_usbRegisters), AR3 ; |2298| 
        OR #0x0100, port(*AR3(T0)) ; |2298| 
	.dwpsn	file "./inc/csl_usbAux.h",line 2299,column 2,is_stmt
        B $C$L17  ; |2299| 
                                        ; branch occurs ; |2299| 
$C$L15:    
	.dwpsn	file "./inc/csl_usbAux.h",line 2302,column 3,is_stmt

        MOV #1, AR2
||      MOV *SP(#2), AR1 ; |2302| 

        CMPU AR2 != AR1, TC1 ; |2302| 
        BCC $C$L16,TC1 ; |2302| 
                                        ; branchcc occurs ; |2302| 
	.dwpsn	file "./inc/csl_usbAux.h",line 2306,column 4,is_stmt
        MOV #1042, T0 ; |2306| 
        MOV *(#_usbRegisters), AR3 ; |2306| 
        MOV port(*AR3(T0)), AR1 ; |2306| 
        MOV AR1, *SP(#4) ; |2306| 
	.dwpsn	file "./inc/csl_usbAux.h",line 2308,column 4,is_stmt
        OR #0x0008, *SP(#4) ; |2308| 
	.dwpsn	file "./inc/csl_usbAux.h",line 2309,column 4,is_stmt
        AND #0xfffc, *SP(#4) ; |2309| 
	.dwpsn	file "./inc/csl_usbAux.h",line 2311,column 4,is_stmt
        MOV *SP(#4), AR1 ; |2311| 
        MOV AR1, port(*AR3(T0)) ; |2311| 
	.dwpsn	file "./inc/csl_usbAux.h",line 2312,column 3,is_stmt
        B $C$L17  ; |2312| 
                                        ; branch occurs ; |2312| 
$C$L16:    
	.dwpsn	file "./inc/csl_usbAux.h",line 2316,column 4,is_stmt
        MOV #1046, T0 ; |2316| 
        MOV *(#_usbRegisters), AR3 ; |2316| 
        OR #0x0010, port(*AR3(T0)) ; |2316| 
$C$L17:    
	.dwpsn	file "./inc/csl_usbAux.h",line 2321,column 2,is_stmt
        MOV *(#_usbRegisters), AR3 ; |2321| 
        MOV #1038, T0 ; |2321| 
        MOV *SP(#3), AR1 ; |2321| 
        MOV AR1, port(*AR3(T0)) ; |2321| 
	.dwpsn	file "./inc/csl_usbAux.h",line 2322,column 1,is_stmt
        AADD #5, SP
	.dwcfi	cfa_offset, 1
$C$DW$43	.dwtag  DW_TAG_TI_branch
	.dwattr $C$DW$43, DW_AT_low_pc(0x00)
	.dwattr $C$DW$43, DW_AT_TI_return
        RET
                                        ; return occurs
	.dwattr $C$DW$36, DW_AT_TI_end_file("./inc/csl_usbAux.h")
	.dwattr $C$DW$36, DW_AT_TI_end_line(0x912)
	.dwattr $C$DW$36, DW_AT_TI_end_column(0x01)
	.dwendentry
	.dwendtag $C$DW$36

	.sect	".text"

$C$DW$44	.dwtag  DW_TAG_subprogram, DW_AT_name("USB_sendEpZLP")
	.dwattr $C$DW$44, DW_AT_low_pc(_USB_sendEpZLP)
	.dwattr $C$DW$44, DW_AT_high_pc(0x00)
	.dwattr $C$DW$44, DW_AT_TI_symbol_name("_USB_sendEpZLP")
	.dwattr $C$DW$44, DW_AT_TI_begin_file("./inc/csl_usbAux.h")
	.dwattr $C$DW$44, DW_AT_TI_begin_line(0x941)
	.dwattr $C$DW$44, DW_AT_TI_begin_column(0x06)
	.dwattr $C$DW$44, DW_AT_TI_max_frame_size(0x04)
	.dwpsn	file "./inc/csl_usbAux.h",line 2370,column 1,is_stmt,address _USB_sendEpZLP

	.dwfde $C$DW$CIE, _USB_sendEpZLP
$C$DW$45	.dwtag  DW_TAG_formal_parameter, DW_AT_name("dwEndpoint")
	.dwattr $C$DW$45, DW_AT_TI_symbol_name("_dwEndpoint")
	.dwattr $C$DW$45, DW_AT_type(*$C$DW$T$85)
	.dwattr $C$DW$45, DW_AT_location[DW_OP_reg0]
;*******************************************************************************
;* FUNCTION NAME: USB_sendEpZLP                                                *
;*                                                                             *
;*   Function Uses Regs : AC0,AC0,T0,AR1,AR3,SP,M40,SATA,SATD,RDM,FRCT,SMUL    *
;*   Stack Frame        : Compact (No Frame Pointer, w/ debug)                 *
;*   Total Frame Size   : 4 words                                              *
;*                        (1 return address/alignment)                         *
;*                        (3 local values)                                     *
;*   Min System Stack   : 1 word                                               *
;*******************************************************************************
_USB_sendEpZLP:
	.dwcfi	cfa_offset, 1
	.dwcfi	save_reg_to_mem, 91, -1
        AADD #-3, SP
	.dwcfi	cfa_offset, 4
$C$DW$46	.dwtag  DW_TAG_variable, DW_AT_name("dwEndpoint")
	.dwattr $C$DW$46, DW_AT_TI_symbol_name("_dwEndpoint")
	.dwattr $C$DW$46, DW_AT_type(*$C$DW$T$85)
	.dwattr $C$DW$46, DW_AT_location[DW_OP_bregx 0x24 0]
$C$DW$47	.dwtag  DW_TAG_variable, DW_AT_name("saveIndex")
	.dwattr $C$DW$47, DW_AT_TI_symbol_name("_saveIndex")
	.dwattr $C$DW$47, DW_AT_type(*$C$DW$T$19)
	.dwattr $C$DW$47, DW_AT_location[DW_OP_bregx 0x24 2]
        MOV AC0, dbl(*SP(#0)) ; |2370| 
	.dwpsn	file "./inc/csl_usbAux.h",line 2374,column 2,is_stmt
        MOV #1038, T0 ; |2374| 
        MOV *(#_usbRegisters), AR3 ; |2374| 
        MOV port(*AR3(T0)), AR1 ; |2374| 
        MOV AR1, *SP(#2) ; |2374| 
	.dwpsn	file "./inc/csl_usbAux.h",line 2377,column 2,is_stmt
        AND #0xfff0, port(*AR3(T0)) ; |2377| 
	.dwpsn	file "./inc/csl_usbAux.h",line 2378,column 5,is_stmt
        MOV *(#_usbRegisters), AR3 ; |2378| 
        MOV dbl(*SP(#0)), AC0 ; |2378| 
        OR port(*AR3(T0)), AC0, AC0 ; |2378| 
        MOV AC0, port(*AR3(T0)) ; |2378| 
	.dwpsn	file "./inc/csl_usbAux.h",line 2381,column 2,is_stmt
        MOV #1042, T0 ; |2381| 
        MOV *(#_usbRegisters), AR3 ; |2381| 
        MOV port(*AR3(T0)), AR1 ; |2381| 
        BCLR @#1, AR1 ; |2381| 
        BSET @#1, AR1 ; |2381| 
        MOV AR1, port(*AR3(T0)) ; |2381| 
	.dwpsn	file "./inc/csl_usbAux.h",line 2383,column 2,is_stmt
        MOV *(#_usbRegisters), AR3 ; |2383| 
        MOV port(*AR3(T0)), AR1 ; |2383| 
        BCLR @#3, AR1 ; |2383| 
        BSET @#3, AR1 ; |2383| 
        MOV AR1, port(*AR3(T0)) ; |2383| 
	.dwpsn	file "./inc/csl_usbAux.h",line 2387,column 2,is_stmt
        MOV #1038, T0 ; |2387| 
        MOV *(#_usbRegisters), AR3 ; |2387| 
        MOV *SP(#2), AR1 ; |2387| 
        MOV AR1, port(*AR3(T0)) ; |2387| 
	.dwpsn	file "./inc/csl_usbAux.h",line 2388,column 1,is_stmt
        AADD #3, SP
	.dwcfi	cfa_offset, 1
$C$DW$48	.dwtag  DW_TAG_TI_branch
	.dwattr $C$DW$48, DW_AT_low_pc(0x00)
	.dwattr $C$DW$48, DW_AT_TI_return
        RET
                                        ; return occurs
	.dwattr $C$DW$44, DW_AT_TI_end_file("./inc/csl_usbAux.h")
	.dwattr $C$DW$44, DW_AT_TI_end_line(0x954)
	.dwattr $C$DW$44, DW_AT_TI_end_column(0x01)
	.dwendentry
	.dwendtag $C$DW$44

	.sect	".text"

$C$DW$49	.dwtag  DW_TAG_subprogram, DW_AT_name("USB_clearEpRxPktRdy")
	.dwattr $C$DW$49, DW_AT_low_pc(_USB_clearEpRxPktRdy)
	.dwattr $C$DW$49, DW_AT_high_pc(0x00)
	.dwattr $C$DW$49, DW_AT_TI_symbol_name("_USB_clearEpRxPktRdy")
	.dwattr $C$DW$49, DW_AT_TI_begin_file("./inc/csl_usbAux.h")
	.dwattr $C$DW$49, DW_AT_TI_begin_line(0x95e)
	.dwattr $C$DW$49, DW_AT_TI_begin_column(0x06)
	.dwattr $C$DW$49, DW_AT_TI_max_frame_size(0x04)
	.dwpsn	file "./inc/csl_usbAux.h",line 2399,column 1,is_stmt,address _USB_clearEpRxPktRdy

	.dwfde $C$DW$CIE, _USB_clearEpRxPktRdy
$C$DW$50	.dwtag  DW_TAG_formal_parameter, DW_AT_name("dwEndpoint")
	.dwattr $C$DW$50, DW_AT_TI_symbol_name("_dwEndpoint")
	.dwattr $C$DW$50, DW_AT_type(*$C$DW$T$85)
	.dwattr $C$DW$50, DW_AT_location[DW_OP_reg0]
;*******************************************************************************
;* FUNCTION NAME: USB_clearEpRxPktRdy                                          *
;*                                                                             *
;*   Function Uses Regs : AC0,AC0,T0,AR1,AR3,SP,M40,SATA,SATD,RDM,FRCT,SMUL    *
;*   Stack Frame        : Compact (No Frame Pointer, w/ debug)                 *
;*   Total Frame Size   : 4 words                                              *
;*                        (1 return address/alignment)                         *
;*                        (3 local values)                                     *
;*   Min System Stack   : 1 word                                               *
;*******************************************************************************
_USB_clearEpRxPktRdy:
	.dwcfi	cfa_offset, 1
	.dwcfi	save_reg_to_mem, 91, -1
        AADD #-3, SP
	.dwcfi	cfa_offset, 4
$C$DW$51	.dwtag  DW_TAG_variable, DW_AT_name("dwEndpoint")
	.dwattr $C$DW$51, DW_AT_TI_symbol_name("_dwEndpoint")
	.dwattr $C$DW$51, DW_AT_type(*$C$DW$T$85)
	.dwattr $C$DW$51, DW_AT_location[DW_OP_bregx 0x24 0]
$C$DW$52	.dwtag  DW_TAG_variable, DW_AT_name("saveIndex")
	.dwattr $C$DW$52, DW_AT_TI_symbol_name("_saveIndex")
	.dwattr $C$DW$52, DW_AT_type(*$C$DW$T$19)
	.dwattr $C$DW$52, DW_AT_location[DW_OP_bregx 0x24 2]
        MOV AC0, dbl(*SP(#0)) ; |2399| 
	.dwpsn	file "./inc/csl_usbAux.h",line 2403,column 2,is_stmt
        MOV #1038, T0 ; |2403| 
        MOV *(#_usbRegisters), AR3 ; |2403| 
        MOV port(*AR3(T0)), AR1 ; |2403| 
        MOV AR1, *SP(#2) ; |2403| 
	.dwpsn	file "./inc/csl_usbAux.h",line 2406,column 2,is_stmt
        AND #0xfff0, port(*AR3(T0)) ; |2406| 
	.dwpsn	file "./inc/csl_usbAux.h",line 2407,column 5,is_stmt
        MOV *(#_usbRegisters), AR3 ; |2407| 
        MOV dbl(*SP(#0)), AC0 ; |2407| 
        OR port(*AR3(T0)), AC0, AC0 ; |2407| 
        MOV AC0, port(*AR3(T0)) ; |2407| 
	.dwpsn	file "./inc/csl_usbAux.h",line 2410,column 2,is_stmt
        MOV #1042, T0 ; |2410| 
        MOV *(#_usbRegisters), AR3 ; |2410| 
        MOV port(*AR3(T0)), AR1 ; |2410| 
        BCLR @#6, AR1 ; |2410| 
        BSET @#6, AR1 ; |2410| 
        MOV AR1, port(*AR3(T0)) ; |2410| 
	.dwpsn	file "./inc/csl_usbAux.h",line 2412,column 2,is_stmt
        MOV *(#_usbRegisters), AR3 ; |2412| 
        MOV port(*AR3(T0)), AR1 ; |2412| 
        BCLR @#3, AR1 ; |2412| 
        BSET @#3, AR1 ; |2412| 
        MOV AR1, port(*AR3(T0)) ; |2412| 
	.dwpsn	file "./inc/csl_usbAux.h",line 2416,column 2,is_stmt
        MOV #1038, T0 ; |2416| 
        MOV *(#_usbRegisters), AR3 ; |2416| 
        MOV *SP(#2), AR1 ; |2416| 
        MOV AR1, port(*AR3(T0)) ; |2416| 
	.dwpsn	file "./inc/csl_usbAux.h",line 2417,column 1,is_stmt
        AADD #3, SP
	.dwcfi	cfa_offset, 1
$C$DW$53	.dwtag  DW_TAG_TI_branch
	.dwattr $C$DW$53, DW_AT_low_pc(0x00)
	.dwattr $C$DW$53, DW_AT_TI_return
        RET
                                        ; return occurs
	.dwattr $C$DW$49, DW_AT_TI_end_file("./inc/csl_usbAux.h")
	.dwattr $C$DW$49, DW_AT_TI_end_line(0x971)
	.dwattr $C$DW$49, DW_AT_TI_end_column(0x01)
	.dwendentry
	.dwendtag $C$DW$49

	.sect	".text"
	.global	_USB_init

$C$DW$54	.dwtag  DW_TAG_subprogram, DW_AT_name("USB_init")
	.dwattr $C$DW$54, DW_AT_low_pc(_USB_init)
	.dwattr $C$DW$54, DW_AT_high_pc(0x00)
	.dwattr $C$DW$54, DW_AT_TI_symbol_name("_USB_init")
	.dwattr $C$DW$54, DW_AT_external
	.dwattr $C$DW$54, DW_AT_TI_begin_file("src/csl_usb.c")
	.dwattr $C$DW$54, DW_AT_TI_begin_line(0x64)
	.dwattr $C$DW$54, DW_AT_TI_begin_column(0x06)
	.dwattr $C$DW$54, DW_AT_TI_max_frame_size(0x04)
	.dwpsn	file "src/csl_usb.c",line 101,column 1,is_stmt,address _USB_init

	.dwfde $C$DW$CIE, _USB_init
;*******************************************************************************
;* FUNCTION NAME: USB_init                                                     *
;*                                                                             *
;*   Function Uses Regs : AC0,AC0,AC1,AC1,T0,AR1,AR3,XAR3,SP,CARRY,TC1,M40,    *
;*                        SATA,SATD,RDM,FRCT,SMUL                              *
;*   Stack Frame        : Compact (No Frame Pointer, w/ debug)                 *
;*   Total Frame Size   : 4 words                                              *
;*                        (2 return address/alignment)                         *
;*                        (2 local values)                                     *
;*   Min System Stack   : 1 word                                               *
;*******************************************************************************
_USB_init:
	.dwcfi	cfa_offset, 1
	.dwcfi	save_reg_to_mem, 91, -1
        AADD #-3, SP
	.dwcfi	cfa_offset, 4
$C$DW$55	.dwtag  DW_TAG_variable, DW_AT_name("looper")
	.dwattr $C$DW$55, DW_AT_TI_symbol_name("_looper")
	.dwattr $C$DW$55, DW_AT_type(*$C$DW$T$201)
	.dwattr $C$DW$55, DW_AT_location[DW_OP_bregx 0x24 0]
	.dwpsn	file "src/csl_usb.c",line 104,column 2,is_stmt
        MOV #7168, *(#_sysCtrlRegs) ; |104| 
	.dwpsn	file "src/csl_usb.c",line 105,column 2,is_stmt
        MOV #32768, *(#_usbRegisters) ; |105| 
	.dwpsn	file "src/csl_usb.c",line 109,column 2,is_stmt
        MOV #1, *port(#28676) ; |109| 
	.dwpsn	file "src/csl_usb.c",line 112,column 2,is_stmt
        MOV #50, T0 ; |112| 
        MOV *(#_sysCtrlRegs), AR3 ; |112| 
        MOV port(*AR3(T0)), AR1 ; |112| 
        BCLR @#3, AR1 ; |112| 
        MOV AR1, port(*AR3(T0)) ; |112| 
	.dwpsn	file "src/csl_usb.c",line 113,column 2,is_stmt
        MOV *(#_sysCtrlRegs), AR3 ; |113| 
        MOV port(*AR3(T0)), AR1 ; |113| 
        BCLR @#2, AR1 ; |113| 
        MOV AR1, port(*AR3(T0)) ; |113| 
	.dwpsn	file "src/csl_usb.c",line 116,column 6,is_stmt
        MOV #0, AC0 ; |116| 
        MOV AC0, dbl(*SP(#0)) ; |116| 
        NOP
	.dwpsn	file "src/csl_usb.c",line 116,column 18,is_stmt
        AMOV #90000, XAR3 ; |116| 
        MOV XAR3, AC0
        MOV dbl(*SP(#0)), AC1 ; |116| 
        CMPU AC1 >= AC0, TC1 ; |116| 
        BCC $C$L19,TC1 ; |116| 
                                        ; branchcc occurs ; |116| 
$C$L18:    
$C$DW$L$_USB_init$2$B:
	.dwpsn	file "src/csl_usb.c",line 116,column 34,is_stmt
        MOV dbl(*SP(#0)), AC0 ; |116| 
        ADD #1, AC0 ; |116| 
        MOV AC0, dbl(*SP(#0)) ; |116| 
        NOP
        NOP
	.dwpsn	file "src/csl_usb.c",line 116,column 18,is_stmt
        MOV XAR3, AC0
        MOV dbl(*SP(#0)), AC1 ; |116| 
        CMPU AC1 < AC0, TC1 ; |116| 
        BCC $C$L18,TC1 ; |116| 
                                        ; branchcc occurs ; |116| 
$C$DW$L$_USB_init$2$E:
$C$L19:    
	.dwpsn	file "src/csl_usb.c",line 119,column 2,is_stmt
        MOV *(#_sysCtrlRegs), AR3 ; |119| 
        MOV port(*AR3(T0)), AR1 ; |119| 
        BCLR @#15, AR1 ; |119| 
        MOV AR1, port(*AR3(T0)) ; |119| 
	.dwpsn	file "src/csl_usb.c",line 120,column 2,is_stmt
        MOV *(#_sysCtrlRegs), AR3 ; |120| 
        MOV port(*AR3(T0)), AR1 ; |120| 
        BCLR @#14, AR1 ; |120| 
        MOV AR1, port(*AR3(T0)) ; |120| 
	.dwpsn	file "src/csl_usb.c",line 121,column 2,is_stmt
        MOV *(#_sysCtrlRegs), AR3 ; |121| 
        MOV port(*AR3(T0)), AR1 ; |121| 
        BCLR @#12, AR1 ; |121| 
        MOV AR1, port(*AR3(T0)) ; |121| 
	.dwpsn	file "src/csl_usb.c",line 122,column 2,is_stmt
        MOV *(#_sysCtrlRegs), AR3 ; |122| 
        MOV port(*AR3(T0)), AR1 ; |122| 
        BCLR @#13, AR1 ; |122| 
        BSET @#13, AR1 ; |122| 
        MOV AR1, port(*AR3(T0)) ; |122| 
	.dwpsn	file "src/csl_usb.c",line 123,column 2,is_stmt
        MOV *(#_sysCtrlRegs), AR3 ; |123| 
        MOV port(*AR3(T0)), AR1 ; |123| 
        BCLR @#6, AR1 ; |123| 
        BSET @#6, AR1 ; |123| 
        MOV AR1, port(*AR3(T0)) ; |123| 
	.dwpsn	file "src/csl_usb.c",line 126,column 2,is_stmt
        MOV *(#_sysCtrlRegs), AR3 ; |126| 
        MOV port(*AR3(short(#3))), AR1 ; |126| 
        BCLR @#2, AR1 ; |126| 
        MOV AR1, port(*AR3(short(#3))) ; |126| 
	.dwpsn	file "src/csl_usb.c",line 133,column 2,is_stmt
        MOV #58, T0 ; |133| 
        MOV *(#_sysCtrlRegs), AR3 ; |133| 
        MOV #0, port(*AR3(T0)) ; |133| 
	.dwpsn	file "src/csl_usb.c",line 137,column 2,is_stmt
        MOV *(#_sysCtrlRegs), AR3 ; |137| 
        MOV #0, AC0 ; |137| 
        BSET @#5, AC0 ; |137| 
        MOV port(*AR3(short(#4))), AR1 ; |137| 
        MOV AC0, port(*AR3(short(#4))) ; |137| 
	.dwpsn	file "src/csl_usb.c",line 140,column 2,is_stmt
        MOV *(#_sysCtrlRegs), AR3 ; |140| 
        MOV port(*AR3(short(#5))), AR1 ; |140| 
        BCLR @#3, AR1 ; |140| 
        BSET @#3, AR1 ; |140| 
        MOV AR1, port(*AR3(short(#5))) ; |140| 
	.dwpsn	file "src/csl_usb.c",line 143,column 6,is_stmt
        MOV #0, AC0 ; |143| 
        MOV AC0, dbl(*SP(#0)) ; |143| 
        NOP
        NOP
	.dwpsn	file "src/csl_usb.c",line 143,column 18,is_stmt
        MOV #255, AC0 ; |143| 
        MOV dbl(*SP(#0)), AC1 ; |143| 
        CMPU AC1 >= AC0, TC1 ; |143| 
        BCC $C$L21,TC1 ; |143| 
                                        ; branchcc occurs ; |143| 
$C$L20:    
$C$DW$L$_USB_init$4$B:
	.dwpsn	file "src/csl_usb.c",line 143,column 42,is_stmt
        MOV dbl(*SP(#0)), AC0 ; |143| 
        ADD #1, AC0 ; |143| 
        MOV AC0, dbl(*SP(#0)) ; |143| 
        NOP
        NOP
	.dwpsn	file "src/csl_usb.c",line 143,column 18,is_stmt
        MOV #255, AC0 ; |143| 
        MOV dbl(*SP(#0)), AC1 ; |143| 
        CMPU AC1 < AC0, TC1 ; |143| 
        BCC $C$L20,TC1 ; |143| 
                                        ; branchcc occurs ; |143| 
$C$DW$L$_USB_init$4$E:
	.dwpsn	file "src/csl_usb.c",line 144,column 1,is_stmt
$C$L21:    
        AADD #3, SP
	.dwcfi	cfa_offset, 1
$C$DW$56	.dwtag  DW_TAG_TI_branch
	.dwattr $C$DW$56, DW_AT_low_pc(0x00)
	.dwattr $C$DW$56, DW_AT_TI_return
        RET
                                        ; return occurs

$C$DW$57	.dwtag  DW_TAG_TI_loop
	.dwattr $C$DW$57, DW_AT_name("/home/santiago/dspfuzz/on_board/library/csl_usb.asm:$C$L20:1:1714639456")
	.dwattr $C$DW$57, DW_AT_TI_begin_file("src/csl_usb.c")
	.dwattr $C$DW$57, DW_AT_TI_begin_line(0x8f)
	.dwattr $C$DW$57, DW_AT_TI_end_line(0x8f)
$C$DW$58	.dwtag  DW_TAG_TI_loop_range
	.dwattr $C$DW$58, DW_AT_low_pc($C$DW$L$_USB_init$4$B)
	.dwattr $C$DW$58, DW_AT_high_pc($C$DW$L$_USB_init$4$E)
	.dwendtag $C$DW$57


$C$DW$59	.dwtag  DW_TAG_TI_loop
	.dwattr $C$DW$59, DW_AT_name("/home/santiago/dspfuzz/on_board/library/csl_usb.asm:$C$L18:1:1714639456")
	.dwattr $C$DW$59, DW_AT_TI_begin_file("src/csl_usb.c")
	.dwattr $C$DW$59, DW_AT_TI_begin_line(0x74)
	.dwattr $C$DW$59, DW_AT_TI_end_line(0x74)
$C$DW$60	.dwtag  DW_TAG_TI_loop_range
	.dwattr $C$DW$60, DW_AT_low_pc($C$DW$L$_USB_init$2$B)
	.dwattr $C$DW$60, DW_AT_high_pc($C$DW$L$_USB_init$2$E)
	.dwendtag $C$DW$59

	.dwattr $C$DW$54, DW_AT_TI_end_file("src/csl_usb.c")
	.dwattr $C$DW$54, DW_AT_TI_end_line(0x90)
	.dwattr $C$DW$54, DW_AT_TI_end_column(0x01)
	.dwendentry
	.dwendtag $C$DW$54

	.sect	".text"
	.global	_USB_open

$C$DW$61	.dwtag  DW_TAG_subprogram, DW_AT_name("USB_open")
	.dwattr $C$DW$61, DW_AT_low_pc(_USB_open)
	.dwattr $C$DW$61, DW_AT_high_pc(0x00)
	.dwattr $C$DW$61, DW_AT_TI_symbol_name("_USB_open")
	.dwattr $C$DW$61, DW_AT_external
	.dwattr $C$DW$61, DW_AT_type(*$C$DW$T$126)
	.dwattr $C$DW$61, DW_AT_TI_begin_file("src/csl_usb.c")
	.dwattr $C$DW$61, DW_AT_TI_begin_line(0xb7)
	.dwattr $C$DW$61, DW_AT_TI_begin_column(0x12)
	.dwattr $C$DW$61, DW_AT_TI_max_frame_size(0x08)
	.dwpsn	file "src/csl_usb.c",line 184,column 1,is_stmt,address _USB_open

	.dwfde $C$DW$CIE, _USB_open
$C$DW$62	.dwtag  DW_TAG_formal_parameter, DW_AT_name("devNum")
	.dwattr $C$DW$62, DW_AT_TI_symbol_name("_devNum")
	.dwattr $C$DW$62, DW_AT_type(*$C$DW$T$82)
	.dwattr $C$DW$62, DW_AT_location[DW_OP_reg12]
;*******************************************************************************
;* FUNCTION NAME: USB_open                                                     *
;*                                                                             *
;*   Function Uses Regs : AC0,AC0,AC1,AC1,T0,AR0,XAR0,AR1,AR3,XAR3,SP,CARRY,   *
;*                        TC1,M40,SATA,SATD,RDM,FRCT,SMUL                      *
;*   Stack Frame        : Compact (No Frame Pointer, w/ debug)                 *
;*   Total Frame Size   : 8 words                                              *
;*                        (2 return address/alignment)                         *
;*                        (6 local values)                                     *
;*   Min System Stack   : 1 word                                               *
;*******************************************************************************
_USB_open:
	.dwcfi	cfa_offset, 1
	.dwcfi	save_reg_to_mem, 91, -1
        AADD #-7, SP
	.dwcfi	cfa_offset, 8
$C$DW$63	.dwtag  DW_TAG_variable, DW_AT_name("devNum")
	.dwattr $C$DW$63, DW_AT_TI_symbol_name("_devNum")
	.dwattr $C$DW$63, DW_AT_type(*$C$DW$T$82)
	.dwattr $C$DW$63, DW_AT_location[DW_OP_bregx 0x24 0]
$C$DW$64	.dwtag  DW_TAG_variable, DW_AT_name("hUsbDev")
	.dwattr $C$DW$64, DW_AT_TI_symbol_name("_hUsbDev")
	.dwattr $C$DW$64, DW_AT_type(*$C$DW$T$126)
	.dwattr $C$DW$64, DW_AT_location[DW_OP_bregx 0x24 2]
$C$DW$65	.dwtag  DW_TAG_variable, DW_AT_name("looper")
	.dwattr $C$DW$65, DW_AT_TI_symbol_name("_looper")
	.dwattr $C$DW$65, DW_AT_type(*$C$DW$T$201)
	.dwattr $C$DW$65, DW_AT_location[DW_OP_bregx 0x24 4]
        MOV T0, *SP(#0) ; |184| 
	.dwpsn	file "src/csl_usb.c",line 188,column 2,is_stmt
        AMOV #_gUsbContext, XAR3 ; |188| 
        MOV XAR3, dbl(*SP(#2))
	.dwpsn	file "src/csl_usb.c",line 190,column 2,is_stmt
        CMP *AR3(short(#3)) == #1, TC1 ; |190| 
        BCC $C$L27,TC1 ; |190| 
                                        ; branchcc occurs ; |190| 
	.dwpsn	file "src/csl_usb.c",line 192,column 3,is_stmt
        MOV *SP(#0), AR1 ; |192| 
        BCC $C$L26,AR1 != #0 ; |192| 
                                        ; branchcc occurs ; |192| 
	.dwpsn	file "src/csl_usb.c",line 194,column 4,is_stmt
        MOV #0, *AR3 ; |194| 
	.dwpsn	file "src/csl_usb.c",line 199,column 4,is_stmt
        MOV *(#_usbRegisters), AR3 ; |199| 
        MOV #1, port(*AR3(short(#4))) ; |199| 
	.dwpsn	file "src/csl_usb.c",line 201,column 8,is_stmt
        MOV #0, AC0 ; |201| 
        MOV AC0, dbl(*SP(#4)) ; |201| 
        NOP
        NOP
	.dwpsn	file "src/csl_usb.c",line 201,column 20,is_stmt
        AMOV #90000, XAR3 ; |201| 
        MOV dbl(*SP(#4)), AC1 ; |201| 
        MOV XAR3, AC0
        CMPU AC1 >= AC0, TC1 ; |201| 
        BCC $C$L23,TC1 ; |201| 
                                        ; branchcc occurs ; |201| 
$C$L22:    
$C$DW$L$_USB_open$4$B:
	.dwpsn	file "src/csl_usb.c",line 201,column 36,is_stmt
        MOV dbl(*SP(#4)), AC0 ; |201| 
        ADD #1, AC0 ; |201| 
        MOV AC0, dbl(*SP(#4)) ; |201| 
        NOP
        NOP
	.dwpsn	file "src/csl_usb.c",line 201,column 20,is_stmt
        MOV XAR3, AC0
        MOV dbl(*SP(#4)), AC1 ; |201| 
        CMPU AC1 < AC0, TC1 ; |201| 
        BCC $C$L22,TC1 ; |201| 
                                        ; branchcc occurs ; |201| 
$C$DW$L$_USB_open$4$E:
$C$L23:    
	.dwpsn	file "src/csl_usb.c",line 204,column 4,is_stmt
        MOV #50, T0 ; |204| 
        MOV *(#_sysCtrlRegs), AR3 ; |204| 
        MOV port(*AR3(T0)), AR1 ; |204| 
        AND #0xfffc, AR1, AC0 ; |204| 
        MOV AC0, port(*AR3(T0)) ; |204| 
	.dwpsn	file "src/csl_usb.c",line 206,column 4,is_stmt
        MOV #1025, T0 ; |206| 
        MOV *(#_usbRegisters), AR3 ; |206| 
        MOV port(*AR3(T0)), AR1 ; |206| 
        BCLR @#13, AR1 ; |206| 
        BSET @#13, AR1 ; |206| 
        MOV AR1, port(*AR3(T0)) ; |206| 
	.dwpsn	file "src/csl_usb.c",line 208,column 4,is_stmt
        MOV #1121, T0 ; |208| 
        MOV *(#_usbRegisters), AR3 ; |208| 
        MOV port(*AR3(T0)), AR1 ; |208| 
        BCLR @#0, AR1 ; |208| 
        BSET @#0, AR1 ; |208| 
        MOV AR1, port(*AR3(T0)) ; |208| 
	.dwpsn	file "src/csl_usb.c",line 210,column 8,is_stmt
        MOV #0, AC0 ; |210| 
        MOV AC0, dbl(*SP(#4)) ; |210| 
        NOP
        NOP
        NOP
	.dwpsn	file "src/csl_usb.c",line 210,column 20,is_stmt

        MOV dbl(*SP(#4)), AC1 ; |210| 
||      MOV #12, AC0 ; |210| 

        CMPU AC1 >= AC0, TC1 ; |210| 
        BCC $C$L25,TC1 ; |210| 
                                        ; branchcc occurs ; |210| 
$C$L24:    
$C$DW$L$_USB_open$6$B:
	.dwpsn	file "src/csl_usb.c",line 212,column 5,is_stmt
        MOV dbl(*SP(#4)), AC0 ; |212| 
        SFTS AC0, #16, AC0
        MPYK #14, AC0, AC0 ; |212| 
        MOV AC0, T0 ; |212| 
        AMOV #(_gUsbTransfer+12), XAR3 ; |212| 
        MOV #1, *AR3(T0) ; |212| 
	.dwpsn	file "src/csl_usb.c",line 210,column 59,is_stmt
        MOV dbl(*SP(#4)), AC0 ; |210| 
        ADD #1, AC0 ; |210| 
        MOV AC0, dbl(*SP(#4)) ; |210| 
        NOP
        NOP
        NOP
	.dwpsn	file "src/csl_usb.c",line 210,column 20,is_stmt

        MOV dbl(*SP(#4)), AC1 ; |210| 
||      MOV #12, AC0 ; |210| 

        CMPU AC1 < AC0, TC1 ; |210| 
        BCC $C$L24,TC1 ; |210| 
                                        ; branchcc occurs ; |210| 
$C$DW$L$_USB_open$6$E:
$C$L25:    
	.dwpsn	file "src/csl_usb.c",line 215,column 4,is_stmt
        MOV dbl(*SP(#2)), XAR3
        MOV #1, *AR3(short(#3)) ; |215| 
	.dwpsn	file "src/csl_usb.c",line 216,column 3,is_stmt
        B $C$L27  ; |216| 
                                        ; branch occurs ; |216| 
$C$L26:    
	.dwpsn	file "src/csl_usb.c",line 219,column 4,is_stmt
        MOV #0, AC0 ; |219| 
        MOV AC0, dbl(*SP(#2))
$C$L27:    
	.dwpsn	file "src/csl_usb.c",line 223,column 2,is_stmt
        MOV dbl(*SP(#2)), XAR0
	.dwpsn	file "src/csl_usb.c",line 224,column 1,is_stmt
        AADD #7, SP
	.dwcfi	cfa_offset, 1
$C$DW$66	.dwtag  DW_TAG_TI_branch
	.dwattr $C$DW$66, DW_AT_low_pc(0x00)
	.dwattr $C$DW$66, DW_AT_TI_return
        RET
                                        ; return occurs

$C$DW$67	.dwtag  DW_TAG_TI_loop
	.dwattr $C$DW$67, DW_AT_name("/home/santiago/dspfuzz/on_board/library/csl_usb.asm:$C$L24:1:1714639456")
	.dwattr $C$DW$67, DW_AT_TI_begin_file("src/csl_usb.c")
	.dwattr $C$DW$67, DW_AT_TI_begin_line(0xd2)
	.dwattr $C$DW$67, DW_AT_TI_end_line(0xd5)
$C$DW$68	.dwtag  DW_TAG_TI_loop_range
	.dwattr $C$DW$68, DW_AT_low_pc($C$DW$L$_USB_open$6$B)
	.dwattr $C$DW$68, DW_AT_high_pc($C$DW$L$_USB_open$6$E)
	.dwendtag $C$DW$67


$C$DW$69	.dwtag  DW_TAG_TI_loop
	.dwattr $C$DW$69, DW_AT_name("/home/santiago/dspfuzz/on_board/library/csl_usb.asm:$C$L22:1:1714639456")
	.dwattr $C$DW$69, DW_AT_TI_begin_file("src/csl_usb.c")
	.dwattr $C$DW$69, DW_AT_TI_begin_line(0xc9)
	.dwattr $C$DW$69, DW_AT_TI_end_line(0xc9)
$C$DW$70	.dwtag  DW_TAG_TI_loop_range
	.dwattr $C$DW$70, DW_AT_low_pc($C$DW$L$_USB_open$4$B)
	.dwattr $C$DW$70, DW_AT_high_pc($C$DW$L$_USB_open$4$E)
	.dwendtag $C$DW$69

	.dwattr $C$DW$61, DW_AT_TI_end_file("src/csl_usb.c")
	.dwattr $C$DW$61, DW_AT_TI_end_line(0xe0)
	.dwattr $C$DW$61, DW_AT_TI_end_column(0x01)
	.dwendentry
	.dwendtag $C$DW$61

	.sect	".text"
	.global	_USB_config

$C$DW$71	.dwtag  DW_TAG_subprogram, DW_AT_name("USB_config")
	.dwattr $C$DW$71, DW_AT_low_pc(_USB_config)
	.dwattr $C$DW$71, DW_AT_high_pc(0x00)
	.dwattr $C$DW$71, DW_AT_TI_symbol_name("_USB_config")
	.dwattr $C$DW$71, DW_AT_external
	.dwattr $C$DW$71, DW_AT_type(*$C$DW$T$76)
	.dwattr $C$DW$71, DW_AT_TI_begin_file("src/csl_usb.c")
	.dwattr $C$DW$71, DW_AT_TI_begin_line(0x10b)
	.dwattr $C$DW$71, DW_AT_TI_begin_column(0x0c)
	.dwattr $C$DW$71, DW_AT_TI_max_frame_size(0x0e)
	.dwpsn	file "src/csl_usb.c",line 269,column 1,is_stmt,address _USB_config

	.dwfde $C$DW$CIE, _USB_config
$C$DW$72	.dwtag  DW_TAG_formal_parameter, DW_AT_name("hUsbDev")
	.dwattr $C$DW$72, DW_AT_TI_symbol_name("_hUsbDev")
	.dwattr $C$DW$72, DW_AT_type(*$C$DW$T$126)
	.dwattr $C$DW$72, DW_AT_location[DW_OP_reg17]
$C$DW$73	.dwtag  DW_TAG_formal_parameter, DW_AT_name("usbCfg")
	.dwattr $C$DW$73, DW_AT_TI_symbol_name("_usbCfg")
	.dwattr $C$DW$73, DW_AT_type(*$C$DW$T$139)
	.dwattr $C$DW$73, DW_AT_location[DW_OP_reg19]
;*******************************************************************************
;* FUNCTION NAME: USB_config                                                   *
;*                                                                             *
;*   Function Uses Regs : AC0,AC0,AC1,AC1,T0,AR0,XAR0,AR1,XAR1,AR2,XAR2,AR3,   *
;*                        XAR3,SP,CARRY,TC1,M40,SATA,SATD,RDM,FRCT,SMUL        *
;*   Stack Frame        : Compact (No Frame Pointer, w/ debug)                 *
;*   Total Frame Size   : 14 words                                             *
;*                        (2 return address/alignment)                         *
;*                        (12 local values)                                    *
;*   Min System Stack   : 1 word                                               *
;*******************************************************************************
_USB_config:
	.dwcfi	cfa_offset, 1
	.dwcfi	save_reg_to_mem, 91, -1
        AADD #-13, SP
	.dwcfi	cfa_offset, 14
$C$DW$74	.dwtag  DW_TAG_variable, DW_AT_name("hUsbDev")
	.dwattr $C$DW$74, DW_AT_TI_symbol_name("_hUsbDev")
	.dwattr $C$DW$74, DW_AT_type(*$C$DW$T$126)
	.dwattr $C$DW$74, DW_AT_location[DW_OP_bregx 0x24 0]
$C$DW$75	.dwtag  DW_TAG_variable, DW_AT_name("usbCfg")
	.dwattr $C$DW$75, DW_AT_TI_symbol_name("_usbCfg")
	.dwattr $C$DW$75, DW_AT_type(*$C$DW$T$139)
	.dwattr $C$DW$75, DW_AT_location[DW_OP_bregx 0x24 2]
$C$DW$76	.dwtag  DW_TAG_variable, DW_AT_name("pContext")
	.dwattr $C$DW$76, DW_AT_TI_symbol_name("_pContext")
	.dwattr $C$DW$76, DW_AT_type(*$C$DW$T$126)
	.dwattr $C$DW$76, DW_AT_location[DW_OP_bregx 0x24 4]
$C$DW$77	.dwtag  DW_TAG_variable, DW_AT_name("status")
	.dwattr $C$DW$77, DW_AT_TI_symbol_name("_status")
	.dwattr $C$DW$77, DW_AT_type(*$C$DW$T$76)
	.dwattr $C$DW$77, DW_AT_location[DW_OP_bregx 0x24 6]
$C$DW$78	.dwtag  DW_TAG_variable, DW_AT_name("peps")
	.dwattr $C$DW$78, DW_AT_TI_symbol_name("_peps")
	.dwattr $C$DW$78, DW_AT_type(*$C$DW$T$150)
	.dwattr $C$DW$78, DW_AT_location[DW_OP_bregx 0x24 8]
$C$DW$79	.dwtag  DW_TAG_variable, DW_AT_name("dwEndpoint")
	.dwattr $C$DW$79, DW_AT_TI_symbol_name("_dwEndpoint")
	.dwattr $C$DW$79, DW_AT_type(*$C$DW$T$85)
	.dwattr $C$DW$79, DW_AT_location[DW_OP_bregx 0x24 10]
        MOV XAR1, dbl(*SP(#2))
        MOV XAR0, dbl(*SP(#0))
	.dwpsn	file "src/csl_usb.c",line 275,column 2,is_stmt
        MOV dbl(*SP(#0)), XAR3
        MOV XAR3, dbl(*SP(#4))
	.dwpsn	file "src/csl_usb.c",line 276,column 2,is_stmt
        MOV #-6, *SP(#6) ; |276| 
	.dwpsn	file "src/csl_usb.c",line 278,column 2,is_stmt
        MOV dbl(*SP(#0)), XAR3
        MOV XAR3, AC0
        BCC $C$L28,AC0 != #0 ; |278| 
                                        ; branchcc occurs ; |278| 
	.dwpsn	file "src/csl_usb.c",line 280,column 6,is_stmt
        MOV *SP(#6), T0 ; |280| 
        B $C$L46  ; |280| 
                                        ; branch occurs ; |280| 
$C$L28:    
	.dwpsn	file "src/csl_usb.c",line 283,column 2,is_stmt
        MOV dbl(*SP(#2)), XAR3
        MOV XAR3, AC0
        BCC $C$L44,AC0 == #0 ; |283| 
                                        ; branchcc occurs ; |283| 
        MOV dbl(*SP(#0)), XAR3
        MOV *AR3, AR1 ; |283| 
        BCC $C$L44,AR1 != #0 ; |283| 
                                        ; branchcc occurs ; |283| 
	.dwpsn	file "src/csl_usb.c",line 285,column 3,is_stmt
        MOV dbl(*SP(#2)), XAR3
        MOV *AR3(short(#1)), AR1 ; |285| 
        BCC $C$L29,AR1 == #0 ; |285| 
                                        ; branchcc occurs ; |285| 
        CMP *AR3(short(#1)) == #1, TC1 ; |285| 
        BCC $C$L29,TC1 ; |285| 
                                        ; branchcc occurs ; |285| 
        CMP *AR3(short(#1)) == #2, TC1 ; |285| 
        BCC $C$L45,!TC1 ; |285| 
                                        ; branchcc occurs ; |285| 
$C$L29:    
	.dwpsn	file "src/csl_usb.c",line 290,column 4,is_stmt
        MOV *AR3(short(#1)), AR1 ; |290| 
        MOV dbl(*SP(#4)), XAR3
        MOV AR1, *AR3(short(#1)) ; |290| 
	.dwpsn	file "src/csl_usb.c",line 291,column 4,is_stmt
        MOV dbl(*SP(#2)), XAR3
        MOV *AR3, AR1 ; |291| 
        MOV dbl(*SP(#4)), XAR3
        MOV AR1, *AR3(short(#2)) ; |291| 
	.dwpsn	file "src/csl_usb.c",line 292,column 4,is_stmt
        MOV dbl(*SP(#4)), XAR3
        MOV #0, *AR3(#86) ; |292| 
	.dwpsn	file "src/csl_usb.c",line 293,column 4,is_stmt
        MOV dbl(*SP(#2)), XAR3
        MOV dbl(*AR3(short(#2))), AC0 ; |293| 
        MOV dbl(*SP(#4)), XAR3
        MOV AC0, dbl(*AR3(#100)) ; |293| 
	.dwpsn	file "src/csl_usb.c",line 294,column 4,is_stmt
        MOV dbl(*SP(#2)), XAR3
        MOV dbl(*AR3(short(#4))), AC0 ; |294| 
        MOV dbl(*SP(#4)), XAR3
        MOV AC0, dbl(*AR3(#102)) ; |294| 
	.dwpsn	file "src/csl_usb.c",line 295,column 4,is_stmt
        MOV dbl(*SP(#4)), XAR2
        MOV dbl(*SP(#2)), XAR3

        AADD #18, AR3 ; |295| 
||      AADD #104, AR2 ; |295| 

        MOV dbl(*AR3), dbl(*AR2) ; |295| 
	.dwpsn	file "src/csl_usb.c",line 296,column 4,is_stmt
        MOV dbl(*SP(#2)), XAR3
        MOV dbl(*SP(#4)), XAR2

        AADD #106, AR2 ; |296| 
||      AADD #20, AR3 ; |296| 

        MOV dbl(*AR3), dbl(*AR2) ; |296| 
	.dwpsn	file "src/csl_usb.c",line 298,column 4,is_stmt
        MOV dbl(*SP(#4)), XAR3
        MOV #0, *AR3(#88) ; |298| 
	.dwpsn	file "src/csl_usb.c",line 299,column 4,is_stmt
        MOV dbl(*SP(#4)), XAR2
        AMOV #_gEpStatus, XAR3 ; |299| 
        MOV XAR3, dbl(*AR2(#90))
	.dwpsn	file "src/csl_usb.c",line 300,column 4,is_stmt
        MOV dbl(*SP(#4)), XAR3
        MOV #0, *AR3(#92) ; |300| 
	.dwpsn	file "src/csl_usb.c",line 301,column 4,is_stmt
        MOV dbl(*SP(#4)), XAR3
        MOV #0, *AR3(short(#4)) ; |301| 
	.dwpsn	file "src/csl_usb.c",line 302,column 4,is_stmt
        MOV dbl(*SP(#4)), XAR3
        MOV #0, *AR3(short(#5)) ; |302| 
	.dwpsn	file "src/csl_usb.c",line 303,column 4,is_stmt
        MOV dbl(*SP(#4)), XAR3
        MOV #0, *AR3(short(#6)) ; |303| 
	.dwpsn	file "src/csl_usb.c",line 304,column 4,is_stmt
        MOV dbl(*SP(#4)), XAR3
        MOV #0, *AR3(short(#7)) ; |304| 
	.dwpsn	file "src/csl_usb.c",line 305,column 4,is_stmt
        MOV dbl(*SP(#4)), XAR3
        MOV #0, *AR3(#8) ; |305| 
	.dwpsn	file "src/csl_usb.c",line 306,column 4,is_stmt
        MOV dbl(*SP(#4)), XAR3
        MOV #0, *AR3(#9) ; |306| 
	.dwpsn	file "src/csl_usb.c",line 308,column 4,is_stmt
        MOV uns(*(#_usbRegisters)), AC0 ; |308| 
        MOV AC0, XAR3
        AMAR *+AR3(#1057) ; |308| 
        MOV XAR3, AC0
        MOV dbl(*SP(#4)), XAR3
        MOV AC0, dbl(*AR3(#10))
	.dwpsn	file "src/csl_usb.c",line 310,column 4,is_stmt
        MOV dbl(*SP(#4)), XAR1
        MOV dbl(*SP(#4)), XAR0
        AADD #87, AR1 ; |310| 
$C$DW$80	.dwtag  DW_TAG_TI_branch
	.dwattr $C$DW$80, DW_AT_low_pc(0x00)
	.dwattr $C$DW$80, DW_AT_name("_USB_checkSpeed")
	.dwattr $C$DW$80, DW_AT_TI_call
        CALL #_USB_checkSpeed ; |310| 
                                        ; call occurs [#_USB_checkSpeed] ; |310| 
	.dwpsn	file "src/csl_usb.c",line 312,column 4,is_stmt
        MOV dbl(*SP(#4)), XAR3
        MOV #0, *AR3(#16) ; |312| 
	.dwpsn	file "src/csl_usb.c",line 313,column 4,is_stmt
        MOV dbl(*SP(#4)), XAR3
        MOV #0, *AR3(#15) ; |313| 
	.dwpsn	file "src/csl_usb.c",line 314,column 4,is_stmt
        MOV dbl(*SP(#4)), XAR3
        MOV #1, *AR3(#14) ; |314| 
	.dwpsn	file "src/csl_usb.c",line 315,column 4,is_stmt
        MOV dbl(*SP(#4)), XAR3
        MOV #1, *AR3(#82) ; |315| 
	.dwpsn	file "src/csl_usb.c",line 316,column 4,is_stmt
        MOV dbl(*SP(#4)), XAR3
        MOV #1, *AR3(#83) ; |316| 
	.dwpsn	file "src/csl_usb.c",line 317,column 4,is_stmt
        MOV dbl(*SP(#4)), XAR3
        MOV #0, *AR3(#17) ; |317| 
	.dwpsn	file "src/csl_usb.c",line 320,column 4,is_stmt
        MOV dbl(*SP(#4)), XAR3
        MOV #8, *AR3(#108) ; |320| 
	.dwpsn	file "src/csl_usb.c",line 323,column 4,is_stmt
        MOV dbl(*SP(#4)), XAR3
        MOV dbl(*AR3(#90)), XAR3

        MOV XAR3, dbl(*SP(#8))
||      AADD #18, AR3 ; |323| 

	.dwpsn	file "src/csl_usb.c",line 325,column 4,is_stmt
        MOV uns(*(#_usbRegisters)), AC0 ; |325| 
        MOV AC0, XAR3
        AMAR *+AR3(#1061) ; |325| 
        MOV XAR3, AC0
        MOV dbl(*SP(#8)), XAR3
        MOV AC0, dbl(*AR3(#8))
	.dwpsn	file "src/csl_usb.c",line 327,column 4,is_stmt
        MOV dbl(*SP(#4)), XAR3
        MOV dbl(*AR3(#90)), XAR3

        MOV XAR3, dbl(*SP(#8))
||      AADD #36, AR3 ; |327| 

	.dwpsn	file "src/csl_usb.c",line 328,column 4,is_stmt
        MOV uns(*(#_usbRegisters)), AC0 ; |328| 
        MOV AC0, XAR3
        AMAR *+AR3(#1065) ; |328| 
        MOV XAR3, AC0
        MOV dbl(*SP(#8)), XAR3
        MOV AC0, dbl(*AR3(#8))
	.dwpsn	file "src/csl_usb.c",line 330,column 4,is_stmt
        MOV dbl(*SP(#4)), XAR3
        MOV dbl(*AR3(#90)), XAR3

        MOV XAR3, dbl(*SP(#8))
||      AADD #54, AR3 ; |330| 

	.dwpsn	file "src/csl_usb.c",line 332,column 4,is_stmt
        MOV uns(*(#_usbRegisters)), AC0 ; |332| 
        MOV AC0, XAR3
        AMAR *+AR3(#1069) ; |332| 
        MOV XAR3, AC0
        MOV dbl(*SP(#8)), XAR3
        MOV AC0, dbl(*AR3(#8))
	.dwpsn	file "src/csl_usb.c",line 334,column 4,is_stmt
        MOV dbl(*SP(#4)), XAR3
        MOV dbl(*AR3(#90)), XAR3

        MOV XAR3, dbl(*SP(#8))
||      AADD #72, AR3 ; |334| 

	.dwpsn	file "src/csl_usb.c",line 335,column 4,is_stmt
        MOV uns(*(#_usbRegisters)), AC0 ; |335| 
        MOV AC0, XAR3
        AMAR *+AR3(#1073) ; |335| 
        MOV XAR3, AC0
        MOV dbl(*SP(#8)), XAR3
        MOV AC0, dbl(*AR3(#8))
	.dwpsn	file "src/csl_usb.c",line 338,column 8,is_stmt
        MOV #0, AC0 ; |338| 
        MOV AC0, dbl(*SP(#10)) ; |338| 
	.dwpsn	file "src/csl_usb.c",line 338,column 24,is_stmt

        MOV dbl(*SP(#10)), AC1 ; |338| 
||      MOV #10, AC0 ; |338| 

        CMPU AC1 >= AC0, TC1 ; |338| 
        BCC $C$L43,TC1 ; |338| 
                                        ; branchcc occurs ; |338| 
$C$L30:    
$C$DW$L$_USB_config$9$B:
	.dwpsn	file "src/csl_usb.c",line 340,column 5,is_stmt
        MOV dbl(*SP(#4)), XAR3
        MPYMK *SP(#11), #18, AC0 ; |340| 
        MOV AC0, AR1 ; |340| 
        MOV dbl(*AR3(#90)), XAR3

        MOV XAR3, dbl(*SP(#8))
||      AADD AR1, AR3 ; |340| 

	.dwpsn	file "src/csl_usb.c",line 342,column 5,is_stmt
        MOV #0, *AR3(#16) ; |342| 
	.dwpsn	file "src/csl_usb.c",line 343,column 5,is_stmt
        MOV dbl(*SP(#8)), XAR3
        MOV #0, AC0 ; |343| 
        MOV AC0, dbl(*AR3(#10))
	.dwpsn	file "src/csl_usb.c",line 344,column 5,is_stmt
        MOV dbl(*SP(#8)), XAR3
        MOV #0, *AR3(#17) ; |344| 
	.dwpsn	file "src/csl_usb.c",line 345,column 5,is_stmt
        MOV dbl(*SP(#8)), XAR3
        MOV dbl(*SP(#10)), AC0 ; |345| 
        MOV AC0, dbl(*AR3) ; |345| 
	.dwpsn	file "src/csl_usb.c",line 346,column 5,is_stmt
        MOV dbl(*SP(#8)), XAR3
        MOV #0, *AR3(#12) ; |346| 
	.dwpsn	file "src/csl_usb.c",line 347,column 5,is_stmt
        MOV dbl(*SP(#8)), XAR3
        MOV #1, *AR3(short(#6)) ; |347| 
	.dwpsn	file "src/csl_usb.c",line 348,column 5,is_stmt
        MOV dbl(*SP(#8)), XAR3
        MOV #0, AC0 ; |348| 
        MOV AC0, dbl(*AR3(#14)) ; |348| 
	.dwpsn	file "src/csl_usb.c",line 350,column 5,is_stmt
        B $C$L40  ; |350| 
                                        ; branch occurs ; |350| 
$C$DW$L$_USB_config$9$E:
$C$L31:    
$C$DW$L$_USB_config$11$B:
	.dwpsn	file "src/csl_usb.c",line 353,column 7,is_stmt
        MOV dbl(*SP(#8)), XAR3
        MOV #64, AC0 ; |353| 
        MOV AC0, dbl(*AR3(short(#4))) ; |353| 
	.dwpsn	file "src/csl_usb.c",line 354,column 12,is_stmt
        B $C$L42  ; |354| 
                                        ; branch occurs ; |354| 
$C$DW$L$_USB_config$11$E:
$C$L32:    
$C$DW$L$_USB_config$12$B:
	.dwpsn	file "src/csl_usb.c",line 357,column 7,is_stmt
        MOV dbl(*SP(#4)), XAR3
        CMP *AR3(#87) == #4, TC1 ; |357| 
        BCC $C$L33,!TC1 ; |357| 
                                        ; branchcc occurs ; |357| 
$C$DW$L$_USB_config$12$E:
$C$DW$L$_USB_config$13$B:
	.dwpsn	file "src/csl_usb.c",line 359,column 8,is_stmt
        MOV dbl(*SP(#8)), XAR3
        MOV #512, AC0 ; |359| 
        MOV AC0, dbl(*AR3(short(#4))) ; |359| 
	.dwpsn	file "src/csl_usb.c",line 360,column 7,is_stmt
        B $C$L42  ; |360| 
                                        ; branch occurs ; |360| 
$C$DW$L$_USB_config$13$E:
$C$L33:    
$C$DW$L$_USB_config$14$B:
	.dwpsn	file "src/csl_usb.c",line 363,column 8,is_stmt
        MOV dbl(*SP(#8)), XAR3
        MOV #64, AC0 ; |363| 
        MOV AC0, dbl(*AR3(short(#4))) ; |363| 
	.dwpsn	file "src/csl_usb.c",line 366,column 12,is_stmt
        B $C$L42  ; |366| 
                                        ; branch occurs ; |366| 
$C$DW$L$_USB_config$14$E:
$C$L34:    
$C$DW$L$_USB_config$15$B:
	.dwpsn	file "src/csl_usb.c",line 369,column 7,is_stmt
        MOV dbl(*SP(#4)), XAR3
        CMP *AR3(#87) == #4, TC1 ; |369| 
        BCC $C$L35,!TC1 ; |369| 
                                        ; branchcc occurs ; |369| 
$C$DW$L$_USB_config$15$E:
$C$DW$L$_USB_config$16$B:
	.dwpsn	file "src/csl_usb.c",line 371,column 8,is_stmt
        MOV dbl(*SP(#8)), XAR3
        MOV #512, AC0 ; |371| 
        MOV AC0, dbl(*AR3(short(#4))) ; |371| 
	.dwpsn	file "src/csl_usb.c",line 372,column 7,is_stmt
        B $C$L42  ; |372| 
                                        ; branch occurs ; |372| 
$C$DW$L$_USB_config$16$E:
$C$L35:    
$C$DW$L$_USB_config$17$B:
	.dwpsn	file "src/csl_usb.c",line 375,column 8,is_stmt
        MOV dbl(*SP(#8)), XAR3
        MOV #64, AC0 ; |375| 
        MOV AC0, dbl(*AR3(short(#4))) ; |375| 
	.dwpsn	file "src/csl_usb.c",line 378,column 12,is_stmt
        B $C$L42  ; |378| 
                                        ; branch occurs ; |378| 
$C$DW$L$_USB_config$17$E:
$C$L36:    
$C$DW$L$_USB_config$18$B:
	.dwpsn	file "src/csl_usb.c",line 381,column 7,is_stmt
        MOV dbl(*SP(#4)), XAR3
        CMP *AR3(#87) == #4, TC1 ; |381| 
        BCC $C$L37,!TC1 ; |381| 
                                        ; branchcc occurs ; |381| 
$C$DW$L$_USB_config$18$E:
$C$DW$L$_USB_config$19$B:
	.dwpsn	file "src/csl_usb.c",line 383,column 8,is_stmt
        MOV dbl(*SP(#8)), XAR3
        MOV #512, AC0 ; |383| 
        MOV AC0, dbl(*AR3(short(#4))) ; |383| 
	.dwpsn	file "src/csl_usb.c",line 384,column 7,is_stmt
        B $C$L42  ; |384| 
                                        ; branch occurs ; |384| 
$C$DW$L$_USB_config$19$E:
$C$L37:    
$C$DW$L$_USB_config$20$B:
	.dwpsn	file "src/csl_usb.c",line 387,column 8,is_stmt
        MOV dbl(*SP(#8)), XAR3
        MOV #64, AC0 ; |387| 
        MOV AC0, dbl(*AR3(short(#4))) ; |387| 
	.dwpsn	file "src/csl_usb.c",line 390,column 12,is_stmt
        B $C$L42  ; |390| 
                                        ; branch occurs ; |390| 
$C$DW$L$_USB_config$20$E:
$C$L38:    
$C$DW$L$_USB_config$21$B:
	.dwpsn	file "src/csl_usb.c",line 393,column 7,is_stmt
        MOV dbl(*SP(#4)), XAR3
        CMP *AR3(#87) == #4, TC1 ; |393| 
        BCC $C$L39,!TC1 ; |393| 
                                        ; branchcc occurs ; |393| 
$C$DW$L$_USB_config$21$E:
$C$DW$L$_USB_config$22$B:
	.dwpsn	file "src/csl_usb.c",line 395,column 8,is_stmt
        MOV dbl(*SP(#8)), XAR3
        MOV #512, AC0 ; |395| 
        MOV AC0, dbl(*AR3(short(#4))) ; |395| 
	.dwpsn	file "src/csl_usb.c",line 396,column 7,is_stmt
        B $C$L42  ; |396| 
                                        ; branch occurs ; |396| 
$C$DW$L$_USB_config$22$E:
$C$L39:    
$C$DW$L$_USB_config$23$B:
	.dwpsn	file "src/csl_usb.c",line 399,column 8,is_stmt
        MOV dbl(*SP(#8)), XAR3
        MOV #64, AC0 ; |399| 
        MOV AC0, dbl(*AR3(short(#4))) ; |399| 
	.dwpsn	file "src/csl_usb.c",line 402,column 12,is_stmt
        B $C$L42  ; |402| 
                                        ; branch occurs ; |402| 
$C$DW$L$_USB_config$23$E:
$C$L40:    
$C$DW$L$_USB_config$25$B:
	.dwpsn	file "src/csl_usb.c",line 350,column 5,is_stmt

        MOV dbl(*SP(#10)), AC0 ; |350| 
||      MOV #2, AC1 ; |350| 

        CMP AC0 > AC1, TC1 ; |350| 
        BCC $C$L41,TC1 ; |350| 
                                        ; branchcc occurs ; |350| 
$C$DW$L$_USB_config$25$E:
$C$DW$L$_USB_config$26$B:
        CMP AC0 == AC1, TC1 ; |350| 
        BCC $C$L34,TC1 ; |350| 
                                        ; branchcc occurs ; |350| 
$C$DW$L$_USB_config$26$E:
$C$DW$L$_USB_config$27$B:
        BCC $C$L31,AC0 == #0 ; |350| 
                                        ; branchcc occurs ; |350| 
$C$DW$L$_USB_config$27$E:
$C$DW$L$_USB_config$28$B:
        MOV #1, AC1 ; |350| 
        CMPU AC0 == AC1, TC1 ; |350| 
        BCC $C$L32,TC1 ; |350| 
                                        ; branchcc occurs ; |350| 
$C$DW$L$_USB_config$28$E:
$C$DW$L$_USB_config$29$B:
        B $C$L42  ; |350| 
                                        ; branch occurs ; |350| 
$C$DW$L$_USB_config$29$E:
$C$L41:    
$C$DW$L$_USB_config$30$B:
        MOV #3, AC1 ; |350| 
        CMPU AC0 == AC1, TC1 ; |350| 
        BCC $C$L36,TC1 ; |350| 
                                        ; branchcc occurs ; |350| 
$C$DW$L$_USB_config$30$E:
$C$DW$L$_USB_config$31$B:
        MOV #4, AC1 ; |350| 
        CMPU AC0 == AC1, TC1 ; |350| 
        BCC $C$L38,TC1 ; |350| 
                                        ; branchcc occurs ; |350| 
$C$DW$L$_USB_config$31$E:
$C$L42:    
$C$DW$L$_USB_config$32$B:
	.dwpsn	file "src/csl_usb.c",line 338,column 61,is_stmt
        MOV dbl(*SP(#10)), AC0 ; |338| 
        ADD #1, AC0 ; |338| 
        MOV AC0, dbl(*SP(#10)) ; |338| 
	.dwpsn	file "src/csl_usb.c",line 338,column 24,is_stmt

        MOV #10, AC0 ; |338| 
||      MOV dbl(*SP(#10)), AC1 ; |338| 

        CMPU AC1 < AC0, TC1 ; |338| 
        BCC $C$L30,TC1 ; |338| 
                                        ; branchcc occurs ; |338| 
$C$DW$L$_USB_config$32$E:
$C$L43:    
	.dwpsn	file "src/csl_usb.c",line 409,column 4,is_stmt
        MOV #0, *SP(#6) ; |409| 
	.dwpsn	file "src/csl_usb.c",line 411,column 2,is_stmt
        B $C$L45  ; |411| 
                                        ; branch occurs ; |411| 
$C$L44:    
	.dwpsn	file "src/csl_usb.c",line 414,column 6,is_stmt
        MOV #-6, *SP(#6) ; |414| 
$C$L45:    
	.dwpsn	file "src/csl_usb.c",line 417,column 2,is_stmt
        MOV *SP(#6), T0 ; |417| 
$C$L46:    
	.dwpsn	file "src/csl_usb.c",line 418,column 1,is_stmt
        AADD #13, SP
	.dwcfi	cfa_offset, 1
$C$DW$81	.dwtag  DW_TAG_TI_branch
	.dwattr $C$DW$81, DW_AT_low_pc(0x00)
	.dwattr $C$DW$81, DW_AT_TI_return
        RET
                                        ; return occurs

$C$DW$82	.dwtag  DW_TAG_TI_loop
	.dwattr $C$DW$82, DW_AT_name("/home/santiago/dspfuzz/on_board/library/csl_usb.asm:$C$L30:1:1714639456")
	.dwattr $C$DW$82, DW_AT_TI_begin_file("src/csl_usb.c")
	.dwattr $C$DW$82, DW_AT_TI_begin_line(0x152)
	.dwattr $C$DW$82, DW_AT_TI_end_line(0x197)
$C$DW$83	.dwtag  DW_TAG_TI_loop_range
	.dwattr $C$DW$83, DW_AT_low_pc($C$DW$L$_USB_config$9$B)
	.dwattr $C$DW$83, DW_AT_high_pc($C$DW$L$_USB_config$9$E)
$C$DW$84	.dwtag  DW_TAG_TI_loop_range
	.dwattr $C$DW$84, DW_AT_low_pc($C$DW$L$_USB_config$21$B)
	.dwattr $C$DW$84, DW_AT_high_pc($C$DW$L$_USB_config$21$E)
$C$DW$85	.dwtag  DW_TAG_TI_loop_range
	.dwattr $C$DW$85, DW_AT_low_pc($C$DW$L$_USB_config$30$B)
	.dwattr $C$DW$85, DW_AT_high_pc($C$DW$L$_USB_config$30$E)
$C$DW$86	.dwtag  DW_TAG_TI_loop_range
	.dwattr $C$DW$86, DW_AT_low_pc($C$DW$L$_USB_config$18$B)
	.dwattr $C$DW$86, DW_AT_high_pc($C$DW$L$_USB_config$18$E)
$C$DW$87	.dwtag  DW_TAG_TI_loop_range
	.dwattr $C$DW$87, DW_AT_low_pc($C$DW$L$_USB_config$15$B)
	.dwattr $C$DW$87, DW_AT_high_pc($C$DW$L$_USB_config$15$E)
$C$DW$88	.dwtag  DW_TAG_TI_loop_range
	.dwattr $C$DW$88, DW_AT_low_pc($C$DW$L$_USB_config$28$B)
	.dwattr $C$DW$88, DW_AT_high_pc($C$DW$L$_USB_config$28$E)
$C$DW$89	.dwtag  DW_TAG_TI_loop_range
	.dwattr $C$DW$89, DW_AT_low_pc($C$DW$L$_USB_config$12$B)
	.dwattr $C$DW$89, DW_AT_high_pc($C$DW$L$_USB_config$12$E)
$C$DW$90	.dwtag  DW_TAG_TI_loop_range
	.dwattr $C$DW$90, DW_AT_low_pc($C$DW$L$_USB_config$25$B)
	.dwattr $C$DW$90, DW_AT_high_pc($C$DW$L$_USB_config$25$E)
$C$DW$91	.dwtag  DW_TAG_TI_loop_range
	.dwattr $C$DW$91, DW_AT_low_pc($C$DW$L$_USB_config$26$B)
	.dwattr $C$DW$91, DW_AT_high_pc($C$DW$L$_USB_config$26$E)
$C$DW$92	.dwtag  DW_TAG_TI_loop_range
	.dwattr $C$DW$92, DW_AT_low_pc($C$DW$L$_USB_config$27$B)
	.dwattr $C$DW$92, DW_AT_high_pc($C$DW$L$_USB_config$27$E)
$C$DW$93	.dwtag  DW_TAG_TI_loop_range
	.dwattr $C$DW$93, DW_AT_low_pc($C$DW$L$_USB_config$11$B)
	.dwattr $C$DW$93, DW_AT_high_pc($C$DW$L$_USB_config$11$E)
$C$DW$94	.dwtag  DW_TAG_TI_loop_range
	.dwattr $C$DW$94, DW_AT_low_pc($C$DW$L$_USB_config$13$B)
	.dwattr $C$DW$94, DW_AT_high_pc($C$DW$L$_USB_config$13$E)
$C$DW$95	.dwtag  DW_TAG_TI_loop_range
	.dwattr $C$DW$95, DW_AT_low_pc($C$DW$L$_USB_config$14$B)
	.dwattr $C$DW$95, DW_AT_high_pc($C$DW$L$_USB_config$14$E)
$C$DW$96	.dwtag  DW_TAG_TI_loop_range
	.dwattr $C$DW$96, DW_AT_low_pc($C$DW$L$_USB_config$16$B)
	.dwattr $C$DW$96, DW_AT_high_pc($C$DW$L$_USB_config$16$E)
$C$DW$97	.dwtag  DW_TAG_TI_loop_range
	.dwattr $C$DW$97, DW_AT_low_pc($C$DW$L$_USB_config$17$B)
	.dwattr $C$DW$97, DW_AT_high_pc($C$DW$L$_USB_config$17$E)
$C$DW$98	.dwtag  DW_TAG_TI_loop_range
	.dwattr $C$DW$98, DW_AT_low_pc($C$DW$L$_USB_config$19$B)
	.dwattr $C$DW$98, DW_AT_high_pc($C$DW$L$_USB_config$19$E)
$C$DW$99	.dwtag  DW_TAG_TI_loop_range
	.dwattr $C$DW$99, DW_AT_low_pc($C$DW$L$_USB_config$20$B)
	.dwattr $C$DW$99, DW_AT_high_pc($C$DW$L$_USB_config$20$E)
$C$DW$100	.dwtag  DW_TAG_TI_loop_range
	.dwattr $C$DW$100, DW_AT_low_pc($C$DW$L$_USB_config$22$B)
	.dwattr $C$DW$100, DW_AT_high_pc($C$DW$L$_USB_config$22$E)
$C$DW$101	.dwtag  DW_TAG_TI_loop_range
	.dwattr $C$DW$101, DW_AT_low_pc($C$DW$L$_USB_config$23$B)
	.dwattr $C$DW$101, DW_AT_high_pc($C$DW$L$_USB_config$23$E)
$C$DW$102	.dwtag  DW_TAG_TI_loop_range
	.dwattr $C$DW$102, DW_AT_low_pc($C$DW$L$_USB_config$29$B)
	.dwattr $C$DW$102, DW_AT_high_pc($C$DW$L$_USB_config$29$E)
$C$DW$103	.dwtag  DW_TAG_TI_loop_range
	.dwattr $C$DW$103, DW_AT_low_pc($C$DW$L$_USB_config$31$B)
	.dwattr $C$DW$103, DW_AT_high_pc($C$DW$L$_USB_config$31$E)
$C$DW$104	.dwtag  DW_TAG_TI_loop_range
	.dwattr $C$DW$104, DW_AT_low_pc($C$DW$L$_USB_config$32$B)
	.dwattr $C$DW$104, DW_AT_high_pc($C$DW$L$_USB_config$32$E)
	.dwendtag $C$DW$82

	.dwattr $C$DW$71, DW_AT_TI_end_file("src/csl_usb.c")
	.dwattr $C$DW$71, DW_AT_TI_end_line(0x1a2)
	.dwattr $C$DW$71, DW_AT_TI_end_column(0x01)
	.dwendentry
	.dwendtag $C$DW$71

	.sect	".text"
	.global	_USB_requestEndpt

$C$DW$105	.dwtag  DW_TAG_subprogram, DW_AT_name("USB_requestEndpt")
	.dwattr $C$DW$105, DW_AT_low_pc(_USB_requestEndpt)
	.dwattr $C$DW$105, DW_AT_high_pc(0x00)
	.dwattr $C$DW$105, DW_AT_TI_symbol_name("_USB_requestEndpt")
	.dwattr $C$DW$105, DW_AT_external
	.dwattr $C$DW$105, DW_AT_type(*$C$DW$T$102)
	.dwattr $C$DW$105, DW_AT_TI_begin_file("src/csl_usb.c")
	.dwattr $C$DW$105, DW_AT_TI_begin_line(0x1d1)
	.dwattr $C$DW$105, DW_AT_TI_begin_column(0x11)
	.dwattr $C$DW$105, DW_AT_TI_max_frame_size(0x08)
	.dwpsn	file "src/csl_usb.c",line 468,column 1,is_stmt,address _USB_requestEndpt

	.dwfde $C$DW$CIE, _USB_requestEndpt
$C$DW$106	.dwtag  DW_TAG_formal_parameter, DW_AT_name("hUsbDev")
	.dwattr $C$DW$106, DW_AT_TI_symbol_name("_hUsbDev")
	.dwattr $C$DW$106, DW_AT_type(*$C$DW$T$126)
	.dwattr $C$DW$106, DW_AT_location[DW_OP_reg17]
$C$DW$107	.dwtag  DW_TAG_formal_parameter, DW_AT_name("epNum")
	.dwattr $C$DW$107, DW_AT_TI_symbol_name("_epNum")
	.dwattr $C$DW$107, DW_AT_type(*$C$DW$T$106)
	.dwattr $C$DW$107, DW_AT_location[DW_OP_reg12]
$C$DW$108	.dwtag  DW_TAG_formal_parameter, DW_AT_name("status")
	.dwattr $C$DW$108, DW_AT_TI_symbol_name("_status")
	.dwattr $C$DW$108, DW_AT_type(*$C$DW$T$121)
	.dwattr $C$DW$108, DW_AT_location[DW_OP_reg19]
;*******************************************************************************
;* FUNCTION NAME: USB_requestEndpt                                             *
;*                                                                             *
;*   Function Uses Regs : AC0,AC0,T0,AR0,XAR0,AR1,XAR1,AR2,XAR2,AR3,XAR3,SP,   *
;*                        TC1,M40,SATA,SATD,RDM,FRCT,SMUL                      *
;*   Stack Frame        : Compact (No Frame Pointer, w/ debug)                 *
;*   Total Frame Size   : 8 words                                              *
;*                        (2 return address/alignment)                         *
;*                        (6 local values)                                     *
;*   Min System Stack   : 1 word                                               *
;*******************************************************************************
_USB_requestEndpt:
	.dwcfi	cfa_offset, 1
	.dwcfi	save_reg_to_mem, 91, -1
        AADD #-7, SP
	.dwcfi	cfa_offset, 8
$C$DW$109	.dwtag  DW_TAG_variable, DW_AT_name("hUsbDev")
	.dwattr $C$DW$109, DW_AT_TI_symbol_name("_hUsbDev")
	.dwattr $C$DW$109, DW_AT_type(*$C$DW$T$126)
	.dwattr $C$DW$109, DW_AT_location[DW_OP_bregx 0x24 0]
$C$DW$110	.dwtag  DW_TAG_variable, DW_AT_name("epNum")
	.dwattr $C$DW$110, DW_AT_TI_symbol_name("_epNum")
	.dwattr $C$DW$110, DW_AT_type(*$C$DW$T$106)
	.dwattr $C$DW$110, DW_AT_location[DW_OP_bregx 0x24 2]
$C$DW$111	.dwtag  DW_TAG_variable, DW_AT_name("status")
	.dwattr $C$DW$111, DW_AT_TI_symbol_name("_status")
	.dwattr $C$DW$111, DW_AT_type(*$C$DW$T$121)
	.dwattr $C$DW$111, DW_AT_location[DW_OP_bregx 0x24 4]
        MOV XAR1, dbl(*SP(#4))
        MOV T0, *SP(#2) ; |468| 
        MOV XAR0, dbl(*SP(#0))
	.dwpsn	file "src/csl_usb.c",line 469,column 2,is_stmt
        MOV dbl(*SP(#0)), XAR3
        MOV XAR3, AC0
        BCC $C$L48,AC0 == #0 ; |469| 
                                        ; branchcc occurs ; |469| 
	.dwpsn	file "src/csl_usb.c",line 471,column 6,is_stmt
        MOV *AR3, AR1 ; |471| 
        BCC $C$L48,AR1 != #0 ; |471| 
                                        ; branchcc occurs ; |471| 
	.dwpsn	file "src/csl_usb.c",line 473,column 7,is_stmt
        MPYMK *SP(#2), #34, AC0 ; |473| 
        MOV AC0, T0 ; |473| 
        AMOV #(_gEpObj+11), XAR3 ; |473| 
        CMP *AR3(T0) == #1, TC1 ; |473| 
        BCC $C$L47,TC1 ; |473| 
                                        ; branchcc occurs ; |473| 
	.dwpsn	file "src/csl_usb.c",line 475,column 5,is_stmt
        MPYMK *SP(#2), #34, AC0 ; |475| 
        MOV AC0, T0 ; |475| 
        MOV *SP(#2), AR1 ; |475| 
        AMOV #_gEpObj, XAR3 ; |475| 
        MOV AR1, *AR3(T0) ; |475| 
	.dwpsn	file "src/csl_usb.c",line 476,column 5,is_stmt
        MPYMK *SP(#2), #34, AC0 ; |476| 
        MOV AC0, T0 ; |476| 
        AMOV #(_gEpObj+11), XAR3 ; |476| 
        MOV #1, *AR3(T0) ; |476| 
	.dwpsn	file "src/csl_usb.c",line 477,column 5,is_stmt
        MPYMK *SP(#2), #34, AC0 ; |477| 
        MOV AC0, T0 ; |477| 
        MOV dbl(*SP(#0)), XAR2
        AMOV #(_gEpObj+32), XAR3 ; |477| 
        MOV XAR2, dbl(*AR3(T0))
	.dwpsn	file "src/csl_usb.c",line 478,column 5,is_stmt
        MOV dbl(*SP(#4)), XAR3
        MOV #0, *AR3 ; |478| 
	.dwpsn	file "src/csl_usb.c",line 480,column 5,is_stmt
        MPYMK *SP(#2), #34, AC0 ; |480| 
        MOV AC0, AR1 ; |480| 
        AMOV #_gEpObj, XAR0 ; |480| 
        AADD AR1, AR0 ; |480| 
        B $C$L49  ; |480| 
                                        ; branch occurs ; |480| 
$C$L47:    
	.dwpsn	file "src/csl_usb.c",line 484,column 8,is_stmt
        MOV dbl(*SP(#4)), XAR3
        MOV #-2, *AR3 ; |484| 
	.dwpsn	file "src/csl_usb.c",line 485,column 5,is_stmt
        MPYMK *SP(#2), #34, AC0 ; |485| 
        MOV AC0, AR1 ; |485| 
        AMOV #_gEpObj, XAR0 ; |485| 
        AADD AR1, AR0 ; |485| 
        B $C$L49  ; |485| 
                                        ; branch occurs ; |485| 
$C$L48:    
	.dwpsn	file "src/csl_usb.c",line 490,column 2,is_stmt
        MOV dbl(*SP(#4)), XAR3
        MOV #-6, *AR3 ; |490| 
	.dwpsn	file "src/csl_usb.c",line 492,column 2,is_stmt
        AMOV #0, XAR0 ; |492| 
$C$L49:    
	.dwpsn	file "src/csl_usb.c",line 493,column 1,is_stmt
        AADD #7, SP
	.dwcfi	cfa_offset, 1
$C$DW$112	.dwtag  DW_TAG_TI_branch
	.dwattr $C$DW$112, DW_AT_low_pc(0x00)
	.dwattr $C$DW$112, DW_AT_TI_return
        RET
                                        ; return occurs
	.dwattr $C$DW$105, DW_AT_TI_end_file("src/csl_usb.c")
	.dwattr $C$DW$105, DW_AT_TI_end_line(0x1ed)
	.dwattr $C$DW$105, DW_AT_TI_end_column(0x01)
	.dwendentry
	.dwendtag $C$DW$105

	.sect	".text"
	.global	_USB_releaseEndpt

$C$DW$113	.dwtag  DW_TAG_subprogram, DW_AT_name("USB_releaseEndpt")
	.dwattr $C$DW$113, DW_AT_low_pc(_USB_releaseEndpt)
	.dwattr $C$DW$113, DW_AT_high_pc(0x00)
	.dwattr $C$DW$113, DW_AT_TI_symbol_name("_USB_releaseEndpt")
	.dwattr $C$DW$113, DW_AT_external
	.dwattr $C$DW$113, DW_AT_type(*$C$DW$T$76)
	.dwattr $C$DW$113, DW_AT_TI_begin_file("src/csl_usb.c")
	.dwattr $C$DW$113, DW_AT_TI_begin_line(0x21b)
	.dwattr $C$DW$113, DW_AT_TI_begin_column(0x0c)
	.dwattr $C$DW$113, DW_AT_TI_max_frame_size(0x04)
	.dwpsn	file "src/csl_usb.c",line 540,column 1,is_stmt,address _USB_releaseEndpt

	.dwfde $C$DW$CIE, _USB_releaseEndpt
$C$DW$114	.dwtag  DW_TAG_formal_parameter, DW_AT_name("hEp")
	.dwattr $C$DW$114, DW_AT_TI_symbol_name("_hEp")
	.dwattr $C$DW$114, DW_AT_type(*$C$DW$T$102)
	.dwattr $C$DW$114, DW_AT_location[DW_OP_reg17]
;*******************************************************************************
;* FUNCTION NAME: USB_releaseEndpt                                             *
;*                                                                             *
;*   Function Uses Regs : AC0,AC0,T0,AR0,XAR0,AR1,AR3,XAR3,SP,M40,SATA,SATD,   *
;*                        RDM,FRCT,SMUL                                        *
;*   Stack Frame        : Compact (No Frame Pointer, w/ debug)                 *
;*   Total Frame Size   : 4 words                                              *
;*                        (1 return address/alignment)                         *
;*                        (3 local values)                                     *
;*   Min System Stack   : 1 word                                               *
;*******************************************************************************
_USB_releaseEndpt:
	.dwcfi	cfa_offset, 1
	.dwcfi	save_reg_to_mem, 91, -1
        AADD #-3, SP
	.dwcfi	cfa_offset, 4
$C$DW$115	.dwtag  DW_TAG_variable, DW_AT_name("hEp")
	.dwattr $C$DW$115, DW_AT_TI_symbol_name("_hEp")
	.dwattr $C$DW$115, DW_AT_type(*$C$DW$T$102)
	.dwattr $C$DW$115, DW_AT_location[DW_OP_bregx 0x24 0]
$C$DW$116	.dwtag  DW_TAG_variable, DW_AT_name("status")
	.dwattr $C$DW$116, DW_AT_TI_symbol_name("_status")
	.dwattr $C$DW$116, DW_AT_type(*$C$DW$T$76)
	.dwattr $C$DW$116, DW_AT_location[DW_OP_bregx 0x24 2]
        MOV XAR0, dbl(*SP(#0))
	.dwpsn	file "src/csl_usb.c",line 543,column 2,is_stmt
        MOV #-6, *SP(#2) ; |543| 
	.dwpsn	file "src/csl_usb.c",line 545,column 5,is_stmt
        MOV dbl(*SP(#0)), XAR3
        MOV XAR3, AC0
        BCC $C$L51,AC0 == #0 ; |545| 
                                        ; branchcc occurs ; |545| 
	.dwpsn	file "src/csl_usb.c",line 547,column 9,is_stmt
        MOV *AR3(#11), AR1 ; |547| 
        BCC $C$L50,AR1 == #0 ; |547| 
                                        ; branchcc occurs ; |547| 
	.dwpsn	file "src/csl_usb.c",line 549,column 13,is_stmt
        MOV #0, *AR3(#11) ; |549| 
$C$L50:    
	.dwpsn	file "src/csl_usb.c",line 552,column 3,is_stmt
        MOV #0, *SP(#2) ; |552| 
$C$L51:    
	.dwpsn	file "src/csl_usb.c",line 555,column 2,is_stmt
        MOV *SP(#2), T0 ; |555| 
	.dwpsn	file "src/csl_usb.c",line 556,column 1,is_stmt
        AADD #3, SP
	.dwcfi	cfa_offset, 1
$C$DW$117	.dwtag  DW_TAG_TI_branch
	.dwattr $C$DW$117, DW_AT_low_pc(0x00)
	.dwattr $C$DW$117, DW_AT_TI_return
        RET
                                        ; return occurs
	.dwattr $C$DW$113, DW_AT_TI_end_file("src/csl_usb.c")
	.dwattr $C$DW$113, DW_AT_TI_end_line(0x22c)
	.dwattr $C$DW$113, DW_AT_TI_end_column(0x01)
	.dwendentry
	.dwendtag $C$DW$113

	.sect	".text"
	.global	_USB_configEndpt

$C$DW$118	.dwtag  DW_TAG_subprogram, DW_AT_name("USB_configEndpt")
	.dwattr $C$DW$118, DW_AT_low_pc(_USB_configEndpt)
	.dwattr $C$DW$118, DW_AT_high_pc(0x00)
	.dwattr $C$DW$118, DW_AT_TI_symbol_name("_USB_configEndpt")
	.dwattr $C$DW$118, DW_AT_external
	.dwattr $C$DW$118, DW_AT_type(*$C$DW$T$76)
	.dwattr $C$DW$118, DW_AT_TI_begin_file("src/csl_usb.c")
	.dwattr $C$DW$118, DW_AT_TI_begin_line(0x25c)
	.dwattr $C$DW$118, DW_AT_TI_begin_column(0x0c)
	.dwattr $C$DW$118, DW_AT_TI_max_frame_size(0x10)
	.dwpsn	file "src/csl_usb.c",line 606,column 1,is_stmt,address _USB_configEndpt

	.dwfde $C$DW$CIE, _USB_configEndpt
$C$DW$119	.dwtag  DW_TAG_formal_parameter, DW_AT_name("hEp")
	.dwattr $C$DW$119, DW_AT_TI_symbol_name("_hEp")
	.dwattr $C$DW$119, DW_AT_type(*$C$DW$T$102)
	.dwattr $C$DW$119, DW_AT_location[DW_OP_reg17]
$C$DW$120	.dwtag  DW_TAG_formal_parameter, DW_AT_name("epCfg")
	.dwattr $C$DW$120, DW_AT_TI_symbol_name("_epCfg")
	.dwattr $C$DW$120, DW_AT_type(*$C$DW$T$143)
	.dwattr $C$DW$120, DW_AT_location[DW_OP_reg19]
;*******************************************************************************
;* FUNCTION NAME: USB_configEndpt                                              *
;*                                                                             *
;*   Function Uses Regs : AC0,AC0,AC1,AC1,T0,T1,AR0,XAR0,AR1,XAR1,AR2,XAR2,AR3,*
;*                        XAR3,SP,CARRY,TC1,M40,SATA,SATD,RDM,FRCT,SMUL        *
;*   Stack Frame        : Compact (No Frame Pointer, w/ debug)                 *
;*   Total Frame Size   : 16 words                                             *
;*                        (2 return address/alignment)                         *
;*                        (14 local values)                                    *
;*   Min System Stack   : 1 word                                               *
;*******************************************************************************
_USB_configEndpt:
	.dwcfi	cfa_offset, 1
	.dwcfi	save_reg_to_mem, 91, -1
        AADD #-15, SP
	.dwcfi	cfa_offset, 16
$C$DW$121	.dwtag  DW_TAG_variable, DW_AT_name("hEp")
	.dwattr $C$DW$121, DW_AT_TI_symbol_name("_hEp")
	.dwattr $C$DW$121, DW_AT_type(*$C$DW$T$102)
	.dwattr $C$DW$121, DW_AT_location[DW_OP_bregx 0x24 0]
$C$DW$122	.dwtag  DW_TAG_variable, DW_AT_name("epCfg")
	.dwattr $C$DW$122, DW_AT_TI_symbol_name("_epCfg")
	.dwattr $C$DW$122, DW_AT_type(*$C$DW$T$143)
	.dwattr $C$DW$122, DW_AT_location[DW_OP_bregx 0x24 2]
$C$DW$123	.dwtag  DW_TAG_variable, DW_AT_name("peps")
	.dwattr $C$DW$123, DW_AT_TI_symbol_name("_peps")
	.dwattr $C$DW$123, DW_AT_type(*$C$DW$T$150)
	.dwattr $C$DW$123, DW_AT_location[DW_OP_bregx 0x24 4]
$C$DW$124	.dwtag  DW_TAG_variable, DW_AT_name("status")
	.dwattr $C$DW$124, DW_AT_TI_symbol_name("_status")
	.dwattr $C$DW$124, DW_AT_type(*$C$DW$T$76)
	.dwattr $C$DW$124, DW_AT_location[DW_OP_bregx 0x24 6]
$C$DW$125	.dwtag  DW_TAG_variable, DW_AT_name("pContext")
	.dwattr $C$DW$125, DW_AT_TI_symbol_name("_pContext")
	.dwattr $C$DW$125, DW_AT_type(*$C$DW$T$126)
	.dwattr $C$DW$125, DW_AT_location[DW_OP_bregx 0x24 8]
$C$DW$126	.dwtag  DW_TAG_variable, DW_AT_name("fifoSize")
	.dwattr $C$DW$126, DW_AT_TI_symbol_name("_fifoSize")
	.dwattr $C$DW$126, DW_AT_type(*$C$DW$T$19)
	.dwattr $C$DW$126, DW_AT_location[DW_OP_bregx 0x24 10]
$C$DW$127	.dwtag  DW_TAG_variable, DW_AT_name("saveIndex")
	.dwattr $C$DW$127, DW_AT_TI_symbol_name("_saveIndex")
	.dwattr $C$DW$127, DW_AT_type(*$C$DW$T$19)
	.dwattr $C$DW$127, DW_AT_location[DW_OP_bregx 0x24 11]
$C$DW$128	.dwtag  DW_TAG_variable, DW_AT_name("dwEndpoint")
	.dwattr $C$DW$128, DW_AT_TI_symbol_name("_dwEndpoint")
	.dwattr $C$DW$128, DW_AT_type(*$C$DW$T$85)
	.dwattr $C$DW$128, DW_AT_location[DW_OP_bregx 0x24 12]
        MOV XAR1, dbl(*SP(#2))
        MOV XAR0, dbl(*SP(#0))
	.dwpsn	file "src/csl_usb.c",line 614,column 2,is_stmt
        MOV dbl(*SP(#0)), XAR3
        MOV dbl(*AR3(#32)), XAR3
        MOV XAR3, dbl(*SP(#8))
	.dwpsn	file "src/csl_usb.c",line 615,column 2,is_stmt
        MOV #0, AC0 ; |615| 
        MOV AC0, dbl(*SP(#4))
	.dwpsn	file "src/csl_usb.c",line 616,column 2,is_stmt
        MOV #0, *SP(#6) ; |616| 
	.dwpsn	file "src/csl_usb.c",line 618,column 2,is_stmt
        MOV dbl(*SP(#0)), XAR3
        MOV XAR3, AC0
        BCC $C$L71,AC0 == #0 ; |618| 
                                        ; branchcc occurs ; |618| 
        MOV dbl(*SP(#2)), XAR3
        MOV XAR3, AC0
        BCC $C$L71,AC0 == #0 ; |618| 
                                        ; branchcc occurs ; |618| 
	.dwpsn	file "src/csl_usb.c",line 620,column 3,is_stmt
        MOV dbl(*SP(#0)), XAR3
        MOV *AR3, AR1 ; |620| 

        MOV AR1, AC0
||      MOV #7, AR2

        SFTS AC0, #-2, AC0 ; |620| 
||      NOT AR2, AR2 ; |620| 

        BFXTR #0xe000, AC0, AR3 ; |620| 
        ADD AR1, AR3 ; |620| 
        AND AR3, AR2 ; |620| 
        SUB AR2, AR1 ; |620| 
        MOV AR1, AC0
        MOV AC0, dbl(*SP(#12)) ; |620| 
	.dwpsn	file "src/csl_usb.c",line 622,column 3,is_stmt
        B $C$L70  ; |622| 
                                        ; branch occurs ; |622| 
$C$L52:    
	.dwpsn	file "src/csl_usb.c",line 626,column 5,is_stmt
        MOV dbl(*SP(#2)), XAR3
        MOV *AR3(short(#2)), AR1 ; |626| 
        MOV dbl(*SP(#0)), XAR3
        MOV AR1, *AR3(short(#4)) ; |626| 
	.dwpsn	file "src/csl_usb.c",line 627,column 5,is_stmt
        MOV dbl(*SP(#2)), XAR3
        MOV *AR3(short(#3)), AR1 ; |627| 
        MOV dbl(*SP(#0)), XAR3
        MOV AR1, *AR3(short(#5)) ; |627| 
	.dwpsn	file "src/csl_usb.c",line 628,column 5,is_stmt
        MOV dbl(*SP(#2)), XAR3
        MOV *AR3(short(#4)), AR1 ; |628| 
        MOV dbl(*SP(#0)), XAR3
        MOV AR1, *AR3(short(#6)) ; |628| 
	.dwpsn	file "src/csl_usb.c",line 629,column 5,is_stmt
        MOV dbl(*SP(#0)), XAR2
        MOV dbl(*SP(#2)), XAR3

        AADD #8, AR3 ; |629| 
||      AADD #8, AR2 ; |629| 

        MOV dbl(*AR3), dbl(*AR2) ; |629| 
	.dwpsn	file "src/csl_usb.c",line 633,column 5,is_stmt
        MOV dbl(*SP(#0)), XAR3
        MOV dbl(*SP(#8)), XAR0
        MOV *AR3(short(#5)), T0 ; |633| 
        MOV *AR3(short(#4)), T1 ; |633| 
$C$DW$129	.dwtag  DW_TAG_TI_branch
	.dwattr $C$DW$129, DW_AT_low_pc(0x00)
	.dwattr $C$DW$129, DW_AT_name("_USB_findFifoSize")
	.dwattr $C$DW$129, DW_AT_TI_call
        CALL #_USB_findFifoSize ; |633| 
                                        ; call occurs [#_USB_findFifoSize] ; |633| 
        MOV T0, *SP(#10) ; |633| 
	.dwpsn	file "src/csl_usb.c",line 635,column 5,is_stmt
        MOV T0, AR1
        BCC $C$L53,AR1 != #0 ; |635| 
                                        ; branchcc occurs ; |635| 
	.dwpsn	file "src/csl_usb.c",line 636,column 6,is_stmt
        MOV #-6, T0
        B $C$L73  ; |636| 
                                        ; branch occurs ; |636| 
$C$L53:    
	.dwpsn	file "src/csl_usb.c",line 638,column 5,is_stmt
        MOV dbl(*SP(#0)), XAR3
        MOV *AR3, AR1 ; |638| 

        MOV AR1, AC0
||      MOV #7, AR2

        SFTS AC0, #-2, AC0 ; |638| 
||      NOT AR2, AR2 ; |638| 

        BFXTR #0xe000, AC0, AR3 ; |638| 
        ADD AR1, AR3 ; |638| 
        AND AR3, AR2 ; |638| 
        MOV dbl(*SP(#8)), XAR3
        MOV AR1, HI(AC0)
        MOV HI(AC0), AR1
        MOV dbl(*AR3(#90)), XAR3
        SUB AR2, AR1 ; |638| 
        MOV AR1, HI(AC0)
        MPYK #18, AC0, AC0 ; |638| 
        MOV AC0, AR1 ; |638| 

        MOV XAR3, dbl(*SP(#4))
||      AADD AR1, AR3 ; |638| 

	.dwpsn	file "src/csl_usb.c",line 640,column 5,is_stmt
        MOV XAR3, AC0
        BCC $C$L54,AC0 == #0 ; |640| 
                                        ; branchcc occurs ; |640| 
	.dwpsn	file "src/csl_usb.c",line 642,column 6,is_stmt
        MOV dbl(*SP(#0)), XAR3
        MOV dbl(*SP(#4)), XAR2

        AADD #14, AR2 ; |642| 
||      AADD #8, AR3 ; |642| 

        MOV dbl(*AR3), dbl(*AR2) ; |642| 
	.dwpsn	file "src/csl_usb.c",line 643,column 6,is_stmt
        MOV dbl(*SP(#0)), XAR3
        MOV *AR3(short(#4)), AR1 ; |643| 
        MOV dbl(*SP(#4)), XAR3
        MOV AR1, *AR3(short(#2)) ; |643| 
	.dwpsn	file "src/csl_usb.c",line 644,column 6,is_stmt
        MOV dbl(*SP(#4)), XAR3
        MOV #0, *AR3(#13) ; |644| 
$C$L54:    
	.dwpsn	file "src/csl_usb.c",line 647,column 5,is_stmt
        MOV dbl(*SP(#12)), AC0 ; |647| 
        BCC $C$L55,AC0 != #0 ; |647| 
                                        ; branchcc occurs ; |647| 
	.dwpsn	file "src/csl_usb.c",line 649,column 6,is_stmt
        MOV *SP(#6), T0 ; |649| 
        B $C$L73  ; |649| 
                                        ; branch occurs ; |649| 
$C$L55:    
	.dwpsn	file "src/csl_usb.c",line 653,column 5,is_stmt
        MOV #1038, T0 ; |653| 
        MOV *(#_usbRegisters), AR3 ; |653| 
        MOV port(*AR3(T0)), AR1 ; |653| 
        MOV AR1, *SP(#11) ; |653| 
	.dwpsn	file "src/csl_usb.c",line 655,column 5,is_stmt
        MOV port(*AR3(T0)), AR1 ; |655| 
        AND #0xfff0, AR1, AC0 ; |655| 
        MOV AC0, port(*AR3(T0)) ; |655| 
	.dwpsn	file "src/csl_usb.c",line 659,column 5,is_stmt
        MOV *(#_usbRegisters), AR3 ; |659| 
        MOV dbl(*SP(#12)), AC0 ; |659| 
        AND #0x000f, AC0, AC0 ; |659| 
        MOV port(*AR3(T0)), AR1 ; |659| 
        AND #0xfff0, AR1, AC1 ; |659| 
        OR AC1, AC0 ; |659| 
        MOV AC0, port(*AR3(T0)) ; |659| 
	.dwpsn	file "src/csl_usb.c",line 662,column 5,is_stmt
        B $C$L67  ; |662| 
                                        ; branch occurs ; |662| 
$C$L56:    
	.dwpsn	file "src/csl_usb.c",line 669,column 7,is_stmt
        MOV #1122, T0 ; |669| 
        MOV *(#_usbRegisters), AR3 ; |669| 
        MOV port(*AR3(T0)), AR1 ; |669| 
        AND #0xfff0, AR1, AC0 ; |669| 
        MOV AC0, port(*AR3(T0)) ; |669| 
	.dwpsn	file "src/csl_usb.c",line 673,column 7,is_stmt
        MOV *(#_usbRegisters), AR3 ; |673| 
        MOV port(*AR3(T0)), AR1 ; |673| 
        AND #0xfff0, AR1, AR2 ; |673| 
        MOV *SP(#10), AR1 ; |673| 
        AND #0x000f, AR1, AR1 ; |673| 
        OR AR2, AR1 ; |673| 
        MOV AR1, port(*AR3(T0)) ; |673| 
	.dwpsn	file "src/csl_usb.c",line 676,column 7,is_stmt
        MOV *(#_usbRegisters), AR3 ; |676| 
        MOV port(*AR3(T0)), AR1 ; |676| 
        BCLR @#4, AR1 ; |676| 
        MOV AR1, port(*AR3(T0)) ; |676| 
	.dwpsn	file "src/csl_usb.c",line 680,column 7,is_stmt
        MOV dbl(*SP(#8)), XAR3

        MOV *SP(#10), T1 ; |680| 
||      MOV #1, AC0

        SFTS AC0, T1, AC0 ; |680| 
||      MOV #512, AR2 ; |680| 

        ADD *AR3(#108), AC0, AR1 ; |680| 
        CMPU AR1 > AR2, TC1 ; |680| 
        BCC $C$L57,TC1 ; |680| 
                                        ; branchcc occurs ; |680| 
	.dwpsn	file "src/csl_usb.c",line 683,column 7,is_stmt
        MOV #1125, T0 ; |683| 
        MOV *(#_usbRegisters), AR3 ; |683| 
        MOV port(*AR3(T0)), AR1 ; |683| 
        MOV dbl(*SP(#8)), XAR3
        AND #0xe000, AR1, AR2 ; |683| 
        MOV *AR3(#108), AR1 ; |683| 
        MOV *(#_usbRegisters), AR3 ; |683| 
        AND #0x1fff, AR1, AR1 ; |683| 
        OR AR2, AR1 ; |683| 
        MOV AR1, port(*AR3(T0)) ; |683| 
	.dwpsn	file "src/csl_usb.c",line 686,column 7,is_stmt
        MOV dbl(*SP(#8)), XAR3

        MOV *SP(#10), T1 ; |686| 
||      MOV #1, AC0

        SFTS AC0, T1, AC0 ; |686| 
        ADD *AR3(#108), AC0, AR1 ; |686| 
        MOV AR1, *AR3(#108) ; |686| 
	.dwpsn	file "src/csl_usb.c",line 687,column 7,is_stmt
        B $C$L58  ; |687| 
                                        ; branch occurs ; |687| 
$C$L57:    
	.dwpsn	file "src/csl_usb.c",line 690,column 8,is_stmt
        MOV #-6, T0
        B $C$L73  ; |690| 
                                        ; branch occurs ; |690| 
$C$L58:    
	.dwpsn	file "src/csl_usb.c",line 694,column 7,is_stmt
        MOV #1041, T0 ; |694| 
        MOV *(#_usbRegisters), AR3 ; |694| 
        MOV port(*AR3(T0)), AR1 ; |694| 
        MOV dbl(*SP(#0)), XAR3
        AND #0xf800, AR1, AR2 ; |694| 
        MOV *AR3(short(#5)), AR1 ; |694| 
        MOV *(#_usbRegisters), AR3 ; |694| 
        AND #0x07ff, AR1, AR1 ; |694| 
        OR AR2, AR1 ; |694| 
        MOV AR1, port(*AR3(T0)) ; |694| 
	.dwpsn	file "src/csl_usb.c",line 699,column 7,is_stmt
        MOV #1042, T0 ; |699| 
        MOV *(#_usbRegisters), AR3 ; |699| 
        MOV port(*AR3(T0)), AR1 ; |699| 
        BCLR @#15, AR1 ; |699| 
        MOV AR1, port(*AR3(T0)) ; |699| 
	.dwpsn	file "src/csl_usb.c",line 702,column 7,is_stmt
        MOV *(#_usbRegisters), AR3 ; |702| 
        MOV port(*AR3(T0)), AR1 ; |702| 
        BCLR @#14, AR1 ; |702| 
        MOV AR1, port(*AR3(T0)) ; |702| 
	.dwpsn	file "src/csl_usb.c",line 705,column 7,is_stmt
        MOV *(#_usbRegisters), AR3 ; |705| 
        MOV port(*AR3(T0)), AR1 ; |705| 
        BCLR @#12, AR1 ; |705| 
        MOV AR1, port(*AR3(T0)) ; |705| 
	.dwpsn	file "src/csl_usb.c",line 708,column 7,is_stmt
        MOV *(#_usbRegisters), AR3 ; |708| 
        MOV port(*AR3(T0)), AR1 ; |708| 
        BCLR @#11, AR1 ; |708| 
        MOV AR1, port(*AR3(T0)) ; |708| 
	.dwpsn	file "src/csl_usb.c",line 712,column 7,is_stmt
        MOV dbl(*SP(#0)), XAR3
        CMP *AR3(short(#4)) == #3, TC1 ; |712| 
        BCC $C$L68,!TC1 ; |712| 
                                        ; branchcc occurs ; |712| 
	.dwpsn	file "src/csl_usb.c",line 714,column 8,is_stmt
        MOV dbl(*SP(#8)), XAR3

        MOV *SP(#10), T1 ; |714| 
||      MOV #1, AC0

        SFTS AC0, T1, AC0 ; |714| 
||      MOV #512, AR2 ; |714| 

        ADD *AR3(#108), AC0, AR1 ; |714| 
        CMPU AR1 > AR2, TC1 ; |714| 
        BCC $C$L59,TC1 ; |714| 
                                        ; branchcc occurs ; |714| 
	.dwpsn	file "src/csl_usb.c",line 717,column 9,is_stmt
        MOV #1, AC0
        SFTS AC0, T1, AC0 ; |717| 
        ADD *AR3(#108), AC0, AR1 ; |717| 
        MOV AR1, *AR3(#108) ; |717| 
	.dwpsn	file "src/csl_usb.c",line 718,column 8,is_stmt
        B $C$L60  ; |718| 
                                        ; branch occurs ; |718| 
$C$L59:    
	.dwpsn	file "src/csl_usb.c",line 721,column 9,is_stmt
        MOV #-6, T0
        B $C$L73  ; |721| 
                                        ; branch occurs ; |721| 
$C$L60:    
	.dwpsn	file "src/csl_usb.c",line 725,column 8,is_stmt
        MOV #1025, T0 ; |725| 
        MOV *(#_usbRegisters), AR3 ; |725| 
        MOV port(*AR3(T0)), AR1 ; |725| 
        BCLR @#15, AR1 ; |725| 
        BSET @#15, AR1 ; |725| 
        MOV AR1, port(*AR3(T0)) ; |725| 
	.dwpsn	file "src/csl_usb.c",line 729,column 8,is_stmt
        MOV #1042, T0 ; |729| 
        MOV *(#_usbRegisters), AR3 ; |729| 
        MOV port(*AR3(T0)), AR1 ; |729| 
        BCLR @#14, AR1 ; |729| 
        BSET @#14, AR1 ; |729| 
        MOV AR1, port(*AR3(T0)) ; |729| 
	.dwpsn	file "src/csl_usb.c",line 733,column 8,is_stmt
        MOV #1122, T0 ; |733| 
        MOV *(#_usbRegisters), AR3 ; |733| 
        MOV port(*AR3(T0)), AR1 ; |733| 
        BCLR @#4, AR1 ; |733| 
        BSET @#4, AR1 ; |733| 
        MOV AR1, port(*AR3(T0)) ; |733| 
	.dwpsn	file "src/csl_usb.c",line 736,column 12,is_stmt
        B $C$L68  ; |736| 
                                        ; branch occurs ; |736| 
$C$L61:    
	.dwpsn	file "src/csl_usb.c",line 744,column 7,is_stmt
        MOV #1122, T0 ; |744| 
        MOV *(#_usbRegisters), AR3 ; |744| 
        MOV port(*AR3(T0)), AR1 ; |744| 
        AND #0xf0ff, AR1, AC0 ; |744| 
        MOV AC0, port(*AR3(T0)) ; |744| 
	.dwpsn	file "src/csl_usb.c",line 748,column 7,is_stmt
        MOV *(#_usbRegisters), AR3 ; |748| 
        MOV *SP(#10), AC0 ; |748| 
        MOV port(*AR3(T0)), AR1 ; |748| 

        AND #0xf0ff, AR1, AR2 ; |748| 
||      SFTL AC0, #8, AC0 ; |748| 

        AND #0x0f00, AC0, AR1 ; |748| 
        OR AR2, AR1 ; |748| 
        MOV AR1, port(*AR3(T0)) ; |748| 
	.dwpsn	file "src/csl_usb.c",line 752,column 7,is_stmt
        MOV dbl(*SP(#8)), XAR3

        MOV #1, AC0
||      MOV *SP(#10), T1 ; |752| 

        SFTS AC0, T1, AC0 ; |752| 
||      MOV #512, AR2 ; |752| 

        ADD *AR3(#108), AC0, AR1 ; |752| 
        CMPU AR1 > AR2, TC1 ; |752| 
        BCC $C$L62,TC1 ; |752| 
                                        ; branchcc occurs ; |752| 
	.dwpsn	file "src/csl_usb.c",line 755,column 8,is_stmt
        MOV #1126, T0 ; |755| 
        MOV *(#_usbRegisters), AR3 ; |755| 
        MOV port(*AR3(T0)), AR1 ; |755| 
        MOV dbl(*SP(#8)), XAR3
        AND #0xe000, AR1, AR2 ; |755| 
        MOV *AR3(#108), AR1 ; |755| 
        MOV *(#_usbRegisters), AR3 ; |755| 
        AND #0x1fff, AR1, AR1 ; |755| 
        OR AR2, AR1 ; |755| 
        MOV AR1, port(*AR3(T0)) ; |755| 
	.dwpsn	file "src/csl_usb.c",line 758,column 8,is_stmt
        MOV dbl(*SP(#8)), XAR3

        MOV *SP(#10), T1 ; |758| 
||      MOV #1, AC0

        SFTS AC0, T1, AC0 ; |758| 
        ADD *AR3(#108), AC0, AR1 ; |758| 
        MOV AR1, *AR3(#108) ; |758| 
	.dwpsn	file "src/csl_usb.c",line 759,column 7,is_stmt
        B $C$L63  ; |759| 
                                        ; branch occurs ; |759| 
$C$L62:    
	.dwpsn	file "src/csl_usb.c",line 763,column 8,is_stmt
        MOV #-6, T0
        B $C$L73  ; |763| 
                                        ; branch occurs ; |763| 
$C$L63:    
	.dwpsn	file "src/csl_usb.c",line 767,column 7,is_stmt
        MOV #1045, T0 ; |767| 
        MOV *(#_usbRegisters), AR3 ; |767| 
        MOV port(*AR3(T0)), AR1 ; |767| 
        MOV dbl(*SP(#0)), XAR3
        AND #0xf800, AR1, AR2 ; |767| 
        MOV *AR3(short(#5)), AR1 ; |767| 
        MOV *(#_usbRegisters), AR3 ; |767| 
        AND #0x07ff, AR1, AR1 ; |767| 
        OR AR2, AR1 ; |767| 
        MOV AR1, port(*AR3(T0)) ; |767| 
	.dwpsn	file "src/csl_usb.c",line 772,column 7,is_stmt
        MOV #1046, T0 ; |772| 
        MOV *(#_usbRegisters), AR3 ; |772| 
        MOV port(*AR3(T0)), AR1 ; |772| 
        BCLR @#15, AR1 ; |772| 
        MOV AR1, port(*AR3(T0)) ; |772| 
	.dwpsn	file "src/csl_usb.c",line 775,column 7,is_stmt
        MOV *(#_usbRegisters), AR3 ; |775| 
        MOV port(*AR3(T0)), AR1 ; |775| 
        BCLR @#14, AR1 ; |775| 
        MOV AR1, port(*AR3(T0)) ; |775| 
	.dwpsn	file "src/csl_usb.c",line 778,column 7,is_stmt
        MOV *(#_usbRegisters), AR3 ; |778| 
        MOV port(*AR3(T0)), AR1 ; |778| 
        BCLR @#13, AR1 ; |778| 
        MOV AR1, port(*AR3(T0)) ; |778| 
	.dwpsn	file "src/csl_usb.c",line 781,column 7,is_stmt
        MOV *(#_usbRegisters), AR3 ; |781| 
        MOV port(*AR3(T0)), AR1 ; |781| 
        BCLR @#12, AR1 ; |781| 
        BSET @#12, AR1 ; |781| 
        MOV AR1, port(*AR3(T0)) ; |781| 
	.dwpsn	file "src/csl_usb.c",line 785,column 7,is_stmt
        MOV dbl(*SP(#0)), XAR3
        CMP *AR3(short(#4)) == #3, TC1 ; |785| 
        BCC $C$L68,!TC1 ; |785| 
                                        ; branchcc occurs ; |785| 
	.dwpsn	file "src/csl_usb.c",line 788,column 8,is_stmt
        MOV dbl(*SP(#8)), XAR3

        MOV *SP(#10), T1 ; |788| 
||      MOV #1, AC0

        SFTS AC0, T1, AC0 ; |788| 
||      MOV #512, AR2 ; |788| 

        ADD *AR3(#108), AC0, AR1 ; |788| 
        CMPU AR1 > AR2, TC1 ; |788| 
        BCC $C$L64,TC1 ; |788| 
                                        ; branchcc occurs ; |788| 
	.dwpsn	file "src/csl_usb.c",line 791,column 9,is_stmt
        MOV #1, AC0
        SFTS AC0, T1, AC0 ; |791| 
        ADD *AR3(#108), AC0, AR1 ; |791| 
        MOV AR1, *AR3(#108) ; |791| 
	.dwpsn	file "src/csl_usb.c",line 792,column 8,is_stmt
        B $C$L65  ; |792| 
                                        ; branch occurs ; |792| 
$C$L64:    
	.dwpsn	file "src/csl_usb.c",line 795,column 9,is_stmt
        MOV #-6, T0
        B $C$L73  ; |795| 
                                        ; branch occurs ; |795| 
$C$L65:    
	.dwpsn	file "src/csl_usb.c",line 798,column 8,is_stmt
        MOV *(#_usbRegisters), AR3 ; |798| 
        MOV port(*AR3(T0)), AR1 ; |798| 
        BCLR @#14, AR1 ; |798| 
        BSET @#14, AR1 ; |798| 
        MOV AR1, port(*AR3(T0)) ; |798| 
	.dwpsn	file "src/csl_usb.c",line 802,column 8,is_stmt
        MOV #1122, T0 ; |802| 
        MOV *(#_usbRegisters), AR3 ; |802| 
        MOV port(*AR3(T0)), AR1 ; |802| 
        BCLR @#12, AR1 ; |802| 
        BSET @#12, AR1 ; |802| 
        MOV AR1, port(*AR3(T0)) ; |802| 
	.dwpsn	file "src/csl_usb.c",line 806,column 12,is_stmt
        B $C$L68  ; |806| 
                                        ; branch occurs ; |806| 
$C$L66:    
	.dwpsn	file "src/csl_usb.c",line 812,column 7,is_stmt
        MOV #-6, *SP(#6) ; |812| 
	.dwpsn	file "src/csl_usb.c",line 813,column 12,is_stmt
        B $C$L68  ; |813| 
                                        ; branch occurs ; |813| 
$C$L67:    
	.dwpsn	file "src/csl_usb.c",line 662,column 5,is_stmt
        MOV dbl(*SP(#0)), XAR3
        MOV *AR3, AR3 ; |662| 

        SUB #1, AR3, AR1 ; |662| 
||      MOV #3, AR2

        CMPU AR1 <= AR2, TC1 ; |662| 
        BCC $C$L61,TC1 ; |662| 
                                        ; branchcc occurs ; |662| 
        SUB #9, AR3, AR1 ; |662| 
        CMPU AR1 <= AR2, TC1 ; |662| 
        BCC $C$L56,TC1 ; |662| 
                                        ; branchcc occurs ; |662| 
        B $C$L66  ; |662| 
                                        ; branch occurs ; |662| 
$C$L68:    
	.dwpsn	file "src/csl_usb.c",line 817,column 5,is_stmt
        MOV *(#_usbRegisters), AR3 ; |817| 
        MOV #1038, T0 ; |817| 
        MOV *SP(#11), AR1 ; |817| 
        MOV AR1, port(*AR3(T0)) ; |817| 
	.dwpsn	file "src/csl_usb.c",line 819,column 13,is_stmt
        B $C$L72  ; |819| 
                                        ; branch occurs ; |819| 
$C$L69:    
	.dwpsn	file "src/csl_usb.c",line 825,column 8,is_stmt
        MOV #-6, *SP(#6) ; |825| 
	.dwpsn	file "src/csl_usb.c",line 826,column 10,is_stmt
        B $C$L72  ; |826| 
                                        ; branch occurs ; |826| 
$C$L70:    
	.dwpsn	file "src/csl_usb.c",line 622,column 3,is_stmt
        MOV dbl(*SP(#8)), XAR3
        MOV *AR3, AR1 ; |622| 
        BCC $C$L52,AR1 == #0 ; |622| 
                                        ; branchcc occurs ; |622| 
        B $C$L69  ; |622| 
                                        ; branch occurs ; |622| 
$C$L71:    
	.dwpsn	file "src/csl_usb.c",line 831,column 3,is_stmt
        MOV #-5, *SP(#6) ; |831| 
$C$L72:    
	.dwpsn	file "src/csl_usb.c",line 834,column 2,is_stmt
        MOV *SP(#6), T0 ; |834| 
$C$L73:    
	.dwpsn	file "src/csl_usb.c",line 835,column 1,is_stmt
        AADD #15, SP
	.dwcfi	cfa_offset, 1
$C$DW$130	.dwtag  DW_TAG_TI_branch
	.dwattr $C$DW$130, DW_AT_low_pc(0x00)
	.dwattr $C$DW$130, DW_AT_TI_return
        RET
                                        ; return occurs
	.dwattr $C$DW$118, DW_AT_TI_end_file("src/csl_usb.c")
	.dwattr $C$DW$118, DW_AT_TI_end_line(0x343)
	.dwattr $C$DW$118, DW_AT_TI_end_column(0x01)
	.dwendentry
	.dwendtag $C$DW$118

	.sect	".text"
	.global	_USB_resetDev

$C$DW$131	.dwtag  DW_TAG_subprogram, DW_AT_name("USB_resetDev")
	.dwattr $C$DW$131, DW_AT_low_pc(_USB_resetDev)
	.dwattr $C$DW$131, DW_AT_high_pc(0x00)
	.dwattr $C$DW$131, DW_AT_TI_symbol_name("_USB_resetDev")
	.dwattr $C$DW$131, DW_AT_external
	.dwattr $C$DW$131, DW_AT_type(*$C$DW$T$76)
	.dwattr $C$DW$131, DW_AT_TI_begin_file("src/csl_usb.c")
	.dwattr $C$DW$131, DW_AT_TI_begin_line(0x36d)
	.dwattr $C$DW$131, DW_AT_TI_begin_column(0x0c)
	.dwattr $C$DW$131, DW_AT_TI_max_frame_size(0x06)
	.dwpsn	file "src/csl_usb.c",line 878,column 1,is_stmt,address _USB_resetDev

	.dwfde $C$DW$CIE, _USB_resetDev
$C$DW$132	.dwtag  DW_TAG_formal_parameter, DW_AT_name("hUsbDev")
	.dwattr $C$DW$132, DW_AT_TI_symbol_name("_hUsbDev")
	.dwattr $C$DW$132, DW_AT_type(*$C$DW$T$126)
	.dwattr $C$DW$132, DW_AT_location[DW_OP_reg17]
;*******************************************************************************
;* FUNCTION NAME: USB_resetDev                                                 *
;*                                                                             *
;*   Function Uses Regs : AC0,AC0,T0,AR0,XAR0,AR1,AR3,XAR3,SP,M40,SATA,SATD,   *
;*                        RDM,FRCT,SMUL                                        *
;*   Stack Frame        : Compact (No Frame Pointer, w/ debug)                 *
;*   Total Frame Size   : 6 words                                              *
;*                        (2 return address/alignment)                         *
;*                        (4 local values)                                     *
;*   Min System Stack   : 1 word                                               *
;*******************************************************************************
_USB_resetDev:
	.dwcfi	cfa_offset, 1
	.dwcfi	save_reg_to_mem, 91, -1
        AADD #-5, SP
	.dwcfi	cfa_offset, 6
$C$DW$133	.dwtag  DW_TAG_variable, DW_AT_name("hUsbDev")
	.dwattr $C$DW$133, DW_AT_TI_symbol_name("_hUsbDev")
	.dwattr $C$DW$133, DW_AT_type(*$C$DW$T$126)
	.dwattr $C$DW$133, DW_AT_location[DW_OP_bregx 0x24 0]
$C$DW$134	.dwtag  DW_TAG_variable, DW_AT_name("status")
	.dwattr $C$DW$134, DW_AT_TI_symbol_name("_status")
	.dwattr $C$DW$134, DW_AT_type(*$C$DW$T$76)
	.dwattr $C$DW$134, DW_AT_location[DW_OP_bregx 0x24 2]
$C$DW$135	.dwtag  DW_TAG_variable, DW_AT_name("saveIndex")
	.dwattr $C$DW$135, DW_AT_TI_symbol_name("_saveIndex")
	.dwattr $C$DW$135, DW_AT_type(*$C$DW$T$19)
	.dwattr $C$DW$135, DW_AT_location[DW_OP_bregx 0x24 3]
        MOV XAR0, dbl(*SP(#0))
	.dwpsn	file "src/csl_usb.c",line 882,column 2,is_stmt
        MOV #-6, *SP(#2) ; |882| 
	.dwpsn	file "src/csl_usb.c",line 883,column 2,is_stmt
        MOV #0, *SP(#3) ; |883| 
	.dwpsn	file "src/csl_usb.c",line 885,column 2,is_stmt
        MOV dbl(*SP(#0)), XAR3
        MOV XAR3, AC0
        BCC $C$L74,AC0 == #0 ; |885| 
                                        ; branchcc occurs ; |885| 
	.dwpsn	file "src/csl_usb.c",line 887,column 6,is_stmt
        MOV *AR3, AR1 ; |887| 
        BCC $C$L74,AR1 != #0 ; |887| 
                                        ; branchcc occurs ; |887| 
	.dwpsn	file "src/csl_usb.c",line 890,column 4,is_stmt
        MOV #1038, T0 ; |890| 
        MOV *(#_usbRegisters), AR3 ; |890| 
        MOV port(*AR3(T0)), AR1 ; |890| 
        MOV AR1, *SP(#3) ; |890| 
	.dwpsn	file "src/csl_usb.c",line 892,column 4,is_stmt
        MOV dbl(*SP(#0)), XAR3
        MOV #1, *AR3(#15) ; |892| 
	.dwpsn	file "src/csl_usb.c",line 896,column 4,is_stmt
        MOV *(#_usbRegisters), AR3 ; |896| 
        MOV port(*AR3(T0)), AR1 ; |896| 
        AND #0xfff0, AR1, AC0 ; |896| 
        MOV AC0, port(*AR3(T0)) ; |896| 
	.dwpsn	file "src/csl_usb.c",line 900,column 4,is_stmt
        MOV *(#_usbRegisters), AR3 ; |900| 
        MOV port(*AR3(T0)), AR1 ; |900| 
        AND #0xfff0, AR1, AC0 ; |900| 
        MOV AC0, port(*AR3(T0)) ; |900| 
	.dwpsn	file "src/csl_usb.c",line 904,column 4,is_stmt
        MOV #1042, T0 ; |904| 
        MOV *(#_usbRegisters), AR3 ; |904| 
        MOV port(*AR3(T0)), AR1 ; |904| 
        BCLR @#8, AR1 ; |904| 
        BSET @#8, AR1 ; |904| 
        MOV AR1, port(*AR3(T0)) ; |904| 
	.dwpsn	file "src/csl_usb.c",line 908,column 4,is_stmt
        MOV #1038, T0 ; |908| 
        MOV *(#_usbRegisters), AR3 ; |908| 
        MOV port(*AR3(T0)), AR1 ; |908| 
        AND #0xfff0, AR1, AC0 ; |908| 
        MOV AC0, port(*AR3(T0)) ; |908| 
	.dwpsn	file "src/csl_usb.c",line 912,column 4,is_stmt
        MOV *(#_usbRegisters), AR3 ; |912| 
        MOV port(*AR3(T0)), AR1 ; |912| 
        AND #0xfff0, AR1, AC0 ; |912| 
        BSET @#0, AC0 ; |912| 
        MOV AC0, port(*AR3(T0)) ; |912| 
	.dwpsn	file "src/csl_usb.c",line 916,column 4,is_stmt
        MOV #1042, T0 ; |916| 
        MOV *(#_usbRegisters), AR3 ; |916| 
        MOV port(*AR3(T0)), AR1 ; |916| 
        BCLR @#3, AR1 ; |916| 
        BSET @#3, AR1 ; |916| 
        MOV AR1, port(*AR3(T0)) ; |916| 
	.dwpsn	file "src/csl_usb.c",line 919,column 7,is_stmt
        MOV #1046, T0 ; |919| 
        MOV *(#_usbRegisters), AR3 ; |919| 
        MOV port(*AR3(T0)), AR1 ; |919| 
        BCLR @#4, AR1 ; |919| 
        BSET @#4, AR1 ; |919| 
        MOV AR1, port(*AR3(T0)) ; |919| 
	.dwpsn	file "src/csl_usb.c",line 923,column 4,is_stmt
        MOV #1038, T0 ; |923| 
        MOV *(#_usbRegisters), AR3 ; |923| 
        MOV port(*AR3(T0)), AR1 ; |923| 
        AND #0xfff0, AR1, AC0 ; |923| 
        MOV AC0, port(*AR3(T0)) ; |923| 
	.dwpsn	file "src/csl_usb.c",line 927,column 4,is_stmt
        MOV *(#_usbRegisters), AR3 ; |927| 
        MOV port(*AR3(T0)), AR1 ; |927| 
        AND #0xfff0, AR1, AC0 ; |927| 
        BSET @#1, AC0 ; |927| 
        MOV AC0, port(*AR3(T0)) ; |927| 
	.dwpsn	file "src/csl_usb.c",line 931,column 7,is_stmt
        MOV #1042, T0 ; |931| 
        MOV *(#_usbRegisters), AR3 ; |931| 
        MOV port(*AR3(T0)), AR1 ; |931| 
        BCLR @#3, AR1 ; |931| 
        BSET @#3, AR1 ; |931| 
        MOV AR1, port(*AR3(T0)) ; |931| 
	.dwpsn	file "src/csl_usb.c",line 934,column 4,is_stmt
        MOV #1046, T0 ; |934| 
        MOV *(#_usbRegisters), AR3 ; |934| 
        MOV port(*AR3(T0)), AR1 ; |934| 
        BCLR @#4, AR1 ; |934| 
        BSET @#4, AR1 ; |934| 
        MOV AR1, port(*AR3(T0)) ; |934| 
	.dwpsn	file "src/csl_usb.c",line 938,column 4,is_stmt
        MOV #1038, T0 ; |938| 
        MOV *(#_usbRegisters), AR3 ; |938| 
        MOV port(*AR3(T0)), AR1 ; |938| 
        AND #0xfff0, AR1, AC0 ; |938| 
        MOV AC0, port(*AR3(T0)) ; |938| 
	.dwpsn	file "src/csl_usb.c",line 942,column 4,is_stmt
        MOV *(#_usbRegisters), AR3 ; |942| 
        MOV port(*AR3(T0)), AR1 ; |942| 
        AND #0xfff0, AR1, AR1 ; |942| 
        OR #0x0003, AR1, AR1 ; |942| 
        MOV AR1, port(*AR3(T0)) ; |942| 
	.dwpsn	file "src/csl_usb.c",line 946,column 7,is_stmt
        MOV #1042, T0 ; |946| 
        MOV *(#_usbRegisters), AR3 ; |946| 
        MOV port(*AR3(T0)), AR1 ; |946| 
        BCLR @#3, AR1 ; |946| 
        BSET @#3, AR1 ; |946| 
        MOV AR1, port(*AR3(T0)) ; |946| 
	.dwpsn	file "src/csl_usb.c",line 949,column 4,is_stmt
        MOV #1046, T0 ; |949| 
        MOV *(#_usbRegisters), AR3 ; |949| 
        MOV port(*AR3(T0)), AR1 ; |949| 
        BCLR @#4, AR1 ; |949| 
        BSET @#4, AR1 ; |949| 
        MOV AR1, port(*AR3(T0)) ; |949| 
	.dwpsn	file "src/csl_usb.c",line 953,column 4,is_stmt
        MOV #1038, T0 ; |953| 
        MOV *(#_usbRegisters), AR3 ; |953| 
        MOV port(*AR3(T0)), AR1 ; |953| 
        AND #0xfff0, AR1, AC0 ; |953| 
        MOV AC0, port(*AR3(T0)) ; |953| 
	.dwpsn	file "src/csl_usb.c",line 957,column 4,is_stmt
        MOV *(#_usbRegisters), AR3 ; |957| 
        MOV port(*AR3(T0)), AR1 ; |957| 
        AND #0xfff0, AR1, AC0 ; |957| 
        BSET @#2, AC0 ; |957| 
        MOV AC0, port(*AR3(T0)) ; |957| 
	.dwpsn	file "src/csl_usb.c",line 961,column 7,is_stmt
        MOV #1042, T0 ; |961| 
        MOV *(#_usbRegisters), AR3 ; |961| 
        MOV port(*AR3(T0)), AR1 ; |961| 
        BCLR @#3, AR1 ; |961| 
        BSET @#3, AR1 ; |961| 
        MOV AR1, port(*AR3(T0)) ; |961| 
	.dwpsn	file "src/csl_usb.c",line 964,column 4,is_stmt
        MOV #1046, T0 ; |964| 
        MOV *(#_usbRegisters), AR3 ; |964| 
        MOV port(*AR3(T0)), AR1 ; |964| 
        BCLR @#4, AR1 ; |964| 
        BSET @#4, AR1 ; |964| 
        MOV AR1, port(*AR3(T0)) ; |964| 
	.dwpsn	file "src/csl_usb.c",line 969,column 4,is_stmt
        MOV #1030, T0 ; |969| 
        MOV *(#_usbRegisters), AR3 ; |969| 
        MOV port(*AR3(T0)), AR1 ; |969| 
        BCLR @#0, AR1 ; |969| 
        BSET @#0, AR1 ; |969| 
        MOV AR1, port(*AR3(T0)) ; |969| 
	.dwpsn	file "src/csl_usb.c",line 972,column 4,is_stmt
        MOV *(#_usbRegisters), AR3 ; |972| 
        MOV port(*AR3(T0)), AR1 ; |972| 
        BCLR @#1, AR1 ; |972| 
        BSET @#1, AR1 ; |972| 
        MOV AR1, port(*AR3(T0)) ; |972| 
	.dwpsn	file "src/csl_usb.c",line 975,column 4,is_stmt
        MOV #1033, T0 ; |975| 
        MOV *(#_usbRegisters), AR3 ; |975| 
        MOV port(*AR3(T0)), AR1 ; |975| 
        BCLR @#2, AR1 ; |975| 
        BSET @#2, AR1 ; |975| 
        MOV AR1, port(*AR3(T0)) ; |975| 
	.dwpsn	file "src/csl_usb.c",line 978,column 7,is_stmt
        MOV #1030, T0 ; |978| 
        MOV *(#_usbRegisters), AR3 ; |978| 
        MOV port(*AR3(T0)), AR1 ; |978| 
        BCLR @#3, AR1 ; |978| 
        BSET @#3, AR1 ; |978| 
        MOV AR1, port(*AR3(T0)) ; |978| 
	.dwpsn	file "src/csl_usb.c",line 981,column 7,is_stmt
        MOV *(#_usbRegisters), AR3 ; |981| 
        MOV port(*AR3(T0)), AR1 ; |981| 
        BCLR @#4, AR1 ; |981| 
        BSET @#4, AR1 ; |981| 
        MOV AR1, port(*AR3(T0)) ; |981| 
	.dwpsn	file "src/csl_usb.c",line 985,column 4,is_stmt
        MOV #1034, T0 ; |985| 
        MOV *(#_usbRegisters), AR3 ; |985| 
        OR #0x7fff, port(*AR3(T0)) ; |985| 
	.dwpsn	file "src/csl_usb.c",line 986,column 4,is_stmt
        MOV #48, T0 ; |986| 
        MOV *(#_usbRegisters), AR3 ; |986| 
        MOV #65535, port(*AR3(T0)) ; |986| 
	.dwpsn	file "src/csl_usb.c",line 987,column 7,is_stmt
        MOV #49, T0 ; |987| 
        MOV *(#_usbRegisters), AR3 ; |987| 
        MOV #65527, port(*AR3(T0)) ; |987| 
	.dwpsn	file "src/csl_usb.c",line 990,column 4,is_stmt
        MOV #1038, T0 ; |990| 
        MOV *(#_usbRegisters), AR3 ; |990| 
        MOV *SP(#3), AR1 ; |990| 
        MOV AR1, port(*AR3(T0)) ; |990| 
	.dwpsn	file "src/csl_usb.c",line 992,column 4,is_stmt
        MOV #0, *SP(#2) ; |992| 
$C$L74:    
	.dwpsn	file "src/csl_usb.c",line 996,column 5,is_stmt
        MOV *SP(#2), T0 ; |996| 
	.dwpsn	file "src/csl_usb.c",line 997,column 1,is_stmt
        AADD #5, SP
	.dwcfi	cfa_offset, 1
$C$DW$136	.dwtag  DW_TAG_TI_branch
	.dwattr $C$DW$136, DW_AT_low_pc(0x00)
	.dwattr $C$DW$136, DW_AT_TI_return
        RET
                                        ; return occurs
	.dwattr $C$DW$131, DW_AT_TI_end_file("src/csl_usb.c")
	.dwattr $C$DW$131, DW_AT_TI_end_line(0x3e5)
	.dwattr $C$DW$131, DW_AT_TI_end_column(0x01)
	.dwendentry
	.dwendtag $C$DW$131

	.sect	".text"
	.global	_USB_getEvents

$C$DW$137	.dwtag  DW_TAG_subprogram, DW_AT_name("USB_getEvents")
	.dwattr $C$DW$137, DW_AT_low_pc(_USB_getEvents)
	.dwattr $C$DW$137, DW_AT_high_pc(0x00)
	.dwattr $C$DW$137, DW_AT_TI_symbol_name("_USB_getEvents")
	.dwattr $C$DW$137, DW_AT_external
	.dwattr $C$DW$137, DW_AT_type(*$C$DW$T$186)
	.dwattr $C$DW$137, DW_AT_TI_begin_file("src/csl_usb.c")
	.dwattr $C$DW$137, DW_AT_TI_begin_line(0x415)
	.dwattr $C$DW$137, DW_AT_TI_begin_column(0x12)
	.dwattr $C$DW$137, DW_AT_TI_max_frame_size(0x0c)
	.dwpsn	file "src/csl_usb.c",line 1047,column 1,is_stmt,address _USB_getEvents

	.dwfde $C$DW$CIE, _USB_getEvents
$C$DW$138	.dwtag  DW_TAG_formal_parameter, DW_AT_name("hEp")
	.dwattr $C$DW$138, DW_AT_TI_symbol_name("_hEp")
	.dwattr $C$DW$138, DW_AT_type(*$C$DW$T$102)
	.dwattr $C$DW$138, DW_AT_location[DW_OP_reg17]
$C$DW$139	.dwtag  DW_TAG_formal_parameter, DW_AT_name("status")
	.dwattr $C$DW$139, DW_AT_TI_symbol_name("_status")
	.dwattr $C$DW$139, DW_AT_type(*$C$DW$T$121)
	.dwattr $C$DW$139, DW_AT_location[DW_OP_reg19]
;*******************************************************************************
;* FUNCTION NAME: USB_getEvents                                                *
;*                                                                             *
;*   Function Uses Regs : AC0,AC0,T0,AR0,XAR0,AR1,XAR1,AR2,AR3,XAR3,SP,CARRY,  *
;*                        M40,SATA,SATD,RDM,FRCT,SMUL                          *
;*   Stack Frame        : Compact (No Frame Pointer, w/ debug)                 *
;*   Total Frame Size   : 12 words                                             *
;*                        (2 return address/alignment)                         *
;*                        (10 local values)                                    *
;*   Min System Stack   : 1 word                                               *
;*******************************************************************************
_USB_getEvents:
	.dwcfi	cfa_offset, 1
	.dwcfi	save_reg_to_mem, 91, -1
        AADD #-11, SP
	.dwcfi	cfa_offset, 12
$C$DW$140	.dwtag  DW_TAG_variable, DW_AT_name("hEp")
	.dwattr $C$DW$140, DW_AT_TI_symbol_name("_hEp")
	.dwattr $C$DW$140, DW_AT_type(*$C$DW$T$102)
	.dwattr $C$DW$140, DW_AT_location[DW_OP_bregx 0x24 0]
$C$DW$141	.dwtag  DW_TAG_variable, DW_AT_name("status")
	.dwattr $C$DW$141, DW_AT_TI_symbol_name("_status")
	.dwattr $C$DW$141, DW_AT_type(*$C$DW$T$121)
	.dwattr $C$DW$141, DW_AT_location[DW_OP_bregx 0x24 2]
$C$DW$142	.dwtag  DW_TAG_variable, DW_AT_name("peps")
	.dwattr $C$DW$142, DW_AT_TI_symbol_name("_peps")
	.dwattr $C$DW$142, DW_AT_type(*$C$DW$T$150)
	.dwattr $C$DW$142, DW_AT_location[DW_OP_bregx 0x24 4]
$C$DW$143	.dwtag  DW_TAG_variable, DW_AT_name("usbEvents")
	.dwattr $C$DW$143, DW_AT_TI_symbol_name("_usbEvents")
	.dwattr $C$DW$143, DW_AT_type(*$C$DW$T$186)
	.dwattr $C$DW$143, DW_AT_location[DW_OP_bregx 0x24 6]
$C$DW$144	.dwtag  DW_TAG_variable, DW_AT_name("pContext")
	.dwattr $C$DW$144, DW_AT_TI_symbol_name("_pContext")
	.dwattr $C$DW$144, DW_AT_type(*$C$DW$T$126)
	.dwattr $C$DW$144, DW_AT_location[DW_OP_bregx 0x24 8]
        MOV XAR1, dbl(*SP(#2))
        MOV XAR0, dbl(*SP(#0))
	.dwpsn	file "src/csl_usb.c",line 1052,column 2,is_stmt
        MOV dbl(*SP(#2)), XAR3
        MOV #0, *AR3 ; |1052| 
	.dwpsn	file "src/csl_usb.c",line 1053,column 2,is_stmt
        MOV #0, *SP(#6) ; |1053| 
	.dwpsn	file "src/csl_usb.c",line 1054,column 2,is_stmt
        MOV #0, AC0 ; |1054| 
        MOV AC0, dbl(*SP(#4))
	.dwpsn	file "src/csl_usb.c",line 1056,column 2,is_stmt
        MOV dbl(*SP(#0)), XAR3
        MOV XAR3, AC0
        BCC $C$L75,AC0 == #0 ; |1056| 
                                        ; branchcc occurs ; |1056| 
	.dwpsn	file "src/csl_usb.c",line 1058,column 9,is_stmt
        MOV dbl(*AR3(#32)), XAR3
        MOV XAR3, dbl(*SP(#8))
	.dwpsn	file "src/csl_usb.c",line 1060,column 3,is_stmt
        MOV dbl(*SP(#0)), XAR3
        MOV *AR3, AR1 ; |1060| 

        MOV AR1, AC0
||      MOV #7, AR2

        SFTS AC0, #-2, AC0 ; |1060| 
||      NOT AR2, AR2 ; |1060| 

        BFXTR #0xe000, AC0, AR3 ; |1060| 
        ADD AR1, AR3 ; |1060| 
        AND AR3, AR2 ; |1060| 
        MOV dbl(*SP(#8)), XAR3
        MOV AR1, HI(AC0)
        MOV HI(AC0), AR1
        MOV dbl(*AR3(#90)), XAR3
        SUB AR2, AR1 ; |1060| 
        MOV AR1, HI(AC0)
        MPYK #18, AC0, AC0 ; |1060| 
        MOV AC0, AR1 ; |1060| 

        MOV XAR3, dbl(*SP(#4))
||      AADD AR1, AR3 ; |1060| 

	.dwpsn	file "src/csl_usb.c",line 1062,column 3,is_stmt
        MOV XAR3, AC0
        BCC $C$L76,AC0 == #0 ; |1062| 
                                        ; branchcc occurs ; |1062| 
	.dwpsn	file "src/csl_usb.c",line 1064,column 4,is_stmt
        MOV *AR3(#12), AR1 ; |1064| 
        MOV AR1, *SP(#6) ; |1064| 
	.dwpsn	file "src/csl_usb.c",line 1066,column 4,is_stmt
        MOV dbl(*SP(#4)), XAR3
        MOV #0, *AR3(#12) ; |1066| 
	.dwpsn	file "src/csl_usb.c",line 1068,column 2,is_stmt
        B $C$L76  ; |1068| 
                                        ; branch occurs ; |1068| 
$C$L75:    
	.dwpsn	file "src/csl_usb.c",line 1071,column 3,is_stmt
        MOV dbl(*SP(#2)), XAR3
        MOV #-5, *AR3 ; |1071| 
$C$L76:    
	.dwpsn	file "src/csl_usb.c",line 1074,column 2,is_stmt
        MOV *SP(#6), T0 ; |1074| 
	.dwpsn	file "src/csl_usb.c",line 1075,column 1,is_stmt
        AADD #11, SP
	.dwcfi	cfa_offset, 1
$C$DW$145	.dwtag  DW_TAG_TI_branch
	.dwattr $C$DW$145, DW_AT_low_pc(0x00)
	.dwattr $C$DW$145, DW_AT_TI_return
        RET
                                        ; return occurs
	.dwattr $C$DW$137, DW_AT_TI_end_file("src/csl_usb.c")
	.dwattr $C$DW$137, DW_AT_TI_end_line(0x433)
	.dwattr $C$DW$137, DW_AT_TI_end_column(0x01)
	.dwendentry
	.dwendtag $C$DW$137

	.sect	".text"
	.global	_USB_peekEvents

$C$DW$146	.dwtag  DW_TAG_subprogram, DW_AT_name("USB_peekEvents")
	.dwattr $C$DW$146, DW_AT_low_pc(_USB_peekEvents)
	.dwattr $C$DW$146, DW_AT_high_pc(0x00)
	.dwattr $C$DW$146, DW_AT_TI_symbol_name("_USB_peekEvents")
	.dwattr $C$DW$146, DW_AT_external
	.dwattr $C$DW$146, DW_AT_type(*$C$DW$T$186)
	.dwattr $C$DW$146, DW_AT_TI_begin_file("src/csl_usb.c")
	.dwattr $C$DW$146, DW_AT_TI_begin_line(0x464)
	.dwattr $C$DW$146, DW_AT_TI_begin_column(0x12)
	.dwattr $C$DW$146, DW_AT_TI_max_frame_size(0x0c)
	.dwpsn	file "src/csl_usb.c",line 1126,column 1,is_stmt,address _USB_peekEvents

	.dwfde $C$DW$CIE, _USB_peekEvents
$C$DW$147	.dwtag  DW_TAG_formal_parameter, DW_AT_name("hEp")
	.dwattr $C$DW$147, DW_AT_TI_symbol_name("_hEp")
	.dwattr $C$DW$147, DW_AT_type(*$C$DW$T$102)
	.dwattr $C$DW$147, DW_AT_location[DW_OP_reg17]
$C$DW$148	.dwtag  DW_TAG_formal_parameter, DW_AT_name("status")
	.dwattr $C$DW$148, DW_AT_TI_symbol_name("_status")
	.dwattr $C$DW$148, DW_AT_type(*$C$DW$T$121)
	.dwattr $C$DW$148, DW_AT_location[DW_OP_reg19]
;*******************************************************************************
;* FUNCTION NAME: USB_peekEvents                                               *
;*                                                                             *
;*   Function Uses Regs : AC0,AC0,T0,AR0,XAR0,AR1,XAR1,AR2,AR3,XAR3,SP,CARRY,  *
;*                        M40,SATA,SATD,RDM,FRCT,SMUL                          *
;*   Stack Frame        : Compact (No Frame Pointer, w/ debug)                 *
;*   Total Frame Size   : 12 words                                             *
;*                        (2 return address/alignment)                         *
;*                        (10 local values)                                    *
;*   Min System Stack   : 1 word                                               *
;*******************************************************************************
_USB_peekEvents:
	.dwcfi	cfa_offset, 1
	.dwcfi	save_reg_to_mem, 91, -1
        AADD #-11, SP
	.dwcfi	cfa_offset, 12
$C$DW$149	.dwtag  DW_TAG_variable, DW_AT_name("hEp")
	.dwattr $C$DW$149, DW_AT_TI_symbol_name("_hEp")
	.dwattr $C$DW$149, DW_AT_type(*$C$DW$T$102)
	.dwattr $C$DW$149, DW_AT_location[DW_OP_bregx 0x24 0]
$C$DW$150	.dwtag  DW_TAG_variable, DW_AT_name("status")
	.dwattr $C$DW$150, DW_AT_TI_symbol_name("_status")
	.dwattr $C$DW$150, DW_AT_type(*$C$DW$T$121)
	.dwattr $C$DW$150, DW_AT_location[DW_OP_bregx 0x24 2]
$C$DW$151	.dwtag  DW_TAG_variable, DW_AT_name("peps")
	.dwattr $C$DW$151, DW_AT_TI_symbol_name("_peps")
	.dwattr $C$DW$151, DW_AT_type(*$C$DW$T$150)
	.dwattr $C$DW$151, DW_AT_location[DW_OP_bregx 0x24 4]
$C$DW$152	.dwtag  DW_TAG_variable, DW_AT_name("usbEvents")
	.dwattr $C$DW$152, DW_AT_TI_symbol_name("_usbEvents")
	.dwattr $C$DW$152, DW_AT_type(*$C$DW$T$186)
	.dwattr $C$DW$152, DW_AT_location[DW_OP_bregx 0x24 6]
$C$DW$153	.dwtag  DW_TAG_variable, DW_AT_name("pContext")
	.dwattr $C$DW$153, DW_AT_TI_symbol_name("_pContext")
	.dwattr $C$DW$153, DW_AT_type(*$C$DW$T$126)
	.dwattr $C$DW$153, DW_AT_location[DW_OP_bregx 0x24 8]
        MOV XAR1, dbl(*SP(#2))
        MOV XAR0, dbl(*SP(#0))
	.dwpsn	file "src/csl_usb.c",line 1131,column 2,is_stmt
        MOV dbl(*SP(#2)), XAR3
        MOV #0, *AR3 ; |1131| 
	.dwpsn	file "src/csl_usb.c",line 1132,column 2,is_stmt
        MOV #0, *SP(#6) ; |1132| 
	.dwpsn	file "src/csl_usb.c",line 1133,column 2,is_stmt
        MOV #0, AC0 ; |1133| 
        MOV AC0, dbl(*SP(#4))
	.dwpsn	file "src/csl_usb.c",line 1135,column 2,is_stmt
        MOV dbl(*SP(#0)), XAR3
        MOV XAR3, AC0
        BCC $C$L77,AC0 == #0 ; |1135| 
                                        ; branchcc occurs ; |1135| 
	.dwpsn	file "src/csl_usb.c",line 1137,column 9,is_stmt
        MOV dbl(*AR3(#32)), XAR3
        MOV XAR3, dbl(*SP(#8))
	.dwpsn	file "src/csl_usb.c",line 1139,column 3,is_stmt
        MOV dbl(*SP(#0)), XAR3
        MOV *AR3, AR1 ; |1139| 

        MOV AR1, AC0
||      MOV #7, AR2

        SFTS AC0, #-2, AC0 ; |1139| 
||      NOT AR2, AR2 ; |1139| 

        BFXTR #0xe000, AC0, AR3 ; |1139| 
        ADD AR1, AR3 ; |1139| 
        AND AR3, AR2 ; |1139| 
        MOV dbl(*SP(#8)), XAR3
        MOV AR1, HI(AC0)
        MOV HI(AC0), AR1
        MOV dbl(*AR3(#90)), XAR3
        SUB AR2, AR1 ; |1139| 
        MOV AR1, HI(AC0)
        MPYK #18, AC0, AC0 ; |1139| 
        MOV AC0, AR1 ; |1139| 

        MOV XAR3, dbl(*SP(#4))
||      AADD AR1, AR3 ; |1139| 

	.dwpsn	file "src/csl_usb.c",line 1141,column 3,is_stmt
        MOV XAR3, AC0
        BCC $C$L78,AC0 == #0 ; |1141| 
                                        ; branchcc occurs ; |1141| 
	.dwpsn	file "src/csl_usb.c",line 1143,column 4,is_stmt
        MOV *AR3(#12), AR1 ; |1143| 
        MOV AR1, *SP(#6) ; |1143| 
	.dwpsn	file "src/csl_usb.c",line 1145,column 2,is_stmt
        B $C$L78  ; |1145| 
                                        ; branch occurs ; |1145| 
$C$L77:    
	.dwpsn	file "src/csl_usb.c",line 1148,column 3,is_stmt
        MOV dbl(*SP(#2)), XAR3
        MOV #-5, *AR3 ; |1148| 
$C$L78:    
	.dwpsn	file "src/csl_usb.c",line 1151,column 2,is_stmt
        MOV *SP(#6), T0 ; |1151| 
	.dwpsn	file "src/csl_usb.c",line 1152,column 1,is_stmt
        AADD #11, SP
	.dwcfi	cfa_offset, 1
$C$DW$154	.dwtag  DW_TAG_TI_branch
	.dwattr $C$DW$154, DW_AT_low_pc(0x00)
	.dwattr $C$DW$154, DW_AT_TI_return
        RET
                                        ; return occurs
	.dwattr $C$DW$146, DW_AT_TI_end_file("src/csl_usb.c")
	.dwattr $C$DW$146, DW_AT_TI_end_line(0x480)
	.dwattr $C$DW$146, DW_AT_TI_end_column(0x01)
	.dwendentry
	.dwendtag $C$DW$146

	.sect	".text"
	.global	_USB_getSetupPacket

$C$DW$155	.dwtag  DW_TAG_subprogram, DW_AT_name("USB_getSetupPacket")
	.dwattr $C$DW$155, DW_AT_low_pc(_USB_getSetupPacket)
	.dwattr $C$DW$155, DW_AT_high_pc(0x00)
	.dwattr $C$DW$155, DW_AT_TI_symbol_name("_USB_getSetupPacket")
	.dwattr $C$DW$155, DW_AT_external
	.dwattr $C$DW$155, DW_AT_type(*$C$DW$T$76)
	.dwattr $C$DW$155, DW_AT_TI_begin_file("src/csl_usb.c")
	.dwattr $C$DW$155, DW_AT_TI_begin_line(0x4b5)
	.dwattr $C$DW$155, DW_AT_TI_begin_column(0x0c)
	.dwattr $C$DW$155, DW_AT_TI_max_frame_size(0x0c)
	.dwpsn	file "src/csl_usb.c",line 1208,column 1,is_stmt,address _USB_getSetupPacket

	.dwfde $C$DW$CIE, _USB_getSetupPacket
$C$DW$156	.dwtag  DW_TAG_formal_parameter, DW_AT_name("hUsbDev")
	.dwattr $C$DW$156, DW_AT_TI_symbol_name("_hUsbDev")
	.dwattr $C$DW$156, DW_AT_type(*$C$DW$T$126)
	.dwattr $C$DW$156, DW_AT_location[DW_OP_reg17]
$C$DW$157	.dwtag  DW_TAG_formal_parameter, DW_AT_name("usbSetup")
	.dwattr $C$DW$157, DW_AT_TI_symbol_name("_usbSetup")
	.dwattr $C$DW$157, DW_AT_type(*$C$DW$T$152)
	.dwattr $C$DW$157, DW_AT_location[DW_OP_reg19]
$C$DW$158	.dwtag  DW_TAG_formal_parameter, DW_AT_name("readFromFifo")
	.dwattr $C$DW$158, DW_AT_TI_symbol_name("_readFromFifo")
	.dwattr $C$DW$158, DW_AT_type(*$C$DW$T$74)
	.dwattr $C$DW$158, DW_AT_location[DW_OP_reg12]
;*******************************************************************************
;* FUNCTION NAME: USB_getSetupPacket                                           *
;*                                                                             *
;*   Function Uses Regs : AC0,AC0,T0,AR0,XAR0,AR1,XAR1,AR2,XAR2,AR3,XAR3,SP,   *
;*                        CSR,RPTC,TC1,M40,SATA,SATD,RDM,FRCT,SMUL             *
;*   Stack Frame        : Compact (No Frame Pointer, w/ debug)                 *
;*   Total Frame Size   : 12 words                                             *
;*                        (2 return address/alignment)                         *
;*                        (10 local values)                                    *
;*   Min System Stack   : 1 word                                               *
;*******************************************************************************
_USB_getSetupPacket:
	.dwcfi	cfa_offset, 1
	.dwcfi	save_reg_to_mem, 91, -1
        AADD #-11, SP
	.dwcfi	cfa_offset, 12
$C$DW$159	.dwtag  DW_TAG_variable, DW_AT_name("hUsbDev")
	.dwattr $C$DW$159, DW_AT_TI_symbol_name("_hUsbDev")
	.dwattr $C$DW$159, DW_AT_type(*$C$DW$T$126)
	.dwattr $C$DW$159, DW_AT_location[DW_OP_bregx 0x24 0]
$C$DW$160	.dwtag  DW_TAG_variable, DW_AT_name("usbSetup")
	.dwattr $C$DW$160, DW_AT_TI_symbol_name("_usbSetup")
	.dwattr $C$DW$160, DW_AT_type(*$C$DW$T$152)
	.dwattr $C$DW$160, DW_AT_location[DW_OP_bregx 0x24 2]
$C$DW$161	.dwtag  DW_TAG_variable, DW_AT_name("readFromFifo")
	.dwattr $C$DW$161, DW_AT_TI_symbol_name("_readFromFifo")
	.dwattr $C$DW$161, DW_AT_type(*$C$DW$T$74)
	.dwattr $C$DW$161, DW_AT_location[DW_OP_bregx 0x24 4]
$C$DW$162	.dwtag  DW_TAG_variable, DW_AT_name("status")
	.dwattr $C$DW$162, DW_AT_TI_symbol_name("_status")
	.dwattr $C$DW$162, DW_AT_type(*$C$DW$T$76)
	.dwattr $C$DW$162, DW_AT_location[DW_OP_bregx 0x24 5]
$C$DW$163	.dwtag  DW_TAG_variable, DW_AT_name("wBuffer")
	.dwattr $C$DW$163, DW_AT_TI_symbol_name("_wBuffer")
	.dwattr $C$DW$163, DW_AT_type(*$C$DW$T$197)
	.dwattr $C$DW$163, DW_AT_location[DW_OP_bregx 0x24 6]
        MOV T0, *SP(#4) ; |1208| 
        MOV XAR1, dbl(*SP(#2))
        MOV XAR0, dbl(*SP(#0))
	.dwpsn	file "src/csl_usb.c",line 1212,column 2,is_stmt
        MOV #0, *SP(#5) ; |1212| 
	.dwpsn	file "src/csl_usb.c",line 1214,column 2,is_stmt
        MOV dbl(*SP(#0)), XAR3
        MOV XAR3, AC0
        BCC $C$L85,AC0 == #0 ; |1214| 
                                        ; branchcc occurs ; |1214| 
        MOV dbl(*SP(#2)), XAR3
        MOV XAR3, AC0
        BCC $C$L85,AC0 == #0 ; |1214| 
                                        ; branchcc occurs ; |1214| 
	.dwpsn	file "src/csl_usb.c",line 1216,column 3,is_stmt
        B $C$L84  ; |1216| 
                                        ; branch occurs ; |1216| 
$C$L79:    
	.dwpsn	file "src/csl_usb.c",line 1219,column 5,is_stmt
        CMP *SP(#4) == #1, TC1 ; |1219| 
        BCC $C$L80,!TC1 ; |1219| 
                                        ; branchcc occurs ; |1219| 
	.dwpsn	file "src/csl_usb.c",line 1222,column 6,is_stmt
        MOV #1057, T0 ; |1222| 
        MOV *(#_usbRegisters), AR3 ; |1222| 
        MOV port(*AR3(T0)), AR1 ; |1222| 
        MOV AR1, *SP(#6) ; |1222| 
	.dwpsn	file "src/csl_usb.c",line 1224,column 6,is_stmt
        MOV port(*AR3(T0)), AR1 ; |1224| 
        MOV AR1, *SP(#7) ; |1224| 
	.dwpsn	file "src/csl_usb.c",line 1226,column 6,is_stmt
        MOV port(*AR3(T0)), AR1 ; |1226| 
        MOV AR1, *SP(#8) ; |1226| 
	.dwpsn	file "src/csl_usb.c",line 1228,column 6,is_stmt
        MOV port(*AR3(T0)), AR1 ; |1228| 
        MOV AR1, *SP(#9) ; |1228| 
	.dwpsn	file "src/csl_usb.c",line 1231,column 6,is_stmt
        MOV dbl(*SP(#2)), XAR3
        MOV uns(low_byte(*SP(#6))), AR1 ; |1231| 
        MOV AR1, *AR3(short(#1)) ; |1231| 
	.dwpsn	file "src/csl_usb.c",line 1232,column 6,is_stmt
        MOV dbl(*SP(#2)), XAR3
        MOV *SP(#6), AR1 ; |1232| 
        AND #0xff00, AR1, AC0 ; |1232| 
        SFTS AC0, #-8, AC0 ; |1232| 
        MOV AC0, *AR3(short(#2)) ; |1232| 
	.dwpsn	file "src/csl_usb.c",line 1233,column 6,is_stmt
        MOV dbl(*SP(#2)), XAR3
        MOV *SP(#7), AR1 ; |1233| 
        MOV AR1, *AR3(short(#3)) ; |1233| 
	.dwpsn	file "src/csl_usb.c",line 1234,column 6,is_stmt
        MOV dbl(*SP(#2)), XAR3
        MOV *SP(#8), AR1 ; |1234| 
        MOV AR1, *AR3(short(#4)) ; |1234| 
	.dwpsn	file "src/csl_usb.c",line 1235,column 6,is_stmt
        MOV dbl(*SP(#2)), XAR3
        MOV *SP(#9), AR1 ; |1235| 
        MOV AR1, *AR3(short(#5)) ; |1235| 
	.dwpsn	file "src/csl_usb.c",line 1237,column 6,is_stmt
        MOV dbl(*SP(#2)), XAR3
        MOV *AR3(short(#5)), AR1 ; |1237| 
        MOV dbl(*SP(#0)), XAR3
        MOV AR1, *AR3(#17) ; |1237| 
	.dwpsn	file "src/csl_usb.c",line 1239,column 6,is_stmt
        B $C$L86  ; |1239| 
                                        ; branch occurs ; |1239| 
$C$L80:    
	.dwpsn	file "src/csl_usb.c",line 1243,column 6,is_stmt
        MOV dbl(*SP(#2)), XAR2

        RPT #5    ; |1243| 
||      AADD #93, AR3 ; |1243| 

                                            ; loop starts ; |1243| 
$C$L81:    
$C$DW$L$_USB_getSetupPacket$9$B:
            MOV *AR3+, *AR2+ ; |1243| 
                                        ; loop ends ; |1243| 
$C$DW$L$_USB_getSetupPacket$9$E:
$C$L82:    
	.dwpsn	file "src/csl_usb.c",line 1244,column 6,is_stmt
        MOV dbl(*SP(#2)), XAR3
        MOV #1, *AR3 ; |1244| 
	.dwpsn	file "src/csl_usb.c",line 1248,column 17,is_stmt
$C$L83:    
	.dwpsn	file "src/csl_usb.c",line 1251,column 8,is_stmt
        MOV #-6, *SP(#5) ; |1251| 
	.dwpsn	file "src/csl_usb.c",line 1252,column 22,is_stmt
        B $C$L86  ; |1252| 
                                        ; branch occurs ; |1252| 
$C$L84:    
	.dwpsn	file "src/csl_usb.c",line 1216,column 3,is_stmt
        MOV dbl(*SP(#0)), XAR3
        MOV *AR3, AR1 ; |1216| 
        BCC $C$L79,AR1 == #0 ; |1216| 
                                        ; branchcc occurs ; |1216| 
        B $C$L83  ; |1216| 
                                        ; branch occurs ; |1216| 
$C$L85:    
	.dwpsn	file "src/csl_usb.c",line 1257,column 3,is_stmt
        MOV #-6, *SP(#5) ; |1257| 
$C$L86:    
	.dwpsn	file "src/csl_usb.c",line 1260,column 2,is_stmt
        MOV *SP(#5), T0 ; |1260| 
	.dwpsn	file "src/csl_usb.c",line 1261,column 1,is_stmt
        AADD #11, SP
	.dwcfi	cfa_offset, 1
$C$DW$164	.dwtag  DW_TAG_TI_branch
	.dwattr $C$DW$164, DW_AT_low_pc(0x00)
	.dwattr $C$DW$164, DW_AT_TI_return
        RET
                                        ; return occurs

$C$DW$165	.dwtag  DW_TAG_TI_loop
	.dwattr $C$DW$165, DW_AT_name("/home/santiago/dspfuzz/on_board/library/csl_usb.asm:$C$L81:1:1714639456")
	.dwattr $C$DW$165, DW_AT_TI_begin_file("src/csl_usb.c")
	.dwattr $C$DW$165, DW_AT_TI_begin_line(0x4db)
	.dwattr $C$DW$165, DW_AT_TI_end_line(0x4db)
$C$DW$166	.dwtag  DW_TAG_TI_loop_range
	.dwattr $C$DW$166, DW_AT_low_pc($C$DW$L$_USB_getSetupPacket$9$B)
	.dwattr $C$DW$166, DW_AT_high_pc($C$DW$L$_USB_getSetupPacket$9$E)
	.dwendtag $C$DW$165

	.dwattr $C$DW$155, DW_AT_TI_end_file("src/csl_usb.c")
	.dwattr $C$DW$155, DW_AT_TI_end_line(0x4ed)
	.dwattr $C$DW$155, DW_AT_TI_end_column(0x01)
	.dwendentry
	.dwendtag $C$DW$155

	.sect	".text"
	.global	_USB_postTransaction

$C$DW$167	.dwtag  DW_TAG_subprogram, DW_AT_name("USB_postTransaction")
	.dwattr $C$DW$167, DW_AT_low_pc(_USB_postTransaction)
	.dwattr $C$DW$167, DW_AT_high_pc(0x00)
	.dwattr $C$DW$167, DW_AT_TI_symbol_name("_USB_postTransaction")
	.dwattr $C$DW$167, DW_AT_external
	.dwattr $C$DW$167, DW_AT_type(*$C$DW$T$76)
	.dwattr $C$DW$167, DW_AT_TI_begin_file("src/csl_usb.c")
	.dwattr $C$DW$167, DW_AT_TI_begin_line(0x51c)
	.dwattr $C$DW$167, DW_AT_TI_begin_column(0x0c)
	.dwattr $C$DW$167, DW_AT_TI_max_frame_size(0x12)
	.dwpsn	file "src/csl_usb.c",line 1312,column 1,is_stmt,address _USB_postTransaction

	.dwfde $C$DW$CIE, _USB_postTransaction
$C$DW$168	.dwtag  DW_TAG_formal_parameter, DW_AT_name("hEp")
	.dwattr $C$DW$168, DW_AT_TI_symbol_name("_hEp")
	.dwattr $C$DW$168, DW_AT_type(*$C$DW$T$102)
	.dwattr $C$DW$168, DW_AT_location[DW_OP_reg17]
$C$DW$169	.dwtag  DW_TAG_formal_parameter, DW_AT_name("byteCnt")
	.dwattr $C$DW$169, DW_AT_TI_symbol_name("_byteCnt")
	.dwattr $C$DW$169, DW_AT_type(*$C$DW$T$19)
	.dwattr $C$DW$169, DW_AT_location[DW_OP_reg12]
$C$DW$170	.dwtag  DW_TAG_formal_parameter, DW_AT_name("data")
	.dwattr $C$DW$170, DW_AT_TI_symbol_name("_data")
	.dwattr $C$DW$170, DW_AT_type(*$C$DW$T$3)
	.dwattr $C$DW$170, DW_AT_location[DW_OP_reg19]
$C$DW$171	.dwtag  DW_TAG_formal_parameter, DW_AT_name("flags")
	.dwattr $C$DW$171, DW_AT_TI_symbol_name("_flags")
	.dwattr $C$DW$171, DW_AT_type(*$C$DW$T$114)
	.dwattr $C$DW$171, DW_AT_location[DW_OP_reg13]
;*******************************************************************************
;* FUNCTION NAME: USB_postTransaction                                          *
;*                                                                             *
;*   Function Uses Regs : AC0,AC0,T0,T1,AR0,XAR0,AR1,XAR1,AR2,XAR2,AR3,XAR3,SP,*
;*                        CARRY,TC1,M40,SATA,SATD,RDM,FRCT,SMUL                *
;*   Stack Frame        : Compact (No Frame Pointer, w/ debug)                 *
;*   Total Frame Size   : 18 words                                             *
;*                        (2 return address/alignment)                         *
;*                        (16 local values)                                    *
;*   Min System Stack   : 1 word                                               *
;*******************************************************************************
_USB_postTransaction:
	.dwcfi	cfa_offset, 1
	.dwcfi	save_reg_to_mem, 91, -1
        AADD #-17, SP
	.dwcfi	cfa_offset, 18
$C$DW$172	.dwtag  DW_TAG_variable, DW_AT_name("hEp")
	.dwattr $C$DW$172, DW_AT_TI_symbol_name("_hEp")
	.dwattr $C$DW$172, DW_AT_type(*$C$DW$T$102)
	.dwattr $C$DW$172, DW_AT_location[DW_OP_bregx 0x24 0]
$C$DW$173	.dwtag  DW_TAG_variable, DW_AT_name("byteCnt")
	.dwattr $C$DW$173, DW_AT_TI_symbol_name("_byteCnt")
	.dwattr $C$DW$173, DW_AT_type(*$C$DW$T$19)
	.dwattr $C$DW$173, DW_AT_location[DW_OP_bregx 0x24 2]
$C$DW$174	.dwtag  DW_TAG_variable, DW_AT_name("data")
	.dwattr $C$DW$174, DW_AT_TI_symbol_name("_data")
	.dwattr $C$DW$174, DW_AT_type(*$C$DW$T$3)
	.dwattr $C$DW$174, DW_AT_location[DW_OP_bregx 0x24 4]
$C$DW$175	.dwtag  DW_TAG_variable, DW_AT_name("flags")
	.dwattr $C$DW$175, DW_AT_TI_symbol_name("_flags")
	.dwattr $C$DW$175, DW_AT_type(*$C$DW$T$114)
	.dwattr $C$DW$175, DW_AT_location[DW_OP_bregx 0x24 6]
$C$DW$176	.dwtag  DW_TAG_variable, DW_AT_name("peps")
	.dwattr $C$DW$176, DW_AT_TI_symbol_name("_peps")
	.dwattr $C$DW$176, DW_AT_type(*$C$DW$T$150)
	.dwattr $C$DW$176, DW_AT_location[DW_OP_bregx 0x24 8]
$C$DW$177	.dwtag  DW_TAG_variable, DW_AT_name("pTransfer")
	.dwattr $C$DW$177, DW_AT_TI_symbol_name("_pTransfer")
	.dwattr $C$DW$177, DW_AT_type(*$C$DW$T$153)
	.dwattr $C$DW$177, DW_AT_location[DW_OP_bregx 0x24 10]
$C$DW$178	.dwtag  DW_TAG_variable, DW_AT_name("epNum")
	.dwattr $C$DW$178, DW_AT_TI_symbol_name("_epNum")
	.dwattr $C$DW$178, DW_AT_type(*$C$DW$T$106)
	.dwattr $C$DW$178, DW_AT_location[DW_OP_bregx 0x24 12]
$C$DW$179	.dwtag  DW_TAG_variable, DW_AT_name("status")
	.dwattr $C$DW$179, DW_AT_TI_symbol_name("_status")
	.dwattr $C$DW$179, DW_AT_type(*$C$DW$T$76)
	.dwattr $C$DW$179, DW_AT_location[DW_OP_bregx 0x24 13]
$C$DW$180	.dwtag  DW_TAG_variable, DW_AT_name("pContext")
	.dwattr $C$DW$180, DW_AT_TI_symbol_name("_pContext")
	.dwattr $C$DW$180, DW_AT_type(*$C$DW$T$126)
	.dwattr $C$DW$180, DW_AT_location[DW_OP_bregx 0x24 14]
        MOV T1, *SP(#6) ; |1312| 
        MOV XAR1, dbl(*SP(#4))
        MOV T0, *SP(#2) ; |1312| 
        MOV XAR0, dbl(*SP(#0))
	.dwpsn	file "src/csl_usb.c",line 1319,column 2,is_stmt
        MOV #0, *SP(#13) ; |1319| 
	.dwpsn	file "src/csl_usb.c",line 1321,column 2,is_stmt
        MOV dbl(*SP(#0)), XAR3
        MOV XAR3, AC0
        BCC $C$L95,AC0 == #0 ; |1321| 
                                        ; branchcc occurs ; |1321| 
	.dwpsn	file "src/csl_usb.c",line 1323,column 9,is_stmt
        MOV dbl(*AR3(#32)), XAR3
        MOV XAR3, dbl(*SP(#14))
	.dwpsn	file "src/csl_usb.c",line 1324,column 3,is_stmt
        MOV dbl(*SP(#0)), XAR3
        MOV *AR3, AR1 ; |1324| 
        MOV AR1, *SP(#12) ; |1324| 
	.dwpsn	file "src/csl_usb.c",line 1326,column 3,is_stmt
        B $C$L90  ; |1326| 
                                        ; branch occurs ; |1326| 
$C$L87:    
	.dwpsn	file "src/csl_usb.c",line 1333,column 5,is_stmt
        MPYMK *SP(#12), #14, AC0 ; |1333| 
        MOV AC0, AR1 ; |1333| 
        AMOV #_gUsbTransfer, XAR3 ; |1333| 

        MOV XAR3, dbl(*SP(#10))
||      AADD AR1, AR3 ; |1333| 

	.dwpsn	file "src/csl_usb.c",line 1334,column 5,is_stmt
        MOV #0, AC0 ; |1334| 
        MOV AC0, dbl(*AR3) ; |1334| 
	.dwpsn	file "src/csl_usb.c",line 1336,column 10,is_stmt
        B $C$L91  ; |1336| 
                                        ; branch occurs ; |1336| 
$C$L88:    
	.dwpsn	file "src/csl_usb.c",line 1343,column 5,is_stmt
        MPYMK *SP(#12), #14, AC0 ; |1343| 
        SUB #42, AC0, AR1 ; |1343| 
        AMOV #_gUsbTransfer, XAR3 ; |1343| 

        MOV XAR3, dbl(*SP(#10))
||      AADD AR1, AR3 ; |1343| 

	.dwpsn	file "src/csl_usb.c",line 1344,column 5,is_stmt
        MOV #128, AC0 ; |1344| 
        MOV AC0, dbl(*AR3) ; |1344| 
	.dwpsn	file "src/csl_usb.c",line 1346,column 10,is_stmt
        B $C$L91  ; |1346| 
                                        ; branch occurs ; |1346| 
$C$L89:    
	.dwpsn	file "src/csl_usb.c",line 1349,column 5,is_stmt
        MOV #-6, *SP(#13) ; |1349| 
	.dwpsn	file "src/csl_usb.c",line 1350,column 10,is_stmt
        B $C$L91  ; |1350| 
                                        ; branch occurs ; |1350| 
$C$L90:    
	.dwpsn	file "src/csl_usb.c",line 1326,column 3,is_stmt
        MOV #4, AR2
        CMPU AR1 <= AR2, TC1 ; |1326| 
        BCC $C$L87,TC1 ; |1326| 
                                        ; branchcc occurs ; |1326| 
        SUB #8, AR1, AR1 ; |1326| 
        CMPU AR1 <= AR2, TC1 ; |1326| 
        BCC $C$L88,TC1 ; |1326| 
                                        ; branchcc occurs ; |1326| 
        B $C$L89  ; |1326| 
                                        ; branch occurs ; |1326| 
$C$L91:    
	.dwpsn	file "src/csl_usb.c",line 1353,column 3,is_stmt
        MOV dbl(*SP(#0)), XAR3
        MOV *AR3, AR1 ; |1353| 

        MOV AR1, AC0
||      MOV #7, AR2

        SFTS AC0, #-2, AC0 ; |1353| 
||      NOT AR2, AR2 ; |1353| 

        BFXTR #0xe000, AC0, AR3 ; |1353| 
        ADD AR1, AR3 ; |1353| 
        AND AR3, AR2 ; |1353| 
        MOV dbl(*SP(#14)), XAR3
        MOV AR1, HI(AC0)
        MOV HI(AC0), AR1
        MOV dbl(*AR3(#90)), XAR3
        SUB AR2, AR1 ; |1353| 
        MOV AR1, HI(AC0)
        MPYK #18, AC0, AC0 ; |1353| 
        MOV AC0, AR1 ; |1353| 

        MOV XAR3, dbl(*SP(#8))
||      AADD AR1, AR3 ; |1353| 

	.dwpsn	file "src/csl_usb.c",line 1354,column 3,is_stmt
        MOV dbl(*SP(#0)), XAR3
        MOV *AR3(short(#4)), AR1 ; |1354| 
        MOV dbl(*SP(#8)), XAR3
        MOV AR1, *AR3(short(#2)) ; |1354| 
	.dwpsn	file "src/csl_usb.c",line 1356,column 3,is_stmt
        MOV dbl(*SP(#8)), XAR3
        MOV dbl(*AR3), AC0 ; |1356| 
        BCC $C$L92,AC0 != #0 ; |1356| 
                                        ; branchcc occurs ; |1356| 
        MOV *SP(#2), AR1 ; |1356| 
        BCC $C$L92,AR1 != #0 ; |1356| 
                                        ; branchcc occurs ; |1356| 
	.dwpsn	file "src/csl_usb.c",line 1358,column 4,is_stmt
        MOV #0, T0
        B $C$L97  ; |1358| 
                                        ; branch occurs ; |1358| 
$C$L92:    
	.dwpsn	file "src/csl_usb.c",line 1361,column 3,is_stmt
        MOV XAR3, AC0
        BCC $C$L96,AC0 == #0 ; |1361| 
                                        ; branchcc occurs ; |1361| 
	.dwpsn	file "src/csl_usb.c",line 1363,column 4,is_stmt
        MOV dbl(*SP(#8)), XAR2
        MOV dbl(*SP(#10)), XAR3
        MOV XAR3, dbl(*AR2(#10))
	.dwpsn	file "src/csl_usb.c",line 1365,column 4,is_stmt
        MOV dbl(*SP(#8)), XAR3
        MOV dbl(*AR3(#10)), XAR3
        MOV XAR3, AC0
        BCC $C$L93,AC0 == #0 ; |1365| 
                                        ; branchcc occurs ; |1365| 
        MOV dbl(*SP(#8)), XAR3
        MOV dbl(*AR3(#10)), XAR3
        CMP *AR3(#12) == #1, TC1 ; |1365| 
        BCC $C$L93,!TC1 ; |1365| 
                                        ; branchcc occurs ; |1365| 
        MOV dbl(*SP(#14)), XAR3
        CMP *AR3(#15) == #1, TC1 ; |1365| 
        BCC $C$L93,!TC1 ; |1365| 
                                        ; branchcc occurs ; |1365| 
        CMP *AR3(short(#3)) == #1, TC1 ; |1365| 
        BCC $C$L94,TC1 ; |1365| 
                                        ; branchcc occurs ; |1365| 
$C$L93:    
	.dwpsn	file "src/csl_usb.c",line 1370,column 5,is_stmt
        MOV #-6, T0
        B $C$L97  ; |1370| 
                                        ; branch occurs ; |1370| 
$C$L94:    
	.dwpsn	file "src/csl_usb.c",line 1373,column 4,is_stmt
        MOV dbl(*SP(#10)), XAR3
        MOV dbl(*SP(#8)), XAR2
        AADD #2, AR3 ; |1373| 
        MOV dbl(*AR2), dbl(*AR3) ; |1373| 
	.dwpsn	file "src/csl_usb.c",line 1374,column 4,is_stmt
        MOV dbl(*SP(#10)), XAR3
        MOV dbl(*SP(#4)), XAR2
        MOV XAR2, dbl(*AR3(short(#4)))
	.dwpsn	file "src/csl_usb.c",line 1375,column 4,is_stmt
        MOV dbl(*SP(#10)), XAR3
        MOV uns(*SP(#2)), AC0 ; |1375| 
        MOV AC0, dbl(*AR3(short(#6))) ; |1375| 
	.dwpsn	file "src/csl_usb.c",line 1376,column 4,is_stmt
        MOV dbl(*SP(#10)), XAR3
        MOV #0, AC0 ; |1376| 
        MOV AC0, dbl(*AR3(#8)) ; |1376| 
	.dwpsn	file "src/csl_usb.c",line 1377,column 4,is_stmt
        MOV dbl(*SP(#10)), XAR3
        MOV #0, *AR3(#12) ; |1377| 
	.dwpsn	file "src/csl_usb.c",line 1378,column 4,is_stmt
        MOV dbl(*SP(#10)), XAR3
        MOV *SP(#6), AR1 ; |1378| 
        MOV AR1, *AR3(#13) ; |1378| 
	.dwpsn	file "src/csl_usb.c",line 1381,column 4,is_stmt
        MOV dbl(*SP(#14)), XAR3
        MOV dbl(*SP(#14)), XAR0
        MOV dbl(*SP(#8)), XAR1
        MOV dbl(*AR3(#104)), AC0 ; |1381| 
$C$DW$181	.dwtag  DW_TAG_TI_branch
	.dwattr $C$DW$181, DW_AT_low_pc(0x00)
	.dwattr $C$DW$181, DW_AT_TI_call
	.dwattr $C$DW$181, DW_AT_TI_indirect
        CALL AC0  ; |1381| 
                                        ; call occurs [AC0] ; |1381| 
        MOV T0, *SP(#13) ; |1381| 
	.dwpsn	file "src/csl_usb.c",line 1383,column 2,is_stmt
        B $C$L96  ; |1383| 
                                        ; branch occurs ; |1383| 
$C$L95:    
	.dwpsn	file "src/csl_usb.c",line 1386,column 3,is_stmt
        MOV #-5, *SP(#13) ; |1386| 
$C$L96:    
	.dwpsn	file "src/csl_usb.c",line 1389,column 2,is_stmt
        MOV *SP(#13), T0 ; |1389| 
$C$L97:    
	.dwpsn	file "src/csl_usb.c",line 1390,column 1,is_stmt
        AADD #17, SP
	.dwcfi	cfa_offset, 1
$C$DW$182	.dwtag  DW_TAG_TI_branch
	.dwattr $C$DW$182, DW_AT_low_pc(0x00)
	.dwattr $C$DW$182, DW_AT_TI_return
        RET
                                        ; return occurs
	.dwattr $C$DW$167, DW_AT_TI_end_file("src/csl_usb.c")
	.dwattr $C$DW$167, DW_AT_TI_end_line(0x56e)
	.dwattr $C$DW$167, DW_AT_TI_end_column(0x01)
	.dwendentry
	.dwendtag $C$DW$167

	.sect	".text"
	.global	_USB_isTransactionDone

$C$DW$183	.dwtag  DW_TAG_subprogram, DW_AT_name("USB_isTransactionDone")
	.dwattr $C$DW$183, DW_AT_low_pc(_USB_isTransactionDone)
	.dwattr $C$DW$183, DW_AT_high_pc(0x00)
	.dwattr $C$DW$183, DW_AT_TI_symbol_name("_USB_isTransactionDone")
	.dwattr $C$DW$183, DW_AT_external
	.dwattr $C$DW$183, DW_AT_type(*$C$DW$T$89)
	.dwattr $C$DW$183, DW_AT_TI_begin_file("src/csl_usb.c")
	.dwattr $C$DW$183, DW_AT_TI_begin_line(0x5a4)
	.dwattr $C$DW$183, DW_AT_TI_begin_column(0x10)
	.dwattr $C$DW$183, DW_AT_TI_max_frame_size(0x0a)
	.dwpsn	file "src/csl_usb.c",line 1446,column 1,is_stmt,address _USB_isTransactionDone

	.dwfde $C$DW$CIE, _USB_isTransactionDone
$C$DW$184	.dwtag  DW_TAG_formal_parameter, DW_AT_name("hEp")
	.dwattr $C$DW$184, DW_AT_TI_symbol_name("_hEp")
	.dwattr $C$DW$184, DW_AT_type(*$C$DW$T$102)
	.dwattr $C$DW$184, DW_AT_location[DW_OP_reg17]
$C$DW$185	.dwtag  DW_TAG_formal_parameter, DW_AT_name("status")
	.dwattr $C$DW$185, DW_AT_TI_symbol_name("_status")
	.dwattr $C$DW$185, DW_AT_type(*$C$DW$T$121)
	.dwattr $C$DW$185, DW_AT_location[DW_OP_reg19]
;*******************************************************************************
;* FUNCTION NAME: USB_isTransactionDone                                        *
;*                                                                             *
;*   Function Uses Regs : AC0,AC0,T0,AR0,XAR0,AR1,XAR1,AR2,AR3,XAR3,SP,CARRY,  *
;*                        TC1,M40,SATA,SATD,RDM,FRCT,SMUL                      *
;*   Stack Frame        : Compact (No Frame Pointer, w/ debug)                 *
;*   Total Frame Size   : 10 words                                             *
;*                        (2 return address/alignment)                         *
;*                        (8 local values)                                     *
;*   Min System Stack   : 1 word                                               *
;*******************************************************************************
_USB_isTransactionDone:
	.dwcfi	cfa_offset, 1
	.dwcfi	save_reg_to_mem, 91, -1
        AADD #-9, SP
	.dwcfi	cfa_offset, 10
$C$DW$186	.dwtag  DW_TAG_variable, DW_AT_name("hEp")
	.dwattr $C$DW$186, DW_AT_TI_symbol_name("_hEp")
	.dwattr $C$DW$186, DW_AT_type(*$C$DW$T$102)
	.dwattr $C$DW$186, DW_AT_location[DW_OP_bregx 0x24 0]
$C$DW$187	.dwtag  DW_TAG_variable, DW_AT_name("status")
	.dwattr $C$DW$187, DW_AT_TI_symbol_name("_status")
	.dwattr $C$DW$187, DW_AT_type(*$C$DW$T$121)
	.dwattr $C$DW$187, DW_AT_location[DW_OP_bregx 0x24 2]
$C$DW$188	.dwtag  DW_TAG_variable, DW_AT_name("peps")
	.dwattr $C$DW$188, DW_AT_TI_symbol_name("_peps")
	.dwattr $C$DW$188, DW_AT_type(*$C$DW$T$150)
	.dwattr $C$DW$188, DW_AT_location[DW_OP_bregx 0x24 4]
$C$DW$189	.dwtag  DW_TAG_variable, DW_AT_name("pContext")
	.dwattr $C$DW$189, DW_AT_TI_symbol_name("_pContext")
	.dwattr $C$DW$189, DW_AT_type(*$C$DW$T$126)
	.dwattr $C$DW$189, DW_AT_location[DW_OP_bregx 0x24 6]
        MOV XAR1, dbl(*SP(#2))
        MOV XAR0, dbl(*SP(#0))
	.dwpsn	file "src/csl_usb.c",line 1450,column 5,is_stmt
        MOV dbl(*SP(#2)), XAR3
        MOV #0, *AR3 ; |1450| 
	.dwpsn	file "src/csl_usb.c",line 1451,column 5,is_stmt
        MOV #0, AC0 ; |1451| 
        MOV AC0, dbl(*SP(#4))
	.dwpsn	file "src/csl_usb.c",line 1453,column 2,is_stmt
        MOV dbl(*SP(#0)), XAR3
        MOV XAR3, AC0
        BCC $C$L99,AC0 == #0 ; |1453| 
                                        ; branchcc occurs ; |1453| 
	.dwpsn	file "src/csl_usb.c",line 1455,column 9,is_stmt
        MOV dbl(*AR3(#32)), XAR3
        MOV XAR3, dbl(*SP(#6))
	.dwpsn	file "src/csl_usb.c",line 1457,column 3,is_stmt
        MOV dbl(*SP(#0)), XAR3
        MOV *AR3, AR1 ; |1457| 

        MOV AR1, AC0
||      MOV #7, AR2

        SFTS AC0, #-2, AC0 ; |1457| 
||      NOT AR2, AR2 ; |1457| 

        BFXTR #0xe000, AC0, AR3 ; |1457| 
        ADD AR1, AR3 ; |1457| 
        AND AR3, AR2 ; |1457| 
        MOV dbl(*SP(#6)), XAR3
        MOV AR1, HI(AC0)
        MOV HI(AC0), AR1
        MOV dbl(*AR3(#90)), XAR3
        SUB AR2, AR1 ; |1457| 
        MOV AR1, HI(AC0)
        MPYK #18, AC0, AC0 ; |1457| 
        MOV AC0, AR1 ; |1457| 

        MOV XAR3, dbl(*SP(#4))
||      AADD AR1, AR3 ; |1457| 

	.dwpsn	file "src/csl_usb.c",line 1459,column 3,is_stmt
        MOV dbl(*AR3(#10)), XAR3
        MOV XAR3, AC0
        BCC $C$L98,AC0 == #0 ; |1459| 
                                        ; branchcc occurs ; |1459| 
	.dwpsn	file "src/csl_usb.c",line 1461,column 4,is_stmt
        MOV dbl(*SP(#4)), XAR3
        MOV dbl(*AR3(#10)), XAR3
        CMP *AR3(#12) == #1, TC1 ; |1461| 
        BCC $C$L100,TC1 ; |1461| 
                                        ; branchcc occurs ; |1461| 
	.dwpsn	file "src/csl_usb.c",line 1463,column 5,is_stmt
        MOV #0, T0
        B $C$L101 ; |1463| 
                                        ; branch occurs ; |1463| 
$C$L98:    
	.dwpsn	file "src/csl_usb.c",line 1468,column 4,is_stmt
        MOV dbl(*SP(#2)), XAR3
        MOV #-6, *AR3 ; |1468| 
	.dwpsn	file "src/csl_usb.c",line 1470,column 2,is_stmt
        B $C$L100 ; |1470| 
                                        ; branch occurs ; |1470| 
$C$L99:    
	.dwpsn	file "src/csl_usb.c",line 1473,column 3,is_stmt
        MOV dbl(*SP(#2)), XAR3
        MOV #-5, *AR3 ; |1473| 
$C$L100:    
	.dwpsn	file "src/csl_usb.c",line 1476,column 2,is_stmt
        MOV #1, T0
$C$L101:    
	.dwpsn	file "src/csl_usb.c",line 1477,column 1,is_stmt
        AADD #9, SP
	.dwcfi	cfa_offset, 1
$C$DW$190	.dwtag  DW_TAG_TI_branch
	.dwattr $C$DW$190, DW_AT_low_pc(0x00)
	.dwattr $C$DW$190, DW_AT_TI_return
        RET
                                        ; return occurs
	.dwattr $C$DW$183, DW_AT_TI_end_file("src/csl_usb.c")
	.dwattr $C$DW$183, DW_AT_TI_end_line(0x5c5)
	.dwattr $C$DW$183, DW_AT_TI_end_column(0x01)
	.dwendentry
	.dwendtag $C$DW$183

	.sect	".text"
	.global	_USB_bytesRemaining

$C$DW$191	.dwtag  DW_TAG_subprogram, DW_AT_name("USB_bytesRemaining")
	.dwattr $C$DW$191, DW_AT_low_pc(_USB_bytesRemaining)
	.dwattr $C$DW$191, DW_AT_high_pc(0x00)
	.dwattr $C$DW$191, DW_AT_TI_symbol_name("_USB_bytesRemaining")
	.dwattr $C$DW$191, DW_AT_external
	.dwattr $C$DW$191, DW_AT_type(*$C$DW$T$184)
	.dwattr $C$DW$191, DW_AT_TI_begin_file("src/csl_usb.c")
	.dwattr $C$DW$191, DW_AT_TI_begin_line(0x5f8)
	.dwattr $C$DW$191, DW_AT_TI_begin_column(0x12)
	.dwattr $C$DW$191, DW_AT_TI_max_frame_size(0x0c)
	.dwpsn	file "src/csl_usb.c",line 1530,column 1,is_stmt,address _USB_bytesRemaining

	.dwfde $C$DW$CIE, _USB_bytesRemaining
$C$DW$192	.dwtag  DW_TAG_formal_parameter, DW_AT_name("hEp")
	.dwattr $C$DW$192, DW_AT_TI_symbol_name("_hEp")
	.dwattr $C$DW$192, DW_AT_type(*$C$DW$T$102)
	.dwattr $C$DW$192, DW_AT_location[DW_OP_reg17]
$C$DW$193	.dwtag  DW_TAG_formal_parameter, DW_AT_name("status")
	.dwattr $C$DW$193, DW_AT_TI_symbol_name("_status")
	.dwattr $C$DW$193, DW_AT_type(*$C$DW$T$121)
	.dwattr $C$DW$193, DW_AT_location[DW_OP_reg19]
;*******************************************************************************
;* FUNCTION NAME: USB_bytesRemaining                                           *
;*                                                                             *
;*   Function Uses Regs : AC0,AC0,T0,AR0,XAR0,AR1,XAR1,AR2,AR3,XAR3,SP,CARRY,  *
;*                        M40,SATA,SATD,RDM,FRCT,SMUL                          *
;*   Stack Frame        : Compact (No Frame Pointer, w/ debug)                 *
;*   Total Frame Size   : 12 words                                             *
;*                        (2 return address/alignment)                         *
;*                        (10 local values)                                    *
;*   Min System Stack   : 1 word                                               *
;*******************************************************************************
_USB_bytesRemaining:
	.dwcfi	cfa_offset, 1
	.dwcfi	save_reg_to_mem, 91, -1
        AADD #-11, SP
	.dwcfi	cfa_offset, 12
$C$DW$194	.dwtag  DW_TAG_variable, DW_AT_name("hEp")
	.dwattr $C$DW$194, DW_AT_TI_symbol_name("_hEp")
	.dwattr $C$DW$194, DW_AT_type(*$C$DW$T$102)
	.dwattr $C$DW$194, DW_AT_location[DW_OP_bregx 0x24 0]
$C$DW$195	.dwtag  DW_TAG_variable, DW_AT_name("status")
	.dwattr $C$DW$195, DW_AT_TI_symbol_name("_status")
	.dwattr $C$DW$195, DW_AT_type(*$C$DW$T$121)
	.dwattr $C$DW$195, DW_AT_location[DW_OP_bregx 0x24 2]
$C$DW$196	.dwtag  DW_TAG_variable, DW_AT_name("peps")
	.dwattr $C$DW$196, DW_AT_TI_symbol_name("_peps")
	.dwattr $C$DW$196, DW_AT_type(*$C$DW$T$150)
	.dwattr $C$DW$196, DW_AT_location[DW_OP_bregx 0x24 4]
$C$DW$197	.dwtag  DW_TAG_variable, DW_AT_name("bytesRem")
	.dwattr $C$DW$197, DW_AT_TI_symbol_name("_bytesRem")
	.dwattr $C$DW$197, DW_AT_type(*$C$DW$T$184)
	.dwattr $C$DW$197, DW_AT_location[DW_OP_bregx 0x24 6]
$C$DW$198	.dwtag  DW_TAG_variable, DW_AT_name("pContext")
	.dwattr $C$DW$198, DW_AT_TI_symbol_name("_pContext")
	.dwattr $C$DW$198, DW_AT_type(*$C$DW$T$126)
	.dwattr $C$DW$198, DW_AT_location[DW_OP_bregx 0x24 8]
        MOV XAR1, dbl(*SP(#2))
        MOV XAR0, dbl(*SP(#0))
	.dwpsn	file "src/csl_usb.c",line 1535,column 2,is_stmt
        MOV dbl(*SP(#2)), XAR3
        MOV #0, *AR3 ; |1535| 
	.dwpsn	file "src/csl_usb.c",line 1536,column 2,is_stmt
        MOV #0, *SP(#6) ; |1536| 
	.dwpsn	file "src/csl_usb.c",line 1537,column 2,is_stmt
        MOV #0, AC0 ; |1537| 
        MOV AC0, dbl(*SP(#4))
	.dwpsn	file "src/csl_usb.c",line 1539,column 5,is_stmt
        MOV dbl(*SP(#0)), XAR3
        MOV XAR3, AC0
        BCC $C$L103,AC0 == #0 ; |1539| 
                                        ; branchcc occurs ; |1539| 
	.dwpsn	file "src/csl_usb.c",line 1541,column 9,is_stmt
        MOV dbl(*AR3(#32)), XAR3
        MOV XAR3, dbl(*SP(#8))
	.dwpsn	file "src/csl_usb.c",line 1543,column 3,is_stmt
        MOV dbl(*SP(#0)), XAR3
        MOV *AR3, AR1 ; |1543| 

        MOV AR1, AC0
||      MOV #7, AR2

        SFTS AC0, #-2, AC0 ; |1543| 
||      NOT AR2, AR2 ; |1543| 

        BFXTR #0xe000, AC0, AR3 ; |1543| 
        ADD AR1, AR3 ; |1543| 
        AND AR3, AR2 ; |1543| 
        MOV dbl(*SP(#8)), XAR3
        MOV AR1, HI(AC0)
        MOV HI(AC0), AR1
        MOV dbl(*AR3(#90)), XAR3
        SUB AR2, AR1 ; |1543| 
        MOV AR1, HI(AC0)
        MPYK #18, AC0, AC0 ; |1543| 
        MOV AC0, AR1 ; |1543| 

        MOV XAR3, dbl(*SP(#4))
||      AADD AR1, AR3 ; |1543| 

	.dwpsn	file "src/csl_usb.c",line 1544,column 3,is_stmt
        MOV XAR3, AC0
        BCC $C$L102,AC0 == #0 ; |1544| 
                                        ; branchcc occurs ; |1544| 
        MOV dbl(*AR3(#10)), XAR3
        MOV XAR3, AC0
        BCC $C$L102,AC0 == #0 ; |1544| 
                                        ; branchcc occurs ; |1544| 
	.dwpsn	file "src/csl_usb.c",line 1546,column 4,is_stmt
        MOV dbl(*SP(#4)), XAR3
        MOV dbl(*AR3(#10)), XAR3
        MOV dbl(*AR3(#8)), AC0 ; |1546| 
        MOV dbl(*SP(#4)), XAR3
        MOV dbl(*AR3(#10)), XAR3
        SUB AC0, dbl(*AR3(short(#6))), AC0 ; |1546| 
        MOV AC0, *SP(#6) ; |1546| 
	.dwpsn	file "src/csl_usb.c",line 1548,column 3,is_stmt
        B $C$L104 ; |1548| 
                                        ; branch occurs ; |1548| 
$C$L102:    
	.dwpsn	file "src/csl_usb.c",line 1551,column 4,is_stmt
        MOV dbl(*SP(#2)), XAR3
        MOV #-6, *AR3 ; |1551| 
	.dwpsn	file "src/csl_usb.c",line 1553,column 2,is_stmt
        B $C$L104 ; |1553| 
                                        ; branch occurs ; |1553| 
$C$L103:    
	.dwpsn	file "src/csl_usb.c",line 1556,column 3,is_stmt
        MOV dbl(*SP(#2)), XAR3
        MOV #-5, *AR3 ; |1556| 
$C$L104:    
	.dwpsn	file "src/csl_usb.c",line 1559,column 2,is_stmt
        MOV *SP(#6), T0 ; |1559| 
	.dwpsn	file "src/csl_usb.c",line 1560,column 1,is_stmt
        AADD #11, SP
	.dwcfi	cfa_offset, 1
$C$DW$199	.dwtag  DW_TAG_TI_branch
	.dwattr $C$DW$199, DW_AT_low_pc(0x00)
	.dwattr $C$DW$199, DW_AT_TI_return
        RET
                                        ; return occurs
	.dwattr $C$DW$191, DW_AT_TI_end_file("src/csl_usb.c")
	.dwattr $C$DW$191, DW_AT_TI_end_line(0x618)
	.dwattr $C$DW$191, DW_AT_TI_end_column(0x01)
	.dwendentry
	.dwendtag $C$DW$191

	.sect	".text"
	.global	_USB_stallEndpt

$C$DW$200	.dwtag  DW_TAG_subprogram, DW_AT_name("USB_stallEndpt")
	.dwattr $C$DW$200, DW_AT_low_pc(_USB_stallEndpt)
	.dwattr $C$DW$200, DW_AT_high_pc(0x00)
	.dwattr $C$DW$200, DW_AT_TI_symbol_name("_USB_stallEndpt")
	.dwattr $C$DW$200, DW_AT_external
	.dwattr $C$DW$200, DW_AT_type(*$C$DW$T$76)
	.dwattr $C$DW$200, DW_AT_TI_begin_file("src/csl_usb.c")
	.dwattr $C$DW$200, DW_AT_TI_begin_line(0x644)
	.dwattr $C$DW$200, DW_AT_TI_begin_column(0x0c)
	.dwattr $C$DW$200, DW_AT_TI_max_frame_size(0x0a)
	.dwpsn	file "src/csl_usb.c",line 1605,column 1,is_stmt,address _USB_stallEndpt

	.dwfde $C$DW$CIE, _USB_stallEndpt
$C$DW$201	.dwtag  DW_TAG_formal_parameter, DW_AT_name("hEp")
	.dwattr $C$DW$201, DW_AT_TI_symbol_name("_hEp")
	.dwattr $C$DW$201, DW_AT_type(*$C$DW$T$102)
	.dwattr $C$DW$201, DW_AT_location[DW_OP_reg17]
;*******************************************************************************
;* FUNCTION NAME: USB_stallEndpt                                               *
;*                                                                             *
;*   Function Uses Regs : AC0,AC0,AC1,AC1,T0,AR0,XAR0,AR1,AR2,AR3,XAR3,SP,     *
;*                        CARRY,TC1,M40,SATA,SATD,RDM,FRCT,SMUL                *
;*   Stack Frame        : Compact (No Frame Pointer, w/ debug)                 *
;*   Total Frame Size   : 10 words                                             *
;*                        (2 return address/alignment)                         *
;*                        (8 local values)                                     *
;*   Min System Stack   : 1 word                                               *
;*******************************************************************************
_USB_stallEndpt:
	.dwcfi	cfa_offset, 1
	.dwcfi	save_reg_to_mem, 91, -1
        AADD #-9, SP
	.dwcfi	cfa_offset, 10
$C$DW$202	.dwtag  DW_TAG_variable, DW_AT_name("hEp")
	.dwattr $C$DW$202, DW_AT_TI_symbol_name("_hEp")
	.dwattr $C$DW$202, DW_AT_type(*$C$DW$T$102)
	.dwattr $C$DW$202, DW_AT_location[DW_OP_bregx 0x24 0]
$C$DW$203	.dwtag  DW_TAG_variable, DW_AT_name("peps")
	.dwattr $C$DW$203, DW_AT_TI_symbol_name("_peps")
	.dwattr $C$DW$203, DW_AT_type(*$C$DW$T$150)
	.dwattr $C$DW$203, DW_AT_location[DW_OP_bregx 0x24 2]
$C$DW$204	.dwtag  DW_TAG_variable, DW_AT_name("status")
	.dwattr $C$DW$204, DW_AT_TI_symbol_name("_status")
	.dwattr $C$DW$204, DW_AT_type(*$C$DW$T$76)
	.dwattr $C$DW$204, DW_AT_location[DW_OP_bregx 0x24 4]
$C$DW$205	.dwtag  DW_TAG_variable, DW_AT_name("saveIndex")
	.dwattr $C$DW$205, DW_AT_TI_symbol_name("_saveIndex")
	.dwattr $C$DW$205, DW_AT_type(*$C$DW$T$19)
	.dwattr $C$DW$205, DW_AT_location[DW_OP_bregx 0x24 5]
$C$DW$206	.dwtag  DW_TAG_variable, DW_AT_name("pContext")
	.dwattr $C$DW$206, DW_AT_TI_symbol_name("_pContext")
	.dwattr $C$DW$206, DW_AT_type(*$C$DW$T$126)
	.dwattr $C$DW$206, DW_AT_location[DW_OP_bregx 0x24 6]
        MOV XAR0, dbl(*SP(#0))
	.dwpsn	file "src/csl_usb.c",line 1611,column 2,is_stmt
        MOV #0, *SP(#4) ; |1611| 
	.dwpsn	file "src/csl_usb.c",line 1612,column 2,is_stmt
        MOV #0, *SP(#5) ; |1612| 
	.dwpsn	file "src/csl_usb.c",line 1613,column 2,is_stmt
        MOV #0, AC0 ; |1613| 
        MOV AC0, dbl(*SP(#2))
	.dwpsn	file "src/csl_usb.c",line 1615,column 2,is_stmt
        MOV dbl(*SP(#0)), XAR3
        MOV XAR3, AC0
        BCC $C$L110,AC0 == #0 ; |1615| 
                                        ; branchcc occurs ; |1615| 
	.dwpsn	file "src/csl_usb.c",line 1617,column 9,is_stmt
        MOV dbl(*AR3(#32)), XAR3
        MOV XAR3, dbl(*SP(#6))
	.dwpsn	file "src/csl_usb.c",line 1619,column 3,is_stmt
        MOV dbl(*SP(#0)), XAR3
        CMP *AR3 == #8, TC1 ; |1619| 
        BCC $C$L105,!TC1 ; |1619| 
                                        ; branchcc occurs ; |1619| 
	.dwpsn	file "src/csl_usb.c",line 1621,column 4,is_stmt
        MOV *SP(#4), T0 ; |1621| 
        B $C$L112 ; |1621| 
                                        ; branch occurs ; |1621| 
$C$L105:    
	.dwpsn	file "src/csl_usb.c",line 1624,column 3,is_stmt
        MOV *AR3, AR1 ; |1624| 

        MOV AR1, AC0
||      MOV #7, AR2

        SFTS AC0, #-2, AC0 ; |1624| 
||      NOT AR2, AR2 ; |1624| 

        BFXTR #0xe000, AC0, AR3 ; |1624| 
        ADD AR1, AR3 ; |1624| 
        AND AR3, AR2 ; |1624| 
        MOV dbl(*SP(#6)), XAR3
        MOV AR1, HI(AC0)
        MOV HI(AC0), AR1
        MOV dbl(*AR3(#90)), XAR3
        SUB AR2, AR1 ; |1624| 
        MOV AR1, HI(AC0)
        MPYK #18, AC0, AC0 ; |1624| 
        MOV AC0, AR1 ; |1624| 

        MOV XAR3, dbl(*SP(#2))
||      AADD AR1, AR3 ; |1624| 

	.dwpsn	file "src/csl_usb.c",line 1626,column 3,is_stmt
        MOV XAR3, AC0
        BCC $C$L109,AC0 == #0 ; |1626| 
                                        ; branchcc occurs ; |1626| 
        CMP *AR3(short(#6)) == #1, TC1 ; |1626| 
        BCC $C$L109,!TC1 ; |1626| 
                                        ; branchcc occurs ; |1626| 
	.dwpsn	file "src/csl_usb.c",line 1629,column 4,is_stmt
        MOV #1038, T0 ; |1629| 
        MOV *(#_usbRegisters), AR3 ; |1629| 
        MOV port(*AR3(T0)), AR1 ; |1629| 
        MOV AR1, *SP(#5) ; |1629| 
	.dwpsn	file "src/csl_usb.c",line 1630,column 4,is_stmt
        MOV dbl(*SP(#2)), XAR3
        MOV #1, *AR3(#16) ; |1630| 
	.dwpsn	file "src/csl_usb.c",line 1632,column 4,is_stmt
        MOV dbl(*SP(#2)), XAR3
        MOV dbl(*AR3), AC0 ; |1632| 
        BCC $C$L106,AC0 != #0 ; |1632| 
                                        ; branchcc occurs ; |1632| 
	.dwpsn	file "src/csl_usb.c",line 1635,column 5,is_stmt
        MOV *(#_usbRegisters), AR3 ; |1635| 
        MOV port(*AR3(T0)), AR1 ; |1635| 
        AND #0xfff0, AR1, AC0 ; |1635| 
        MOV AC0, port(*AR3(T0)) ; |1635| 
	.dwpsn	file "src/csl_usb.c",line 1639,column 5,is_stmt
        MOV *(#_usbRegisters), AR3 ; |1639| 
        MOV port(*AR3(T0)), AR1 ; |1639| 
        AND #0xfff0, AR1, AC0 ; |1639| 
        MOV AC0, port(*AR3(T0)) ; |1639| 
	.dwpsn	file "src/csl_usb.c",line 1643,column 5,is_stmt
        MOV #1042, T0 ; |1643| 
        MOV *(#_usbRegisters), AR3 ; |1643| 
        MOV port(*AR3(T0)), AR1 ; |1643| 
        BCLR @#5, AR1 ; |1643| 
        BSET @#5, AR1 ; |1643| 
        MOV AR1, port(*AR3(T0)) ; |1643| 
	.dwpsn	file "src/csl_usb.c",line 1645,column 4,is_stmt
        B $C$L108 ; |1645| 
                                        ; branch occurs ; |1645| 
$C$L106:    
	.dwpsn	file "src/csl_usb.c",line 1648,column 5,is_stmt
        MOV dbl(*SP(#0)), XAR3

        MOV *AR3, AR1 ; |1648| 
||      MOV #8, AR2

        CMP AR1 <= AR2, TC1 ; |1648| 
        BCC $C$L107,TC1 ; |1648| 
                                        ; branchcc occurs ; |1648| 
	.dwpsn	file "src/csl_usb.c",line 1651,column 12,is_stmt
        MOV *(#_usbRegisters), AR3 ; |1651| 
        MOV port(*AR3(T0)), AR1 ; |1651| 
        AND #0xfff0, AR1, AC0 ; |1651| 
        MOV AC0, port(*AR3(T0)) ; |1651| 
	.dwpsn	file "src/csl_usb.c",line 1655,column 6,is_stmt
        MOV *(#_usbRegisters), AR3 ; |1655| 
        MOV port(*AR3(T0)), AR1 ; |1655| 
        MOV dbl(*SP(#2)), XAR3
        MOV dbl(*AR3), AC0 ; |1655| 
        MOV *(#_usbRegisters), AR3 ; |1655| 
        AND #0xfff0, AR1, AC1 ; |1655| 
        AND #0x000f, AC0, AC0 ; |1655| 
        OR AC1, AC0 ; |1655| 
        MOV AC0, port(*AR3(T0)) ; |1655| 
	.dwpsn	file "src/csl_usb.c",line 1659,column 6,is_stmt
        MOV #1042, T0 ; |1659| 
        MOV *(#_usbRegisters), AR3 ; |1659| 
        MOV port(*AR3(T0)), AR1 ; |1659| 
        BCLR @#4, AR1 ; |1659| 
        BSET @#4, AR1 ; |1659| 
        MOV AR1, port(*AR3(T0)) ; |1659| 
	.dwpsn	file "src/csl_usb.c",line 1661,column 5,is_stmt
        B $C$L108 ; |1661| 
                                        ; branch occurs ; |1661| 
$C$L107:    
	.dwpsn	file "src/csl_usb.c",line 1665,column 12,is_stmt
        MOV *(#_usbRegisters), AR3 ; |1665| 
        MOV port(*AR3(T0)), AR1 ; |1665| 
        AND #0xfff0, AR1, AC0 ; |1665| 
        MOV AC0, port(*AR3(T0)) ; |1665| 
	.dwpsn	file "src/csl_usb.c",line 1669,column 6,is_stmt
        MOV *(#_usbRegisters), AR3 ; |1669| 
        MOV port(*AR3(T0)), AR1 ; |1669| 
        MOV dbl(*SP(#2)), XAR3
        MOV dbl(*AR3), AC0 ; |1669| 
        MOV *(#_usbRegisters), AR3 ; |1669| 
        AND #0xfff0, AR1, AC1 ; |1669| 
        AND #0x000f, AC0, AC0 ; |1669| 
        OR AC1, AC0 ; |1669| 
        MOV AC0, port(*AR3(T0)) ; |1669| 
	.dwpsn	file "src/csl_usb.c",line 1673,column 6,is_stmt
        MOV #1046, T0 ; |1673| 
        MOV *(#_usbRegisters), AR3 ; |1673| 
        MOV port(*AR3(T0)), AR1 ; |1673| 
        BCLR @#5, AR1 ; |1673| 
        BSET @#5, AR1 ; |1673| 
        MOV AR1, port(*AR3(T0)) ; |1673| 
$C$L108:    
	.dwpsn	file "src/csl_usb.c",line 1679,column 10,is_stmt
        MOV *(#_usbRegisters), AR3 ; |1679| 
        MOV #1038, T0 ; |1679| 
        MOV *SP(#5), AR1 ; |1679| 
        MOV AR1, port(*AR3(T0)) ; |1679| 
	.dwpsn	file "src/csl_usb.c",line 1680,column 3,is_stmt
        B $C$L111 ; |1680| 
                                        ; branch occurs ; |1680| 
$C$L109:    
	.dwpsn	file "src/csl_usb.c",line 1683,column 13,is_stmt
        MOV #-6, *SP(#4) ; |1683| 
	.dwpsn	file "src/csl_usb.c",line 1685,column 2,is_stmt
        B $C$L111 ; |1685| 
                                        ; branch occurs ; |1685| 
$C$L110:    
	.dwpsn	file "src/csl_usb.c",line 1688,column 3,is_stmt
        MOV #-5, *SP(#4) ; |1688| 
$C$L111:    
	.dwpsn	file "src/csl_usb.c",line 1691,column 2,is_stmt
        MOV *SP(#4), T0 ; |1691| 
$C$L112:    
	.dwpsn	file "src/csl_usb.c",line 1692,column 1,is_stmt
        AADD #9, SP
	.dwcfi	cfa_offset, 1
$C$DW$207	.dwtag  DW_TAG_TI_branch
	.dwattr $C$DW$207, DW_AT_low_pc(0x00)
	.dwattr $C$DW$207, DW_AT_TI_return
        RET
                                        ; return occurs
	.dwattr $C$DW$200, DW_AT_TI_end_file("src/csl_usb.c")
	.dwattr $C$DW$200, DW_AT_TI_end_line(0x69c)
	.dwattr $C$DW$200, DW_AT_TI_end_column(0x01)
	.dwendentry
	.dwendtag $C$DW$200

	.sect	".text"
	.global	_USB_clearEndptStall

$C$DW$208	.dwtag  DW_TAG_subprogram, DW_AT_name("USB_clearEndptStall")
	.dwattr $C$DW$208, DW_AT_low_pc(_USB_clearEndptStall)
	.dwattr $C$DW$208, DW_AT_high_pc(0x00)
	.dwattr $C$DW$208, DW_AT_TI_symbol_name("_USB_clearEndptStall")
	.dwattr $C$DW$208, DW_AT_external
	.dwattr $C$DW$208, DW_AT_type(*$C$DW$T$76)
	.dwattr $C$DW$208, DW_AT_TI_begin_file("src/csl_usb.c")
	.dwattr $C$DW$208, DW_AT_TI_begin_line(0x6ce)
	.dwattr $C$DW$208, DW_AT_TI_begin_column(0x0c)
	.dwattr $C$DW$208, DW_AT_TI_max_frame_size(0x0c)
	.dwpsn	file "src/csl_usb.c",line 1743,column 1,is_stmt,address _USB_clearEndptStall

	.dwfde $C$DW$CIE, _USB_clearEndptStall
$C$DW$209	.dwtag  DW_TAG_formal_parameter, DW_AT_name("hEp")
	.dwattr $C$DW$209, DW_AT_TI_symbol_name("_hEp")
	.dwattr $C$DW$209, DW_AT_type(*$C$DW$T$102)
	.dwattr $C$DW$209, DW_AT_location[DW_OP_reg17]
;*******************************************************************************
;* FUNCTION NAME: USB_clearEndptStall                                          *
;*                                                                             *
;*   Function Uses Regs : AC0,AC0,T0,AR0,XAR0,AR1,AR2,AR3,XAR3,SP,CARRY,TC1,   *
;*                        M40,SATA,SATD,RDM,FRCT,SMUL                          *
;*   Stack Frame        : Compact (No Frame Pointer, w/ debug)                 *
;*   Total Frame Size   : 12 words                                             *
;*                        (2 return address/alignment)                         *
;*                        (10 local values)                                    *
;*   Min System Stack   : 1 word                                               *
;*******************************************************************************
_USB_clearEndptStall:
	.dwcfi	cfa_offset, 1
	.dwcfi	save_reg_to_mem, 91, -1
        AADD #-11, SP
	.dwcfi	cfa_offset, 12
$C$DW$210	.dwtag  DW_TAG_variable, DW_AT_name("hEp")
	.dwattr $C$DW$210, DW_AT_TI_symbol_name("_hEp")
	.dwattr $C$DW$210, DW_AT_type(*$C$DW$T$102)
	.dwattr $C$DW$210, DW_AT_location[DW_OP_bregx 0x24 0]
$C$DW$211	.dwtag  DW_TAG_variable, DW_AT_name("status")
	.dwattr $C$DW$211, DW_AT_TI_symbol_name("_status")
	.dwattr $C$DW$211, DW_AT_type(*$C$DW$T$76)
	.dwattr $C$DW$211, DW_AT_location[DW_OP_bregx 0x24 2]
$C$DW$212	.dwtag  DW_TAG_variable, DW_AT_name("peps")
	.dwattr $C$DW$212, DW_AT_TI_symbol_name("_peps")
	.dwattr $C$DW$212, DW_AT_type(*$C$DW$T$150)
	.dwattr $C$DW$212, DW_AT_location[DW_OP_bregx 0x24 4]
$C$DW$213	.dwtag  DW_TAG_variable, DW_AT_name("endPtCount")
	.dwattr $C$DW$213, DW_AT_TI_symbol_name("_endPtCount")
	.dwattr $C$DW$213, DW_AT_type(*$C$DW$T$19)
	.dwattr $C$DW$213, DW_AT_location[DW_OP_bregx 0x24 6]
$C$DW$214	.dwtag  DW_TAG_variable, DW_AT_name("saveIndex")
	.dwattr $C$DW$214, DW_AT_TI_symbol_name("_saveIndex")
	.dwattr $C$DW$214, DW_AT_type(*$C$DW$T$19)
	.dwattr $C$DW$214, DW_AT_location[DW_OP_bregx 0x24 7]
$C$DW$215	.dwtag  DW_TAG_variable, DW_AT_name("pContext")
	.dwattr $C$DW$215, DW_AT_TI_symbol_name("_pContext")
	.dwattr $C$DW$215, DW_AT_type(*$C$DW$T$126)
	.dwattr $C$DW$215, DW_AT_location[DW_OP_bregx 0x24 8]
        MOV XAR0, dbl(*SP(#0))
	.dwpsn	file "src/csl_usb.c",line 1750,column 2,is_stmt
        MOV #0, *SP(#2) ; |1750| 
	.dwpsn	file "src/csl_usb.c",line 1751,column 2,is_stmt
        MOV #0, AC0 ; |1751| 
        MOV AC0, dbl(*SP(#4))
	.dwpsn	file "src/csl_usb.c",line 1752,column 2,is_stmt
        MOV #10, *SP(#6) ; |1752| 
	.dwpsn	file "src/csl_usb.c",line 1754,column 2,is_stmt
        MOV dbl(*SP(#0)), XAR3
        MOV XAR3, AC0
        BCC $C$L117,AC0 == #0 ; |1754| 
                                        ; branchcc occurs ; |1754| 
	.dwpsn	file "src/csl_usb.c",line 1756,column 9,is_stmt
        MOV dbl(*AR3(#32)), XAR3
        MOV XAR3, dbl(*SP(#8))
	.dwpsn	file "src/csl_usb.c",line 1758,column 3,is_stmt
        MOV dbl(*SP(#0)), XAR3
        MOV *AR3, AR1 ; |1758| 

        MOV AR1, AC0
||      MOV #7, AR2

        SFTS AC0, #-2, AC0 ; |1758| 
||      NOT AR2, AR2 ; |1758| 

        BFXTR #0xe000, AC0, AR3 ; |1758| 
        ADD AR1, AR3 ; |1758| 
        AND AR3, AR2 ; |1758| 
        MOV dbl(*SP(#8)), XAR3
        MOV AR1, HI(AC0)
        MOV HI(AC0), AR1
        MOV dbl(*AR3(#90)), XAR3
        SUB AR2, AR1 ; |1758| 
        MOV AR1, HI(AC0)
        MPYK #18, AC0, AC0 ; |1758| 
        MOV AC0, AR1 ; |1758| 

        MOV XAR3, dbl(*SP(#4))
||      AADD AR1, AR3 ; |1758| 

	.dwpsn	file "src/csl_usb.c",line 1760,column 3,is_stmt
        MOV XAR3, AC0
        BCC $C$L116,AC0 == #0 ; |1760| 
                                        ; branchcc occurs ; |1760| 
        CMP *AR3(short(#6)) == #1, TC1 ; |1760| 
        BCC $C$L116,!TC1 ; |1760| 
                                        ; branchcc occurs ; |1760| 
	.dwpsn	file "src/csl_usb.c",line 1762,column 4,is_stmt
        MOV #1038, T0 ; |1762| 
        MOV *(#_usbRegisters), AR3 ; |1762| 
        MOV port(*AR3(T0)), AR1 ; |1762| 
        MOV AR1, *SP(#7) ; |1762| 
	.dwpsn	file "src/csl_usb.c",line 1764,column 4,is_stmt
        MOV dbl(*SP(#0)), XAR3
        MOV *AR3, AR1 ; |1764| 

        MOV AR1, AC0
||      MOV #7, AR2

        SFTS AC0, #-2, AC0 ; |1764| 
||      NOT AR2, AR2 ; |1764| 

        BFXTR #0xe000, AC0, AR3 ; |1764| 
        ADD AR1, AR3 ; |1764| 
        AND AR3, AR2 ; |1764| 
        SUB AR2, AR1 ; |1764| 
        MOV AR1, *SP(#6) ; |1764| 
	.dwpsn	file "src/csl_usb.c",line 1765,column 4,is_stmt
        MOV dbl(*SP(#4)), XAR3
        MOV #0, *AR3(#16) ; |1765| 
	.dwpsn	file "src/csl_usb.c",line 1767,column 4,is_stmt
        MOV dbl(*SP(#4)), XAR3
        MOV dbl(*AR3), AC0 ; |1767| 
        BCC $C$L113,AC0 != #0 ; |1767| 
                                        ; branchcc occurs ; |1767| 
	.dwpsn	file "src/csl_usb.c",line 1770,column 5,is_stmt
        MOV *(#_usbRegisters), AR3 ; |1770| 
        MOV port(*AR3(T0)), AR1 ; |1770| 
        AND #0xfff0, AR1, AC0 ; |1770| 
        MOV AC0, port(*AR3(T0)) ; |1770| 
	.dwpsn	file "src/csl_usb.c",line 1774,column 5,is_stmt
        MOV *(#_usbRegisters), AR3 ; |1774| 
        MOV port(*AR3(T0)), AR1 ; |1774| 
        AND #0xfff0, AR1, AC0 ; |1774| 
        MOV AC0, port(*AR3(T0)) ; |1774| 
	.dwpsn	file "src/csl_usb.c",line 1779,column 5,is_stmt
        MOV #1042, T0 ; |1779| 
        MOV *(#_usbRegisters), AR3 ; |1779| 
        MOV port(*AR3(T0)), AR1 ; |1779| 
        BCLR @#8, AR1 ; |1779| 
        BSET @#8, AR1 ; |1779| 
        MOV AR1, port(*AR3(T0)) ; |1779| 
	.dwpsn	file "src/csl_usb.c",line 1783,column 5,is_stmt
        MOV *(#_usbRegisters), AR3 ; |1783| 
        MOV port(*AR3(T0)), AR1 ; |1783| 
        BCLR @#2, AR1 ; |1783| 
        MOV AR1, port(*AR3(T0)) ; |1783| 
	.dwpsn	file "src/csl_usb.c",line 1786,column 5,is_stmt
        MOV *(#_usbRegisters), AR3 ; |1786| 
        MOV port(*AR3(T0)), AR1 ; |1786| 
        BCLR @#4, AR1 ; |1786| 
        MOV AR1, port(*AR3(T0)) ; |1786| 
	.dwpsn	file "src/csl_usb.c",line 1788,column 4,is_stmt
        B $C$L115 ; |1788| 
                                        ; branch occurs ; |1788| 
$C$L113:    
	.dwpsn	file "src/csl_usb.c",line 1791,column 5,is_stmt
        MOV dbl(*SP(#0)), XAR3

        MOV *AR3, AR1 ; |1791| 
||      MOV #8, AR2

        CMP AR1 <= AR2, TC1 ; |1791| 
        BCC $C$L114,TC1 ; |1791| 
                                        ; branchcc occurs ; |1791| 
	.dwpsn	file "src/csl_usb.c",line 1793,column 6,is_stmt
        MOV *(#_usbRegisters), AR3 ; |1793| 
        MOV port(*AR3(T0)), AR1 ; |1793| 
        AND #0xfff0, AR1, AC0 ; |1793| 
        MOV AC0, port(*AR3(T0)) ; |1793| 
	.dwpsn	file "src/csl_usb.c",line 1797,column 6,is_stmt
        MOV *(#_usbRegisters), AR3 ; |1797| 
        MOV port(*AR3(T0)), AR1 ; |1797| 
        AND #0xfff0, AR1, AR2 ; |1797| 
        MOV *SP(#6), AR1 ; |1797| 
        AND #0x000f, AR1, AR1 ; |1797| 
        OR AR2, AR1 ; |1797| 
        MOV AR1, port(*AR3(T0)) ; |1797| 
	.dwpsn	file "src/csl_usb.c",line 1802,column 6,is_stmt
        MOV #1042, T0 ; |1802| 
        MOV *(#_usbRegisters), AR3 ; |1802| 
        MOV port(*AR3(T0)), AR1 ; |1802| 
        BCLR @#3, AR1 ; |1802| 
        BSET @#3, AR1 ; |1802| 
        MOV AR1, port(*AR3(T0)) ; |1802| 
	.dwpsn	file "src/csl_usb.c",line 1806,column 6,is_stmt
        MOV *(#_usbRegisters), AR3 ; |1806| 
        MOV port(*AR3(T0)), AR1 ; |1806| 
        BCLR @#6, AR1 ; |1806| 
        BSET @#6, AR1 ; |1806| 
        MOV AR1, port(*AR3(T0)) ; |1806| 
	.dwpsn	file "src/csl_usb.c",line 1810,column 6,is_stmt
        MOV *(#_usbRegisters), AR3 ; |1810| 
        MOV port(*AR3(T0)), AR1 ; |1810| 
        BCLR @#5, AR1 ; |1810| 
        MOV AR1, port(*AR3(T0)) ; |1810| 
	.dwpsn	file "src/csl_usb.c",line 1813,column 6,is_stmt
        MOV *(#_usbRegisters), AR3 ; |1813| 
        MOV port(*AR3(T0)), AR1 ; |1813| 
        BCLR @#4, AR1 ; |1813| 
        MOV AR1, port(*AR3(T0)) ; |1813| 
	.dwpsn	file "src/csl_usb.c",line 1815,column 5,is_stmt
        B $C$L115 ; |1815| 
                                        ; branch occurs ; |1815| 
$C$L114:    
	.dwpsn	file "src/csl_usb.c",line 1818,column 6,is_stmt
        MOV *(#_usbRegisters), AR3 ; |1818| 
        MOV port(*AR3(T0)), AR1 ; |1818| 
        AND #0xfff0, AR1, AC0 ; |1818| 
        MOV AC0, port(*AR3(T0)) ; |1818| 
	.dwpsn	file "src/csl_usb.c",line 1822,column 6,is_stmt
        MOV *(#_usbRegisters), AR3 ; |1822| 
        MOV port(*AR3(T0)), AR1 ; |1822| 
        AND #0xfff0, AR1, AR2 ; |1822| 
        MOV *SP(#6), AR1 ; |1822| 
        AND #0x000f, AR1, AR1 ; |1822| 
        OR AR2, AR1 ; |1822| 
        MOV AR1, port(*AR3(T0)) ; |1822| 
	.dwpsn	file "src/csl_usb.c",line 1827,column 6,is_stmt
        MOV #1046, T0 ; |1827| 
        MOV *(#_usbRegisters), AR3 ; |1827| 
        MOV port(*AR3(T0)), AR1 ; |1827| 
        BCLR @#4, AR1 ; |1827| 
        BSET @#4, AR1 ; |1827| 
        MOV AR1, port(*AR3(T0)) ; |1827| 
	.dwpsn	file "src/csl_usb.c",line 1831,column 6,is_stmt
        MOV *(#_usbRegisters), AR3 ; |1831| 
        MOV port(*AR3(T0)), AR1 ; |1831| 
        BCLR @#7, AR1 ; |1831| 
        BSET @#7, AR1 ; |1831| 
        MOV AR1, port(*AR3(T0)) ; |1831| 
	.dwpsn	file "src/csl_usb.c",line 1835,column 6,is_stmt
        MOV *(#_usbRegisters), AR3 ; |1835| 
        MOV port(*AR3(T0)), AR1 ; |1835| 
        BCLR @#6, AR1 ; |1835| 
        MOV AR1, port(*AR3(T0)) ; |1835| 
	.dwpsn	file "src/csl_usb.c",line 1838,column 6,is_stmt
        MOV *(#_usbRegisters), AR3 ; |1838| 
        MOV port(*AR3(T0)), AR1 ; |1838| 
        BCLR @#5, AR1 ; |1838| 
        MOV AR1, port(*AR3(T0)) ; |1838| 
$C$L115:    
	.dwpsn	file "src/csl_usb.c",line 1844,column 4,is_stmt
        MOV *(#_usbRegisters), AR3 ; |1844| 
        MOV #1038, T0 ; |1844| 
        MOV *SP(#7), AR1 ; |1844| 
        MOV AR1, port(*AR3(T0)) ; |1844| 
	.dwpsn	file "src/csl_usb.c",line 1845,column 3,is_stmt
        B $C$L118 ; |1845| 
                                        ; branch occurs ; |1845| 
$C$L116:    
	.dwpsn	file "src/csl_usb.c",line 1848,column 4,is_stmt
        MOV #-6, *SP(#2) ; |1848| 
	.dwpsn	file "src/csl_usb.c",line 1850,column 2,is_stmt
        B $C$L118 ; |1850| 
                                        ; branch occurs ; |1850| 
$C$L117:    
	.dwpsn	file "src/csl_usb.c",line 1853,column 3,is_stmt
        MOV #-5, *SP(#2) ; |1853| 
$C$L118:    
	.dwpsn	file "src/csl_usb.c",line 1856,column 2,is_stmt
        MOV *SP(#2), T0 ; |1856| 
	.dwpsn	file "src/csl_usb.c",line 1857,column 1,is_stmt
        AADD #11, SP
	.dwcfi	cfa_offset, 1
$C$DW$216	.dwtag  DW_TAG_TI_branch
	.dwattr $C$DW$216, DW_AT_low_pc(0x00)
	.dwattr $C$DW$216, DW_AT_TI_return
        RET
                                        ; return occurs
	.dwattr $C$DW$208, DW_AT_TI_end_file("src/csl_usb.c")
	.dwattr $C$DW$208, DW_AT_TI_end_line(0x741)
	.dwattr $C$DW$208, DW_AT_TI_end_column(0x01)
	.dwendentry
	.dwendtag $C$DW$208

	.sect	".text"
	.global	_USB_getEndptStall

$C$DW$217	.dwtag  DW_TAG_subprogram, DW_AT_name("USB_getEndptStall")
	.dwattr $C$DW$217, DW_AT_low_pc(_USB_getEndptStall)
	.dwattr $C$DW$217, DW_AT_high_pc(0x00)
	.dwattr $C$DW$217, DW_AT_TI_symbol_name("_USB_getEndptStall")
	.dwattr $C$DW$217, DW_AT_external
	.dwattr $C$DW$217, DW_AT_type(*$C$DW$T$89)
	.dwattr $C$DW$217, DW_AT_TI_begin_file("src/csl_usb.c")
	.dwattr $C$DW$217, DW_AT_TI_begin_line(0x772)
	.dwattr $C$DW$217, DW_AT_TI_begin_column(0x10)
	.dwattr $C$DW$217, DW_AT_TI_max_frame_size(0x0c)
	.dwpsn	file "src/csl_usb.c",line 1908,column 1,is_stmt,address _USB_getEndptStall

	.dwfde $C$DW$CIE, _USB_getEndptStall
$C$DW$218	.dwtag  DW_TAG_formal_parameter, DW_AT_name("hEp")
	.dwattr $C$DW$218, DW_AT_TI_symbol_name("_hEp")
	.dwattr $C$DW$218, DW_AT_type(*$C$DW$T$102)
	.dwattr $C$DW$218, DW_AT_location[DW_OP_reg17]
$C$DW$219	.dwtag  DW_TAG_formal_parameter, DW_AT_name("status")
	.dwattr $C$DW$219, DW_AT_TI_symbol_name("_status")
	.dwattr $C$DW$219, DW_AT_type(*$C$DW$T$121)
	.dwattr $C$DW$219, DW_AT_location[DW_OP_reg19]
;*******************************************************************************
;* FUNCTION NAME: USB_getEndptStall                                            *
;*                                                                             *
;*   Function Uses Regs : AC0,AC0,AC1,AC1,T0,AR0,XAR0,AR1,XAR1,AR2,AR3,XAR3,SP,*
;*                        CARRY,TC1,M40,SATA,SATD,RDM,FRCT,SMUL                *
;*   Stack Frame        : Compact (No Frame Pointer, w/ debug)                 *
;*   Total Frame Size   : 12 words                                             *
;*                        (2 return address/alignment)                         *
;*                        (10 local values)                                    *
;*   Min System Stack   : 1 word                                               *
;*******************************************************************************
_USB_getEndptStall:
	.dwcfi	cfa_offset, 1
	.dwcfi	save_reg_to_mem, 91, -1
        AADD #-11, SP
	.dwcfi	cfa_offset, 12
$C$DW$220	.dwtag  DW_TAG_variable, DW_AT_name("hEp")
	.dwattr $C$DW$220, DW_AT_TI_symbol_name("_hEp")
	.dwattr $C$DW$220, DW_AT_type(*$C$DW$T$102)
	.dwattr $C$DW$220, DW_AT_location[DW_OP_bregx 0x24 0]
$C$DW$221	.dwtag  DW_TAG_variable, DW_AT_name("status")
	.dwattr $C$DW$221, DW_AT_TI_symbol_name("_status")
	.dwattr $C$DW$221, DW_AT_type(*$C$DW$T$121)
	.dwattr $C$DW$221, DW_AT_location[DW_OP_bregx 0x24 2]
$C$DW$222	.dwtag  DW_TAG_variable, DW_AT_name("peps")
	.dwattr $C$DW$222, DW_AT_TI_symbol_name("_peps")
	.dwattr $C$DW$222, DW_AT_type(*$C$DW$T$150)
	.dwattr $C$DW$222, DW_AT_location[DW_OP_bregx 0x24 4]
$C$DW$223	.dwtag  DW_TAG_variable, DW_AT_name("fStalled")
	.dwattr $C$DW$223, DW_AT_TI_symbol_name("_fStalled")
	.dwattr $C$DW$223, DW_AT_type(*$C$DW$T$89)
	.dwattr $C$DW$223, DW_AT_location[DW_OP_bregx 0x24 6]
$C$DW$224	.dwtag  DW_TAG_variable, DW_AT_name("pContext")
	.dwattr $C$DW$224, DW_AT_TI_symbol_name("_pContext")
	.dwattr $C$DW$224, DW_AT_type(*$C$DW$T$126)
	.dwattr $C$DW$224, DW_AT_location[DW_OP_bregx 0x24 8]
        MOV XAR1, dbl(*SP(#2))
        MOV XAR0, dbl(*SP(#0))
	.dwpsn	file "src/csl_usb.c",line 1913,column 2,is_stmt
        MOV dbl(*SP(#2)), XAR3
        MOV #0, *AR3 ; |1913| 
	.dwpsn	file "src/csl_usb.c",line 1914,column 2,is_stmt
        MOV #0, *SP(#6) ; |1914| 
	.dwpsn	file "src/csl_usb.c",line 1915,column 2,is_stmt
        MOV #0, AC0 ; |1915| 
        MOV AC0, dbl(*SP(#4))
	.dwpsn	file "src/csl_usb.c",line 1917,column 2,is_stmt
        MOV dbl(*SP(#0)), XAR3
        MOV XAR3, AC0
        BCC $C$L120,AC0 == #0 ; |1917| 
                                        ; branchcc occurs ; |1917| 
	.dwpsn	file "src/csl_usb.c",line 1919,column 9,is_stmt
        MOV dbl(*AR3(#32)), XAR3
        MOV XAR3, dbl(*SP(#8))
	.dwpsn	file "src/csl_usb.c",line 1921,column 3,is_stmt
        MOV dbl(*SP(#0)), XAR3
        MOV *AR3, AR1 ; |1921| 

        MOV AR1, AC0
||      MOV #7, AR2

        SFTS AC0, #-2, AC0 ; |1921| 
||      NOT AR2, AR2 ; |1921| 

        BFXTR #0xe000, AC0, AR3 ; |1921| 
        ADD AR1, AR3 ; |1921| 
        AND AR3, AR2 ; |1921| 
        MOV dbl(*SP(#8)), XAR3
        MOV AR1, HI(AC0)
        MOV HI(AC0), AR1
        MOV dbl(*AR3(#90)), XAR3
        SUB AR2, AR1 ; |1921| 
        MOV AR1, HI(AC0)
        MPYK #18, AC0, AC0 ; |1921| 
        MOV AC0, AR1 ; |1921| 

        MOV XAR3, dbl(*SP(#4))
||      AADD AR1, AR3 ; |1921| 

	.dwpsn	file "src/csl_usb.c",line 1923,column 3,is_stmt
        MOV XAR3, AC0
        BCC $C$L119,AC0 == #0 ; |1923| 
                                        ; branchcc occurs ; |1923| 
	.dwpsn	file "src/csl_usb.c",line 1925,column 4,is_stmt

        MOV dbl(*AR3), AC1 ; |1925| 
||      MOV #10, AC0 ; |1925| 

        CMPU AC1 >= AC0, TC1 ; |1925| 
        BCC $C$L121,TC1 ; |1925| 
                                        ; branchcc occurs ; |1925| 
	.dwpsn	file "src/csl_usb.c",line 1927,column 5,is_stmt
        MOV *AR3(#16), AR1 ; |1927| 
        MOV AR1, *SP(#6) ; |1927| 
	.dwpsn	file "src/csl_usb.c",line 1929,column 3,is_stmt
        B $C$L121 ; |1929| 
                                        ; branch occurs ; |1929| 
$C$L119:    
	.dwpsn	file "src/csl_usb.c",line 1932,column 4,is_stmt
        MOV dbl(*SP(#2)), XAR3
        MOV #-6, *AR3 ; |1932| 
	.dwpsn	file "src/csl_usb.c",line 1934,column 2,is_stmt
        B $C$L121 ; |1934| 
                                        ; branch occurs ; |1934| 
$C$L120:    
	.dwpsn	file "src/csl_usb.c",line 1937,column 3,is_stmt
        MOV dbl(*SP(#2)), XAR3
        MOV #-5, *AR3 ; |1937| 
$C$L121:    
	.dwpsn	file "src/csl_usb.c",line 1940,column 2,is_stmt
        MOV *SP(#6), T0 ; |1940| 
	.dwpsn	file "src/csl_usb.c",line 1941,column 1,is_stmt
        AADD #11, SP
	.dwcfi	cfa_offset, 1
$C$DW$225	.dwtag  DW_TAG_TI_branch
	.dwattr $C$DW$225, DW_AT_low_pc(0x00)
	.dwattr $C$DW$225, DW_AT_TI_return
        RET
                                        ; return occurs
	.dwattr $C$DW$217, DW_AT_TI_end_file("src/csl_usb.c")
	.dwattr $C$DW$217, DW_AT_TI_end_line(0x795)
	.dwattr $C$DW$217, DW_AT_TI_end_column(0x01)
	.dwendentry
	.dwendtag $C$DW$217

	.sect	".text"
	.global	_USB_epNumToHandle

$C$DW$226	.dwtag  DW_TAG_subprogram, DW_AT_name("USB_epNumToHandle")
	.dwattr $C$DW$226, DW_AT_low_pc(_USB_epNumToHandle)
	.dwattr $C$DW$226, DW_AT_high_pc(0x00)
	.dwattr $C$DW$226, DW_AT_TI_symbol_name("_USB_epNumToHandle")
	.dwattr $C$DW$226, DW_AT_external
	.dwattr $C$DW$226, DW_AT_type(*$C$DW$T$102)
	.dwattr $C$DW$226, DW_AT_TI_begin_file("src/csl_usb.c")
	.dwattr $C$DW$226, DW_AT_TI_begin_line(0x7c4)
	.dwattr $C$DW$226, DW_AT_TI_begin_column(0x11)
	.dwattr $C$DW$226, DW_AT_TI_max_frame_size(0x0a)
	.dwpsn	file "src/csl_usb.c",line 1990,column 1,is_stmt,address _USB_epNumToHandle

	.dwfde $C$DW$CIE, _USB_epNumToHandle
$C$DW$227	.dwtag  DW_TAG_formal_parameter, DW_AT_name("hUsbDev")
	.dwattr $C$DW$227, DW_AT_TI_symbol_name("_hUsbDev")
	.dwattr $C$DW$227, DW_AT_type(*$C$DW$T$126)
	.dwattr $C$DW$227, DW_AT_location[DW_OP_reg17]
$C$DW$228	.dwtag  DW_TAG_formal_parameter, DW_AT_name("endpt")
	.dwattr $C$DW$228, DW_AT_TI_symbol_name("_endpt")
	.dwattr $C$DW$228, DW_AT_type(*$C$DW$T$19)
	.dwattr $C$DW$228, DW_AT_location[DW_OP_reg12]
;*******************************************************************************
;* FUNCTION NAME: USB_epNumToHandle                                            *
;*                                                                             *
;*   Function Uses Regs : AC0,AC0,T0,AR0,XAR0,AR1,AR2,AR3,XAR3,SP,CARRY,TC1,   *
;*                        M40,SATA,SATD,RDM,FRCT,SMUL                          *
;*   Stack Frame        : Compact (No Frame Pointer, w/ debug)                 *
;*   Total Frame Size   : 10 words                                             *
;*                        (1 return address/alignment)                         *
;*                        (9 local values)                                     *
;*   Min System Stack   : 1 word                                               *
;*******************************************************************************
_USB_epNumToHandle:
	.dwcfi	cfa_offset, 1
	.dwcfi	save_reg_to_mem, 91, -1
        AADD #-9, SP
	.dwcfi	cfa_offset, 10
$C$DW$229	.dwtag  DW_TAG_variable, DW_AT_name("hUsbDev")
	.dwattr $C$DW$229, DW_AT_TI_symbol_name("_hUsbDev")
	.dwattr $C$DW$229, DW_AT_type(*$C$DW$T$126)
	.dwattr $C$DW$229, DW_AT_location[DW_OP_bregx 0x24 0]
$C$DW$230	.dwtag  DW_TAG_variable, DW_AT_name("endpt")
	.dwattr $C$DW$230, DW_AT_TI_symbol_name("_endpt")
	.dwattr $C$DW$230, DW_AT_type(*$C$DW$T$19)
	.dwattr $C$DW$230, DW_AT_location[DW_OP_bregx 0x24 2]
$C$DW$231	.dwtag  DW_TAG_variable, DW_AT_name("epHandle")
	.dwattr $C$DW$231, DW_AT_TI_symbol_name("_epHandle")
	.dwattr $C$DW$231, DW_AT_type(*$C$DW$T$102)
	.dwattr $C$DW$231, DW_AT_location[DW_OP_bregx 0x24 4]
$C$DW$232	.dwtag  DW_TAG_variable, DW_AT_name("looper")
	.dwattr $C$DW$232, DW_AT_TI_symbol_name("_looper")
	.dwattr $C$DW$232, DW_AT_type(*$C$DW$T$19)
	.dwattr $C$DW$232, DW_AT_location[DW_OP_bregx 0x24 6]
$C$DW$233	.dwtag  DW_TAG_variable, DW_AT_name("epNum")
	.dwattr $C$DW$233, DW_AT_TI_symbol_name("_epNum")
	.dwattr $C$DW$233, DW_AT_type(*$C$DW$T$19)
	.dwattr $C$DW$233, DW_AT_location[DW_OP_bregx 0x24 7]
$C$DW$234	.dwtag  DW_TAG_variable, DW_AT_name("fValidEp")
	.dwattr $C$DW$234, DW_AT_TI_symbol_name("_fValidEp")
	.dwattr $C$DW$234, DW_AT_type(*$C$DW$T$74)
	.dwattr $C$DW$234, DW_AT_location[DW_OP_bregx 0x24 8]
        MOV T0, *SP(#2) ; |1990| 
        MOV XAR0, dbl(*SP(#0))
	.dwpsn	file "src/csl_usb.c",line 1996,column 2,is_stmt
        MOV #0, *SP(#8) ; |1996| 
	.dwpsn	file "src/csl_usb.c",line 1997,column 2,is_stmt
        MOV #0, AC0 ; |1997| 
        MOV AC0, dbl(*SP(#4))
	.dwpsn	file "src/csl_usb.c",line 1998,column 2,is_stmt
        MOV #0, *SP(#6) ; |1998| 
	.dwpsn	file "src/csl_usb.c",line 2000,column 2,is_stmt
        MOV dbl(*SP(#0)), XAR3
        MOV XAR3, AC0
        BCC $C$L140,AC0 == #0 ; |2000| 
                                        ; branchcc occurs ; |2000| 
	.dwpsn	file "src/csl_usb.c",line 2002,column 6,is_stmt
        MOV *AR3, AR1 ; |2002| 
        BCC $C$L140,AR1 != #0 ; |2002| 
                                        ; branchcc occurs ; |2002| 
	.dwpsn	file "src/csl_usb.c",line 2004,column 4,is_stmt
        BTST #7, *SP(#2), TC1 ; |2004| 
        BCC $C$L134,!TC1 ; |2004| 
                                        ; branchcc occurs ; |2004| 
	.dwpsn	file "src/csl_usb.c",line 2006,column 5,is_stmt
        AND #0xff7f, *SP(#2) ; |2006| 
	.dwpsn	file "src/csl_usb.c",line 2008,column 5,is_stmt
        B $C$L127 ; |2008| 
                                        ; branch occurs ; |2008| 
$C$L122:    
	.dwpsn	file "src/csl_usb.c",line 2011,column 7,is_stmt
        MOV #8, *SP(#7) ; |2011| 
	.dwpsn	file "src/csl_usb.c",line 2012,column 7,is_stmt
        MOV #1, *SP(#8) ; |2012| 
	.dwpsn	file "src/csl_usb.c",line 2013,column 12,is_stmt
        B $C$L136 ; |2013| 
                                        ; branch occurs ; |2013| 
$C$L123:    
	.dwpsn	file "src/csl_usb.c",line 2016,column 7,is_stmt
        MOV #9, *SP(#7) ; |2016| 
	.dwpsn	file "src/csl_usb.c",line 2017,column 7,is_stmt
        MOV #1, *SP(#8) ; |2017| 
	.dwpsn	file "src/csl_usb.c",line 2018,column 12,is_stmt
        B $C$L136 ; |2018| 
                                        ; branch occurs ; |2018| 
$C$L124:    
	.dwpsn	file "src/csl_usb.c",line 2021,column 7,is_stmt
        MOV #10, *SP(#7) ; |2021| 
	.dwpsn	file "src/csl_usb.c",line 2022,column 7,is_stmt
        MOV #1, *SP(#8) ; |2022| 
	.dwpsn	file "src/csl_usb.c",line 2023,column 12,is_stmt
        B $C$L136 ; |2023| 
                                        ; branch occurs ; |2023| 
$C$L125:    
	.dwpsn	file "src/csl_usb.c",line 2026,column 7,is_stmt
        MOV #11, *SP(#7) ; |2026| 
	.dwpsn	file "src/csl_usb.c",line 2027,column 7,is_stmt
        MOV #1, *SP(#8) ; |2027| 
	.dwpsn	file "src/csl_usb.c",line 2028,column 12,is_stmt
        B $C$L136 ; |2028| 
                                        ; branch occurs ; |2028| 
$C$L126:    
	.dwpsn	file "src/csl_usb.c",line 2031,column 7,is_stmt
        MOV #12, *SP(#7) ; |2031| 
	.dwpsn	file "src/csl_usb.c",line 2032,column 7,is_stmt
        MOV #1, *SP(#8) ; |2032| 
	.dwpsn	file "src/csl_usb.c",line 2033,column 12,is_stmt
        B $C$L136 ; |2033| 
                                        ; branch occurs ; |2033| 
$C$L127:    
	.dwpsn	file "src/csl_usb.c",line 2008,column 5,is_stmt

        MOV *SP(#2), AR1 ; |2008| 
||      MOV #2, AR2

        CMP AR1 > AR2, TC1 ; |2008| 
        BCC $C$L128,TC1 ; |2008| 
                                        ; branchcc occurs ; |2008| 
        CMP AR1 == AR2, TC1 ; |2008| 
        BCC $C$L124,TC1 ; |2008| 
                                        ; branchcc occurs ; |2008| 
        BCC $C$L122,AR1 == #0 ; |2008| 
                                        ; branchcc occurs ; |2008| 
        MOV #1, AR2
        CMPU AR1 == AR2, TC1 ; |2008| 
        BCC $C$L123,TC1 ; |2008| 
                                        ; branchcc occurs ; |2008| 
        B $C$L136 ; |2008| 
                                        ; branch occurs ; |2008| 
$C$L128:    
        MOV #3, AR2
        CMPU AR1 == AR2, TC1 ; |2008| 
        BCC $C$L125,TC1 ; |2008| 
                                        ; branchcc occurs ; |2008| 
        MOV #4, AR2
        CMPU AR1 == AR2, TC1 ; |2008| 
        BCC $C$L126,TC1 ; |2008| 
                                        ; branchcc occurs ; |2008| 
        B $C$L136 ; |2008| 
                                        ; branch occurs ; |2008| 
$C$L129:    
	.dwpsn	file "src/csl_usb.c",line 2044,column 7,is_stmt
        MOV #0, *SP(#7) ; |2044| 
	.dwpsn	file "src/csl_usb.c",line 2045,column 7,is_stmt
        MOV #1, *SP(#8) ; |2045| 
	.dwpsn	file "src/csl_usb.c",line 2046,column 12,is_stmt
        B $C$L136 ; |2046| 
                                        ; branch occurs ; |2046| 
$C$L130:    
	.dwpsn	file "src/csl_usb.c",line 2049,column 7,is_stmt
        MOV #1, *SP(#7) ; |2049| 
	.dwpsn	file "src/csl_usb.c",line 2050,column 7,is_stmt
        MOV #1, *SP(#8) ; |2050| 
	.dwpsn	file "src/csl_usb.c",line 2051,column 12,is_stmt
        B $C$L136 ; |2051| 
                                        ; branch occurs ; |2051| 
$C$L131:    
	.dwpsn	file "src/csl_usb.c",line 2054,column 7,is_stmt
        MOV #2, *SP(#7) ; |2054| 
	.dwpsn	file "src/csl_usb.c",line 2055,column 7,is_stmt
        MOV #1, *SP(#8) ; |2055| 
	.dwpsn	file "src/csl_usb.c",line 2056,column 12,is_stmt
        B $C$L136 ; |2056| 
                                        ; branch occurs ; |2056| 
$C$L132:    
	.dwpsn	file "src/csl_usb.c",line 2059,column 7,is_stmt
        MOV #3, *SP(#7) ; |2059| 
	.dwpsn	file "src/csl_usb.c",line 2060,column 7,is_stmt
        MOV #1, *SP(#8) ; |2060| 
	.dwpsn	file "src/csl_usb.c",line 2061,column 12,is_stmt
        B $C$L136 ; |2061| 
                                        ; branch occurs ; |2061| 
$C$L133:    
	.dwpsn	file "src/csl_usb.c",line 2064,column 7,is_stmt
        MOV #4, *SP(#7) ; |2064| 
	.dwpsn	file "src/csl_usb.c",line 2065,column 7,is_stmt
        MOV #1, *SP(#8) ; |2065| 
	.dwpsn	file "src/csl_usb.c",line 2066,column 12,is_stmt
        B $C$L136 ; |2066| 
                                        ; branch occurs ; |2066| 
$C$L134:    
	.dwpsn	file "src/csl_usb.c",line 2041,column 5,is_stmt

        MOV *SP(#2), AR1 ; |2041| 
||      MOV #2, AR2

        CMP AR1 > AR2, TC1 ; |2041| 
        BCC $C$L135,TC1 ; |2041| 
                                        ; branchcc occurs ; |2041| 
        CMP AR1 == AR2, TC1 ; |2041| 
        BCC $C$L131,TC1 ; |2041| 
                                        ; branchcc occurs ; |2041| 
        BCC $C$L129,AR1 == #0 ; |2041| 
                                        ; branchcc occurs ; |2041| 
        MOV #1, AR2
        CMPU AR1 == AR2, TC1 ; |2041| 
        BCC $C$L130,TC1 ; |2041| 
                                        ; branchcc occurs ; |2041| 
        B $C$L136 ; |2041| 
                                        ; branch occurs ; |2041| 
$C$L135:    
        MOV #3, AR2
        CMPU AR1 == AR2, TC1 ; |2041| 
        BCC $C$L132,TC1 ; |2041| 
                                        ; branchcc occurs ; |2041| 
        MOV #4, AR2
        CMPU AR1 == AR2, TC1 ; |2041| 
        BCC $C$L133,TC1 ; |2041| 
                                        ; branchcc occurs ; |2041| 
$C$L136:    
	.dwpsn	file "src/csl_usb.c",line 2073,column 4,is_stmt
        CMP *SP(#8) == #1, TC1 ; |2073| 
        BCC $C$L137,TC1 ; |2073| 
                                        ; branchcc occurs ; |2073| 
	.dwpsn	file "src/csl_usb.c",line 2075,column 5,is_stmt
        AMOV #0, XAR0 ; |2075| 
        B $C$L141 ; |2075| 
                                        ; branch occurs ; |2075| 
$C$L137:    
	.dwpsn	file "src/csl_usb.c",line 2078,column 8,is_stmt
        MOV #0, *SP(#6) ; |2078| 
	.dwpsn	file "src/csl_usb.c",line 2078,column 20,is_stmt

        MOV *SP(#6), AR1 ; |2078| 
||      MOV #11, AR2

        CMPU AR1 > AR2, TC1 ; |2078| 
        BCC $C$L140,TC1 ; |2078| 
                                        ; branchcc occurs ; |2078| 
$C$L138:    
$C$DW$L$_USB_epNumToHandle$37$B:
	.dwpsn	file "src/csl_usb.c",line 2080,column 5,is_stmt
        MOV *SP(#6), T0 ; |2080| 
        SFTL T0, #1 ; |2080| 
        AMOV #_gUsbEpHandle, XAR3 ; |2080| 
        MOV dbl(*AR3(T0)), XAR3
        MOV *SP(#7), AR2 ; |2080| 
        MOV *AR3, AR1 ; |2080| 
        CMPU AR2 != AR1, TC1 ; |2080| 
        BCC $C$L139,TC1 ; |2080| 
                                        ; branchcc occurs ; |2080| 
$C$DW$L$_USB_epNumToHandle$37$E:
	.dwpsn	file "src/csl_usb.c",line 2082,column 6,is_stmt
        MOV *SP(#6), T0 ; |2082| 
        SFTL T0, #1 ; |2082| 
        AMOV #_gUsbEpHandle, XAR3 ; |2082| 
        MOV dbl(*AR3(T0)), XAR3
        MOV XAR3, dbl(*SP(#4))
	.dwpsn	file "src/csl_usb.c",line 2083,column 6,is_stmt
        B $C$L140 ; |2083| 
                                        ; branch occurs ; |2083| 
$C$L139:    
$C$DW$L$_USB_epNumToHandle$39$B:
	.dwpsn	file "src/csl_usb.c",line 2078,column 60,is_stmt
        ADD #1, *SP(#6) ; |2078| 
	.dwpsn	file "src/csl_usb.c",line 2078,column 20,is_stmt

        MOV *SP(#6), AR1 ; |2078| 
||      MOV #11, AR2

        CMPU AR1 <= AR2, TC1 ; |2078| 
        BCC $C$L138,TC1 ; |2078| 
                                        ; branchcc occurs ; |2078| 
$C$DW$L$_USB_epNumToHandle$39$E:
$C$L140:    
	.dwpsn	file "src/csl_usb.c",line 2089,column 2,is_stmt
        MOV dbl(*SP(#4)), XAR0
$C$L141:    
	.dwpsn	file "src/csl_usb.c",line 2090,column 1,is_stmt
        AADD #9, SP
	.dwcfi	cfa_offset, 1
$C$DW$235	.dwtag  DW_TAG_TI_branch
	.dwattr $C$DW$235, DW_AT_low_pc(0x00)
	.dwattr $C$DW$235, DW_AT_TI_return
        RET
                                        ; return occurs

$C$DW$236	.dwtag  DW_TAG_TI_loop
	.dwattr $C$DW$236, DW_AT_name("/home/santiago/dspfuzz/on_board/library/csl_usb.asm:$C$L138:1:1714639456")
	.dwattr $C$DW$236, DW_AT_TI_begin_file("src/csl_usb.c")
	.dwattr $C$DW$236, DW_AT_TI_begin_line(0x81e)
	.dwattr $C$DW$236, DW_AT_TI_end_line(0x825)
$C$DW$237	.dwtag  DW_TAG_TI_loop_range
	.dwattr $C$DW$237, DW_AT_low_pc($C$DW$L$_USB_epNumToHandle$37$B)
	.dwattr $C$DW$237, DW_AT_high_pc($C$DW$L$_USB_epNumToHandle$37$E)
$C$DW$238	.dwtag  DW_TAG_TI_loop_range
	.dwattr $C$DW$238, DW_AT_low_pc($C$DW$L$_USB_epNumToHandle$39$B)
	.dwattr $C$DW$238, DW_AT_high_pc($C$DW$L$_USB_epNumToHandle$39$E)
	.dwendtag $C$DW$236

	.dwattr $C$DW$226, DW_AT_TI_end_file("src/csl_usb.c")
	.dwattr $C$DW$226, DW_AT_TI_end_line(0x82a)
	.dwattr $C$DW$226, DW_AT_TI_end_column(0x01)
	.dwendentry
	.dwendtag $C$DW$226

	.sect	".text"
	.global	_USB_abortTransaction

$C$DW$239	.dwtag  DW_TAG_subprogram, DW_AT_name("USB_abortTransaction")
	.dwattr $C$DW$239, DW_AT_low_pc(_USB_abortTransaction)
	.dwattr $C$DW$239, DW_AT_high_pc(0x00)
	.dwattr $C$DW$239, DW_AT_TI_symbol_name("_USB_abortTransaction")
	.dwattr $C$DW$239, DW_AT_external
	.dwattr $C$DW$239, DW_AT_type(*$C$DW$T$76)
	.dwattr $C$DW$239, DW_AT_TI_begin_file("src/csl_usb.c")
	.dwattr $C$DW$239, DW_AT_TI_begin_line(0x859)
	.dwattr $C$DW$239, DW_AT_TI_begin_column(0x0c)
	.dwattr $C$DW$239, DW_AT_TI_max_frame_size(0x0c)
	.dwpsn	file "src/csl_usb.c",line 2138,column 1,is_stmt,address _USB_abortTransaction

	.dwfde $C$DW$CIE, _USB_abortTransaction
$C$DW$240	.dwtag  DW_TAG_formal_parameter, DW_AT_name("hEp")
	.dwattr $C$DW$240, DW_AT_TI_symbol_name("_hEp")
	.dwattr $C$DW$240, DW_AT_type(*$C$DW$T$102)
	.dwattr $C$DW$240, DW_AT_location[DW_OP_reg17]
;*******************************************************************************
;* FUNCTION NAME: USB_abortTransaction                                         *
;*                                                                             *
;*   Function Uses Regs : AC0,AC0,AC1,AC1,T0,AR0,XAR0,AR1,AR2,AR3,XAR3,SP,     *
;*                        CARRY,TC1,M40,SATA,SATD,RDM,FRCT,SMUL                *
;*   Stack Frame        : Compact (No Frame Pointer, w/ debug)                 *
;*   Total Frame Size   : 12 words                                             *
;*                        (2 return address/alignment)                         *
;*                        (10 local values)                                    *
;*   Min System Stack   : 1 word                                               *
;*******************************************************************************
_USB_abortTransaction:
	.dwcfi	cfa_offset, 1
	.dwcfi	save_reg_to_mem, 91, -1
        AADD #-11, SP
	.dwcfi	cfa_offset, 12
$C$DW$241	.dwtag  DW_TAG_variable, DW_AT_name("hEp")
	.dwattr $C$DW$241, DW_AT_TI_symbol_name("_hEp")
	.dwattr $C$DW$241, DW_AT_type(*$C$DW$T$102)
	.dwattr $C$DW$241, DW_AT_location[DW_OP_bregx 0x24 0]
$C$DW$242	.dwtag  DW_TAG_variable, DW_AT_name("peps")
	.dwattr $C$DW$242, DW_AT_TI_symbol_name("_peps")
	.dwattr $C$DW$242, DW_AT_type(*$C$DW$T$150)
	.dwattr $C$DW$242, DW_AT_location[DW_OP_bregx 0x24 2]
$C$DW$243	.dwtag  DW_TAG_variable, DW_AT_name("status")
	.dwattr $C$DW$243, DW_AT_TI_symbol_name("_status")
	.dwattr $C$DW$243, DW_AT_type(*$C$DW$T$76)
	.dwattr $C$DW$243, DW_AT_location[DW_OP_bregx 0x24 4]
$C$DW$244	.dwtag  DW_TAG_variable, DW_AT_name("saveIndex")
	.dwattr $C$DW$244, DW_AT_TI_symbol_name("_saveIndex")
	.dwattr $C$DW$244, DW_AT_type(*$C$DW$T$19)
	.dwattr $C$DW$244, DW_AT_location[DW_OP_bregx 0x24 5]
$C$DW$245	.dwtag  DW_TAG_variable, DW_AT_name("tempVal")
	.dwattr $C$DW$245, DW_AT_TI_symbol_name("_tempVal")
	.dwattr $C$DW$245, DW_AT_type(*$C$DW$T$19)
	.dwattr $C$DW$245, DW_AT_location[DW_OP_bregx 0x24 6]
$C$DW$246	.dwtag  DW_TAG_variable, DW_AT_name("pContext")
	.dwattr $C$DW$246, DW_AT_TI_symbol_name("_pContext")
	.dwattr $C$DW$246, DW_AT_type(*$C$DW$T$126)
	.dwattr $C$DW$246, DW_AT_location[DW_OP_bregx 0x24 8]
        MOV XAR0, dbl(*SP(#0))
	.dwpsn	file "src/csl_usb.c",line 2145,column 2,is_stmt
        MOV #0, *SP(#4) ; |2145| 
	.dwpsn	file "src/csl_usb.c",line 2146,column 2,is_stmt
        MOV #0, AC0 ; |2146| 
        MOV AC0, dbl(*SP(#2))
	.dwpsn	file "src/csl_usb.c",line 2148,column 2,is_stmt
        MOV dbl(*SP(#0)), XAR3
        MOV XAR3, AC0
        BCC $C$L147,AC0 == #0 ; |2148| 
                                        ; branchcc occurs ; |2148| 
	.dwpsn	file "src/csl_usb.c",line 2150,column 9,is_stmt
        MOV dbl(*AR3(#32)), XAR3
        MOV XAR3, dbl(*SP(#8))
	.dwpsn	file "src/csl_usb.c",line 2152,column 3,is_stmt
        MOV dbl(*SP(#0)), XAR3
        MOV *AR3, AR1 ; |2152| 

        MOV AR1, AC0
||      MOV #7, AR2

        SFTS AC0, #-2, AC0 ; |2152| 
||      NOT AR2, AR2 ; |2152| 

        BFXTR #0xe000, AC0, AR3 ; |2152| 
        ADD AR1, AR3 ; |2152| 
        AND AR3, AR2 ; |2152| 
        MOV dbl(*SP(#8)), XAR3
        MOV AR1, HI(AC0)
        MOV HI(AC0), AR1
        MOV dbl(*AR3(#90)), XAR3
        SUB AR2, AR1 ; |2152| 
        MOV AR1, HI(AC0)
        MPYK #18, AC0, AC0 ; |2152| 
        MOV AC0, AR1 ; |2152| 

        MOV XAR3, dbl(*SP(#2))
||      AADD AR1, AR3 ; |2152| 

	.dwpsn	file "src/csl_usb.c",line 2154,column 3,is_stmt
        MOV XAR3, AC0
        BCC $C$L146,AC0 == #0 ; |2154| 
                                        ; branchcc occurs ; |2154| 
        CMP *AR3(short(#6)) == #1, TC1 ; |2154| 
        BCC $C$L146,!TC1 ; |2154| 
                                        ; branchcc occurs ; |2154| 
	.dwpsn	file "src/csl_usb.c",line 2156,column 4,is_stmt
        MOV dbl(*AR3(#10)), XAR3
        MOV XAR3, AC0
        BCC $C$L142,AC0 == #0 ; |2156| 
                                        ; branchcc occurs ; |2156| 
	.dwpsn	file "src/csl_usb.c",line 2158,column 8,is_stmt
        MOV dbl(*SP(#2)), XAR3
        MOV dbl(*AR3(#10)), XAR3
        MOV #1, *AR3(#12) ; |2158| 
	.dwpsn	file "src/csl_usb.c",line 2159,column 5,is_stmt
        MOV dbl(*SP(#2)), XAR3
        MOV #0, AC0 ; |2159| 
        MOV AC0, dbl(*AR3(#10))
$C$L142:    
	.dwpsn	file "src/csl_usb.c",line 2163,column 4,is_stmt
        MOV #1038, T0 ; |2163| 
        MOV *(#_usbRegisters), AR3 ; |2163| 
        MOV port(*AR3(T0)), AR1 ; |2163| 
        MOV AR1, *SP(#5) ; |2163| 
	.dwpsn	file "src/csl_usb.c",line 2166,column 4,is_stmt
        MOV port(*AR3(T0)), AR1 ; |2166| 
        AND #0xfff0, AR1, AC0 ; |2166| 
        MOV AC0, port(*AR3(T0)) ; |2166| 
	.dwpsn	file "src/csl_usb.c",line 2170,column 4,is_stmt
        MOV dbl(*SP(#2)), XAR3
        MOV dbl(*AR3), AC0 ; |2170| 
        BCC $C$L143,AC0 != #0 ; |2170| 
                                        ; branchcc occurs ; |2170| 
	.dwpsn	file "src/csl_usb.c",line 2173,column 5,is_stmt
        MOV *(#_usbRegisters), AR3 ; |2173| 
        MOV port(*AR3(T0)), AR1 ; |2173| 
        AND #0xfff0, AR1, AC0 ; |2173| 
        MOV AC0, port(*AR3(T0)) ; |2173| 
	.dwpsn	file "src/csl_usb.c",line 2177,column 5,is_stmt
        MOV #1042, T0 ; |2177| 
        MOV *(#_usbRegisters), AR3 ; |2177| 
        MOV port(*AR3(T0)), AR1 ; |2177| 
        BCLR @#8, AR1 ; |2177| 
        BSET @#8, AR1 ; |2177| 
        MOV AR1, port(*AR3(T0)) ; |2177| 
	.dwpsn	file "src/csl_usb.c",line 2179,column 4,is_stmt
        B $C$L145 ; |2179| 
                                        ; branch occurs ; |2179| 
$C$L143:    
	.dwpsn	file "src/csl_usb.c",line 2182,column 5,is_stmt
        MOV dbl(*SP(#0)), XAR3

        MOV *AR3, AR1 ; |2182| 
||      MOV #8, AR2

        CMP AR1 <= AR2, TC1 ; |2182| 
        BCC $C$L144,TC1 ; |2182| 
                                        ; branchcc occurs ; |2182| 
	.dwpsn	file "src/csl_usb.c",line 2185,column 6,is_stmt
        MOV *(#_usbRegisters), AR3 ; |2185| 
        MOV port(*AR3(T0)), AR1 ; |2185| 
        MOV dbl(*SP(#2)), XAR3
        MOV dbl(*AR3), AC0 ; |2185| 
        MOV *(#_usbRegisters), AR3 ; |2185| 
        AND #0xfff0, AR1, AC1 ; |2185| 
        AND #0x000f, AC0, AC0 ; |2185| 
        OR AC1, AC0 ; |2185| 
        MOV AC0, port(*AR3(T0)) ; |2185| 
	.dwpsn	file "src/csl_usb.c",line 2189,column 6,is_stmt
        MOV #1042, T0 ; |2189| 
        MOV *(#_usbRegisters), AR3 ; |2189| 
        MOV port(*AR3(T0)), AR1 ; |2189| 
        MOV AR1, *SP(#6) ; |2189| 
	.dwpsn	file "src/csl_usb.c",line 2191,column 6,is_stmt
        OR #0x0008, *SP(#6) ; |2191| 
	.dwpsn	file "src/csl_usb.c",line 2192,column 6,is_stmt
        AND #0xfffc, *SP(#6) ; |2192| 
	.dwpsn	file "src/csl_usb.c",line 2194,column 6,is_stmt
        MOV *SP(#6), AR1 ; |2194| 
        MOV AR1, port(*AR3(T0)) ; |2194| 
	.dwpsn	file "src/csl_usb.c",line 2195,column 5,is_stmt
        B $C$L145 ; |2195| 
                                        ; branch occurs ; |2195| 
$C$L144:    
	.dwpsn	file "src/csl_usb.c",line 2199,column 6,is_stmt
        MOV *(#_usbRegisters), AR3 ; |2199| 
        MOV port(*AR3(T0)), AR1 ; |2199| 
        MOV dbl(*SP(#2)), XAR3
        MOV dbl(*AR3), AC0 ; |2199| 
        MOV *(#_usbRegisters), AR3 ; |2199| 
        AND #0xfff0, AR1, AC1 ; |2199| 
        AND #0x000f, AC0, AC0 ; |2199| 
        OR AC1, AC0 ; |2199| 
        MOV AC0, port(*AR3(T0)) ; |2199| 
	.dwpsn	file "src/csl_usb.c",line 2203,column 6,is_stmt
        MOV #1046, T0 ; |2203| 
        MOV *(#_usbRegisters), AR3 ; |2203| 
        MOV port(*AR3(T0)), AR1 ; |2203| 
        BCLR @#4, AR1 ; |2203| 
        BSET @#4, AR1 ; |2203| 
        MOV AR1, port(*AR3(T0)) ; |2203| 
$C$L145:    
	.dwpsn	file "src/csl_usb.c",line 2209,column 4,is_stmt
        MOV *(#_usbRegisters), AR3 ; |2209| 
        MOV #1038, T0 ; |2209| 
        MOV *SP(#5), AR1 ; |2209| 
        MOV AR1, port(*AR3(T0)) ; |2209| 
	.dwpsn	file "src/csl_usb.c",line 2210,column 3,is_stmt
        B $C$L148 ; |2210| 
                                        ; branch occurs ; |2210| 
$C$L146:    
	.dwpsn	file "src/csl_usb.c",line 2213,column 4,is_stmt
        MOV #-6, *SP(#4) ; |2213| 
	.dwpsn	file "src/csl_usb.c",line 2215,column 2,is_stmt
        B $C$L148 ; |2215| 
                                        ; branch occurs ; |2215| 
$C$L147:    
	.dwpsn	file "src/csl_usb.c",line 2218,column 3,is_stmt
        MOV #-5, *SP(#4) ; |2218| 
$C$L148:    
	.dwpsn	file "src/csl_usb.c",line 2221,column 2,is_stmt
        MOV *SP(#4), T0 ; |2221| 
	.dwpsn	file "src/csl_usb.c",line 2222,column 1,is_stmt
        AADD #11, SP
	.dwcfi	cfa_offset, 1
$C$DW$247	.dwtag  DW_TAG_TI_branch
	.dwattr $C$DW$247, DW_AT_low_pc(0x00)
	.dwattr $C$DW$247, DW_AT_TI_return
        RET
                                        ; return occurs
	.dwattr $C$DW$239, DW_AT_TI_end_file("src/csl_usb.c")
	.dwattr $C$DW$239, DW_AT_TI_end_line(0x8ae)
	.dwattr $C$DW$239, DW_AT_TI_end_column(0x01)
	.dwendentry
	.dwendtag $C$DW$239

	.sect	".text"
	.global	_USB_abortAllTransaction

$C$DW$248	.dwtag  DW_TAG_subprogram, DW_AT_name("USB_abortAllTransaction")
	.dwattr $C$DW$248, DW_AT_low_pc(_USB_abortAllTransaction)
	.dwattr $C$DW$248, DW_AT_high_pc(0x00)
	.dwattr $C$DW$248, DW_AT_TI_symbol_name("_USB_abortAllTransaction")
	.dwattr $C$DW$248, DW_AT_external
	.dwattr $C$DW$248, DW_AT_type(*$C$DW$T$76)
	.dwattr $C$DW$248, DW_AT_TI_begin_file("src/csl_usb.c")
	.dwattr $C$DW$248, DW_AT_TI_begin_line(0x8dc)
	.dwattr $C$DW$248, DW_AT_TI_begin_column(0x0c)
	.dwattr $C$DW$248, DW_AT_TI_max_frame_size(0x08)
	.dwpsn	file "src/csl_usb.c",line 2269,column 1,is_stmt,address _USB_abortAllTransaction

	.dwfde $C$DW$CIE, _USB_abortAllTransaction
$C$DW$249	.dwtag  DW_TAG_formal_parameter, DW_AT_name("hUsbDev")
	.dwattr $C$DW$249, DW_AT_TI_symbol_name("_hUsbDev")
	.dwattr $C$DW$249, DW_AT_type(*$C$DW$T$126)
	.dwattr $C$DW$249, DW_AT_location[DW_OP_reg17]
;*******************************************************************************
;* FUNCTION NAME: USB_abortAllTransaction                                      *
;*                                                                             *
;*   Function Uses Regs : AC0,AC0,T0,AR0,XAR0,AR1,AR2,AR3,XAR3,SP,CARRY,TC1,   *
;*                        M40,SATA,SATD,RDM,FRCT,SMUL                          *
;*   Stack Frame        : Compact (No Frame Pointer, w/ debug)                 *
;*   Total Frame Size   : 8 words                                              *
;*                        (2 return address/alignment)                         *
;*                        (6 local values)                                     *
;*   Min System Stack   : 1 word                                               *
;*******************************************************************************
_USB_abortAllTransaction:
	.dwcfi	cfa_offset, 1
	.dwcfi	save_reg_to_mem, 91, -1
        AADD #-7, SP
	.dwcfi	cfa_offset, 8
$C$DW$250	.dwtag  DW_TAG_variable, DW_AT_name("hUsbDev")
	.dwattr $C$DW$250, DW_AT_TI_symbol_name("_hUsbDev")
	.dwattr $C$DW$250, DW_AT_type(*$C$DW$T$126)
	.dwattr $C$DW$250, DW_AT_location[DW_OP_bregx 0x24 0]
$C$DW$251	.dwtag  DW_TAG_variable, DW_AT_name("epHandle")
	.dwattr $C$DW$251, DW_AT_TI_symbol_name("_epHandle")
	.dwattr $C$DW$251, DW_AT_type(*$C$DW$T$102)
	.dwattr $C$DW$251, DW_AT_location[DW_OP_bregx 0x24 2]
$C$DW$252	.dwtag  DW_TAG_variable, DW_AT_name("status")
	.dwattr $C$DW$252, DW_AT_TI_symbol_name("_status")
	.dwattr $C$DW$252, DW_AT_type(*$C$DW$T$76)
	.dwattr $C$DW$252, DW_AT_location[DW_OP_bregx 0x24 4]
$C$DW$253	.dwtag  DW_TAG_variable, DW_AT_name("endPoint")
	.dwattr $C$DW$253, DW_AT_TI_symbol_name("_endPoint")
	.dwattr $C$DW$253, DW_AT_type(*$C$DW$T$19)
	.dwattr $C$DW$253, DW_AT_location[DW_OP_bregx 0x24 5]
        MOV XAR0, dbl(*SP(#0))
	.dwpsn	file "src/csl_usb.c",line 2274,column 2,is_stmt
        MOV #-6, *SP(#4) ; |2274| 
	.dwpsn	file "src/csl_usb.c",line 2276,column 2,is_stmt
        MOV dbl(*SP(#0)), XAR3
        MOV XAR3, AC0
        BCC $C$L151,AC0 == #0 ; |2276| 
                                        ; branchcc occurs ; |2276| 
	.dwpsn	file "src/csl_usb.c",line 2278,column 6,is_stmt
        MOV *AR3, AR1 ; |2278| 
        BCC $C$L151,AR1 != #0 ; |2278| 
                                        ; branchcc occurs ; |2278| 
	.dwpsn	file "src/csl_usb.c",line 2280,column 8,is_stmt
        MOV #0, *SP(#5) ; |2280| 
	.dwpsn	file "src/csl_usb.c",line 2280,column 22,is_stmt

        MOV *SP(#5), AR1 ; |2280| 
||      MOV #10, AR2

        CMPU AR1 >= AR2, TC1 ; |2280| 
        BCC $C$L151,TC1 ; |2280| 
                                        ; branchcc occurs ; |2280| 
$C$L149:    
$C$DW$L$_USB_abortAllTransaction$4$B:
	.dwpsn	file "src/csl_usb.c",line 2282,column 5,is_stmt
        MOV *SP(#5), T0 ; |2282| 
        SFTL T0, #1 ; |2282| 
        AMOV #_gUsbEpHandle, XAR3 ; |2282| 
        MOV dbl(*AR3(T0)), XAR3
        MOV XAR3, dbl(*SP(#2))
	.dwpsn	file "src/csl_usb.c",line 2283,column 5,is_stmt
        MOV XAR3, AC0
        BCC $C$L150,AC0 == #0 ; |2283| 
                                        ; branchcc occurs ; |2283| 
$C$DW$L$_USB_abortAllTransaction$4$E:
$C$DW$L$_USB_abortAllTransaction$5$B:
	.dwpsn	file "src/csl_usb.c",line 2285,column 6,is_stmt
        MOV dbl(*SP(#2)), XAR0
$C$DW$254	.dwtag  DW_TAG_TI_branch
	.dwattr $C$DW$254, DW_AT_low_pc(0x00)
	.dwattr $C$DW$254, DW_AT_name("_USB_abortTransaction")
	.dwattr $C$DW$254, DW_AT_TI_call
        CALL #_USB_abortTransaction ; |2285| 
                                        ; call occurs [#_USB_abortTransaction] ; |2285| 
        MOV T0, *SP(#4) ; |2285| 
	.dwpsn	file "src/csl_usb.c",line 2286,column 6,is_stmt
        MOV T0, AR1
        BCC $C$L151,AR1 != #0 ; |2286| 
                                        ; branchcc occurs ; |2286| 
$C$DW$L$_USB_abortAllTransaction$5$E:
$C$DW$L$_USB_abortAllTransaction$6$B:
	.dwpsn	file "src/csl_usb.c",line 2288,column 7,is_stmt
$C$DW$L$_USB_abortAllTransaction$6$E:
$C$L150:    
$C$DW$L$_USB_abortAllTransaction$7$B:
	.dwpsn	file "src/csl_usb.c",line 2280,column 57,is_stmt
        ADD #1, *SP(#5) ; |2280| 
	.dwpsn	file "src/csl_usb.c",line 2280,column 22,is_stmt

        MOV *SP(#5), AR1 ; |2280| 
||      MOV #10, AR2

        CMPU AR1 < AR2, TC1 ; |2280| 
        BCC $C$L149,TC1 ; |2280| 
                                        ; branchcc occurs ; |2280| 
$C$DW$L$_USB_abortAllTransaction$7$E:
$C$L151:    
	.dwpsn	file "src/csl_usb.c",line 2295,column 2,is_stmt
        MOV *SP(#4), T0 ; |2295| 
	.dwpsn	file "src/csl_usb.c",line 2296,column 1,is_stmt
        AADD #7, SP
	.dwcfi	cfa_offset, 1
$C$DW$255	.dwtag  DW_TAG_TI_branch
	.dwattr $C$DW$255, DW_AT_low_pc(0x00)
	.dwattr $C$DW$255, DW_AT_TI_return
        RET
                                        ; return occurs

$C$DW$256	.dwtag  DW_TAG_TI_loop
	.dwattr $C$DW$256, DW_AT_name("/home/santiago/dspfuzz/on_board/library/csl_usb.asm:$C$L149:1:1714639456")
	.dwattr $C$DW$256, DW_AT_TI_begin_file("src/csl_usb.c")
	.dwattr $C$DW$256, DW_AT_TI_begin_line(0x8e8)
	.dwattr $C$DW$256, DW_AT_TI_end_line(0x8f3)
$C$DW$257	.dwtag  DW_TAG_TI_loop_range
	.dwattr $C$DW$257, DW_AT_low_pc($C$DW$L$_USB_abortAllTransaction$4$B)
	.dwattr $C$DW$257, DW_AT_high_pc($C$DW$L$_USB_abortAllTransaction$4$E)
$C$DW$258	.dwtag  DW_TAG_TI_loop_range
	.dwattr $C$DW$258, DW_AT_low_pc($C$DW$L$_USB_abortAllTransaction$5$B)
	.dwattr $C$DW$258, DW_AT_high_pc($C$DW$L$_USB_abortAllTransaction$5$E)
$C$DW$259	.dwtag  DW_TAG_TI_loop_range
	.dwattr $C$DW$259, DW_AT_low_pc($C$DW$L$_USB_abortAllTransaction$6$B)
	.dwattr $C$DW$259, DW_AT_high_pc($C$DW$L$_USB_abortAllTransaction$6$E)
$C$DW$260	.dwtag  DW_TAG_TI_loop_range
	.dwattr $C$DW$260, DW_AT_low_pc($C$DW$L$_USB_abortAllTransaction$7$B)
	.dwattr $C$DW$260, DW_AT_high_pc($C$DW$L$_USB_abortAllTransaction$7$E)
	.dwendtag $C$DW$256

	.dwattr $C$DW$248, DW_AT_TI_end_file("src/csl_usb.c")
	.dwattr $C$DW$248, DW_AT_TI_end_line(0x8f8)
	.dwattr $C$DW$248, DW_AT_TI_end_column(0x01)
	.dwendentry
	.dwendtag $C$DW$248

	.sect	".text"
	.global	_USB_connectDev

$C$DW$261	.dwtag  DW_TAG_subprogram, DW_AT_name("USB_connectDev")
	.dwattr $C$DW$261, DW_AT_low_pc(_USB_connectDev)
	.dwattr $C$DW$261, DW_AT_high_pc(0x00)
	.dwattr $C$DW$261, DW_AT_TI_symbol_name("_USB_connectDev")
	.dwattr $C$DW$261, DW_AT_external
	.dwattr $C$DW$261, DW_AT_type(*$C$DW$T$76)
	.dwattr $C$DW$261, DW_AT_TI_begin_file("src/csl_usb.c")
	.dwattr $C$DW$261, DW_AT_TI_begin_line(0x91f)
	.dwattr $C$DW$261, DW_AT_TI_begin_column(0x0c)
	.dwattr $C$DW$261, DW_AT_TI_max_frame_size(0x04)
	.dwpsn	file "src/csl_usb.c",line 2336,column 1,is_stmt,address _USB_connectDev

	.dwfde $C$DW$CIE, _USB_connectDev
$C$DW$262	.dwtag  DW_TAG_formal_parameter, DW_AT_name("hUsbDev")
	.dwattr $C$DW$262, DW_AT_TI_symbol_name("_hUsbDev")
	.dwattr $C$DW$262, DW_AT_type(*$C$DW$T$126)
	.dwattr $C$DW$262, DW_AT_location[DW_OP_reg17]
;*******************************************************************************
;* FUNCTION NAME: USB_connectDev                                               *
;*                                                                             *
;*   Function Uses Regs : AC0,AC0,T0,AR0,XAR0,AR1,AR3,XAR3,SP,M40,SATA,SATD,   *
;*                        RDM,FRCT,SMUL                                        *
;*   Stack Frame        : Compact (No Frame Pointer, w/ debug)                 *
;*   Total Frame Size   : 4 words                                              *
;*                        (1 return address/alignment)                         *
;*                        (3 local values)                                     *
;*   Min System Stack   : 1 word                                               *
;*******************************************************************************
_USB_connectDev:
	.dwcfi	cfa_offset, 1
	.dwcfi	save_reg_to_mem, 91, -1
        AADD #-3, SP
	.dwcfi	cfa_offset, 4
$C$DW$263	.dwtag  DW_TAG_variable, DW_AT_name("hUsbDev")
	.dwattr $C$DW$263, DW_AT_TI_symbol_name("_hUsbDev")
	.dwattr $C$DW$263, DW_AT_type(*$C$DW$T$126)
	.dwattr $C$DW$263, DW_AT_location[DW_OP_bregx 0x24 0]
$C$DW$264	.dwtag  DW_TAG_variable, DW_AT_name("status")
	.dwattr $C$DW$264, DW_AT_TI_symbol_name("_status")
	.dwattr $C$DW$264, DW_AT_type(*$C$DW$T$76)
	.dwattr $C$DW$264, DW_AT_location[DW_OP_bregx 0x24 2]
        MOV XAR0, dbl(*SP(#0))
	.dwpsn	file "src/csl_usb.c",line 2339,column 2,is_stmt
        MOV #-6, *SP(#2) ; |2339| 
	.dwpsn	file "src/csl_usb.c",line 2341,column 2,is_stmt
        MOV dbl(*SP(#0)), XAR3
        MOV XAR3, AC0
        BCC $C$L154,AC0 == #0 ; |2341| 
                                        ; branchcc occurs ; |2341| 
	.dwpsn	file "src/csl_usb.c",line 2343,column 6,is_stmt
        B $C$L153 ; |2343| 
                                        ; branch occurs ; |2343| 
$C$L152:    
	.dwpsn	file "src/csl_usb.c",line 2346,column 5,is_stmt
        MOV #1025, T0 ; |2346| 
        MOV *(#_usbRegisters), AR3 ; |2346| 
        MOV port(*AR3(T0)), AR1 ; |2346| 
        BCLR @#14, AR1 ; |2346| 
        BSET @#14, AR1 ; |2346| 
        MOV AR1, port(*AR3(T0)) ; |2346| 
	.dwpsn	file "src/csl_usb.c",line 2349,column 5,is_stmt
        MOV #0, *SP(#2) ; |2349| 
	.dwpsn	file "src/csl_usb.c",line 2350,column 13,is_stmt
        B $C$L154 ; |2350| 
                                        ; branch occurs ; |2350| 
$C$L153:    
	.dwpsn	file "src/csl_usb.c",line 2343,column 6,is_stmt
        MOV *AR3, AR1 ; |2343| 
        BCC $C$L152,AR1 == #0 ; |2343| 
                                        ; branchcc occurs ; |2343| 
$C$L154:    
	.dwpsn	file "src/csl_usb.c",line 2360,column 2,is_stmt
        MOV *SP(#2), T0 ; |2360| 
	.dwpsn	file "src/csl_usb.c",line 2361,column 1,is_stmt
        AADD #3, SP
	.dwcfi	cfa_offset, 1
$C$DW$265	.dwtag  DW_TAG_TI_branch
	.dwattr $C$DW$265, DW_AT_low_pc(0x00)
	.dwattr $C$DW$265, DW_AT_TI_return
        RET
                                        ; return occurs
	.dwattr $C$DW$261, DW_AT_TI_end_file("src/csl_usb.c")
	.dwattr $C$DW$261, DW_AT_TI_end_line(0x939)
	.dwattr $C$DW$261, DW_AT_TI_end_column(0x01)
	.dwendentry
	.dwendtag $C$DW$261

	.sect	".text"
	.global	_USB_disconnectDev

$C$DW$266	.dwtag  DW_TAG_subprogram, DW_AT_name("USB_disconnectDev")
	.dwattr $C$DW$266, DW_AT_low_pc(_USB_disconnectDev)
	.dwattr $C$DW$266, DW_AT_high_pc(0x00)
	.dwattr $C$DW$266, DW_AT_TI_symbol_name("_USB_disconnectDev")
	.dwattr $C$DW$266, DW_AT_external
	.dwattr $C$DW$266, DW_AT_type(*$C$DW$T$76)
	.dwattr $C$DW$266, DW_AT_TI_begin_file("src/csl_usb.c")
	.dwattr $C$DW$266, DW_AT_TI_begin_line(0x962)
	.dwattr $C$DW$266, DW_AT_TI_begin_column(0x0c)
	.dwattr $C$DW$266, DW_AT_TI_max_frame_size(0x04)
	.dwpsn	file "src/csl_usb.c",line 2403,column 1,is_stmt,address _USB_disconnectDev

	.dwfde $C$DW$CIE, _USB_disconnectDev
$C$DW$267	.dwtag  DW_TAG_formal_parameter, DW_AT_name("hUsbDev")
	.dwattr $C$DW$267, DW_AT_TI_symbol_name("_hUsbDev")
	.dwattr $C$DW$267, DW_AT_type(*$C$DW$T$126)
	.dwattr $C$DW$267, DW_AT_location[DW_OP_reg17]
;*******************************************************************************
;* FUNCTION NAME: USB_disconnectDev                                            *
;*                                                                             *
;*   Function Uses Regs : AC0,AC0,T0,AR0,XAR0,AR1,AR3,XAR3,SP,M40,SATA,SATD,   *
;*                        RDM,FRCT,SMUL                                        *
;*   Stack Frame        : Compact (No Frame Pointer, w/ debug)                 *
;*   Total Frame Size   : 4 words                                              *
;*                        (1 return address/alignment)                         *
;*                        (3 local values)                                     *
;*   Min System Stack   : 1 word                                               *
;*******************************************************************************
_USB_disconnectDev:
	.dwcfi	cfa_offset, 1
	.dwcfi	save_reg_to_mem, 91, -1
        AADD #-3, SP
	.dwcfi	cfa_offset, 4
$C$DW$268	.dwtag  DW_TAG_variable, DW_AT_name("hUsbDev")
	.dwattr $C$DW$268, DW_AT_TI_symbol_name("_hUsbDev")
	.dwattr $C$DW$268, DW_AT_type(*$C$DW$T$126)
	.dwattr $C$DW$268, DW_AT_location[DW_OP_bregx 0x24 0]
$C$DW$269	.dwtag  DW_TAG_variable, DW_AT_name("status")
	.dwattr $C$DW$269, DW_AT_TI_symbol_name("_status")
	.dwattr $C$DW$269, DW_AT_type(*$C$DW$T$76)
	.dwattr $C$DW$269, DW_AT_location[DW_OP_bregx 0x24 2]
        MOV XAR0, dbl(*SP(#0))
	.dwpsn	file "src/csl_usb.c",line 2406,column 5,is_stmt
        MOV #-6, *SP(#2) ; |2406| 
	.dwpsn	file "src/csl_usb.c",line 2408,column 2,is_stmt
        MOV dbl(*SP(#0)), XAR3
        MOV XAR3, AC0
        BCC $C$L157,AC0 == #0 ; |2408| 
                                        ; branchcc occurs ; |2408| 
	.dwpsn	file "src/csl_usb.c",line 2410,column 6,is_stmt
        B $C$L156 ; |2410| 
                                        ; branch occurs ; |2410| 
$C$L155:    
	.dwpsn	file "src/csl_usb.c",line 2413,column 5,is_stmt
        MOV #1025, T0 ; |2413| 
        MOV *(#_usbRegisters), AR3 ; |2413| 
        MOV port(*AR3(T0)), AR1 ; |2413| 
        BCLR @#14, AR1 ; |2413| 
        MOV AR1, port(*AR3(T0)) ; |2413| 
	.dwpsn	file "src/csl_usb.c",line 2416,column 5,is_stmt
        MOV #0, *SP(#2) ; |2416| 
	.dwpsn	file "src/csl_usb.c",line 2417,column 13,is_stmt
        B $C$L157 ; |2417| 
                                        ; branch occurs ; |2417| 
$C$L156:    
	.dwpsn	file "src/csl_usb.c",line 2410,column 6,is_stmt
        MOV *AR3, AR1 ; |2410| 
        BCC $C$L155,AR1 == #0 ; |2410| 
                                        ; branchcc occurs ; |2410| 
$C$L157:    
	.dwpsn	file "src/csl_usb.c",line 2427,column 2,is_stmt
        MOV *SP(#2), T0 ; |2427| 
	.dwpsn	file "src/csl_usb.c",line 2428,column 1,is_stmt
        AADD #3, SP
	.dwcfi	cfa_offset, 1
$C$DW$270	.dwtag  DW_TAG_TI_branch
	.dwattr $C$DW$270, DW_AT_low_pc(0x00)
	.dwattr $C$DW$270, DW_AT_TI_return
        RET
                                        ; return occurs
	.dwattr $C$DW$266, DW_AT_TI_end_file("src/csl_usb.c")
	.dwattr $C$DW$266, DW_AT_TI_end_line(0x97c)
	.dwattr $C$DW$266, DW_AT_TI_end_column(0x01)
	.dwendentry
	.dwendtag $C$DW$266

	.sect	".text"
	.global	_USB_setRemoteWakeup

$C$DW$271	.dwtag  DW_TAG_subprogram, DW_AT_name("USB_setRemoteWakeup")
	.dwattr $C$DW$271, DW_AT_low_pc(_USB_setRemoteWakeup)
	.dwattr $C$DW$271, DW_AT_high_pc(0x00)
	.dwattr $C$DW$271, DW_AT_TI_symbol_name("_USB_setRemoteWakeup")
	.dwattr $C$DW$271, DW_AT_external
	.dwattr $C$DW$271, DW_AT_type(*$C$DW$T$76)
	.dwattr $C$DW$271, DW_AT_TI_begin_file("src/csl_usb.c")
	.dwattr $C$DW$271, DW_AT_TI_begin_line(0x9a5)
	.dwattr $C$DW$271, DW_AT_TI_begin_column(0x0c)
	.dwattr $C$DW$271, DW_AT_TI_max_frame_size(0x06)
	.dwpsn	file "src/csl_usb.c",line 2471,column 1,is_stmt,address _USB_setRemoteWakeup

	.dwfde $C$DW$CIE, _USB_setRemoteWakeup
$C$DW$272	.dwtag  DW_TAG_formal_parameter, DW_AT_name("hUsbDev")
	.dwattr $C$DW$272, DW_AT_TI_symbol_name("_hUsbDev")
	.dwattr $C$DW$272, DW_AT_type(*$C$DW$T$126)
	.dwattr $C$DW$272, DW_AT_location[DW_OP_reg17]
$C$DW$273	.dwtag  DW_TAG_formal_parameter, DW_AT_name("rmtWkpStat")
	.dwattr $C$DW$273, DW_AT_TI_symbol_name("_rmtWkpStat")
	.dwattr $C$DW$273, DW_AT_type(*$C$DW$T$89)
	.dwattr $C$DW$273, DW_AT_location[DW_OP_reg12]
;*******************************************************************************
;* FUNCTION NAME: USB_setRemoteWakeup                                          *
;*                                                                             *
;*   Function Uses Regs : AC0,AC0,T0,AR0,XAR0,AR1,AR3,XAR3,SP,M40,SATA,SATD,   *
;*                        RDM,FRCT,SMUL                                        *
;*   Stack Frame        : Compact (No Frame Pointer, w/ debug)                 *
;*   Total Frame Size   : 6 words                                              *
;*                        (2 return address/alignment)                         *
;*                        (4 local values)                                     *
;*   Min System Stack   : 1 word                                               *
;*******************************************************************************
_USB_setRemoteWakeup:
	.dwcfi	cfa_offset, 1
	.dwcfi	save_reg_to_mem, 91, -1
        AADD #-5, SP
	.dwcfi	cfa_offset, 6
$C$DW$274	.dwtag  DW_TAG_variable, DW_AT_name("hUsbDev")
	.dwattr $C$DW$274, DW_AT_TI_symbol_name("_hUsbDev")
	.dwattr $C$DW$274, DW_AT_type(*$C$DW$T$126)
	.dwattr $C$DW$274, DW_AT_location[DW_OP_bregx 0x24 0]
$C$DW$275	.dwtag  DW_TAG_variable, DW_AT_name("rmtWkpStat")
	.dwattr $C$DW$275, DW_AT_TI_symbol_name("_rmtWkpStat")
	.dwattr $C$DW$275, DW_AT_type(*$C$DW$T$89)
	.dwattr $C$DW$275, DW_AT_location[DW_OP_bregx 0x24 2]
$C$DW$276	.dwtag  DW_TAG_variable, DW_AT_name("status")
	.dwattr $C$DW$276, DW_AT_TI_symbol_name("_status")
	.dwattr $C$DW$276, DW_AT_type(*$C$DW$T$76)
	.dwattr $C$DW$276, DW_AT_location[DW_OP_bregx 0x24 3]
        MOV T0, *SP(#2) ; |2471| 
        MOV XAR0, dbl(*SP(#0))
	.dwpsn	file "src/csl_usb.c",line 2474,column 5,is_stmt
        MOV #-6, *SP(#3) ; |2474| 
	.dwpsn	file "src/csl_usb.c",line 2476,column 2,is_stmt
        MOV dbl(*SP(#0)), XAR3
        MOV XAR3, AC0
        BCC $C$L160,AC0 == #0 ; |2476| 
                                        ; branchcc occurs ; |2476| 
	.dwpsn	file "src/csl_usb.c",line 2478,column 6,is_stmt
        B $C$L159 ; |2478| 
                                        ; branch occurs ; |2478| 
$C$L158:    
	.dwpsn	file "src/csl_usb.c",line 2481,column 6,is_stmt
        MOV *SP(#2), AR1 ; |2481| 
        MOV AR1, *AR3(#86) ; |2481| 
	.dwpsn	file "src/csl_usb.c",line 2482,column 5,is_stmt
        MOV #0, *SP(#3) ; |2482| 
	.dwpsn	file "src/csl_usb.c",line 2483,column 13,is_stmt
        B $C$L160 ; |2483| 
                                        ; branch occurs ; |2483| 
$C$L159:    
	.dwpsn	file "src/csl_usb.c",line 2478,column 6,is_stmt
        MOV *AR3, AR1 ; |2478| 
        BCC $C$L158,AR1 == #0 ; |2478| 
                                        ; branchcc occurs ; |2478| 
$C$L160:    
	.dwpsn	file "src/csl_usb.c",line 2493,column 2,is_stmt
        MOV *SP(#3), T0 ; |2493| 
	.dwpsn	file "src/csl_usb.c",line 2494,column 1,is_stmt
        AADD #5, SP
	.dwcfi	cfa_offset, 1
$C$DW$277	.dwtag  DW_TAG_TI_branch
	.dwattr $C$DW$277, DW_AT_low_pc(0x00)
	.dwattr $C$DW$277, DW_AT_TI_return
        RET
                                        ; return occurs
	.dwattr $C$DW$271, DW_AT_TI_end_file("src/csl_usb.c")
	.dwattr $C$DW$271, DW_AT_TI_end_line(0x9be)
	.dwattr $C$DW$271, DW_AT_TI_end_column(0x01)
	.dwendentry
	.dwendtag $C$DW$271

	.sect	".text"
	.global	_USB_getRemoteWakeupStat

$C$DW$278	.dwtag  DW_TAG_subprogram, DW_AT_name("USB_getRemoteWakeupStat")
	.dwattr $C$DW$278, DW_AT_low_pc(_USB_getRemoteWakeupStat)
	.dwattr $C$DW$278, DW_AT_high_pc(0x00)
	.dwattr $C$DW$278, DW_AT_TI_symbol_name("_USB_getRemoteWakeupStat")
	.dwattr $C$DW$278, DW_AT_external
	.dwattr $C$DW$278, DW_AT_type(*$C$DW$T$89)
	.dwattr $C$DW$278, DW_AT_TI_begin_file("src/csl_usb.c")
	.dwattr $C$DW$278, DW_AT_TI_begin_line(0x9e6)
	.dwattr $C$DW$278, DW_AT_TI_begin_column(0x10)
	.dwattr $C$DW$278, DW_AT_TI_max_frame_size(0x04)
	.dwpsn	file "src/csl_usb.c",line 2535,column 1,is_stmt,address _USB_getRemoteWakeupStat

	.dwfde $C$DW$CIE, _USB_getRemoteWakeupStat
$C$DW$279	.dwtag  DW_TAG_formal_parameter, DW_AT_name("hUsbDev")
	.dwattr $C$DW$279, DW_AT_TI_symbol_name("_hUsbDev")
	.dwattr $C$DW$279, DW_AT_type(*$C$DW$T$126)
	.dwattr $C$DW$279, DW_AT_location[DW_OP_reg17]
;*******************************************************************************
;* FUNCTION NAME: USB_getRemoteWakeupStat                                      *
;*                                                                             *
;*   Function Uses Regs : T0,AR0,XAR0,AR3,XAR3,SP,M40,SATA,SATD,RDM,FRCT,SMUL  *
;*   Stack Frame        : Compact (No Frame Pointer, w/ debug)                 *
;*   Total Frame Size   : 4 words                                              *
;*                        (2 return address/alignment)                         *
;*                        (2 local values)                                     *
;*   Min System Stack   : 1 word                                               *
;*******************************************************************************
_USB_getRemoteWakeupStat:
	.dwcfi	cfa_offset, 1
	.dwcfi	save_reg_to_mem, 91, -1
        AADD #-3, SP
	.dwcfi	cfa_offset, 4
$C$DW$280	.dwtag  DW_TAG_variable, DW_AT_name("hUsbDev")
	.dwattr $C$DW$280, DW_AT_TI_symbol_name("_hUsbDev")
	.dwattr $C$DW$280, DW_AT_type(*$C$DW$T$126)
	.dwattr $C$DW$280, DW_AT_location[DW_OP_bregx 0x24 0]
        MOV XAR0, dbl(*SP(#0))
	.dwpsn	file "src/csl_usb.c",line 2536,column 2,is_stmt
        MOV dbl(*SP(#0)), XAR3
        MOV *AR3(#86), T0 ; |2536| 
	.dwpsn	file "src/csl_usb.c",line 2537,column 1,is_stmt
        AADD #3, SP
	.dwcfi	cfa_offset, 1
$C$DW$281	.dwtag  DW_TAG_TI_branch
	.dwattr $C$DW$281, DW_AT_low_pc(0x00)
	.dwattr $C$DW$281, DW_AT_TI_return
        RET
                                        ; return occurs
	.dwattr $C$DW$278, DW_AT_TI_end_file("src/csl_usb.c")
	.dwattr $C$DW$278, DW_AT_TI_end_line(0x9e9)
	.dwattr $C$DW$278, DW_AT_TI_end_column(0x01)
	.dwendentry
	.dwendtag $C$DW$278

	.sect	".text"
	.global	_USB_issueRemoteWakeup

$C$DW$282	.dwtag  DW_TAG_subprogram, DW_AT_name("USB_issueRemoteWakeup")
	.dwattr $C$DW$282, DW_AT_low_pc(_USB_issueRemoteWakeup)
	.dwattr $C$DW$282, DW_AT_high_pc(0x00)
	.dwattr $C$DW$282, DW_AT_TI_symbol_name("_USB_issueRemoteWakeup")
	.dwattr $C$DW$282, DW_AT_external
	.dwattr $C$DW$282, DW_AT_type(*$C$DW$T$76)
	.dwattr $C$DW$282, DW_AT_TI_begin_file("src/csl_usb.c")
	.dwattr $C$DW$282, DW_AT_TI_begin_line(0xa16)
	.dwattr $C$DW$282, DW_AT_TI_begin_column(0x0c)
	.dwattr $C$DW$282, DW_AT_TI_max_frame_size(0x06)
	.dwpsn	file "src/csl_usb.c",line 2584,column 1,is_stmt,address _USB_issueRemoteWakeup

	.dwfde $C$DW$CIE, _USB_issueRemoteWakeup
$C$DW$283	.dwtag  DW_TAG_formal_parameter, DW_AT_name("hUsbDev")
	.dwattr $C$DW$283, DW_AT_TI_symbol_name("_hUsbDev")
	.dwattr $C$DW$283, DW_AT_type(*$C$DW$T$126)
	.dwattr $C$DW$283, DW_AT_location[DW_OP_reg17]
$C$DW$284	.dwtag  DW_TAG_formal_parameter, DW_AT_name("resumeBitVal")
	.dwattr $C$DW$284, DW_AT_TI_symbol_name("_resumeBitVal")
	.dwattr $C$DW$284, DW_AT_type(*$C$DW$T$74)
	.dwattr $C$DW$284, DW_AT_location[DW_OP_reg12]
;*******************************************************************************
;* FUNCTION NAME: USB_issueRemoteWakeup                                        *
;*                                                                             *
;*   Function Uses Regs : AC0,AC0,T0,AR0,XAR0,AR1,AR2,AR3,XAR3,SP,CARRY,TC1,   *
;*                        M40,SATA,SATD,RDM,FRCT,SMUL                          *
;*   Stack Frame        : Compact (No Frame Pointer, w/ debug)                 *
;*   Total Frame Size   : 6 words                                              *
;*                        (2 return address/alignment)                         *
;*                        (4 local values)                                     *
;*   Min System Stack   : 1 word                                               *
;*******************************************************************************
_USB_issueRemoteWakeup:
	.dwcfi	cfa_offset, 1
	.dwcfi	save_reg_to_mem, 91, -1
        AADD #-5, SP
	.dwcfi	cfa_offset, 6
$C$DW$285	.dwtag  DW_TAG_variable, DW_AT_name("hUsbDev")
	.dwattr $C$DW$285, DW_AT_TI_symbol_name("_hUsbDev")
	.dwattr $C$DW$285, DW_AT_type(*$C$DW$T$126)
	.dwattr $C$DW$285, DW_AT_location[DW_OP_bregx 0x24 0]
$C$DW$286	.dwtag  DW_TAG_variable, DW_AT_name("resumeBitVal")
	.dwattr $C$DW$286, DW_AT_TI_symbol_name("_resumeBitVal")
	.dwattr $C$DW$286, DW_AT_type(*$C$DW$T$74)
	.dwattr $C$DW$286, DW_AT_location[DW_OP_bregx 0x24 2]
$C$DW$287	.dwtag  DW_TAG_variable, DW_AT_name("status")
	.dwattr $C$DW$287, DW_AT_TI_symbol_name("_status")
	.dwattr $C$DW$287, DW_AT_type(*$C$DW$T$76)
	.dwattr $C$DW$287, DW_AT_location[DW_OP_bregx 0x24 3]
        MOV T0, *SP(#2) ; |2584| 
        MOV XAR0, dbl(*SP(#0))
	.dwpsn	file "src/csl_usb.c",line 2587,column 5,is_stmt
        MOV #-6, *SP(#3) ; |2587| 
	.dwpsn	file "src/csl_usb.c",line 2589,column 2,is_stmt
        MOV dbl(*SP(#0)), XAR3
        MOV XAR3, AC0
        BCC $C$L163,AC0 == #0 ; |2589| 
                                        ; branchcc occurs ; |2589| 
	.dwpsn	file "src/csl_usb.c",line 2591,column 6,is_stmt
        B $C$L162 ; |2591| 
                                        ; branch occurs ; |2591| 
$C$L161:    
	.dwpsn	file "src/csl_usb.c",line 2594,column 6,is_stmt
        CMP *AR3(#86) == #1, TC1 ; |2594| 
        BCC $C$L163,!TC1 ; |2594| 
                                        ; branchcc occurs ; |2594| 
	.dwpsn	file "src/csl_usb.c",line 2597,column 6,is_stmt
        MOV #1025, T0 ; |2597| 
        MOV *(#_usbRegisters), AR3 ; |2597| 
        MOV *SP(#2), AC0 ; |2597| 
        SFTL AC0, #10, AC0 ; |2597| 
        AND #0x0400, AC0, AR1 ; |2597| 
        MOV port(*AR3(T0)), AR2 ; |2597| 
        BCLR @#10, AR2 ; |2597| 
        OR AR2, AR1 ; |2597| 
        MOV AR1, port(*AR3(T0)) ; |2597| 
	.dwpsn	file "src/csl_usb.c",line 2600,column 9,is_stmt
        MOV #0, *SP(#3) ; |2600| 
	.dwpsn	file "src/csl_usb.c",line 2602,column 13,is_stmt
        B $C$L163 ; |2602| 
                                        ; branch occurs ; |2602| 
$C$L162:    
	.dwpsn	file "src/csl_usb.c",line 2591,column 6,is_stmt
        MOV *AR3, AR1 ; |2591| 
        BCC $C$L161,AR1 == #0 ; |2591| 
                                        ; branchcc occurs ; |2591| 
$C$L163:    
	.dwpsn	file "src/csl_usb.c",line 2612,column 2,is_stmt
        MOV *SP(#3), T0 ; |2612| 
	.dwpsn	file "src/csl_usb.c",line 2613,column 1,is_stmt
        AADD #5, SP
	.dwcfi	cfa_offset, 1
$C$DW$288	.dwtag  DW_TAG_TI_branch
	.dwattr $C$DW$288, DW_AT_low_pc(0x00)
	.dwattr $C$DW$288, DW_AT_TI_return
        RET
                                        ; return occurs
	.dwattr $C$DW$282, DW_AT_TI_end_file("src/csl_usb.c")
	.dwattr $C$DW$282, DW_AT_TI_end_line(0xa35)
	.dwattr $C$DW$282, DW_AT_TI_end_column(0x01)
	.dwendentry
	.dwendtag $C$DW$282

	.sect	".text"
	.global	_USB_setDevAddr

$C$DW$289	.dwtag  DW_TAG_subprogram, DW_AT_name("USB_setDevAddr")
	.dwattr $C$DW$289, DW_AT_low_pc(_USB_setDevAddr)
	.dwattr $C$DW$289, DW_AT_high_pc(0x00)
	.dwattr $C$DW$289, DW_AT_TI_symbol_name("_USB_setDevAddr")
	.dwattr $C$DW$289, DW_AT_external
	.dwattr $C$DW$289, DW_AT_type(*$C$DW$T$76)
	.dwattr $C$DW$289, DW_AT_TI_begin_file("src/csl_usb.c")
	.dwattr $C$DW$289, DW_AT_TI_begin_line(0xa5e)
	.dwattr $C$DW$289, DW_AT_TI_begin_column(0x0c)
	.dwattr $C$DW$289, DW_AT_TI_max_frame_size(0x06)
	.dwpsn	file "src/csl_usb.c",line 2656,column 1,is_stmt,address _USB_setDevAddr

	.dwfde $C$DW$CIE, _USB_setDevAddr
$C$DW$290	.dwtag  DW_TAG_formal_parameter, DW_AT_name("hUsbDev")
	.dwattr $C$DW$290, DW_AT_TI_symbol_name("_hUsbDev")
	.dwattr $C$DW$290, DW_AT_type(*$C$DW$T$126)
	.dwattr $C$DW$290, DW_AT_location[DW_OP_reg17]
$C$DW$291	.dwtag  DW_TAG_formal_parameter, DW_AT_name("addr")
	.dwattr $C$DW$291, DW_AT_TI_symbol_name("_addr")
	.dwattr $C$DW$291, DW_AT_type(*$C$DW$T$19)
	.dwattr $C$DW$291, DW_AT_location[DW_OP_reg12]
;*******************************************************************************
;* FUNCTION NAME: USB_setDevAddr                                               *
;*                                                                             *
;*   Function Uses Regs : AC0,AC0,T0,AR0,XAR0,AR1,AR2,AR3,XAR3,SP,M40,SATA,    *
;*                        SATD,RDM,FRCT,SMUL                                   *
;*   Stack Frame        : Compact (No Frame Pointer, w/ debug)                 *
;*   Total Frame Size   : 6 words                                              *
;*                        (2 return address/alignment)                         *
;*                        (4 local values)                                     *
;*   Min System Stack   : 1 word                                               *
;*******************************************************************************
_USB_setDevAddr:
	.dwcfi	cfa_offset, 1
	.dwcfi	save_reg_to_mem, 91, -1
        AADD #-5, SP
	.dwcfi	cfa_offset, 6
