;*******************************************************************************
;* TMS320C55x C/C++ Codegen                                        Unix v4.4.1 *
;* Date/Time created: Thu May  2 04:44:01 2024                                 *
;*******************************************************************************
	.compiler_opts --hll_source=on --mem_model:code=flat --mem_model:data=large --object_format=coff --silicon_core_3_3 --symdebug:dwarf 
	.mmregs
	.cpl_on
	.arms_on
	.c54cm_off
	.asg AR6, FP
	.asg XAR6, XFP
	.asg DPH, MDP
	.model call=c55_std
	.model mem=large
	.noremark 5002  ; code respects overwrite rules
;*******************************************************************************
;* GLOBAL FILE PARAMETERS                                                      *
;*                                                                             *
;*   Architecture       : TMS320C55x                                           *
;*   Optimizing for     : Speed                                                *
;*   Memory             : Large Model (23-Bit Data Pointers)                   *
;*   Calls              : Normal Library ASM calls                             *
;*   Debug Info         : Standard TI Debug Information                        *
;*******************************************************************************

$C$DW$CU	.dwtag  DW_TAG_compile_unit
	.dwattr $C$DW$CU, DW_AT_name("src/csl_mmcsd.c")
	.dwattr $C$DW$CU, DW_AT_producer("TMS320C55x C/C++ Codegen Unix v4.4.1 Copyright (c) 1996-2012 Texas Instruments Incorporated")
	.dwattr $C$DW$CU, DW_AT_TI_version(0x01)
	.dwattr $C$DW$CU, DW_AT_comp_dir("/home/santiago/dspfuzz/on_board/library")

$C$DW$1	.dwtag  DW_TAG_subprogram, DW_AT_name("DMA_close")
	.dwattr $C$DW$1, DW_AT_TI_symbol_name("_DMA_close")
	.dwattr $C$DW$1, DW_AT_type(*$C$DW$T$132)
	.dwattr $C$DW$1, DW_AT_declaration
	.dwattr $C$DW$1, DW_AT_external
$C$DW$2	.dwtag  DW_TAG_formal_parameter
	.dwattr $C$DW$2, DW_AT_type(*$C$DW$T$89)
	.dwendtag $C$DW$1


$C$DW$3	.dwtag  DW_TAG_subprogram, DW_AT_name("DMA_config")
	.dwattr $C$DW$3, DW_AT_TI_symbol_name("_DMA_config")
	.dwattr $C$DW$3, DW_AT_type(*$C$DW$T$132)
	.dwattr $C$DW$3, DW_AT_declaration
	.dwattr $C$DW$3, DW_AT_external
$C$DW$4	.dwtag  DW_TAG_formal_parameter
	.dwattr $C$DW$4, DW_AT_type(*$C$DW$T$89)
$C$DW$5	.dwtag  DW_TAG_formal_parameter
	.dwattr $C$DW$5, DW_AT_type(*$C$DW$T$127)
	.dwendtag $C$DW$3


$C$DW$6	.dwtag  DW_TAG_subprogram, DW_AT_name("DMA_start")
	.dwattr $C$DW$6, DW_AT_TI_symbol_name("_DMA_start")
	.dwattr $C$DW$6, DW_AT_type(*$C$DW$T$132)
	.dwattr $C$DW$6, DW_AT_declaration
	.dwattr $C$DW$6, DW_AT_external
$C$DW$7	.dwtag  DW_TAG_formal_parameter
	.dwattr $C$DW$7, DW_AT_type(*$C$DW$T$89)
	.dwendtag $C$DW$6


$C$DW$8	.dwtag  DW_TAG_subprogram, DW_AT_name("DMA_stop")
	.dwattr $C$DW$8, DW_AT_TI_symbol_name("_DMA_stop")
	.dwattr $C$DW$8, DW_AT_type(*$C$DW$T$132)
	.dwattr $C$DW$8, DW_AT_declaration
	.dwattr $C$DW$8, DW_AT_external
$C$DW$9	.dwtag  DW_TAG_formal_parameter
	.dwattr $C$DW$9, DW_AT_type(*$C$DW$T$89)
	.dwendtag $C$DW$8


$C$DW$10	.dwtag  DW_TAG_subprogram, DW_AT_name("DMA_swapWords")
	.dwattr $C$DW$10, DW_AT_TI_symbol_name("_DMA_swapWords")
	.dwattr $C$DW$10, DW_AT_type(*$C$DW$T$132)
	.dwattr $C$DW$10, DW_AT_declaration
	.dwattr $C$DW$10, DW_AT_external
$C$DW$11	.dwtag  DW_TAG_formal_parameter
	.dwattr $C$DW$11, DW_AT_type(*$C$DW$T$161)
$C$DW$12	.dwtag  DW_TAG_formal_parameter
	.dwattr $C$DW$12, DW_AT_type(*$C$DW$T$49)
	.dwendtag $C$DW$10


$C$DW$13	.dwtag  DW_TAG_subprogram, DW_AT_name("IRQ_globalDisable")
	.dwattr $C$DW$13, DW_AT_TI_symbol_name("_IRQ_globalDisable")
	.dwattr $C$DW$13, DW_AT_type(*$C$DW$T$31)
	.dwattr $C$DW$13, DW_AT_declaration
	.dwattr $C$DW$13, DW_AT_external

$C$DW$14	.dwtag  DW_TAG_subprogram, DW_AT_name("IRQ_globalRestore")
	.dwattr $C$DW$14, DW_AT_TI_symbol_name("_IRQ_globalRestore")
	.dwattr $C$DW$14, DW_AT_declaration
	.dwattr $C$DW$14, DW_AT_external
$C$DW$15	.dwtag  DW_TAG_formal_parameter
	.dwattr $C$DW$15, DW_AT_type(*$C$DW$T$31)
	.dwendtag $C$DW$14


$C$DW$16	.dwtag  DW_TAG_subprogram, DW_AT_name("SYS_peripheralReset")
	.dwattr $C$DW$16, DW_AT_TI_symbol_name("_SYS_peripheralReset")
	.dwattr $C$DW$16, DW_AT_type(*$C$DW$T$132)
	.dwattr $C$DW$16, DW_AT_declaration
	.dwattr $C$DW$16, DW_AT_external
$C$DW$17	.dwtag  DW_TAG_formal_parameter
	.dwattr $C$DW$17, DW_AT_type(*$C$DW$T$120)
	.dwendtag $C$DW$16

	.global	_mmcsdCardExtCSD
	.bss	_mmcsdCardExtCSD,36,0,2
$C$DW$18	.dwtag  DW_TAG_variable, DW_AT_name("mmcsdCardExtCSD")
	.dwattr $C$DW$18, DW_AT_TI_symbol_name("_mmcsdCardExtCSD")
	.dwattr $C$DW$18, DW_AT_location[DW_OP_addr _mmcsdCardExtCSD]
	.dwattr $C$DW$18, DW_AT_type(*$C$DW$T$141)
	.dwattr $C$DW$18, DW_AT_external
;	/home/santiago/ti/55x_Tools/bin/acp55 -@/tmp/17450dV1kOs 
	.sect	".text"
	.global	_MMC_init

$C$DW$19	.dwtag  DW_TAG_subprogram, DW_AT_name("MMC_init")
	.dwattr $C$DW$19, DW_AT_low_pc(_MMC_init)
	.dwattr $C$DW$19, DW_AT_high_pc(0x00)
	.dwattr $C$DW$19, DW_AT_TI_symbol_name("_MMC_init")
	.dwattr $C$DW$19, DW_AT_external
	.dwattr $C$DW$19, DW_AT_type(*$C$DW$T$132)
	.dwattr $C$DW$19, DW_AT_TI_begin_file("src/csl_mmcsd.c")
	.dwattr $C$DW$19, DW_AT_TI_begin_line(0xb4)
	.dwattr $C$DW$19, DW_AT_TI_begin_column(0x0c)
	.dwattr $C$DW$19, DW_AT_TI_max_frame_size(0x02)
	.dwpsn	file "src/csl_mmcsd.c",line 181,column 1,is_stmt,address _MMC_init

	.dwfde $C$DW$CIE, _MMC_init
;*******************************************************************************
;* FUNCTION NAME: MMC_init                                                     *
;*                                                                             *
;*   Function Uses Regs : AC0,AC0,T0,AR1,SP,M40,SATA,SATD,RDM,FRCT,SMUL        *
;*   Stack Frame        : Compact (No Frame Pointer, w/ debug)                 *
;*   Total Frame Size   : 2 words                                              *
;*                        (2 return address/alignment)                         *
;*   Min System Stack   : 1 word                                               *
;*******************************************************************************
_MMC_init:
	.dwcfi	cfa_offset, 1
	.dwcfi	save_reg_to_mem, 91, -1
        AADD #-1, SP
	.dwcfi	cfa_offset, 2
	.dwpsn	file "src/csl_mmcsd.c",line 183,column 2,is_stmt
        AND #0xffef, *port(#7170) ; |183| 
	.dwpsn	file "src/csl_mmcsd.c",line 184,column 2,is_stmt
        AND #0xff7f, *port(#7170) ; |184| 
	.dwpsn	file "src/csl_mmcsd.c",line 187,column 2,is_stmt
        MOV #0, AC0 ; |187| 
        MOV *port(#7172), AR1 ; |187| 
        BSET @#5, AC0 ; |187| 
        MOV AC0, *port(#7172) ; |187| 
	.dwpsn	file "src/csl_mmcsd.c",line 188,column 2,is_stmt
$C$DW$20	.dwtag  DW_TAG_TI_branch
	.dwattr $C$DW$20, DW_AT_low_pc(0x00)
	.dwattr $C$DW$20, DW_AT_name("_SYS_peripheralReset")
	.dwattr $C$DW$20, DW_AT_TI_call

        CALL #_SYS_peripheralReset ; |188| 
||      MOV #1, T0

                                        ; call occurs [#_SYS_peripheralReset] ; |188| 
	.dwpsn	file "src/csl_mmcsd.c",line 195,column 5,is_stmt
        MOV #0, T0
	.dwpsn	file "src/csl_mmcsd.c",line 196,column 1,is_stmt
        AADD #1, SP
	.dwcfi	cfa_offset, 1
$C$DW$21	.dwtag  DW_TAG_TI_branch
	.dwattr $C$DW$21, DW_AT_low_pc(0x00)
	.dwattr $C$DW$21, DW_AT_TI_return
        RET
                                        ; return occurs
	.dwattr $C$DW$19, DW_AT_TI_end_file("src/csl_mmcsd.c")
	.dwattr $C$DW$19, DW_AT_TI_end_line(0xc4)
	.dwattr $C$DW$19, DW_AT_TI_end_column(0x01)
	.dwendentry
	.dwendtag $C$DW$19

	.sect	".text"
	.global	_MMC_open

$C$DW$22	.dwtag  DW_TAG_subprogram, DW_AT_name("MMC_open")
	.dwattr $C$DW$22, DW_AT_low_pc(_MMC_open)
	.dwattr $C$DW$22, DW_AT_high_pc(0x00)
	.dwattr $C$DW$22, DW_AT_TI_symbol_name("_MMC_open")
	.dwattr $C$DW$22, DW_AT_external
	.dwattr $C$DW$22, DW_AT_type(*$C$DW$T$130)
	.dwattr $C$DW$22, DW_AT_TI_begin_file("src/csl_mmcsd.c")
	.dwattr $C$DW$22, DW_AT_TI_begin_line(0xfb)
	.dwattr $C$DW$22, DW_AT_TI_begin_column(0x11)
	.dwattr $C$DW$22, DW_AT_TI_max_frame_size(0x0a)
	.dwpsn	file "src/csl_mmcsd.c",line 255,column 1,is_stmt,address _MMC_open

	.dwfde $C$DW$CIE, _MMC_open
$C$DW$23	.dwtag  DW_TAG_formal_parameter, DW_AT_name("pMmcsdContObj")
	.dwattr $C$DW$23, DW_AT_TI_symbol_name("_pMmcsdContObj")
	.dwattr $C$DW$23, DW_AT_type(*$C$DW$T$129)
	.dwattr $C$DW$23, DW_AT_location[DW_OP_reg17]
$C$DW$24	.dwtag  DW_TAG_formal_parameter, DW_AT_name("instId")
	.dwattr $C$DW$24, DW_AT_TI_symbol_name("_instId")
	.dwattr $C$DW$24, DW_AT_type(*$C$DW$T$122)
	.dwattr $C$DW$24, DW_AT_location[DW_OP_reg12]
$C$DW$25	.dwtag  DW_TAG_formal_parameter, DW_AT_name("opMode")
	.dwattr $C$DW$25, DW_AT_TI_symbol_name("_opMode")
	.dwattr $C$DW$25, DW_AT_type(*$C$DW$T$86)
	.dwattr $C$DW$25, DW_AT_location[DW_OP_reg13]
$C$DW$26	.dwtag  DW_TAG_formal_parameter, DW_AT_name("status")
	.dwattr $C$DW$26, DW_AT_TI_symbol_name("_status")
	.dwattr $C$DW$26, DW_AT_type(*$C$DW$T$133)
	.dwattr $C$DW$26, DW_AT_location[DW_OP_reg19]
;*******************************************************************************
;* FUNCTION NAME: MMC_open                                                     *
;*                                                                             *
;*   Function Uses Regs : AC0,AC0,T0,T1,AR0,XAR0,AR1,XAR1,AR2,AR3,XAR3,SP,TC1, *
;*                        M40,SATA,SATD,RDM,FRCT,SMUL                          *
;*   Stack Frame        : Compact (No Frame Pointer, w/ debug)                 *
;*   Total Frame Size   : 10 words                                             *
;*                        (2 return address/alignment)                         *
;*                        (8 local values)                                     *
;*   Min System Stack   : 1 word                                               *
;*******************************************************************************
_MMC_open:
	.dwcfi	cfa_offset, 1
	.dwcfi	save_reg_to_mem, 91, -1
        AADD #-9, SP
	.dwcfi	cfa_offset, 10
$C$DW$27	.dwtag  DW_TAG_variable, DW_AT_name("pMmcsdContObj")
	.dwattr $C$DW$27, DW_AT_TI_symbol_name("_pMmcsdContObj")
	.dwattr $C$DW$27, DW_AT_type(*$C$DW$T$129)
	.dwattr $C$DW$27, DW_AT_location[DW_OP_bregx 0x24 0]
$C$DW$28	.dwtag  DW_TAG_variable, DW_AT_name("instId")
	.dwattr $C$DW$28, DW_AT_TI_symbol_name("_instId")
	.dwattr $C$DW$28, DW_AT_type(*$C$DW$T$122)
	.dwattr $C$DW$28, DW_AT_location[DW_OP_bregx 0x24 2]
$C$DW$29	.dwtag  DW_TAG_variable, DW_AT_name("opMode")
	.dwattr $C$DW$29, DW_AT_TI_symbol_name("_opMode")
	.dwattr $C$DW$29, DW_AT_type(*$C$DW$T$86)
	.dwattr $C$DW$29, DW_AT_location[DW_OP_bregx 0x24 3]
$C$DW$30	.dwtag  DW_TAG_variable, DW_AT_name("status")
	.dwattr $C$DW$30, DW_AT_TI_symbol_name("_status")
	.dwattr $C$DW$30, DW_AT_type(*$C$DW$T$133)
	.dwattr $C$DW$30, DW_AT_location[DW_OP_bregx 0x24 4]
$C$DW$31	.dwtag  DW_TAG_variable, DW_AT_name("hMmcsd")
	.dwattr $C$DW$31, DW_AT_TI_symbol_name("_hMmcsd")
	.dwattr $C$DW$31, DW_AT_type(*$C$DW$T$130)
	.dwattr $C$DW$31, DW_AT_location[DW_OP_bregx 0x24 6]
        MOV XAR1, dbl(*SP(#4))
        MOV T1, *SP(#3) ; |255| 
        MOV T0, *SP(#2) ; |255| 
        MOV XAR0, dbl(*SP(#0))
	.dwpsn	file "src/csl_mmcsd.c",line 258,column 5,is_stmt
        MOV dbl(*SP(#0)), XAR3
        MOV XAR3, AC0
        BCC $C$L1,AC0 == #0 ; |258| 
                                        ; branchcc occurs ; |258| 
        MOV *SP(#3), AR1 ; |258| 
        BCC $C$L3,AR1 == #0 ; |258| 
                                        ; branchcc occurs ; |258| 
        CMP *SP(#3) == #1, TC1 ; |258| 
        BCC $C$L3,TC1 ; |258| 
                                        ; branchcc occurs ; |258| 
        CMP *SP(#3) == #2, TC1 ; |258| 
        BCC $C$L3,TC1 ; |258| 
                                        ; branchcc occurs ; |258| 
$C$L1:    
	.dwpsn	file "src/csl_mmcsd.c",line 263,column 3,is_stmt
        MOV dbl(*SP(#4)), XAR3
        MOV XAR3, AC0
        BCC $C$L2,AC0 == #0 ; |263| 
                                        ; branchcc occurs ; |263| 
	.dwpsn	file "src/csl_mmcsd.c",line 265,column 10,is_stmt
        MOV #-6, *AR3 ; |265| 
$C$L2:    
	.dwpsn	file "src/csl_mmcsd.c",line 267,column 9,is_stmt
        MOV #0, AC0 ; |267| 
        MOV AC0, dbl(*SP(#6))
	.dwpsn	file "src/csl_mmcsd.c",line 268,column 2,is_stmt
        B $C$L10  ; |268| 
                                        ; branch occurs ; |268| 
$C$L3:    
	.dwpsn	file "src/csl_mmcsd.c",line 269,column 7,is_stmt
        MOV dbl(*SP(#4)), XAR3
        MOV XAR3, AC0
        BCC $C$L7,AC0 != #0 ; |269| 
                                        ; branchcc occurs ; |269| 
	.dwpsn	file "src/csl_mmcsd.c",line 271,column 3,is_stmt
        MOV #0, AC0 ; |271| 
        MOV AC0, dbl(*SP(#6))
	.dwpsn	file "src/csl_mmcsd.c",line 272,column 2,is_stmt
        B $C$L10  ; |272| 
                                        ; branch occurs ; |272| 
$C$L4:    
	.dwpsn	file "src/csl_mmcsd.c",line 278,column 5,is_stmt
        MOV #0, *AR3 ; |278| 
	.dwpsn	file "src/csl_mmcsd.c",line 279,column 5,is_stmt
        MOV dbl(*SP(#0)), XAR3
        MOV #14848, *AR3 ; |279| 
	.dwpsn	file "src/csl_mmcsd.c",line 280,column 5,is_stmt
        MOV dbl(*SP(#0)), XAR3
        MOV XAR3, dbl(*SP(#6))
	.dwpsn	file "src/csl_mmcsd.c",line 281,column 10,is_stmt
        B $C$L8   ; |281| 
                                        ; branch occurs ; |281| 
$C$L5:    
	.dwpsn	file "src/csl_mmcsd.c",line 284,column 5,is_stmt
        MOV #0, *AR3 ; |284| 
	.dwpsn	file "src/csl_mmcsd.c",line 285,column 5,is_stmt
        MOV dbl(*SP(#0)), XAR3
        MOV #15104, *AR3 ; |285| 
	.dwpsn	file "src/csl_mmcsd.c",line 286,column 5,is_stmt
        MOV dbl(*SP(#0)), XAR3
        MOV XAR3, dbl(*SP(#6))
	.dwpsn	file "src/csl_mmcsd.c",line 287,column 10,is_stmt
        B $C$L8   ; |287| 
                                        ; branch occurs ; |287| 
$C$L6:    
	.dwpsn	file "src/csl_mmcsd.c",line 290,column 5,is_stmt
        MOV #-6, *AR3 ; |290| 
	.dwpsn	file "src/csl_mmcsd.c",line 291,column 5,is_stmt
        MOV dbl(*SP(#0)), XAR3
        MOV #0, *AR3 ; |291| 
	.dwpsn	file "src/csl_mmcsd.c",line 292,column 5,is_stmt
        MOV #0, AC0 ; |292| 
        MOV AC0, dbl(*SP(#6))
	.dwpsn	file "src/csl_mmcsd.c",line 293,column 10,is_stmt
        B $C$L8   ; |293| 
                                        ; branch occurs ; |293| 
$C$L7:    
	.dwpsn	file "src/csl_mmcsd.c",line 275,column 6,is_stmt
        MOV *SP(#2), AR1 ; |275| 
        BCC $C$L4,AR1 == #0 ; |275| 
                                        ; branchcc occurs ; |275| 
        MOV #1, AR2
        CMP AR1 == AR2, TC1 ; |275| 
        BCC $C$L5,TC1 ; |275| 
                                        ; branchcc occurs ; |275| 
        B $C$L6   ; |275| 
                                        ; branch occurs ; |275| 
$C$L8:    
	.dwpsn	file "src/csl_mmcsd.c",line 296,column 3,is_stmt
        MOV dbl(*SP(#6)), XAR3
        MOV *SP(#3), AR1 ; |296| 
        MOV AR1, *AR3(#8) ; |296| 
	.dwpsn	file "src/csl_mmcsd.c",line 298,column 3,is_stmt
        MOV dbl(*SP(#6)), XAR3
        MOV #0, *AR3(#61) ; |298| 
	.dwpsn	file "src/csl_mmcsd.c",line 299,column 3,is_stmt
        MOV dbl(*SP(#6)), XAR3
        MOV #0, *AR3(#62) ; |299| 
	.dwpsn	file "src/csl_mmcsd.c",line 300,column 3,is_stmt
        MOV dbl(*SP(#6)), XAR3
        MOV #0, *AR3(#44) ; |300| 
	.dwpsn	file "src/csl_mmcsd.c",line 301,column 3,is_stmt
        MOV dbl(*SP(#6)), XAR3
        MOV #0, *AR3(#63) ; |301| 
	.dwpsn	file "src/csl_mmcsd.c",line 302,column 3,is_stmt
        MOV #0, AC0 ; |302| 
        MOV AC0, dbl(*(#(_mmcsdCardExtCSD+12))) ; |302| 
	.dwpsn	file "src/csl_mmcsd.c",line 305,column 3,is_stmt
        MOV dbl(*SP(#6)), XAR3
        MOV *AR3, AR3 ; |305| 
        MOV port(*AR3), AR1 ; |305| 
        MOV dbl(*SP(#6)), XAR3
        MOV *AR3(#62) << #10, AC0 ; |305| 
        MOV *AR3, AR3 ; |305| 
        BCLR @#10, AR1 ; |305| 
        AND #0x0400, AC0, AR2 ; |305| 
        OR AR1, AR2 ; |305| 
        MOV AR2, port(*AR3) ; |305| 
	.dwpsn	file "src/csl_mmcsd.c",line 309,column 3,is_stmt
        MOV dbl(*SP(#6)), XAR3
        MOV *AR3, AR3 ; |309| 
        MOV port(*AR3), AR1 ; |309| 
        MOV dbl(*SP(#6)), XAR3
        MOV *AR3(#61) << #9, AC0 ; |309| 
        MOV *AR3, AR3 ; |309| 
        BCLR @#9, AR1 ; |309| 
        AND #0x0200, AC0, AR2 ; |309| 
        OR AR1, AR2 ; |309| 
        MOV AR2, port(*AR3) ; |309| 
	.dwpsn	file "src/csl_mmcsd.c",line 312,column 3,is_stmt
        MOV dbl(*SP(#4)), XAR3

        MOV *AR3, AR1 ; |312| 
||      MOV #0, AR2

        CMP AR2 != AR1, TC1 ; |312| 
        BCC $C$L10,TC1 ; |312| 
                                        ; branchcc occurs ; |312| 
        MOV dbl(*SP(#6)), XAR3
        MOV #2, AR2
        MOV *AR3(#8), AR1 ; |312| 
        CMP AR2 != AR1, TC1 ; |312| 
        BCC $C$L10,TC1 ; |312| 
                                        ; branchcc occurs ; |312| 
	.dwpsn	file "src/csl_mmcsd.c",line 314,column 4,is_stmt
        MOV #0, AC0 ; |314| 
        MOV AC0, dbl(*AR3(#10))
	.dwpsn	file "src/csl_mmcsd.c",line 315,column 4,is_stmt
        MOV dbl(*SP(#6)), XAR3
        MOV AC0, dbl(*AR3(#12))
	.dwpsn	file "src/csl_mmcsd.c",line 319,column 7,is_stmt
        MOV dbl(*SP(#6)), XAR3
        MOV #0, *AR3(#14) ; |319| 
	.dwpsn	file "src/csl_mmcsd.c",line 321,column 4,is_stmt
        MOV dbl(*SP(#6)), XAR3
        MOV #0, *AR3(#15) ; |321| 
	.dwpsn	file "src/csl_mmcsd.c",line 322,column 4,is_stmt
        MOV dbl(*SP(#6)), XAR3
        MOV #3, *AR3(#16) ; |322| 
	.dwpsn	file "src/csl_mmcsd.c",line 323,column 4,is_stmt
        MOV dbl(*SP(#6)), XAR3
        MOV #1, *AR3(#20) ; |323| 
	.dwpsn	file "src/csl_mmcsd.c",line 324,column 4,is_stmt
        MOV dbl(*SP(#6)), XAR3
        MOV #0, *AR3(#19) ; |324| 
	.dwpsn	file "src/csl_mmcsd.c",line 325,column 4,is_stmt
        MOV dbl(*SP(#6)), XAR3
        MOV #0, *AR3(#21) ; |325| 
	.dwpsn	file "src/csl_mmcsd.c",line 326,column 4,is_stmt
        MOV dbl(*SP(#6)), XAR3
        MOV #1, *AR3(#17) ; |326| 
	.dwpsn	file "src/csl_mmcsd.c",line 327,column 4,is_stmt
        MOV dbl(*SP(#6)), XAR3
        MOV AC0, dbl(*AR3(#24)) ; |327| 
	.dwpsn	file "src/csl_mmcsd.c",line 328,column 4,is_stmt
        MOV dbl(*SP(#6)), XAR3
        MOV #0, *AR3(#22) ; |328| 
	.dwpsn	file "src/csl_mmcsd.c",line 329,column 4,is_stmt
        MOV dbl(*SP(#0)), XAR3
        MOV uns(*AR3), AC0 ; |329| 
        MOV AC0, XAR3
        AADD #44, AR3 ; |329| 
        MOV XAR3, AC0
        MOV dbl(*SP(#6)), XAR3
        MOV AC0, dbl(*AR3(#26)) ; |329| 
	.dwpsn	file "src/csl_mmcsd.c",line 333,column 7,is_stmt
        MOV dbl(*SP(#6)), XAR3
        MOV #0, *AR3(#28) ; |333| 
	.dwpsn	file "src/csl_mmcsd.c",line 335,column 4,is_stmt
        MOV dbl(*SP(#6)), XAR3
        MOV #0, *AR3(#29) ; |335| 
	.dwpsn	file "src/csl_mmcsd.c",line 336,column 4,is_stmt
        MOV dbl(*SP(#6)), XAR3
        MOV #3, *AR3(#30) ; |336| 
	.dwpsn	file "src/csl_mmcsd.c",line 337,column 4,is_stmt
        MOV dbl(*SP(#6)), XAR3
        MOV #0, *AR3(#34) ; |337| 
	.dwpsn	file "src/csl_mmcsd.c",line 338,column 4,is_stmt
        MOV dbl(*SP(#6)), XAR3
        MOV #0, *AR3(#33) ; |338| 
	.dwpsn	file "src/csl_mmcsd.c",line 339,column 4,is_stmt
        MOV dbl(*SP(#6)), XAR3
        MOV #0, *AR3(#35) ; |339| 
	.dwpsn	file "src/csl_mmcsd.c",line 340,column 4,is_stmt
        MOV dbl(*SP(#6)), XAR3
        MOV #1, *AR3(#31) ; |340| 
	.dwpsn	file "src/csl_mmcsd.c",line 341,column 4,is_stmt
        MOV dbl(*SP(#6)), XAR3
        MOV #0, AC0 ; |341| 
        MOV AC0, dbl(*AR3(#40)) ; |341| 
	.dwpsn	file "src/csl_mmcsd.c",line 342,column 4,is_stmt
        MOV dbl(*SP(#6)), XAR3
        MOV #0, *AR3(#36) ; |342| 
	.dwpsn	file "src/csl_mmcsd.c",line 343,column 4,is_stmt
        MOV dbl(*SP(#0)), XAR3
        MOV uns(*AR3), AC0 ; |343| 
        MOV AC0, XAR3
        AADD #40, AR3 ; |343| 
        MOV XAR3, AC0
        MOV dbl(*SP(#6)), XAR3
        MOV AC0, dbl(*AR3(#38)) ; |343| 
	.dwpsn	file "src/csl_mmcsd.c",line 346,column 4,is_stmt

        MOV *SP(#2), AR1 ; |346| 
||      MOV #0, AR2

        CMP AR2 != AR1, TC1 ; |346| 
        BCC $C$L9,TC1 ; |346| 
                                        ; branchcc occurs ; |346| 
	.dwpsn	file "src/csl_mmcsd.c",line 348,column 5,is_stmt
        MOV dbl(*SP(#6)), XAR3
        MOV #5, *AR3(#18) ; |348| 
	.dwpsn	file "src/csl_mmcsd.c",line 349,column 5,is_stmt
        MOV dbl(*SP(#6)), XAR3
        MOV #6, *AR3(#32) ; |349| 
	.dwpsn	file "src/csl_mmcsd.c",line 350,column 4,is_stmt
        B $C$L10  ; |350| 
                                        ; branch occurs ; |350| 
$C$L9:    
	.dwpsn	file "src/csl_mmcsd.c",line 353,column 5,is_stmt
        MOV dbl(*SP(#6)), XAR3
        MOV #7, *AR3(#18) ; |353| 
	.dwpsn	file "src/csl_mmcsd.c",line 354,column 5,is_stmt
        MOV dbl(*SP(#6)), XAR3
        MOV #8, *AR3(#32) ; |354| 
$C$L10:    
	.dwpsn	file "src/csl_mmcsd.c",line 359,column 5,is_stmt
        MOV dbl(*SP(#6)), XAR0
	.dwpsn	file "src/csl_mmcsd.c",line 360,column 1,is_stmt
        AADD #9, SP
	.dwcfi	cfa_offset, 1
$C$DW$32	.dwtag  DW_TAG_TI_branch
	.dwattr $C$DW$32, DW_AT_low_pc(0x00)
	.dwattr $C$DW$32, DW_AT_TI_return
        RET
                                        ; return occurs
	.dwattr $C$DW$22, DW_AT_TI_end_file("src/csl_mmcsd.c")
	.dwattr $C$DW$22, DW_AT_TI_end_line(0x168)
	.dwattr $C$DW$22, DW_AT_TI_end_column(0x01)
	.dwendentry
	.dwendtag $C$DW$22

	.sect	".text"
	.global	_MMC_close

$C$DW$33	.dwtag  DW_TAG_subprogram, DW_AT_name("MMC_close")
	.dwattr $C$DW$33, DW_AT_low_pc(_MMC_close)
	.dwattr $C$DW$33, DW_AT_high_pc(0x00)
	.dwattr $C$DW$33, DW_AT_TI_symbol_name("_MMC_close")
	.dwattr $C$DW$33, DW_AT_external
	.dwattr $C$DW$33, DW_AT_type(*$C$DW$T$132)
	.dwattr $C$DW$33, DW_AT_TI_begin_file("src/csl_mmcsd.c")
	.dwattr $C$DW$33, DW_AT_TI_begin_line(0x192)
	.dwattr $C$DW$33, DW_AT_TI_begin_column(0x0c)
	.dwattr $C$DW$33, DW_AT_TI_max_frame_size(0x04)
	.dwpsn	file "src/csl_mmcsd.c",line 403,column 1,is_stmt,address _MMC_close

	.dwfde $C$DW$CIE, _MMC_close
$C$DW$34	.dwtag  DW_TAG_formal_parameter, DW_AT_name("hMmcsd")
	.dwattr $C$DW$34, DW_AT_TI_symbol_name("_hMmcsd")
	.dwattr $C$DW$34, DW_AT_type(*$C$DW$T$130)
	.dwattr $C$DW$34, DW_AT_location[DW_OP_reg17]
;*******************************************************************************
;* FUNCTION NAME: MMC_close                                                    *
;*                                                                             *
;*   Function Uses Regs : AC0,AC0,AC1,AC1,T0,AR0,XAR0,AR3,XAR3,SP,TC1,M40,SATA,*
;*                        SATD,RDM,FRCT,SMUL                                   *
;*   Stack Frame        : Compact (No Frame Pointer, w/ debug)                 *
;*   Total Frame Size   : 4 words                                              *
;*                        (2 return address/alignment)                         *
;*                        (2 local values)                                     *
;*   Min System Stack   : 1 word                                               *
;*******************************************************************************
_MMC_close:
	.dwcfi	cfa_offset, 1
	.dwcfi	save_reg_to_mem, 91, -1
        AADD #-3, SP
	.dwcfi	cfa_offset, 4
$C$DW$35	.dwtag  DW_TAG_variable, DW_AT_name("hMmcsd")
	.dwattr $C$DW$35, DW_AT_TI_symbol_name("_hMmcsd")
	.dwattr $C$DW$35, DW_AT_type(*$C$DW$T$130)
	.dwattr $C$DW$35, DW_AT_location[DW_OP_bregx 0x24 0]
        MOV XAR0, dbl(*SP(#0))
	.dwpsn	file "src/csl_mmcsd.c",line 404,column 5,is_stmt
        MOV dbl(*SP(#0)), XAR3

        MOV XAR3, AC0
||      MOV #0, AC1 ; |404| 

        CMPU AC1 != AC0, TC1 ; |404| 
        BCC $C$L11,TC1 ; |404| 
                                        ; branchcc occurs ; |404| 
	.dwpsn	file "src/csl_mmcsd.c",line 406,column 9,is_stmt
        MOV #-5, T0
        B $C$L13  ; |406| 
                                        ; branch occurs ; |406| 
$C$L11:    
	.dwpsn	file "src/csl_mmcsd.c",line 410,column 3,is_stmt
        CMP *AR3(#8) == #2, TC1 ; |410| 
        BCC $C$L12,!TC1 ; |410| 
                                        ; branchcc occurs ; |410| 
	.dwpsn	file "src/csl_mmcsd.c",line 413,column 4,is_stmt
        MOV dbl(*AR3(#10)), XAR0
$C$DW$36	.dwtag  DW_TAG_TI_branch
	.dwattr $C$DW$36, DW_AT_low_pc(0x00)
	.dwattr $C$DW$36, DW_AT_name("_DMA_close")
	.dwattr $C$DW$36, DW_AT_TI_call
        CALL #_DMA_close ; |413| 
                                        ; call occurs [#_DMA_close] ; |413| 
	.dwpsn	file "src/csl_mmcsd.c",line 414,column 4,is_stmt
        MOV dbl(*SP(#0)), XAR3
        MOV dbl(*AR3(#12)), XAR0
$C$DW$37	.dwtag  DW_TAG_TI_branch
	.dwattr $C$DW$37, DW_AT_low_pc(0x00)
	.dwattr $C$DW$37, DW_AT_name("_DMA_close")
	.dwattr $C$DW$37, DW_AT_TI_call
        CALL #_DMA_close ; |414| 
                                        ; call occurs [#_DMA_close] ; |414| 
$C$L12:    
	.dwpsn	file "src/csl_mmcsd.c",line 417,column 9,is_stmt
        MOV dbl(*SP(#0)), XAR3
        MOV #0, *AR3 ; |417| 
	.dwpsn	file "src/csl_mmcsd.c",line 419,column 9,is_stmt
        MOV #0, T0
$C$L13:    
	.dwpsn	file "src/csl_mmcsd.c",line 421,column 1,is_stmt
        AADD #3, SP
	.dwcfi	cfa_offset, 1
$C$DW$38	.dwtag  DW_TAG_TI_branch
	.dwattr $C$DW$38, DW_AT_low_pc(0x00)
	.dwattr $C$DW$38, DW_AT_TI_return
        RET
                                        ; return occurs
	.dwattr $C$DW$33, DW_AT_TI_end_file("src/csl_mmcsd.c")
	.dwattr $C$DW$33, DW_AT_TI_end_line(0x1a5)
	.dwattr $C$DW$33, DW_AT_TI_end_column(0x01)
	.dwendentry
	.dwendtag $C$DW$33

	.sect	".text"
	.global	_MMC_setCardType

$C$DW$39	.dwtag  DW_TAG_subprogram, DW_AT_name("MMC_setCardType")
	.dwattr $C$DW$39, DW_AT_low_pc(_MMC_setCardType)
	.dwattr $C$DW$39, DW_AT_high_pc(0x00)
	.dwattr $C$DW$39, DW_AT_TI_symbol_name("_MMC_setCardType")
	.dwattr $C$DW$39, DW_AT_external
	.dwattr $C$DW$39, DW_AT_type(*$C$DW$T$132)
	.dwattr $C$DW$39, DW_AT_TI_begin_file("src/csl_mmcsd.c")
	.dwattr $C$DW$39, DW_AT_TI_begin_line(0x1cd)
	.dwattr $C$DW$39, DW_AT_TI_begin_column(0x0c)
	.dwattr $C$DW$39, DW_AT_TI_max_frame_size(0x04)
	.dwpsn	file "src/csl_mmcsd.c",line 463,column 1,is_stmt,address _MMC_setCardType

	.dwfde $C$DW$CIE, _MMC_setCardType
$C$DW$40	.dwtag  DW_TAG_formal_parameter, DW_AT_name("pCardObj")
	.dwattr $C$DW$40, DW_AT_TI_symbol_name("_pCardObj")
	.dwattr $C$DW$40, DW_AT_type(*$C$DW$T$82)
	.dwattr $C$DW$40, DW_AT_location[DW_OP_reg17]
$C$DW$41	.dwtag  DW_TAG_formal_parameter, DW_AT_name("cardType")
	.dwattr $C$DW$41, DW_AT_TI_symbol_name("_cardType")
	.dwattr $C$DW$41, DW_AT_type(*$C$DW$T$62)
	.dwattr $C$DW$41, DW_AT_location[DW_OP_reg12]
;*******************************************************************************
;* FUNCTION NAME: MMC_setCardType                                              *
;*                                                                             *
;*   Function Uses Regs : AC0,AC0,AC1,AC1,T0,AR0,XAR0,AR1,AR3,XAR3,SP,TC1,M40, *
;*                        SATA,SATD,RDM,FRCT,SMUL                              *
;*   Stack Frame        : Compact (No Frame Pointer, w/ debug)                 *
;*   Total Frame Size   : 4 words                                              *
;*                        (1 return address/alignment)                         *
;*                        (3 local values)                                     *
;*   Min System Stack   : 1 word                                               *
;*******************************************************************************
_MMC_setCardType:
	.dwcfi	cfa_offset, 1
	.dwcfi	save_reg_to_mem, 91, -1
        AADD #-3, SP
	.dwcfi	cfa_offset, 4
$C$DW$42	.dwtag  DW_TAG_variable, DW_AT_name("pCardObj")
	.dwattr $C$DW$42, DW_AT_TI_symbol_name("_pCardObj")
	.dwattr $C$DW$42, DW_AT_type(*$C$DW$T$82)
	.dwattr $C$DW$42, DW_AT_location[DW_OP_bregx 0x24 0]
$C$DW$43	.dwtag  DW_TAG_variable, DW_AT_name("cardType")
	.dwattr $C$DW$43, DW_AT_TI_symbol_name("_cardType")
	.dwattr $C$DW$43, DW_AT_type(*$C$DW$T$62)
	.dwattr $C$DW$43, DW_AT_location[DW_OP_bregx 0x24 2]
        MOV T0, *SP(#2) ; |463| 
        MOV XAR0, dbl(*SP(#0))
	.dwpsn	file "src/csl_mmcsd.c",line 464,column 5,is_stmt
        MOV dbl(*SP(#0)), XAR3

        MOV XAR3, AC0
||      MOV #0, AC1 ; |464| 

        CMPU AC1 != AC0, TC1 ; |464| 
        BCC $C$L14,TC1 ; |464| 
                                        ; branchcc occurs ; |464| 
	.dwpsn	file "src/csl_mmcsd.c",line 466,column 9,is_stmt
        MOV #-6, T0
        B $C$L17  ; |466| 
                                        ; branch occurs ; |466| 
$C$L14:    
	.dwpsn	file "src/csl_mmcsd.c",line 470,column 3,is_stmt
        CMP *SP(#2) == #1, TC1 ; |470| 
        BCC $C$L15,TC1 ; |470| 
                                        ; branchcc occurs ; |470| 
        CMP *SP(#2) == #2, TC1 ; |470| 
        BCC $C$L16,!TC1 ; |470| 
                                        ; branchcc occurs ; |470| 
$C$L15:    
	.dwpsn	file "src/csl_mmcsd.c",line 472,column 10,is_stmt
        MOV *SP(#2), AR1 ; |472| 
        MOV AR1, *AR3(#18) ; |472| 
	.dwpsn	file "src/csl_mmcsd.c",line 473,column 10,is_stmt
        MOV #0, T0
        B $C$L17  ; |473| 
                                        ; branch occurs ; |473| 
$C$L16:    
	.dwpsn	file "src/csl_mmcsd.c",line 477,column 4,is_stmt
        MOV #-6, T0
$C$L17:    
	.dwpsn	file "src/csl_mmcsd.c",line 480,column 1,is_stmt
        AADD #3, SP
	.dwcfi	cfa_offset, 1
$C$DW$44	.dwtag  DW_TAG_TI_branch
	.dwattr $C$DW$44, DW_AT_low_pc(0x00)
	.dwattr $C$DW$44, DW_AT_TI_return
        RET
                                        ; return occurs
	.dwattr $C$DW$39, DW_AT_TI_end_file("src/csl_mmcsd.c")
	.dwattr $C$DW$39, DW_AT_TI_end_line(0x1e0)
	.dwattr $C$DW$39, DW_AT_TI_end_column(0x01)
	.dwendentry
	.dwendtag $C$DW$39

	.sect	".text"
	.global	_MMC_setCardPtr

$C$DW$45	.dwtag  DW_TAG_subprogram, DW_AT_name("MMC_setCardPtr")
	.dwattr $C$DW$45, DW_AT_low_pc(_MMC_setCardPtr)
	.dwattr $C$DW$45, DW_AT_high_pc(0x00)
	.dwattr $C$DW$45, DW_AT_TI_symbol_name("_MMC_setCardPtr")
	.dwattr $C$DW$45, DW_AT_external
	.dwattr $C$DW$45, DW_AT_type(*$C$DW$T$132)
	.dwattr $C$DW$45, DW_AT_TI_begin_file("src/csl_mmcsd.c")
	.dwattr $C$DW$45, DW_AT_TI_begin_line(0x20e)
	.dwattr $C$DW$45, DW_AT_TI_begin_column(0x0c)
	.dwattr $C$DW$45, DW_AT_TI_max_frame_size(0x06)
	.dwpsn	file "src/csl_mmcsd.c",line 528,column 1,is_stmt,address _MMC_setCardPtr

	.dwfde $C$DW$CIE, _MMC_setCardPtr
$C$DW$46	.dwtag  DW_TAG_formal_parameter, DW_AT_name("hMmcsd")
	.dwattr $C$DW$46, DW_AT_TI_symbol_name("_hMmcsd")
	.dwattr $C$DW$46, DW_AT_type(*$C$DW$T$130)
	.dwattr $C$DW$46, DW_AT_location[DW_OP_reg17]
$C$DW$47	.dwtag  DW_TAG_formal_parameter, DW_AT_name("pMmcCardObj")
	.dwattr $C$DW$47, DW_AT_TI_symbol_name("_pMmcCardObj")
	.dwattr $C$DW$47, DW_AT_type(*$C$DW$T$82)
	.dwattr $C$DW$47, DW_AT_location[DW_OP_reg19]
;*******************************************************************************
;* FUNCTION NAME: MMC_setCardPtr                                               *
;*                                                                             *
;*   Function Uses Regs : AC0,AC0,AC1,AC1,T0,AR0,XAR0,AR1,XAR1,AR2,XAR2,AR3,   *
;*                        XAR3,SP,TC1,M40,SATA,SATD,RDM,FRCT,SMUL              *
;*   Stack Frame        : Compact (No Frame Pointer, w/ debug)                 *
;*   Total Frame Size   : 6 words                                              *
;*                        (2 return address/alignment)                         *
;*                        (4 local values)                                     *
;*   Min System Stack   : 1 word                                               *
;*******************************************************************************
_MMC_setCardPtr:
	.dwcfi	cfa_offset, 1
	.dwcfi	save_reg_to_mem, 91, -1
        AADD #-5, SP
	.dwcfi	cfa_offset, 6
$C$DW$48	.dwtag  DW_TAG_variable, DW_AT_name("hMmcsd")
	.dwattr $C$DW$48, DW_AT_TI_symbol_name("_hMmcsd")
	.dwattr $C$DW$48, DW_AT_type(*$C$DW$T$130)
	.dwattr $C$DW$48, DW_AT_location[DW_OP_bregx 0x24 0]
$C$DW$49	.dwtag  DW_TAG_variable, DW_AT_name("pMmcCardObj")
	.dwattr $C$DW$49, DW_AT_TI_symbol_name("_pMmcCardObj")
	.dwattr $C$DW$49, DW_AT_type(*$C$DW$T$82)
	.dwattr $C$DW$49, DW_AT_location[DW_OP_bregx 0x24 2]
        MOV XAR1, dbl(*SP(#2))
        MOV XAR0, dbl(*SP(#0))
	.dwpsn	file "src/csl_mmcsd.c",line 529,column 5,is_stmt
        MOV dbl(*SP(#0)), XAR3
        MOV XAR3, AC0
        BCC $C$L18,AC0 != #0 ; |529| 
                                        ; branchcc occurs ; |529| 
	.dwpsn	file "src/csl_mmcsd.c",line 531,column 9,is_stmt
        MOV #-5, T0
        B $C$L20  ; |531| 
                                        ; branch occurs ; |531| 
$C$L18:    
	.dwpsn	file "src/csl_mmcsd.c",line 535,column 9,is_stmt
        MOV dbl(*SP(#2)), XAR3

        MOV XAR3, AC0
||      MOV #0, AC1 ; |535| 

        CMPU AC1 != AC0, TC1 ; |535| 
        BCC $C$L19,TC1 ; |535| 
                                        ; branchcc occurs ; |535| 
	.dwpsn	file "src/csl_mmcsd.c",line 537,column 13,is_stmt
        MOV #-6, T0
        B $C$L20  ; |537| 
                                        ; branch occurs ; |537| 
$C$L19:    
	.dwpsn	file "src/csl_mmcsd.c",line 541,column 13,is_stmt
        MOV dbl(*SP(#0)), XAR3
        MOV dbl(*SP(#2)), XAR2
        MOV XAR2, dbl(*AR3(short(#2)))
	.dwpsn	file "src/csl_mmcsd.c",line 542,column 13,is_stmt
        MOV #0, T0
$C$L20:    
	.dwpsn	file "src/csl_mmcsd.c",line 545,column 1,is_stmt
        AADD #5, SP
	.dwcfi	cfa_offset, 1
$C$DW$50	.dwtag  DW_TAG_TI_branch
	.dwattr $C$DW$50, DW_AT_low_pc(0x00)
	.dwattr $C$DW$50, DW_AT_TI_return
        RET
                                        ; return occurs
	.dwattr $C$DW$45, DW_AT_TI_end_file("src/csl_mmcsd.c")
	.dwattr $C$DW$45, DW_AT_TI_end_line(0x221)
	.dwattr $C$DW$45, DW_AT_TI_end_column(0x01)
	.dwendentry
	.dwendtag $C$DW$45

	.sect	".text"
	.global	_MMC_setCallBack

$C$DW$51	.dwtag  DW_TAG_subprogram, DW_AT_name("MMC_setCallBack")
	.dwattr $C$DW$51, DW_AT_low_pc(_MMC_setCallBack)
	.dwattr $C$DW$51, DW_AT_high_pc(0x00)
	.dwattr $C$DW$51, DW_AT_TI_symbol_name("_MMC_setCallBack")
	.dwattr $C$DW$51, DW_AT_external
	.dwattr $C$DW$51, DW_AT_type(*$C$DW$T$132)
	.dwattr $C$DW$51, DW_AT_TI_begin_file("src/csl_mmcsd.c")
	.dwattr $C$DW$51, DW_AT_TI_begin_line(0x257)
	.dwattr $C$DW$51, DW_AT_TI_begin_column(0x0c)
	.dwattr $C$DW$51, DW_AT_TI_max_frame_size(0x06)
	.dwpsn	file "src/csl_mmcsd.c",line 601,column 1,is_stmt,address _MMC_setCallBack

	.dwfde $C$DW$CIE, _MMC_setCallBack
$C$DW$52	.dwtag  DW_TAG_formal_parameter, DW_AT_name("hMmcsd")
	.dwattr $C$DW$52, DW_AT_TI_symbol_name("_hMmcsd")
	.dwattr $C$DW$52, DW_AT_type(*$C$DW$T$130)
	.dwattr $C$DW$52, DW_AT_location[DW_OP_reg17]
$C$DW$53	.dwtag  DW_TAG_formal_parameter, DW_AT_name("pFunction")
	.dwattr $C$DW$53, DW_AT_TI_symbol_name("_pFunction")
	.dwattr $C$DW$53, DW_AT_type(*$C$DW$T$84)
	.dwattr $C$DW$53, DW_AT_location[DW_OP_reg19]
;*******************************************************************************
;* FUNCTION NAME: MMC_setCallBack                                              *
;*                                                                             *
;*   Function Uses Regs : AC0,AC0,AC1,AC1,T0,AR0,XAR0,AR1,XAR1,AR2,XAR2,AR3,   *
;*                        XAR3,SP,TC1,M40,SATA,SATD,RDM,FRCT,SMUL              *
;*   Stack Frame        : Compact (No Frame Pointer, w/ debug)                 *
;*   Total Frame Size   : 6 words                                              *
;*                        (2 return address/alignment)                         *
;*                        (4 local values)                                     *
;*   Min System Stack   : 1 word                                               *
;*******************************************************************************
_MMC_setCallBack:
	.dwcfi	cfa_offset, 1
	.dwcfi	save_reg_to_mem, 91, -1
        AADD #-5, SP
	.dwcfi	cfa_offset, 6
$C$DW$54	.dwtag  DW_TAG_variable, DW_AT_name("hMmcsd")
	.dwattr $C$DW$54, DW_AT_TI_symbol_name("_hMmcsd")
	.dwattr $C$DW$54, DW_AT_type(*$C$DW$T$130)
	.dwattr $C$DW$54, DW_AT_location[DW_OP_bregx 0x24 0]
$C$DW$55	.dwtag  DW_TAG_variable, DW_AT_name("pFunction")
	.dwattr $C$DW$55, DW_AT_TI_symbol_name("_pFunction")
	.dwattr $C$DW$55, DW_AT_type(*$C$DW$T$84)
	.dwattr $C$DW$55, DW_AT_location[DW_OP_bregx 0x24 2]
        MOV XAR1, dbl(*SP(#2))
        MOV XAR0, dbl(*SP(#0))
	.dwpsn	file "src/csl_mmcsd.c",line 602,column 5,is_stmt
        MOV dbl(*SP(#0)), XAR3

        MOV XAR3, AC0
||      MOV #0, AC1 ; |602| 

        CMPU AC1 == AC0, TC1 ; |602| 
        BCC $C$L21,TC1 ; |602| 
                                        ; branchcc occurs ; |602| 
        MOV dbl(*SP(#2)), XAR3
        MOV XAR3, AC0
        CMPU AC1 == AC0, TC1 ; |602| 
        BCC $C$L21,TC1 ; |602| 
                                        ; branchcc occurs ; |602| 
	.dwpsn	file "src/csl_mmcsd.c",line 604,column 3,is_stmt
        MOV dbl(*SP(#0)), XAR3
        MOV dbl(*SP(#2)), XAR2
        MOV XAR2, dbl(*AR3(short(#6)))
	.dwpsn	file "src/csl_mmcsd.c",line 605,column 3,is_stmt
        MOV #0, T0
        B $C$L23  ; |605| 
                                        ; branch occurs ; |605| 
$C$L21:    
	.dwpsn	file "src/csl_mmcsd.c",line 609,column 9,is_stmt
        MOV dbl(*SP(#0)), XAR3
        MOV XAR3, AC0
        CMPU AC1 != AC0, TC1 ; |609| 
        BCC $C$L22,TC1 ; |609| 
                                        ; branchcc occurs ; |609| 
	.dwpsn	file "src/csl_mmcsd.c",line 611,column 13,is_stmt
        MOV #-5, T0
        B $C$L23  ; |611| 
                                        ; branch occurs ; |611| 
$C$L22:    
	.dwpsn	file "src/csl_mmcsd.c",line 615,column 13,is_stmt
        MOV #-6, T0
$C$L23:    
	.dwpsn	file "src/csl_mmcsd.c",line 618,column 1,is_stmt
        AADD #5, SP
	.dwcfi	cfa_offset, 1
$C$DW$56	.dwtag  DW_TAG_TI_branch
	.dwattr $C$DW$56, DW_AT_low_pc(0x00)
	.dwattr $C$DW$56, DW_AT_TI_return
        RET
                                        ; return occurs
	.dwattr $C$DW$51, DW_AT_TI_end_file("src/csl_mmcsd.c")
	.dwattr $C$DW$51, DW_AT_TI_end_line(0x26a)
	.dwattr $C$DW$51, DW_AT_TI_end_column(0x01)
	.dwendentry
	.dwendtag $C$DW$51

	.sect	".text"
	.global	_MMC_getNumberOfCards

$C$DW$57	.dwtag  DW_TAG_subprogram, DW_AT_name("MMC_getNumberOfCards")
	.dwattr $C$DW$57, DW_AT_low_pc(_MMC_getNumberOfCards)
	.dwattr $C$DW$57, DW_AT_high_pc(0x00)
	.dwattr $C$DW$57, DW_AT_TI_symbol_name("_MMC_getNumberOfCards")
	.dwattr $C$DW$57, DW_AT_external
	.dwattr $C$DW$57, DW_AT_type(*$C$DW$T$132)
	.dwattr $C$DW$57, DW_AT_TI_begin_file("src/csl_mmcsd.c")
	.dwattr $C$DW$57, DW_AT_TI_begin_line(0x297)
	.dwattr $C$DW$57, DW_AT_TI_begin_column(0x0c)
	.dwattr $C$DW$57, DW_AT_TI_max_frame_size(0x06)
	.dwpsn	file "src/csl_mmcsd.c",line 665,column 1,is_stmt,address _MMC_getNumberOfCards

	.dwfde $C$DW$CIE, _MMC_getNumberOfCards
$C$DW$58	.dwtag  DW_TAG_formal_parameter, DW_AT_name("hMmcsd")
	.dwattr $C$DW$58, DW_AT_TI_symbol_name("_hMmcsd")
	.dwattr $C$DW$58, DW_AT_type(*$C$DW$T$130)
	.dwattr $C$DW$58, DW_AT_location[DW_OP_reg17]
$C$DW$59	.dwtag  DW_TAG_formal_parameter, DW_AT_name("pActiveNoCard")
	.dwattr $C$DW$59, DW_AT_TI_symbol_name("_pActiveNoCard")
	.dwattr $C$DW$59, DW_AT_type(*$C$DW$T$161)
	.dwattr $C$DW$59, DW_AT_location[DW_OP_reg19]
;*******************************************************************************
;* FUNCTION NAME: MMC_getNumberOfCards                                         *
;*                                                                             *
;*   Function Uses Regs : AC0,AC0,AC1,AC1,T0,AR0,XAR0,AR1,XAR1,AR3,XAR3,SP,TC1,*
;*                        M40,SATA,SATD,RDM,FRCT,SMUL                          *
;*   Stack Frame        : Compact (No Frame Pointer, w/ debug)                 *
;*   Total Frame Size   : 6 words                                              *
;*                        (2 return address/alignment)                         *
;*                        (4 local values)                                     *
;*   Min System Stack   : 1 word                                               *
;*******************************************************************************
_MMC_getNumberOfCards:
	.dwcfi	cfa_offset, 1
	.dwcfi	save_reg_to_mem, 91, -1
        AADD #-5, SP
	.dwcfi	cfa_offset, 6
$C$DW$60	.dwtag  DW_TAG_variable, DW_AT_name("hMmcsd")
	.dwattr $C$DW$60, DW_AT_TI_symbol_name("_hMmcsd")
	.dwattr $C$DW$60, DW_AT_type(*$C$DW$T$130)
	.dwattr $C$DW$60, DW_AT_location[DW_OP_bregx 0x24 0]
$C$DW$61	.dwtag  DW_TAG_variable, DW_AT_name("pActiveNoCard")
	.dwattr $C$DW$61, DW_AT_TI_symbol_name("_pActiveNoCard")
	.dwattr $C$DW$61, DW_AT_type(*$C$DW$T$161)
	.dwattr $C$DW$61, DW_AT_location[DW_OP_bregx 0x24 2]
        MOV XAR1, dbl(*SP(#2))
        MOV XAR0, dbl(*SP(#0))
	.dwpsn	file "src/csl_mmcsd.c",line 666,column 5,is_stmt
        MOV dbl(*SP(#0)), XAR3

        MOV XAR3, AC0
||      MOV #0, AC1 ; |666| 

        CMPU AC1 != AC0, TC1 ; |666| 
        BCC $C$L24,TC1 ; |666| 
                                        ; branchcc occurs ; |666| 
	.dwpsn	file "src/csl_mmcsd.c",line 668,column 3,is_stmt
        MOV #-5, T0
        B $C$L26  ; |668| 
                                        ; branch occurs ; |668| 
$C$L24:    
	.dwpsn	file "src/csl_mmcsd.c",line 672,column 9,is_stmt
        MOV dbl(*SP(#2)), XAR3
        MOV XAR3, AC0
        CMPU AC1 != AC0, TC1 ; |672| 
        BCC $C$L25,TC1 ; |672| 
                                        ; branchcc occurs ; |672| 
	.dwpsn	file "src/csl_mmcsd.c",line 674,column 13,is_stmt
        MOV #-6, T0
        B $C$L26  ; |674| 
                                        ; branch occurs ; |674| 
$C$L25:    
	.dwpsn	file "src/csl_mmcsd.c",line 678,column 13,is_stmt
        MOV dbl(*SP(#0)), XAR3
        MOV *AR3(short(#4)), AR1 ; |678| 
        MOV dbl(*SP(#2)), XAR3
        MOV AR1, *AR3 ; |678| 
	.dwpsn	file "src/csl_mmcsd.c",line 679,column 13,is_stmt
        MOV #0, T0
$C$L26:    
	.dwpsn	file "src/csl_mmcsd.c",line 682,column 1,is_stmt
        AADD #5, SP
	.dwcfi	cfa_offset, 1
$C$DW$62	.dwtag  DW_TAG_TI_branch
	.dwattr $C$DW$62, DW_AT_low_pc(0x00)
	.dwattr $C$DW$62, DW_AT_TI_return
        RET
                                        ; return occurs
	.dwattr $C$DW$57, DW_AT_TI_end_file("src/csl_mmcsd.c")
	.dwattr $C$DW$57, DW_AT_TI_end_line(0x2aa)
	.dwattr $C$DW$57, DW_AT_TI_end_column(0x01)
	.dwendentry
	.dwendtag $C$DW$57

	.sect	".text"
	.global	_MMC_clearResponse

$C$DW$63	.dwtag  DW_TAG_subprogram, DW_AT_name("MMC_clearResponse")
	.dwattr $C$DW$63, DW_AT_low_pc(_MMC_clearResponse)
	.dwattr $C$DW$63, DW_AT_high_pc(0x00)
	.dwattr $C$DW$63, DW_AT_TI_symbol_name("_MMC_clearResponse")
	.dwattr $C$DW$63, DW_AT_external
	.dwattr $C$DW$63, DW_AT_type(*$C$DW$T$132)
	.dwattr $C$DW$63, DW_AT_TI_begin_file("src/csl_mmcsd.c")
	.dwattr $C$DW$63, DW_AT_TI_begin_line(0x2d4)
	.dwattr $C$DW$63, DW_AT_TI_begin_column(0x0c)
	.dwattr $C$DW$63, DW_AT_TI_max_frame_size(0x04)
	.dwpsn	file "src/csl_mmcsd.c",line 725,column 1,is_stmt,address _MMC_clearResponse

	.dwfde $C$DW$CIE, _MMC_clearResponse
$C$DW$64	.dwtag  DW_TAG_formal_parameter, DW_AT_name("hMmcsd")
	.dwattr $C$DW$64, DW_AT_TI_symbol_name("_hMmcsd")
	.dwattr $C$DW$64, DW_AT_type(*$C$DW$T$130)
	.dwattr $C$DW$64, DW_AT_location[DW_OP_reg17]
;*******************************************************************************
;* FUNCTION NAME: MMC_clearResponse                                            *
;*                                                                             *
;*   Function Uses Regs : AC0,AC0,AC1,AC1,T0,AR0,XAR0,AR1,AR3,XAR3,SP,TC1,M40, *
;*                        SATA,SATD,RDM,FRCT,SMUL                              *
;*   Stack Frame        : Compact (No Frame Pointer, w/ debug)                 *
;*   Total Frame Size   : 4 words                                              *
;*                        (2 return address/alignment)                         *
;*                        (2 local values)                                     *
;*   Min System Stack   : 1 word                                               *
;*******************************************************************************
_MMC_clearResponse:
	.dwcfi	cfa_offset, 1
	.dwcfi	save_reg_to_mem, 91, -1
        AADD #-3, SP
	.dwcfi	cfa_offset, 4
$C$DW$65	.dwtag  DW_TAG_variable, DW_AT_name("hMmcsd")
	.dwattr $C$DW$65, DW_AT_TI_symbol_name("_hMmcsd")
	.dwattr $C$DW$65, DW_AT_type(*$C$DW$T$130)
	.dwattr $C$DW$65, DW_AT_location[DW_OP_bregx 0x24 0]
        MOV XAR0, dbl(*SP(#0))
	.dwpsn	file "src/csl_mmcsd.c",line 726,column 5,is_stmt
        MOV dbl(*SP(#0)), XAR3

        MOV XAR3, AC0
||      MOV #0, AC1 ; |726| 

        CMPU AC1 != AC0, TC1 ; |726| 
        BCC $C$L27,TC1 ; |726| 
                                        ; branchcc occurs ; |726| 
	.dwpsn	file "src/csl_mmcsd.c",line 728,column 9,is_stmt
        MOV #-5, T0
        B $C$L28  ; |728| 
                                        ; branch occurs ; |728| 
$C$L27:    
	.dwpsn	file "src/csl_mmcsd.c",line 732,column 9,is_stmt
        MOV #56, T0 ; |732| 
        MOV *AR3, AR3 ; |732| 
        MOV port(*AR3(T0)), AR1 ; |732| 
        MOV dbl(*SP(#0)), XAR3
        MOV *AR3, AR3 ; |732| 
        MOV #0, port(*AR3(T0)) ; |732| 
	.dwpsn	file "src/csl_mmcsd.c",line 734,column 9,is_stmt
        MOV dbl(*SP(#0)), XAR3
        MOV #57, T0 ; |734| 
        MOV *AR3, AR3 ; |734| 
        MOV port(*AR3(T0)), AR1 ; |734| 
        MOV dbl(*SP(#0)), XAR3
        MOV *AR3, AR3 ; |734| 
        MOV #0, port(*AR3(T0)) ; |734| 
	.dwpsn	file "src/csl_mmcsd.c",line 736,column 9,is_stmt
        MOV dbl(*SP(#0)), XAR3
        MOV #60, T0 ; |736| 
        MOV *AR3, AR3 ; |736| 
        MOV port(*AR3(T0)), AR1 ; |736| 
        MOV dbl(*SP(#0)), XAR3
        MOV *AR3, AR3 ; |736| 
        MOV #0, port(*AR3(T0)) ; |736| 
	.dwpsn	file "src/csl_mmcsd.c",line 738,column 9,is_stmt
        MOV dbl(*SP(#0)), XAR3
        MOV #61, T0 ; |738| 
        MOV *AR3, AR3 ; |738| 
        MOV port(*AR3(T0)), AR1 ; |738| 
        MOV dbl(*SP(#0)), XAR3
        MOV *AR3, AR3 ; |738| 
        MOV #0, port(*AR3(T0)) ; |738| 
	.dwpsn	file "src/csl_mmcsd.c",line 740,column 9,is_stmt
        MOV dbl(*SP(#0)), XAR3
        MOV #64, T0 ; |740| 
        MOV *AR3, AR3 ; |740| 
        MOV port(*AR3(T0)), AR1 ; |740| 
        MOV dbl(*SP(#0)), XAR3
        MOV *AR3, AR3 ; |740| 
        MOV #0, port(*AR3(T0)) ; |740| 
	.dwpsn	file "src/csl_mmcsd.c",line 742,column 9,is_stmt
        MOV dbl(*SP(#0)), XAR3
        MOV #65, T0 ; |742| 
        MOV *AR3, AR3 ; |742| 
        MOV port(*AR3(T0)), AR1 ; |742| 
        MOV dbl(*SP(#0)), XAR3
        MOV *AR3, AR3 ; |742| 
        MOV #0, port(*AR3(T0)) ; |742| 
	.dwpsn	file "src/csl_mmcsd.c",line 744,column 9,is_stmt
        MOV dbl(*SP(#0)), XAR3
        MOV #68, T0 ; |744| 
        MOV *AR3, AR3 ; |744| 
        MOV port(*AR3(T0)), AR1 ; |744| 
        MOV dbl(*SP(#0)), XAR3
        MOV *AR3, AR3 ; |744| 
        MOV #0, port(*AR3(T0)) ; |744| 
	.dwpsn	file "src/csl_mmcsd.c",line 746,column 9,is_stmt
        MOV dbl(*SP(#0)), XAR3
        MOV #69, T0 ; |746| 
        MOV *AR3, AR3 ; |746| 
        MOV port(*AR3(T0)), AR1 ; |746| 
        MOV dbl(*SP(#0)), XAR3
        MOV *AR3, AR3 ; |746| 
        MOV #0, port(*AR3(T0)) ; |746| 
	.dwpsn	file "src/csl_mmcsd.c",line 750,column 9,is_stmt
        MOV dbl(*SP(#0)), XAR3
        MOV #80, T0 ; |750| 
        MOV *AR3, AR3 ; |750| 
        MOV port(*AR3(T0)), AR1 ; |750| 
        MOV dbl(*SP(#0)), XAR3
        MOV *AR3, AR3 ; |750| 
        AND #0xffc0, AR1, AC0 ; |750| 
        MOV AC0, port(*AR3(T0)) ; |750| 
	.dwpsn	file "src/csl_mmcsd.c",line 752,column 9,is_stmt
        MOV #0, T0
$C$L28:    
	.dwpsn	file "src/csl_mmcsd.c",line 754,column 1,is_stmt
        AADD #3, SP
	.dwcfi	cfa_offset, 1
$C$DW$66	.dwtag  DW_TAG_TI_branch
	.dwattr $C$DW$66, DW_AT_low_pc(0x00)
	.dwattr $C$DW$66, DW_AT_TI_return
        RET
                                        ; return occurs
	.dwattr $C$DW$63, DW_AT_TI_end_file("src/csl_mmcsd.c")
	.dwattr $C$DW$63, DW_AT_TI_end_line(0x2f2)
	.dwattr $C$DW$63, DW_AT_TI_end_column(0x01)
	.dwendentry
	.dwendtag $C$DW$63

	.sect	".text"
	.global	_MMC_ierEnable

$C$DW$67	.dwtag  DW_TAG_subprogram, DW_AT_name("MMC_ierEnable")
	.dwattr $C$DW$67, DW_AT_low_pc(_MMC_ierEnable)
	.dwattr $C$DW$67, DW_AT_high_pc(0x00)
	.dwattr $C$DW$67, DW_AT_TI_symbol_name("_MMC_ierEnable")
	.dwattr $C$DW$67, DW_AT_external
	.dwattr $C$DW$67, DW_AT_type(*$C$DW$T$132)
	.dwattr $C$DW$67, DW_AT_TI_begin_file("src/csl_mmcsd.c")
	.dwattr $C$DW$67, DW_AT_TI_begin_line(0x31e)
	.dwattr $C$DW$67, DW_AT_TI_begin_column(0x0c)
	.dwattr $C$DW$67, DW_AT_TI_max_frame_size(0x04)
	.dwpsn	file "src/csl_mmcsd.c",line 800,column 1,is_stmt,address _MMC_ierEnable

	.dwfde $C$DW$CIE, _MMC_ierEnable
$C$DW$68	.dwtag  DW_TAG_formal_parameter, DW_AT_name("hMmcsd")
	.dwattr $C$DW$68, DW_AT_TI_symbol_name("_hMmcsd")
	.dwattr $C$DW$68, DW_AT_type(*$C$DW$T$130)
	.dwattr $C$DW$68, DW_AT_location[DW_OP_reg17]
;*******************************************************************************
;* FUNCTION NAME: MMC_ierEnable                                                *
;*                                                                             *
;*   Function Uses Regs : AC0,AC0,AC1,AC1,T0,AR0,XAR0,AR1,AR3,XAR3,SP,TC1,M40, *
;*                        SATA,SATD,RDM,FRCT,SMUL                              *
;*   Stack Frame        : Compact (No Frame Pointer, w/ debug)                 *
;*   Total Frame Size   : 4 words                                              *
;*                        (2 return address/alignment)                         *
;*                        (2 local values)                                     *
;*   Min System Stack   : 1 word                                               *
;*******************************************************************************
_MMC_ierEnable:
	.dwcfi	cfa_offset, 1
	.dwcfi	save_reg_to_mem, 91, -1
        AADD #-3, SP
	.dwcfi	cfa_offset, 4
$C$DW$69	.dwtag  DW_TAG_variable, DW_AT_name("hMmcsd")
	.dwattr $C$DW$69, DW_AT_TI_symbol_name("_hMmcsd")
	.dwattr $C$DW$69, DW_AT_type(*$C$DW$T$130)
	.dwattr $C$DW$69, DW_AT_location[DW_OP_bregx 0x24 0]
        MOV XAR0, dbl(*SP(#0))
	.dwpsn	file "src/csl_mmcsd.c",line 801,column 5,is_stmt
        MOV dbl(*SP(#0)), XAR3

        MOV XAR3, AC0
||      MOV #0, AC1 ; |801| 

        CMPU AC1 != AC0, TC1 ; |801| 
        BCC $C$L29,TC1 ; |801| 
                                        ; branchcc occurs ; |801| 
	.dwpsn	file "src/csl_mmcsd.c",line 803,column 9,is_stmt
        MOV #-5, T0
        B $C$L32  ; |803| 
                                        ; branch occurs ; |803| 
$C$L29:    
	.dwpsn	file "src/csl_mmcsd.c",line 807,column 9,is_stmt
        CMP *AR3 == #14848, TC1 ; |807| 
        BCC $C$L30,!TC1 ; |807| 
                                        ; branchcc occurs ; |807| 
	.dwpsn	file "src/csl_mmcsd.c",line 809,column 4,is_stmt
        MOV *(#0), AR1 ; |809| 
        BCLR @#5, AR1 ; |809| 
        BSET @#5, AR1 ; |809| 
        MOV AR1, *(#0) ; |809| 
	.dwpsn	file "src/csl_mmcsd.c",line 810,column 3,is_stmt
        B $C$L31  ; |810| 
                                        ; branch occurs ; |810| 
$C$L30:    
	.dwpsn	file "src/csl_mmcsd.c",line 812,column 4,is_stmt
        MOV *(#0), AR1 ; |812| 
        BCLR @#9, AR1 ; |812| 
        BSET @#9, AR1 ; |812| 
        MOV AR1, *(#0) ; |812| 
$C$L31:    
	.dwpsn	file "src/csl_mmcsd.c",line 814,column 9,is_stmt
        MOV #0, T0
$C$L32:    
	.dwpsn	file "src/csl_mmcsd.c",line 816,column 1,is_stmt
        AADD #3, SP
	.dwcfi	cfa_offset, 1
$C$DW$70	.dwtag  DW_TAG_TI_branch
	.dwattr $C$DW$70, DW_AT_low_pc(0x00)
	.dwattr $C$DW$70, DW_AT_TI_return
        RET
                                        ; return occurs
	.dwattr $C$DW$67, DW_AT_TI_end_file("src/csl_mmcsd.c")
	.dwattr $C$DW$67, DW_AT_TI_end_line(0x330)
	.dwattr $C$DW$67, DW_AT_TI_end_column(0x01)
	.dwendentry
	.dwendtag $C$DW$67

	.sect	".text"
	.global	_MMC_ierDisable

$C$DW$71	.dwtag  DW_TAG_subprogram, DW_AT_name("MMC_ierDisable")
	.dwattr $C$DW$71, DW_AT_low_pc(_MMC_ierDisable)
	.dwattr $C$DW$71, DW_AT_high_pc(0x00)
	.dwattr $C$DW$71, DW_AT_TI_symbol_name("_MMC_ierDisable")
	.dwattr $C$DW$71, DW_AT_external
	.dwattr $C$DW$71, DW_AT_type(*$C$DW$T$132)
	.dwattr $C$DW$71, DW_AT_TI_begin_file("src/csl_mmcsd.c")
	.dwattr $C$DW$71, DW_AT_TI_begin_line(0x35c)
	.dwattr $C$DW$71, DW_AT_TI_begin_column(0x0c)
	.dwattr $C$DW$71, DW_AT_TI_max_frame_size(0x04)
	.dwpsn	file "src/csl_mmcsd.c",line 862,column 1,is_stmt,address _MMC_ierDisable

	.dwfde $C$DW$CIE, _MMC_ierDisable
$C$DW$72	.dwtag  DW_TAG_formal_parameter, DW_AT_name("hMmcsd")
	.dwattr $C$DW$72, DW_AT_TI_symbol_name("_hMmcsd")
	.dwattr $C$DW$72, DW_AT_type(*$C$DW$T$130)
	.dwattr $C$DW$72, DW_AT_location[DW_OP_reg17]
;*******************************************************************************
;* FUNCTION NAME: MMC_ierDisable                                               *
;*                                                                             *
;*   Function Uses Regs : AC0,AC0,AC1,AC1,T0,AR0,XAR0,AR3,XAR3,SP,TC1,M40,SATA,*
;*                        SATD,RDM,FRCT,SMUL                                   *
;*   Stack Frame        : Compact (No Frame Pointer, w/ debug)                 *
;*   Total Frame Size   : 4 words                                              *
;*                        (2 return address/alignment)                         *
;*                        (2 local values)                                     *
;*   Min System Stack   : 1 word                                               *
;*******************************************************************************
_MMC_ierDisable:
	.dwcfi	cfa_offset, 1
	.dwcfi	save_reg_to_mem, 91, -1
        AADD #-3, SP
	.dwcfi	cfa_offset, 4
$C$DW$73	.dwtag  DW_TAG_variable, DW_AT_name("hMmcsd")
	.dwattr $C$DW$73, DW_AT_TI_symbol_name("_hMmcsd")
	.dwattr $C$DW$73, DW_AT_type(*$C$DW$T$130)
	.dwattr $C$DW$73, DW_AT_location[DW_OP_bregx 0x24 0]
        MOV XAR0, dbl(*SP(#0))
	.dwpsn	file "src/csl_mmcsd.c",line 863,column 5,is_stmt
        MOV dbl(*SP(#0)), XAR3

        MOV XAR3, AC0
||      MOV #0, AC1 ; |863| 

        CMPU AC1 != AC0, TC1 ; |863| 
        BCC $C$L33,TC1 ; |863| 
                                        ; branchcc occurs ; |863| 
	.dwpsn	file "src/csl_mmcsd.c",line 865,column 9,is_stmt
        MOV #-5, T0
        B $C$L36  ; |865| 
                                        ; branch occurs ; |865| 
$C$L33:    
	.dwpsn	file "src/csl_mmcsd.c",line 869,column 9,is_stmt
        CMP *AR3 == #14848, TC1 ; |869| 
        BCC $C$L34,!TC1 ; |869| 
                                        ; branchcc occurs ; |869| 
	.dwpsn	file "src/csl_mmcsd.c",line 871,column 4,is_stmt
        AND #0xffdf, *(#0) ; |871| 
	.dwpsn	file "src/csl_mmcsd.c",line 872,column 3,is_stmt
        B $C$L35  ; |872| 
                                        ; branch occurs ; |872| 
$C$L34:    
	.dwpsn	file "src/csl_mmcsd.c",line 874,column 4,is_stmt
        AND #0xfdff, *(#0) ; |874| 
$C$L35:    
	.dwpsn	file "src/csl_mmcsd.c",line 876,column 9,is_stmt
        MOV #0, T0
$C$L36:    
	.dwpsn	file "src/csl_mmcsd.c",line 878,column 1,is_stmt
        AADD #3, SP
	.dwcfi	cfa_offset, 1
$C$DW$74	.dwtag  DW_TAG_TI_branch
	.dwattr $C$DW$74, DW_AT_low_pc(0x00)
	.dwattr $C$DW$74, DW_AT_TI_return
        RET
                                        ; return occurs
	.dwattr $C$DW$71, DW_AT_TI_end_file("src/csl_mmcsd.c")
	.dwattr $C$DW$71, DW_AT_TI_end_line(0x36e)
	.dwattr $C$DW$71, DW_AT_TI_end_column(0x01)
	.dwendentry
	.dwendtag $C$DW$71

	.sect	".text"
	.global	_MMC_intEnable

$C$DW$75	.dwtag  DW_TAG_subprogram, DW_AT_name("MMC_intEnable")
	.dwattr $C$DW$75, DW_AT_low_pc(_MMC_intEnable)
	.dwattr $C$DW$75, DW_AT_high_pc(0x00)
	.dwattr $C$DW$75, DW_AT_TI_symbol_name("_MMC_intEnable")
	.dwattr $C$DW$75, DW_AT_external
	.dwattr $C$DW$75, DW_AT_type(*$C$DW$T$132)
	.dwattr $C$DW$75, DW_AT_TI_begin_file("src/csl_mmcsd.c")
	.dwattr $C$DW$75, DW_AT_TI_begin_line(0x3a5)
	.dwattr $C$DW$75, DW_AT_TI_begin_column(0x0c)
	.dwattr $C$DW$75, DW_AT_TI_max_frame_size(0x04)
	.dwpsn	file "src/csl_mmcsd.c",line 935,column 1,is_stmt,address _MMC_intEnable

	.dwfde $C$DW$CIE, _MMC_intEnable
$C$DW$76	.dwtag  DW_TAG_formal_parameter, DW_AT_name("hMmcsd")
	.dwattr $C$DW$76, DW_AT_TI_symbol_name("_hMmcsd")
	.dwattr $C$DW$76, DW_AT_type(*$C$DW$T$130)
	.dwattr $C$DW$76, DW_AT_location[DW_OP_reg17]
$C$DW$77	.dwtag  DW_TAG_formal_parameter, DW_AT_name("maskValue")
	.dwattr $C$DW$77, DW_AT_TI_symbol_name("_maskValue")
	.dwattr $C$DW$77, DW_AT_type(*$C$DW$T$19)
	.dwattr $C$DW$77, DW_AT_location[DW_OP_reg12]
;*******************************************************************************
;* FUNCTION NAME: MMC_intEnable                                                *
;*                                                                             *
;*   Function Uses Regs : AC0,AC0,AC1,AC1,T0,AR0,XAR0,AR1,AR3,XAR3,SP,TC1,M40, *
;*                        SATA,SATD,RDM,FRCT,SMUL                              *
;*   Stack Frame        : Compact (No Frame Pointer, w/ debug)                 *
;*   Total Frame Size   : 4 words                                              *
;*                        (1 return address/alignment)                         *
;*                        (3 local values)                                     *
;*   Min System Stack   : 1 word                                               *
;*******************************************************************************
_MMC_intEnable:
	.dwcfi	cfa_offset, 1
	.dwcfi	save_reg_to_mem, 91, -1
        AADD #-3, SP
	.dwcfi	cfa_offset, 4
$C$DW$78	.dwtag  DW_TAG_variable, DW_AT_name("hMmcsd")
	.dwattr $C$DW$78, DW_AT_TI_symbol_name("_hMmcsd")
	.dwattr $C$DW$78, DW_AT_type(*$C$DW$T$130)
	.dwattr $C$DW$78, DW_AT_location[DW_OP_bregx 0x24 0]
$C$DW$79	.dwtag  DW_TAG_variable, DW_AT_name("maskValue")
	.dwattr $C$DW$79, DW_AT_TI_symbol_name("_maskValue")
	.dwattr $C$DW$79, DW_AT_type(*$C$DW$T$19)
	.dwattr $C$DW$79, DW_AT_location[DW_OP_bregx 0x24 2]
        MOV T0, *SP(#2) ; |935| 
        MOV XAR0, dbl(*SP(#0))
	.dwpsn	file "src/csl_mmcsd.c",line 936,column 5,is_stmt
        MOV dbl(*SP(#0)), XAR3

        MOV XAR3, AC0
||      MOV #0, AC1 ; |936| 

        CMPU AC1 != AC0, TC1 ; |936| 
        BCC $C$L37,TC1 ; |936| 
                                        ; branchcc occurs ; |936| 
	.dwpsn	file "src/csl_mmcsd.c",line 938,column 9,is_stmt
        MOV #-5, T0
        B $C$L38  ; |938| 
                                        ; branch occurs ; |938| 
$C$L37:    
	.dwpsn	file "src/csl_mmcsd.c",line 942,column 9,is_stmt
        MOV *AR3, AR3 ; |942| 
        MOV #16, T0 ; |942| 
        MOV *SP(#2), AR1 ; |942| 
        MOV AR1, port(*AR3(T0)) ; |942| 
	.dwpsn	file "src/csl_mmcsd.c",line 943,column 9,is_stmt
        MOV #0, T0
$C$L38:    
	.dwpsn	file "src/csl_mmcsd.c",line 945,column 1,is_stmt
        AADD #3, SP
	.dwcfi	cfa_offset, 1
$C$DW$80	.dwtag  DW_TAG_TI_branch
	.dwattr $C$DW$80, DW_AT_low_pc(0x00)
	.dwattr $C$DW$80, DW_AT_TI_return
        RET
                                        ; return occurs
	.dwattr $C$DW$75, DW_AT_TI_end_file("src/csl_mmcsd.c")
	.dwattr $C$DW$75, DW_AT_TI_end_line(0x3b1)
	.dwattr $C$DW$75, DW_AT_TI_end_column(0x01)
	.dwendentry
	.dwendtag $C$DW$75

	.sect	".text"
	.global	_MMC_eventEnable

$C$DW$81	.dwtag  DW_TAG_subprogram, DW_AT_name("MMC_eventEnable")
	.dwattr $C$DW$81, DW_AT_low_pc(_MMC_eventEnable)
	.dwattr $C$DW$81, DW_AT_high_pc(0x00)
	.dwattr $C$DW$81, DW_AT_TI_symbol_name("_MMC_eventEnable")
	.dwattr $C$DW$81, DW_AT_external
	.dwattr $C$DW$81, DW_AT_type(*$C$DW$T$132)
	.dwattr $C$DW$81, DW_AT_TI_begin_file("src/csl_mmcsd.c")
	.dwattr $C$DW$81, DW_AT_TI_begin_line(0x3e3)
	.dwattr $C$DW$81, DW_AT_TI_begin_column(0x0c)
	.dwattr $C$DW$81, DW_AT_TI_max_frame_size(0x06)
	.dwpsn	file "src/csl_mmcsd.c",line 997,column 1,is_stmt,address _MMC_eventEnable

	.dwfde $C$DW$CIE, _MMC_eventEnable
$C$DW$82	.dwtag  DW_TAG_formal_parameter, DW_AT_name("hMmcsd")
	.dwattr $C$DW$82, DW_AT_TI_symbol_name("_hMmcsd")
	.dwattr $C$DW$82, DW_AT_type(*$C$DW$T$130)
	.dwattr $C$DW$82, DW_AT_location[DW_OP_reg17]
$C$DW$83	.dwtag  DW_TAG_formal_parameter, DW_AT_name("mmcsdEvent")
	.dwattr $C$DW$83, DW_AT_TI_symbol_name("_mmcsdEvent")
	.dwattr $C$DW$83, DW_AT_type(*$C$DW$T$124)
	.dwattr $C$DW$83, DW_AT_location[DW_OP_reg12]
;*******************************************************************************
;* FUNCTION NAME: MMC_eventEnable                                              *
;*                                                                             *
;*   Function Uses Regs : AC0,AC0,AC1,AC1,T0,AR0,XAR0,AR1,AR2,AR3,XAR3,SP,TC1, *
;*                        M40,SATA,SATD,RDM,FRCT,SMUL                          *
;*   Stack Frame        : Compact (No Frame Pointer, w/ debug)                 *
;*   Total Frame Size   : 6 words                                              *
;*                        (2 return address/alignment)                         *
;*                        (4 local values)                                     *
;*   Min System Stack   : 1 word                                               *
;*******************************************************************************
_MMC_eventEnable:
	.dwcfi	cfa_offset, 1
	.dwcfi	save_reg_to_mem, 91, -1
        AADD #-5, SP
	.dwcfi	cfa_offset, 6
$C$DW$84	.dwtag  DW_TAG_variable, DW_AT_name("hMmcsd")
	.dwattr $C$DW$84, DW_AT_TI_symbol_name("_hMmcsd")
	.dwattr $C$DW$84, DW_AT_type(*$C$DW$T$130)
	.dwattr $C$DW$84, DW_AT_location[DW_OP_bregx 0x24 0]
$C$DW$85	.dwtag  DW_TAG_variable, DW_AT_name("mmcsdEvent")
	.dwattr $C$DW$85, DW_AT_TI_symbol_name("_mmcsdEvent")
	.dwattr $C$DW$85, DW_AT_type(*$C$DW$T$124)
	.dwattr $C$DW$85, DW_AT_location[DW_OP_bregx 0x24 2]
$C$DW$86	.dwtag  DW_TAG_variable, DW_AT_name("status")
	.dwattr $C$DW$86, DW_AT_TI_symbol_name("_status")
	.dwattr $C$DW$86, DW_AT_type(*$C$DW$T$132)
	.dwattr $C$DW$86, DW_AT_location[DW_OP_bregx 0x24 3]
        MOV T0, *SP(#2) ; |997| 
        MOV XAR0, dbl(*SP(#0))
	.dwpsn	file "src/csl_mmcsd.c",line 1000,column 2,is_stmt
        MOV #0, *SP(#3) ; |1000| 
	.dwpsn	file "src/csl_mmcsd.c",line 1002,column 5,is_stmt
        MOV dbl(*SP(#0)), XAR3

        MOV XAR3, AC0
||      MOV #0, AC1 ; |1002| 

        CMPU AC1 != AC0, TC1 ; |1002| 
        BCC $C$L52,TC1 ; |1002| 
                                        ; branchcc occurs ; |1002| 
	.dwpsn	file "src/csl_mmcsd.c",line 1004,column 9,is_stmt
        MOV #-5, *SP(#3) ; |1004| 
	.dwpsn	file "src/csl_mmcsd.c",line 1005,column 5,is_stmt
        B $C$L56  ; |1005| 
                                        ; branch occurs ; |1005| 
$C$L39:    
	.dwpsn	file "src/csl_mmcsd.c",line 1011,column 5,is_stmt
        MOV #16, T0 ; |1011| 
        MOV *AR3, AR3 ; |1011| 
        MOV port(*AR3(T0)), AR1 ; |1011| 
        MOV dbl(*SP(#0)), XAR3
        MOV *AR3, AR3 ; |1011| 
        BCLR @#12, AR1 ; |1011| 
        BSET @#12, AR1 ; |1011| 
        MOV AR1, port(*AR3(T0)) ; |1011| 
	.dwpsn	file "src/csl_mmcsd.c",line 1012,column 10,is_stmt
        B $C$L56  ; |1012| 
                                        ; branch occurs ; |1012| 
$C$L40:    
	.dwpsn	file "src/csl_mmcsd.c",line 1015,column 5,is_stmt
        MOV #16, T0 ; |1015| 
        MOV *AR3, AR3 ; |1015| 
        MOV port(*AR3(T0)), AR1 ; |1015| 
        MOV dbl(*SP(#0)), XAR3
        MOV *AR3, AR3 ; |1015| 
        BCLR @#11, AR1 ; |1015| 
        BSET @#11, AR1 ; |1015| 
        MOV AR1, port(*AR3(T0)) ; |1015| 
	.dwpsn	file "src/csl_mmcsd.c",line 1016,column 10,is_stmt
        B $C$L56  ; |1016| 
                                        ; branch occurs ; |1016| 
$C$L41:    
	.dwpsn	file "src/csl_mmcsd.c",line 1019,column 5,is_stmt
        MOV #16, T0 ; |1019| 
        MOV *AR3, AR3 ; |1019| 
        MOV port(*AR3(T0)), AR1 ; |1019| 
        MOV dbl(*SP(#0)), XAR3
        MOV *AR3, AR3 ; |1019| 
        BCLR @#10, AR1 ; |1019| 
        BSET @#10, AR1 ; |1019| 
        MOV AR1, port(*AR3(T0)) ; |1019| 
	.dwpsn	file "src/csl_mmcsd.c",line 1020,column 10,is_stmt
        B $C$L56  ; |1020| 
                                        ; branch occurs ; |1020| 
$C$L42:    
	.dwpsn	file "src/csl_mmcsd.c",line 1023,column 5,is_stmt
        MOV #16, T0 ; |1023| 
        MOV *AR3, AR3 ; |1023| 
        MOV port(*AR3(T0)), AR1 ; |1023| 
        MOV dbl(*SP(#0)), XAR3
        MOV *AR3, AR3 ; |1023| 
        BCLR @#9, AR1 ; |1023| 
        BSET @#9, AR1 ; |1023| 
        MOV AR1, port(*AR3(T0)) ; |1023| 
	.dwpsn	file "src/csl_mmcsd.c",line 1024,column 10,is_stmt
        B $C$L56  ; |1024| 
                                        ; branch occurs ; |1024| 
$C$L43:    
	.dwpsn	file "src/csl_mmcsd.c",line 1027,column 5,is_stmt
        MOV #16, T0 ; |1027| 
        MOV *AR3, AR3 ; |1027| 
        MOV port(*AR3(T0)), AR1 ; |1027| 
        MOV dbl(*SP(#0)), XAR3
        MOV *AR3, AR3 ; |1027| 
        BCLR @#7, AR1 ; |1027| 
        BSET @#7, AR1 ; |1027| 
        MOV AR1, port(*AR3(T0)) ; |1027| 
	.dwpsn	file "src/csl_mmcsd.c",line 1028,column 10,is_stmt
        B $C$L56  ; |1028| 
                                        ; branch occurs ; |1028| 
$C$L44:    
	.dwpsn	file "src/csl_mmcsd.c",line 1031,column 5,is_stmt
        MOV #16, T0 ; |1031| 
        MOV *AR3, AR3 ; |1031| 
        MOV port(*AR3(T0)), AR1 ; |1031| 
        MOV dbl(*SP(#0)), XAR3
        MOV *AR3, AR3 ; |1031| 
        BCLR @#6, AR1 ; |1031| 
        BSET @#6, AR1 ; |1031| 
        MOV AR1, port(*AR3(T0)) ; |1031| 
	.dwpsn	file "src/csl_mmcsd.c",line 1032,column 10,is_stmt
        B $C$L56  ; |1032| 
                                        ; branch occurs ; |1032| 
$C$L45:    
	.dwpsn	file "src/csl_mmcsd.c",line 1035,column 5,is_stmt
        MOV #16, T0 ; |1035| 
        MOV *AR3, AR3 ; |1035| 
        MOV port(*AR3(T0)), AR1 ; |1035| 
        MOV dbl(*SP(#0)), XAR3
        MOV *AR3, AR3 ; |1035| 
        BCLR @#5, AR1 ; |1035| 
        BSET @#5, AR1 ; |1035| 
        MOV AR1, port(*AR3(T0)) ; |1035| 
	.dwpsn	file "src/csl_mmcsd.c",line 1036,column 10,is_stmt
        B $C$L56  ; |1036| 
                                        ; branch occurs ; |1036| 
$C$L46:    
	.dwpsn	file "src/csl_mmcsd.c",line 1039,column 5,is_stmt
        MOV #16, T0 ; |1039| 
        MOV *AR3, AR3 ; |1039| 
        MOV port(*AR3(T0)), AR1 ; |1039| 
        MOV dbl(*SP(#0)), XAR3
        MOV *AR3, AR3 ; |1039| 
        BCLR @#4, AR1 ; |1039| 
        BSET @#4, AR1 ; |1039| 
        MOV AR1, port(*AR3(T0)) ; |1039| 
	.dwpsn	file "src/csl_mmcsd.c",line 1040,column 10,is_stmt
        B $C$L56  ; |1040| 
                                        ; branch occurs ; |1040| 
$C$L47:    
	.dwpsn	file "src/csl_mmcsd.c",line 1043,column 5,is_stmt
        MOV #16, T0 ; |1043| 
        MOV *AR3, AR3 ; |1043| 
        MOV port(*AR3(T0)), AR1 ; |1043| 
        MOV dbl(*SP(#0)), XAR3
        MOV *AR3, AR3 ; |1043| 
        BCLR @#3, AR1 ; |1043| 
        BSET @#3, AR1 ; |1043| 
        MOV AR1, port(*AR3(T0)) ; |1043| 
	.dwpsn	file "src/csl_mmcsd.c",line 1044,column 10,is_stmt
        B $C$L56  ; |1044| 
                                        ; branch occurs ; |1044| 
$C$L48:    
	.dwpsn	file "src/csl_mmcsd.c",line 1047,column 5,is_stmt
        MOV #16, T0 ; |1047| 
        MOV *AR3, AR3 ; |1047| 
        MOV port(*AR3(T0)), AR1 ; |1047| 
        MOV dbl(*SP(#0)), XAR3
        MOV *AR3, AR3 ; |1047| 
        BCLR @#2, AR1 ; |1047| 
        BSET @#2, AR1 ; |1047| 
        MOV AR1, port(*AR3(T0)) ; |1047| 
	.dwpsn	file "src/csl_mmcsd.c",line 1048,column 10,is_stmt
        B $C$L56  ; |1048| 
                                        ; branch occurs ; |1048| 
$C$L49:    
	.dwpsn	file "src/csl_mmcsd.c",line 1051,column 5,is_stmt
        MOV #16, T0 ; |1051| 
        MOV *AR3, AR3 ; |1051| 
        MOV port(*AR3(T0)), AR1 ; |1051| 
        MOV dbl(*SP(#0)), XAR3
        MOV *AR3, AR3 ; |1051| 
        BCLR @#1, AR1 ; |1051| 
        BSET @#1, AR1 ; |1051| 
        MOV AR1, port(*AR3(T0)) ; |1051| 
	.dwpsn	file "src/csl_mmcsd.c",line 1052,column 10,is_stmt
        B $C$L56  ; |1052| 
                                        ; branch occurs ; |1052| 
$C$L50:    
	.dwpsn	file "src/csl_mmcsd.c",line 1055,column 5,is_stmt
        MOV #16, T0 ; |1055| 
        MOV *AR3, AR3 ; |1055| 
        MOV port(*AR3(T0)), AR1 ; |1055| 
        MOV dbl(*SP(#0)), XAR3
        MOV *AR3, AR3 ; |1055| 
        BCLR @#0, AR1 ; |1055| 
        BSET @#0, AR1 ; |1055| 
        MOV AR1, port(*AR3(T0)) ; |1055| 
	.dwpsn	file "src/csl_mmcsd.c",line 1056,column 10,is_stmt
        B $C$L56  ; |1056| 
                                        ; branch occurs ; |1056| 
$C$L51:    
	.dwpsn	file "src/csl_mmcsd.c",line 1059,column 5,is_stmt
        MOV #-6, *SP(#3) ; |1059| 
	.dwpsn	file "src/csl_mmcsd.c",line 1060,column 10,is_stmt
        B $C$L56  ; |1060| 
                                        ; branch occurs ; |1060| 
$C$L52:    
	.dwpsn	file "src/csl_mmcsd.c",line 1008,column 3,is_stmt
        MOV #64, AR2 ; |1008| 
        MOV *SP(#2), AR1 ; |1008| 
        CMP AR1 > AR2, TC1 ; |1008| 
        BCC $C$L54,TC1 ; |1008| 
                                        ; branchcc occurs ; |1008| 
        CMP AR1 == AR2, TC1 ; |1008| 
        BCC $C$L44,TC1 ; |1008| 
                                        ; branchcc occurs ; |1008| 
        MOV #8, AR2
        CMP AR1 > AR2, TC1 ; |1008| 
        BCC $C$L53,TC1 ; |1008| 
                                        ; branchcc occurs ; |1008| 
        CMP AR1 == AR2, TC1 ; |1008| 
        BCC $C$L47,TC1 ; |1008| 
                                        ; branchcc occurs ; |1008| 
        MOV #1, AR2
        CMP AR1 == AR2, TC1 ; |1008| 
        BCC $C$L50,TC1 ; |1008| 
                                        ; branchcc occurs ; |1008| 
        MOV #2, AR2
        CMP AR1 == AR2, TC1 ; |1008| 
        BCC $C$L49,TC1 ; |1008| 
                                        ; branchcc occurs ; |1008| 
        MOV #4, AR2
        CMP AR1 == AR2, TC1 ; |1008| 
        BCC $C$L48,TC1 ; |1008| 
                                        ; branchcc occurs ; |1008| 
        B $C$L51  ; |1008| 
                                        ; branch occurs ; |1008| 
$C$L53:    
        MOV #16, AR2 ; |1008| 
        CMP AR1 == AR2, TC1 ; |1008| 
        BCC $C$L46,TC1 ; |1008| 
                                        ; branchcc occurs ; |1008| 
        MOV #32, AR2 ; |1008| 
        CMP AR1 == AR2, TC1 ; |1008| 
        BCC $C$L45,TC1 ; |1008| 
                                        ; branchcc occurs ; |1008| 
        B $C$L51  ; |1008| 
                                        ; branch occurs ; |1008| 
$C$L54:    
        MOV #1024, AR2 ; |1008| 
        CMP AR1 > AR2, TC1 ; |1008| 
        BCC $C$L55,TC1 ; |1008| 
                                        ; branchcc occurs ; |1008| 
        CMP AR1 == AR2, TC1 ; |1008| 
        BCC $C$L41,TC1 ; |1008| 
                                        ; branchcc occurs ; |1008| 
        MOV #128, AR2 ; |1008| 
        CMP AR1 == AR2, TC1 ; |1008| 
        BCC $C$L43,TC1 ; |1008| 
                                        ; branchcc occurs ; |1008| 
        MOV #512, AR2 ; |1008| 
        CMP AR1 == AR2, TC1 ; |1008| 
        BCC $C$L42,TC1 ; |1008| 
                                        ; branchcc occurs ; |1008| 
        B $C$L51  ; |1008| 
                                        ; branch occurs ; |1008| 
$C$L55:    
        MOV #2048, AR2 ; |1008| 
        CMP AR1 == AR2, TC1 ; |1008| 
        BCC $C$L40,TC1 ; |1008| 
                                        ; branchcc occurs ; |1008| 
        MOV #4096, AR2 ; |1008| 
        CMP AR1 == AR2, TC1 ; |1008| 
        BCC $C$L39,TC1 ; |1008| 
                                        ; branchcc occurs ; |1008| 
        B $C$L51  ; |1008| 
                                        ; branch occurs ; |1008| 
$C$L56:    
	.dwpsn	file "src/csl_mmcsd.c",line 1064,column 2,is_stmt
        MOV *SP(#3), T0 ; |1064| 
	.dwpsn	file "src/csl_mmcsd.c",line 1065,column 1,is_stmt
        AADD #5, SP
	.dwcfi	cfa_offset, 1
$C$DW$87	.dwtag  DW_TAG_TI_branch
	.dwattr $C$DW$87, DW_AT_low_pc(0x00)
	.dwattr $C$DW$87, DW_AT_TI_return
        RET
                                        ; return occurs
	.dwattr $C$DW$81, DW_AT_TI_end_file("src/csl_mmcsd.c")
	.dwattr $C$DW$81, DW_AT_TI_end_line(0x429)
	.dwattr $C$DW$81, DW_AT_TI_end_column(0x01)
	.dwendentry
	.dwendtag $C$DW$81

	.sect	".text"
	.global	_MMC_eventDisable

$C$DW$88	.dwtag  DW_TAG_subprogram, DW_AT_name("MMC_eventDisable")
	.dwattr $C$DW$88, DW_AT_low_pc(_MMC_eventDisable)
	.dwattr $C$DW$88, DW_AT_high_pc(0x00)
	.dwattr $C$DW$88, DW_AT_TI_symbol_name("_MMC_eventDisable")
	.dwattr $C$DW$88, DW_AT_external
	.dwattr $C$DW$88, DW_AT_type(*$C$DW$T$132)
	.dwattr $C$DW$88, DW_AT_TI_begin_file("src/csl_mmcsd.c")
	.dwattr $C$DW$88, DW_AT_TI_begin_line(0x459)
	.dwattr $C$DW$88, DW_AT_TI_begin_column(0x0c)
	.dwattr $C$DW$88, DW_AT_TI_max_frame_size(0x06)
	.dwpsn	file "src/csl_mmcsd.c",line 1115,column 1,is_stmt,address _MMC_eventDisable

	.dwfde $C$DW$CIE, _MMC_eventDisable
$C$DW$89	.dwtag  DW_TAG_formal_parameter, DW_AT_name("hMmcsd")
	.dwattr $C$DW$89, DW_AT_TI_symbol_name("_hMmcsd")
	.dwattr $C$DW$89, DW_AT_type(*$C$DW$T$130)
	.dwattr $C$DW$89, DW_AT_location[DW_OP_reg17]
$C$DW$90	.dwtag  DW_TAG_formal_parameter, DW_AT_name("mmcsdEvent")
	.dwattr $C$DW$90, DW_AT_TI_symbol_name("_mmcsdEvent")
	.dwattr $C$DW$90, DW_AT_type(*$C$DW$T$124)
	.dwattr $C$DW$90, DW_AT_location[DW_OP_reg12]
;*******************************************************************************
;* FUNCTION NAME: MMC_eventDisable                                             *
;*                                                                             *
;*   Function Uses Regs : AC0,AC0,AC1,AC1,T0,AR0,XAR0,AR1,AR2,AR3,XAR3,SP,TC1, *
;*                        M40,SATA,SATD,RDM,FRCT,SMUL                          *
;*   Stack Frame        : Compact (No Frame Pointer, w/ debug)                 *
;*   Total Frame Size   : 6 words                                              *
;*                        (2 return address/alignment)                         *
;*                        (4 local values)                                     *
;*   Min System Stack   : 1 word                                               *
;*******************************************************************************
_MMC_eventDisable:
	.dwcfi	cfa_offset, 1
	.dwcfi	save_reg_to_mem, 91, -1
        AADD #-5, SP
	.dwcfi	cfa_offset, 6
$C$DW$91	.dwtag  DW_TAG_variable, DW_AT_name("hMmcsd")
	.dwattr $C$DW$91, DW_AT_TI_symbol_name("_hMmcsd")
	.dwattr $C$DW$91, DW_AT_type(*$C$DW$T$130)
	.dwattr $C$DW$91, DW_AT_location[DW_OP_bregx 0x24 0]
$C$DW$92	.dwtag  DW_TAG_variable, DW_AT_name("mmcsdEvent")
	.dwattr $C$DW$92, DW_AT_TI_symbol_name("_mmcsdEvent")
	.dwattr $C$DW$92, DW_AT_type(*$C$DW$T$124)
	.dwattr $C$DW$92, DW_AT_location[DW_OP_bregx 0x24 2]
$C$DW$93	.dwtag  DW_TAG_variable, DW_AT_name("status")
	.dwattr $C$DW$93, DW_AT_TI_symbol_name("_status")
	.dwattr $C$DW$93, DW_AT_type(*$C$DW$T$132)
	.dwattr $C$DW$93, DW_AT_location[DW_OP_bregx 0x24 3]
        MOV T0, *SP(#2) ; |1115| 
        MOV XAR0, dbl(*SP(#0))
	.dwpsn	file "src/csl_mmcsd.c",line 1118,column 2,is_stmt
        MOV #0, *SP(#3) ; |1118| 
	.dwpsn	file "src/csl_mmcsd.c",line 1120,column 5,is_stmt
        MOV dbl(*SP(#0)), XAR3

        MOV XAR3, AC0
||      MOV #0, AC1 ; |1120| 

        CMPU AC1 != AC0, TC1 ; |1120| 
        BCC $C$L70,TC1 ; |1120| 
                                        ; branchcc occurs ; |1120| 
	.dwpsn	file "src/csl_mmcsd.c",line 1122,column 3,is_stmt
        MOV #-5, *SP(#3) ; |1122| 
	.dwpsn	file "src/csl_mmcsd.c",line 1123,column 5,is_stmt
        B $C$L74  ; |1123| 
                                        ; branch occurs ; |1123| 
$C$L57:    
	.dwpsn	file "src/csl_mmcsd.c",line 1129,column 5,is_stmt
        MOV #16, T0 ; |1129| 
        MOV *AR3, AR3 ; |1129| 
        MOV port(*AR3(T0)), AR1 ; |1129| 
        MOV dbl(*SP(#0)), XAR3
        MOV *AR3, AR3 ; |1129| 
        BCLR @#12, AR1 ; |1129| 
        MOV AR1, port(*AR3(T0)) ; |1129| 
	.dwpsn	file "src/csl_mmcsd.c",line 1130,column 10,is_stmt
        B $C$L74  ; |1130| 
                                        ; branch occurs ; |1130| 
$C$L58:    
	.dwpsn	file "src/csl_mmcsd.c",line 1133,column 5,is_stmt
        MOV #16, T0 ; |1133| 
        MOV *AR3, AR3 ; |1133| 
        MOV port(*AR3(T0)), AR1 ; |1133| 
        MOV dbl(*SP(#0)), XAR3
        MOV *AR3, AR3 ; |1133| 
        BCLR @#11, AR1 ; |1133| 
        MOV AR1, port(*AR3(T0)) ; |1133| 
	.dwpsn	file "src/csl_mmcsd.c",line 1134,column 10,is_stmt
        B $C$L74  ; |1134| 
                                        ; branch occurs ; |1134| 
$C$L59:    
	.dwpsn	file "src/csl_mmcsd.c",line 1137,column 5,is_stmt
        MOV #16, T0 ; |1137| 
        MOV *AR3, AR3 ; |1137| 
        MOV port(*AR3(T0)), AR1 ; |1137| 
        MOV dbl(*SP(#0)), XAR3
        MOV *AR3, AR3 ; |1137| 
        BCLR @#10, AR1 ; |1137| 
        MOV AR1, port(*AR3(T0)) ; |1137| 
	.dwpsn	file "src/csl_mmcsd.c",line 1138,column 10,is_stmt
        B $C$L74  ; |1138| 
                                        ; branch occurs ; |1138| 
$C$L60:    
	.dwpsn	file "src/csl_mmcsd.c",line 1141,column 5,is_stmt
        MOV #16, T0 ; |1141| 
        MOV *AR3, AR3 ; |1141| 
        MOV port(*AR3(T0)), AR1 ; |1141| 
        MOV dbl(*SP(#0)), XAR3
        MOV *AR3, AR3 ; |1141| 
        BCLR @#9, AR1 ; |1141| 
        MOV AR1, port(*AR3(T0)) ; |1141| 
	.dwpsn	file "src/csl_mmcsd.c",line 1142,column 10,is_stmt
        B $C$L74  ; |1142| 
                                        ; branch occurs ; |1142| 
$C$L61:    
	.dwpsn	file "src/csl_mmcsd.c",line 1145,column 5,is_stmt
        MOV #16, T0 ; |1145| 
        MOV *AR3, AR3 ; |1145| 
        MOV port(*AR3(T0)), AR1 ; |1145| 
        MOV dbl(*SP(#0)), XAR3
        MOV *AR3, AR3 ; |1145| 
        BCLR @#7, AR1 ; |1145| 
        MOV AR1, port(*AR3(T0)) ; |1145| 
	.dwpsn	file "src/csl_mmcsd.c",line 1146,column 10,is_stmt
        B $C$L74  ; |1146| 
                                        ; branch occurs ; |1146| 
$C$L62:    
	.dwpsn	file "src/csl_mmcsd.c",line 1149,column 5,is_stmt
        MOV #16, T0 ; |1149| 
        MOV *AR3, AR3 ; |1149| 
        MOV port(*AR3(T0)), AR1 ; |1149| 
        MOV dbl(*SP(#0)), XAR3
        MOV *AR3, AR3 ; |1149| 
        BCLR @#6, AR1 ; |1149| 
        MOV AR1, port(*AR3(T0)) ; |1149| 
	.dwpsn	file "src/csl_mmcsd.c",line 1150,column 10,is_stmt
        B $C$L74  ; |1150| 
                                        ; branch occurs ; |1150| 
$C$L63:    
	.dwpsn	file "src/csl_mmcsd.c",line 1153,column 5,is_stmt
        MOV #16, T0 ; |1153| 
        MOV *AR3, AR3 ; |1153| 
        MOV port(*AR3(T0)), AR1 ; |1153| 
        MOV dbl(*SP(#0)), XAR3
        MOV *AR3, AR3 ; |1153| 
        BCLR @#5, AR1 ; |1153| 
        MOV AR1, port(*AR3(T0)) ; |1153| 
	.dwpsn	file "src/csl_mmcsd.c",line 1154,column 10,is_stmt
        B $C$L74  ; |1154| 
                                        ; branch occurs ; |1154| 
$C$L64:    
	.dwpsn	file "src/csl_mmcsd.c",line 1157,column 5,is_stmt
        MOV #16, T0 ; |1157| 
        MOV *AR3, AR3 ; |1157| 
        MOV port(*AR3(T0)), AR1 ; |1157| 
        MOV dbl(*SP(#0)), XAR3
        MOV *AR3, AR3 ; |1157| 
        BCLR @#4, AR1 ; |1157| 
        MOV AR1, port(*AR3(T0)) ; |1157| 
	.dwpsn	file "src/csl_mmcsd.c",line 1158,column 10,is_stmt
        B $C$L74  ; |1158| 
                                        ; branch occurs ; |1158| 
$C$L65:    
	.dwpsn	file "src/csl_mmcsd.c",line 1161,column 5,is_stmt
        MOV #16, T0 ; |1161| 
        MOV *AR3, AR3 ; |1161| 
        MOV port(*AR3(T0)), AR1 ; |1161| 
        MOV dbl(*SP(#0)), XAR3
        MOV *AR3, AR3 ; |1161| 
        BCLR @#3, AR1 ; |1161| 
        MOV AR1, port(*AR3(T0)) ; |1161| 
	.dwpsn	file "src/csl_mmcsd.c",line 1162,column 10,is_stmt
        B $C$L74  ; |1162| 
                                        ; branch occurs ; |1162| 
$C$L66:    
	.dwpsn	file "src/csl_mmcsd.c",line 1165,column 5,is_stmt
        MOV #16, T0 ; |1165| 
        MOV *AR3, AR3 ; |1165| 
        MOV port(*AR3(T0)), AR1 ; |1165| 
        MOV dbl(*SP(#0)), XAR3
        MOV *AR3, AR3 ; |1165| 
        BCLR @#2, AR1 ; |1165| 
        MOV AR1, port(*AR3(T0)) ; |1165| 
	.dwpsn	file "src/csl_mmcsd.c",line 1166,column 10,is_stmt
        B $C$L74  ; |1166| 
                                        ; branch occurs ; |1166| 
$C$L67:    
	.dwpsn	file "src/csl_mmcsd.c",line 1169,column 5,is_stmt
        MOV #16, T0 ; |1169| 
        MOV *AR3, AR3 ; |1169| 
        MOV port(*AR3(T0)), AR1 ; |1169| 
        MOV dbl(*SP(#0)), XAR3
        MOV *AR3, AR3 ; |1169| 
        BCLR @#1, AR1 ; |1169| 
        MOV AR1, port(*AR3(T0)) ; |1169| 
	.dwpsn	file "src/csl_mmcsd.c",line 1170,column 10,is_stmt
        B $C$L74  ; |1170| 
                                        ; branch occurs ; |1170| 
$C$L68:    
	.dwpsn	file "src/csl_mmcsd.c",line 1173,column 5,is_stmt
        MOV #16, T0 ; |1173| 
        MOV *AR3, AR3 ; |1173| 
        MOV port(*AR3(T0)), AR1 ; |1173| 
        MOV dbl(*SP(#0)), XAR3
        MOV *AR3, AR3 ; |1173| 
        BCLR @#0, AR1 ; |1173| 
        MOV AR1, port(*AR3(T0)) ; |1173| 
	.dwpsn	file "src/csl_mmcsd.c",line 1174,column 10,is_stmt
        B $C$L74  ; |1174| 
                                        ; branch occurs ; |1174| 
$C$L69:    
	.dwpsn	file "src/csl_mmcsd.c",line 1177,column 5,is_stmt
        MOV #-6, *SP(#3) ; |1177| 
	.dwpsn	file "src/csl_mmcsd.c",line 1178,column 10,is_stmt
        B $C$L74  ; |1178| 
                                        ; branch occurs ; |1178| 
$C$L70:    
	.dwpsn	file "src/csl_mmcsd.c",line 1126,column 3,is_stmt
        MOV #64, AR2 ; |1126| 
        MOV *SP(#2), AR1 ; |1126| 
        CMP AR1 > AR2, TC1 ; |1126| 
        BCC $C$L72,TC1 ; |1126| 
                                        ; branchcc occurs ; |1126| 
        CMP AR1 == AR2, TC1 ; |1126| 
        BCC $C$L62,TC1 ; |1126| 
                                        ; branchcc occurs ; |1126| 
        MOV #8, AR2
        CMP AR1 > AR2, TC1 ; |1126| 
        BCC $C$L71,TC1 ; |1126| 
                                        ; branchcc occurs ; |1126| 
        CMP AR1 == AR2, TC1 ; |1126| 
        BCC $C$L65,TC1 ; |1126| 
                                        ; branchcc occurs ; |1126| 
        MOV #1, AR2
        CMP AR1 == AR2, TC1 ; |1126| 
        BCC $C$L68,TC1 ; |1126| 
                                        ; branchcc occurs ; |1126| 
        MOV #2, AR2
        CMP AR1 == AR2, TC1 ; |1126| 
        BCC $C$L67,TC1 ; |1126| 
                                        ; branchcc occurs ; |1126| 
        MOV #4, AR2
        CMP AR1 == AR2, TC1 ; |1126| 
        BCC $C$L66,TC1 ; |1126| 
                                        ; branchcc occurs ; |1126| 
        B $C$L69  ; |1126| 
                                        ; branch occurs ; |1126| 
$C$L71:    
        MOV #16, AR2 ; |1126| 
        CMP AR1 == AR2, TC1 ; |1126| 
        BCC $C$L64,TC1 ; |1126| 
                                        ; branchcc occurs ; |1126| 
        MOV #32, AR2 ; |1126| 
        CMP AR1 == AR2, TC1 ; |1126| 
        BCC $C$L63,TC1 ; |1126| 
                                        ; branchcc occurs ; |1126| 
        B $C$L69  ; |1126| 
                                        ; branch occurs ; |1126| 
$C$L72:    
        MOV #1024, AR2 ; |1126| 
        CMP AR1 > AR2, TC1 ; |1126| 
        BCC $C$L73,TC1 ; |1126| 
                                        ; branchcc occurs ; |1126| 
        CMP AR1 == AR2, TC1 ; |1126| 
        BCC $C$L59,TC1 ; |1126| 
                                        ; branchcc occurs ; |1126| 
        MOV #128, AR2 ; |1126| 
        CMP AR1 == AR2, TC1 ; |1126| 
        BCC $C$L61,TC1 ; |1126| 
                                        ; branchcc occurs ; |1126| 
        MOV #512, AR2 ; |1126| 
        CMP AR1 == AR2, TC1 ; |1126| 
        BCC $C$L60,TC1 ; |1126| 
                                        ; branchcc occurs ; |1126| 
        B $C$L69  ; |1126| 
                                        ; branch occurs ; |1126| 
$C$L73:    
        MOV #2048, AR2 ; |1126| 
        CMP AR1 == AR2, TC1 ; |1126| 
        BCC $C$L58,TC1 ; |1126| 
                                        ; branchcc occurs ; |1126| 
        MOV #4096, AR2 ; |1126| 
        CMP AR1 == AR2, TC1 ; |1126| 
        BCC $C$L57,TC1 ; |1126| 
                                        ; branchcc occurs ; |1126| 
        B $C$L69  ; |1126| 
                                        ; branch occurs ; |1126| 
$C$L74:    
	.dwpsn	file "src/csl_mmcsd.c",line 1182,column 2,is_stmt
        MOV *SP(#3), T0 ; |1182| 
	.dwpsn	file "src/csl_mmcsd.c",line 1183,column 1,is_stmt
        AADD #5, SP
	.dwcfi	cfa_offset, 1
$C$DW$94	.dwtag  DW_TAG_TI_branch
	.dwattr $C$DW$94, DW_AT_low_pc(0x00)
	.dwattr $C$DW$94, DW_AT_TI_return
        RET
                                        ; return occurs
	.dwattr $C$DW$88, DW_AT_TI_end_file("src/csl_mmcsd.c")
	.dwattr $C$DW$88, DW_AT_TI_end_line(0x49f)
	.dwattr $C$DW$88, DW_AT_TI_end_column(0x01)
	.dwendentry
	.dwendtag $C$DW$88

	.sect	".text"
	.global	_MMC_drrdy

$C$DW$95	.dwtag  DW_TAG_subprogram, DW_AT_name("MMC_drrdy")
	.dwattr $C$DW$95, DW_AT_low_pc(_MMC_drrdy)
	.dwattr $C$DW$95, DW_AT_high_pc(0x00)
	.dwattr $C$DW$95, DW_AT_TI_symbol_name("_MMC_drrdy")
	.dwattr $C$DW$95, DW_AT_external
	.dwattr $C$DW$95, DW_AT_type(*$C$DW$T$31)
	.dwattr $C$DW$95, DW_AT_TI_begin_file("src/csl_mmcsd.c")
	.dwattr $C$DW$95, DW_AT_TI_begin_line(0x4cd)
	.dwattr $C$DW$95, DW_AT_TI_begin_column(0x06)
	.dwattr $C$DW$95, DW_AT_TI_max_frame_size(0x06)
	.dwpsn	file "src/csl_mmcsd.c",line 1231,column 1,is_stmt,address _MMC_drrdy

	.dwfde $C$DW$CIE, _MMC_drrdy
$C$DW$96	.dwtag  DW_TAG_formal_parameter, DW_AT_name("hMmcsd")
	.dwattr $C$DW$96, DW_AT_TI_symbol_name("_hMmcsd")
	.dwattr $C$DW$96, DW_AT_type(*$C$DW$T$130)
	.dwattr $C$DW$96, DW_AT_location[DW_OP_reg17]
$C$DW$97	.dwtag  DW_TAG_formal_parameter, DW_AT_name("pStatus")
	.dwattr $C$DW$97, DW_AT_TI_symbol_name("_pStatus")
	.dwattr $C$DW$97, DW_AT_type(*$C$DW$T$133)
	.dwattr $C$DW$97, DW_AT_location[DW_OP_reg19]
;*******************************************************************************
;* FUNCTION NAME: MMC_drrdy                                                    *
;*                                                                             *
;*   Function Uses Regs : AC0,AC0,AC1,AC1,T0,AR0,XAR0,AR1,XAR1,AR3,XAR3,SP,TC1,*
;*                        M40,SATA,SATD,RDM,FRCT,SMUL                          *
;*   Stack Frame        : Compact (No Frame Pointer, w/ debug)                 *
;*   Total Frame Size   : 6 words                                              *
;*                        (1 return address/alignment)                         *
;*                        (5 local values)                                     *
;*   Min System Stack   : 1 word                                               *
;*******************************************************************************
_MMC_drrdy:
	.dwcfi	cfa_offset, 1
	.dwcfi	save_reg_to_mem, 91, -1
        AADD #-5, SP
	.dwcfi	cfa_offset, 6
$C$DW$98	.dwtag  DW_TAG_variable, DW_AT_name("hMmcsd")
	.dwattr $C$DW$98, DW_AT_TI_symbol_name("_hMmcsd")
	.dwattr $C$DW$98, DW_AT_type(*$C$DW$T$130)
	.dwattr $C$DW$98, DW_AT_location[DW_OP_bregx 0x24 0]
$C$DW$99	.dwtag  DW_TAG_variable, DW_AT_name("pStatus")
	.dwattr $C$DW$99, DW_AT_TI_symbol_name("_pStatus")
	.dwattr $C$DW$99, DW_AT_type(*$C$DW$T$133)
	.dwattr $C$DW$99, DW_AT_location[DW_OP_bregx 0x24 2]
$C$DW$100	.dwtag  DW_TAG_variable, DW_AT_name("status")
	.dwattr $C$DW$100, DW_AT_TI_symbol_name("_status")
	.dwattr $C$DW$100, DW_AT_type(*$C$DW$T$31)
	.dwattr $C$DW$100, DW_AT_location[DW_OP_bregx 0x24 4]
        MOV XAR1, dbl(*SP(#2))
        MOV XAR0, dbl(*SP(#0))
	.dwpsn	file "src/csl_mmcsd.c",line 1234,column 5,is_stmt
        MOV #0, *SP(#4) ; |1234| 
	.dwpsn	file "src/csl_mmcsd.c",line 1236,column 5,is_stmt
        MOV dbl(*SP(#0)), XAR3

        MOV XAR3, AC0
||      MOV #0, AC1 ; |1236| 

        CMPU AC1 != AC0, TC1 ; |1236| 
        BCC $C$L75,TC1 ; |1236| 
                                        ; branchcc occurs ; |1236| 
	.dwpsn	file "src/csl_mmcsd.c",line 1238,column 3,is_stmt
        MOV dbl(*SP(#2)), XAR3
        MOV XAR3, AC0
        BCC $C$L77,AC0 == #0 ; |1238| 
                                        ; branchcc occurs ; |1238| 
	.dwpsn	file "src/csl_mmcsd.c",line 1240,column 10,is_stmt
        MOV #-5, *AR3 ; |1240| 
	.dwpsn	file "src/csl_mmcsd.c",line 1242,column 5,is_stmt
        B $C$L77  ; |1242| 
                                        ; branch occurs ; |1242| 
$C$L75:    
	.dwpsn	file "src/csl_mmcsd.c",line 1245,column 3,is_stmt
        MOV dbl(*SP(#2)), XAR3
        MOV XAR3, AC0
        BCC $C$L76,AC0 == #0 ; |1245| 
                                        ; branchcc occurs ; |1245| 
	.dwpsn	file "src/csl_mmcsd.c",line 1247,column 10,is_stmt
        MOV #0, *AR3 ; |1247| 
$C$L76:    
	.dwpsn	file "src/csl_mmcsd.c",line 1249,column 9,is_stmt
        MOV dbl(*SP(#0)), XAR3
        MOV *AR3, AR3 ; |1249| 
        AMOV #8, T0
        MOV port(*AR3(T0)), AR1 ; |1249| 
        AND #0x0400, AR1, AC0 ; |1249| 
        SFTS AC0, #-10, AC0 ; |1249| 
        MOV AC0, *SP(#4) ; |1249| 
$C$L77:    
	.dwpsn	file "src/csl_mmcsd.c",line 1252,column 2,is_stmt
        MOV *SP(#4), T0 ; |1252| 
	.dwpsn	file "src/csl_mmcsd.c",line 1253,column 1,is_stmt
        AADD #5, SP
	.dwcfi	cfa_offset, 1
$C$DW$101	.dwtag  DW_TAG_TI_branch
	.dwattr $C$DW$101, DW_AT_low_pc(0x00)
	.dwattr $C$DW$101, DW_AT_TI_return
        RET
                                        ; return occurs
	.dwattr $C$DW$95, DW_AT_TI_end_file("src/csl_mmcsd.c")
	.dwattr $C$DW$95, DW_AT_TI_end_line(0x4e5)
	.dwattr $C$DW$95, DW_AT_TI_end_column(0x01)
	.dwendentry
	.dwendtag $C$DW$95

	.sect	".text"
	.global	_MMC_dxrdy

$C$DW$102	.dwtag  DW_TAG_subprogram, DW_AT_name("MMC_dxrdy")
	.dwattr $C$DW$102, DW_AT_low_pc(_MMC_dxrdy)
	.dwattr $C$DW$102, DW_AT_high_pc(0x00)
	.dwattr $C$DW$102, DW_AT_TI_symbol_name("_MMC_dxrdy")
	.dwattr $C$DW$102, DW_AT_external
	.dwattr $C$DW$102, DW_AT_type(*$C$DW$T$31)
	.dwattr $C$DW$102, DW_AT_TI_begin_file("src/csl_mmcsd.c")
	.dwattr $C$DW$102, DW_AT_TI_begin_line(0x513)
	.dwattr $C$DW$102, DW_AT_TI_begin_column(0x06)
	.dwattr $C$DW$102, DW_AT_TI_max_frame_size(0x06)
	.dwpsn	file "src/csl_mmcsd.c",line 1301,column 1,is_stmt,address _MMC_dxrdy

	.dwfde $C$DW$CIE, _MMC_dxrdy
$C$DW$103	.dwtag  DW_TAG_formal_parameter, DW_AT_name("hMmcsd")
	.dwattr $C$DW$103, DW_AT_TI_symbol_name("_hMmcsd")
	.dwattr $C$DW$103, DW_AT_type(*$C$DW$T$130)
	.dwattr $C$DW$103, DW_AT_location[DW_OP_reg17]
$C$DW$104	.dwtag  DW_TAG_formal_parameter, DW_AT_name("pStatus")
	.dwattr $C$DW$104, DW_AT_TI_symbol_name("_pStatus")
	.dwattr $C$DW$104, DW_AT_type(*$C$DW$T$133)
	.dwattr $C$DW$104, DW_AT_location[DW_OP_reg19]
;*******************************************************************************
;* FUNCTION NAME: MMC_dxrdy                                                    *
;*                                                                             *
;*   Function Uses Regs : AC0,AC0,AC1,AC1,T0,AR0,XAR0,AR1,XAR1,AR3,XAR3,SP,TC1,*
;*                        M40,SATA,SATD,RDM,FRCT,SMUL                          *
;*   Stack Frame        : Compact (No Frame Pointer, w/ debug)                 *
;*   Total Frame Size   : 6 words                                              *
;*                        (1 return address/alignment)                         *
;*                        (5 local values)                                     *
;*   Min System Stack   : 1 word                                               *
;*******************************************************************************
_MMC_dxrdy:
	.dwcfi	cfa_offset, 1
	.dwcfi	save_reg_to_mem, 91, -1
        AADD #-5, SP
	.dwcfi	cfa_offset, 6
$C$DW$105	.dwtag  DW_TAG_variable, DW_AT_name("hMmcsd")
	.dwattr $C$DW$105, DW_AT_TI_symbol_name("_hMmcsd")
	.dwattr $C$DW$105, DW_AT_type(*$C$DW$T$130)
	.dwattr $C$DW$105, DW_AT_location[DW_OP_bregx 0x24 0]
$C$DW$106	.dwtag  DW_TAG_variable, DW_AT_name("pStatus")
	.dwattr $C$DW$106, DW_AT_TI_symbol_name("_pStatus")
	.dwattr $C$DW$106, DW_AT_type(*$C$DW$T$133)
	.dwattr $C$DW$106, DW_AT_location[DW_OP_bregx 0x24 2]
$C$DW$107	.dwtag  DW_TAG_variable, DW_AT_name("status")
	.dwattr $C$DW$107, DW_AT_TI_symbol_name("_status")
	.dwattr $C$DW$107, DW_AT_type(*$C$DW$T$31)
	.dwattr $C$DW$107, DW_AT_location[DW_OP_bregx 0x24 4]
        MOV XAR1, dbl(*SP(#2))
        MOV XAR0, dbl(*SP(#0))
	.dwpsn	file "src/csl_mmcsd.c",line 1304,column 5,is_stmt
        MOV dbl(*SP(#0)), XAR3

        MOV XAR3, AC0
||      MOV #0, AC1 ; |1304| 

        CMPU AC1 != AC0, TC1 ; |1304| 
        BCC $C$L78,TC1 ; |1304| 
                                        ; branchcc occurs ; |1304| 
	.dwpsn	file "src/csl_mmcsd.c",line 1306,column 3,is_stmt
        MOV dbl(*SP(#2)), XAR3
        MOV XAR3, AC0
        BCC $C$L80,AC0 == #0 ; |1306| 
                                        ; branchcc occurs ; |1306| 
	.dwpsn	file "src/csl_mmcsd.c",line 1308,column 10,is_stmt
        MOV #-5, *AR3 ; |1308| 
	.dwpsn	file "src/csl_mmcsd.c",line 1310,column 5,is_stmt
        B $C$L80  ; |1310| 
                                        ; branch occurs ; |1310| 
$C$L78:    
	.dwpsn	file "src/csl_mmcsd.c",line 1313,column 3,is_stmt
        MOV dbl(*SP(#2)), XAR3
        MOV XAR3, AC0
        BCC $C$L79,AC0 == #0 ; |1313| 
                                        ; branchcc occurs ; |1313| 
	.dwpsn	file "src/csl_mmcsd.c",line 1315,column 10,is_stmt
        MOV #0, *AR3 ; |1315| 
$C$L79:    
	.dwpsn	file "src/csl_mmcsd.c",line 1317,column 9,is_stmt
        MOV dbl(*SP(#0)), XAR3
        MOV *AR3, AR3 ; |1317| 
        AMOV #8, T0
        MOV port(*AR3(T0)), AR1 ; |1317| 
        AND #0x0200, AR1, AC0 ; |1317| 
        SFTS AC0, #-9, AC0 ; |1317| 
        MOV AC0, *SP(#4) ; |1317| 
$C$L80:    
	.dwpsn	file "src/csl_mmcsd.c",line 1320,column 2,is_stmt
        MOV *SP(#4), T0 ; |1320| 
	.dwpsn	file "src/csl_mmcsd.c",line 1321,column 1,is_stmt
        AADD #5, SP
	.dwcfi	cfa_offset, 1
$C$DW$108	.dwtag  DW_TAG_TI_branch
	.dwattr $C$DW$108, DW_AT_low_pc(0x00)
	.dwattr $C$DW$108, DW_AT_TI_return
        RET
                                        ; return occurs
	.dwattr $C$DW$102, DW_AT_TI_end_file("src/csl_mmcsd.c")
	.dwattr $C$DW$102, DW_AT_TI_end_line(0x529)
	.dwattr $C$DW$102, DW_AT_TI_end_column(0x01)
	.dwendentry
	.dwendtag $C$DW$102

	.sect	".text"
	.global	_MMC_saveStatus

$C$DW$109	.dwtag  DW_TAG_subprogram, DW_AT_name("MMC_saveStatus")
	.dwattr $C$DW$109, DW_AT_low_pc(_MMC_saveStatus)
	.dwattr $C$DW$109, DW_AT_high_pc(0x00)
	.dwattr $C$DW$109, DW_AT_TI_symbol_name("_MMC_saveStatus")
	.dwattr $C$DW$109, DW_AT_external
	.dwattr $C$DW$109, DW_AT_type(*$C$DW$T$132)
	.dwattr $C$DW$109, DW_AT_TI_begin_file("src/csl_mmcsd.c")
	.dwattr $C$DW$109, DW_AT_TI_begin_line(0x555)
	.dwattr $C$DW$109, DW_AT_TI_begin_column(0x0c)
	.dwattr $C$DW$109, DW_AT_TI_max_frame_size(0x04)
	.dwpsn	file "src/csl_mmcsd.c",line 1366,column 1,is_stmt,address _MMC_saveStatus

	.dwfde $C$DW$CIE, _MMC_saveStatus
$C$DW$110	.dwtag  DW_TAG_formal_parameter, DW_AT_name("hMmcsd")
	.dwattr $C$DW$110, DW_AT_TI_symbol_name("_hMmcsd")
	.dwattr $C$DW$110, DW_AT_type(*$C$DW$T$130)
	.dwattr $C$DW$110, DW_AT_location[DW_OP_reg17]
;*******************************************************************************
;* FUNCTION NAME: MMC_saveStatus                                               *
;*                                                                             *
;*   Function Uses Regs : AC0,AC0,AC1,AC1,T0,AR0,XAR0,AR1,AR3,XAR3,SP,TC1,M40, *
;*                        SATA,SATD,RDM,FRCT,SMUL                              *
;*   Stack Frame        : Compact (No Frame Pointer, w/ debug)                 *
;*   Total Frame Size   : 4 words                                              *
;*                        (2 return address/alignment)                         *
;*                        (2 local values)                                     *
;*   Min System Stack   : 1 word                                               *
;*******************************************************************************
_MMC_saveStatus:
	.dwcfi	cfa_offset, 1
	.dwcfi	save_reg_to_mem, 91, -1
        AADD #-3, SP
	.dwcfi	cfa_offset, 4
$C$DW$111	.dwtag  DW_TAG_variable, DW_AT_name("hMmcsd")
	.dwattr $C$DW$111, DW_AT_TI_symbol_name("_hMmcsd")
	.dwattr $C$DW$111, DW_AT_type(*$C$DW$T$130)
	.dwattr $C$DW$111, DW_AT_location[DW_OP_bregx 0x24 0]
        MOV XAR0, dbl(*SP(#0))
	.dwpsn	file "src/csl_mmcsd.c",line 1367,column 5,is_stmt
        MOV dbl(*SP(#0)), XAR3

        MOV XAR3, AC0
||      MOV #0, AC1 ; |1367| 

        CMPU AC1 != AC0, TC1 ; |1367| 
        BCC $C$L81,TC1 ; |1367| 
                                        ; branchcc occurs ; |1367| 
	.dwpsn	file "src/csl_mmcsd.c",line 1369,column 9,is_stmt
        MOV #-5, T0
        B $C$L82  ; |1369| 
                                        ; branch occurs ; |1369| 
$C$L81:    
	.dwpsn	file "src/csl_mmcsd.c",line 1373,column 9,is_stmt
        MOV *AR3, AR3 ; |1373| 
        AMOV #8, T0
        MOV port(*AR3(T0)), AR1 ; |1373| 
        MOV dbl(*SP(#0)), XAR3
        MOV dbl(*AR3(short(#2))), XAR3
        MOV AR1, *AR3(short(#1)) ; |1373| 
	.dwpsn	file "src/csl_mmcsd.c",line 1374,column 9,is_stmt
        MOV dbl(*SP(#0)), XAR3
        MOV *AR3, AR3 ; |1374| 
        AMOV #12, T0
        MOV port(*AR3(T0)), AR1 ; |1374| 
        MOV dbl(*SP(#0)), XAR3
        MOV dbl(*AR3(short(#2))), XAR3
        MOV AR1, *AR3(short(#2)) ; |1374| 
	.dwpsn	file "src/csl_mmcsd.c",line 1375,column 9,is_stmt
        MOV #0, T0
$C$L82:    
	.dwpsn	file "src/csl_mmcsd.c",line 1377,column 1,is_stmt
        AADD #3, SP
	.dwcfi	cfa_offset, 1
$C$DW$112	.dwtag  DW_TAG_TI_branch
	.dwattr $C$DW$112, DW_AT_low_pc(0x00)
	.dwattr $C$DW$112, DW_AT_TI_return
        RET
                                        ; return occurs
	.dwattr $C$DW$109, DW_AT_TI_end_file("src/csl_mmcsd.c")
	.dwattr $C$DW$109, DW_AT_TI_end_line(0x561)
	.dwattr $C$DW$109, DW_AT_TI_end_column(0x01)
	.dwendentry
	.dwendtag $C$DW$109

	.sect	".text"
	.global	_MMC_getStatus

$C$DW$113	.dwtag  DW_TAG_subprogram, DW_AT_name("MMC_getStatus")
	.dwattr $C$DW$113, DW_AT_low_pc(_MMC_getStatus)
	.dwattr $C$DW$113, DW_AT_high_pc(0x00)
	.dwattr $C$DW$113, DW_AT_TI_symbol_name("_MMC_getStatus")
	.dwattr $C$DW$113, DW_AT_external
	.dwattr $C$DW$113, DW_AT_type(*$C$DW$T$49)
	.dwattr $C$DW$113, DW_AT_TI_begin_file("src/csl_mmcsd.c")
	.dwattr $C$DW$113, DW_AT_TI_begin_line(0x594)
	.dwattr $C$DW$113, DW_AT_TI_begin_column(0x08)
	.dwattr $C$DW$113, DW_AT_TI_max_frame_size(0x0a)
	.dwpsn	file "src/csl_mmcsd.c",line 1431,column 1,is_stmt,address _MMC_getStatus

	.dwfde $C$DW$CIE, _MMC_getStatus
$C$DW$114	.dwtag  DW_TAG_formal_parameter, DW_AT_name("hMmcsd")
	.dwattr $C$DW$114, DW_AT_TI_symbol_name("_hMmcsd")
	.dwattr $C$DW$114, DW_AT_type(*$C$DW$T$130)
	.dwattr $C$DW$114, DW_AT_location[DW_OP_reg17]
$C$DW$115	.dwtag  DW_TAG_formal_parameter, DW_AT_name("maskValue")
	.dwattr $C$DW$115, DW_AT_TI_symbol_name("_maskValue")
	.dwattr $C$DW$115, DW_AT_type(*$C$DW$T$49)
	.dwattr $C$DW$115, DW_AT_location[DW_OP_reg0]
$C$DW$116	.dwtag  DW_TAG_formal_parameter, DW_AT_name("pStatus")
	.dwattr $C$DW$116, DW_AT_TI_symbol_name("_pStatus")
	.dwattr $C$DW$116, DW_AT_type(*$C$DW$T$133)
	.dwattr $C$DW$116, DW_AT_location[DW_OP_reg19]
;*******************************************************************************
;* FUNCTION NAME: MMC_getStatus                                                *
;*                                                                             *
;*   Function Uses Regs : AC0,AC0,AC1,AC1,T0,AR0,XAR0,AR1,XAR1,AR3,XAR3,SP,    *
;*                        CARRY,TC1,M40,SATA,SATD,RDM,FRCT,SMUL                *
;*   Stack Frame        : Compact (No Frame Pointer, w/ debug)                 *
;*   Total Frame Size   : 10 words                                             *
;*                        (2 return address/alignment)                         *
;*                        (8 local values)                                     *
;*   Min System Stack   : 1 word                                               *
;*******************************************************************************
_MMC_getStatus:
	.dwcfi	cfa_offset, 1
	.dwcfi	save_reg_to_mem, 91, -1
        AADD #-9, SP
	.dwcfi	cfa_offset, 10
$C$DW$117	.dwtag  DW_TAG_variable, DW_AT_name("hMmcsd")
	.dwattr $C$DW$117, DW_AT_TI_symbol_name("_hMmcsd")
	.dwattr $C$DW$117, DW_AT_type(*$C$DW$T$130)
	.dwattr $C$DW$117, DW_AT_location[DW_OP_bregx 0x24 0]
$C$DW$118	.dwtag  DW_TAG_variable, DW_AT_name("maskValue")
	.dwattr $C$DW$118, DW_AT_TI_symbol_name("_maskValue")
	.dwattr $C$DW$118, DW_AT_type(*$C$DW$T$49)
	.dwattr $C$DW$118, DW_AT_location[DW_OP_bregx 0x24 2]
$C$DW$119	.dwtag  DW_TAG_variable, DW_AT_name("pStatus")
	.dwattr $C$DW$119, DW_AT_TI_symbol_name("_pStatus")
	.dwattr $C$DW$119, DW_AT_type(*$C$DW$T$133)
	.dwattr $C$DW$119, DW_AT_location[DW_OP_bregx 0x24 4]
$C$DW$120	.dwtag  DW_TAG_variable, DW_AT_name("status")
	.dwattr $C$DW$120, DW_AT_TI_symbol_name("_status")
	.dwattr $C$DW$120, DW_AT_type(*$C$DW$T$49)
	.dwattr $C$DW$120, DW_AT_location[DW_OP_bregx 0x24 6]
        MOV XAR1, dbl(*SP(#4))
        MOV AC0, dbl(*SP(#2)) ; |1431| 
        MOV XAR0, dbl(*SP(#0))
	.dwpsn	file "src/csl_mmcsd.c",line 1434,column 5,is_stmt
        MOV dbl(*SP(#0)), XAR3

        MOV XAR3, AC0
||      MOV #0, AC1 ; |1434| 

        CMPU AC1 != AC0, TC1 ; |1434| 
        BCC $C$L83,TC1 ; |1434| 
                                        ; branchcc occurs ; |1434| 
	.dwpsn	file "src/csl_mmcsd.c",line 1436,column 9,is_stmt
        MOV dbl(*SP(#4)), XAR3
        MOV #-5, *AR3 ; |1436| 
	.dwpsn	file "src/csl_mmcsd.c",line 1437,column 5,is_stmt
        B $C$L84  ; |1437| 
                                        ; branch occurs ; |1437| 
$C$L83:    
	.dwpsn	file "src/csl_mmcsd.c",line 1440,column 9,is_stmt
        MOV dbl(*SP(#4)), XAR3
        MOV #0, *AR3 ; |1440| 
	.dwpsn	file "src/csl_mmcsd.c",line 1441,column 9,is_stmt
        MOV dbl(*SP(#0)), XAR3
        MOV *AR3, AR3 ; |1441| 
        AMOV #12, T0
        MOV uns(port(*AR3(T0))), AC0 ; |1441| 
        MOV AC0, dbl(*SP(#6)) ; |1441| 
	.dwpsn	file "src/csl_mmcsd.c",line 1442,column 9,is_stmt
        MOV dbl(*SP(#6)), AC0 ; |1442| 
        SFTL AC0, #16, AC0 ; |1442| 
        MOV AC0, dbl(*SP(#6)) ; |1442| 
	.dwpsn	file "src/csl_mmcsd.c",line 1443,column 9,is_stmt
        MOV dbl(*SP(#0)), XAR3
        MOV *AR3, AR3 ; |1443| 

        MOV dbl(*SP(#6)), AC0 ; |1443| 
||      AMOV #8, T0

        OR port(*AR3(T0)), AC0, AC0 ; |1443| 
        MOV AC0, dbl(*SP(#6)) ; |1443| 
	.dwpsn	file "src/csl_mmcsd.c",line 1444,column 9,is_stmt
        MOV dbl(*SP(#6)), AC1 ; |1444| 
        MOV dbl(*SP(#2)), AC0 ; |1444| 
        AND AC1, AC0 ; |1444| 
        MOV AC0, dbl(*SP(#6)) ; |1444| 
$C$L84:    
	.dwpsn	file "src/csl_mmcsd.c",line 1447,column 2,is_stmt
        MOV dbl(*SP(#6)), AC0 ; |1447| 
	.dwpsn	file "src/csl_mmcsd.c",line 1448,column 1,is_stmt
        AADD #9, SP
	.dwcfi	cfa_offset, 1
$C$DW$121	.dwtag  DW_TAG_TI_branch
	.dwattr $C$DW$121, DW_AT_low_pc(0x00)
	.dwattr $C$DW$121, DW_AT_TI_return
        RET
                                        ; return occurs
	.dwattr $C$DW$113, DW_AT_TI_end_file("src/csl_mmcsd.c")
	.dwattr $C$DW$113, DW_AT_TI_end_line(0x5a8)
	.dwattr $C$DW$113, DW_AT_TI_end_column(0x01)
	.dwendentry
	.dwendtag $C$DW$113

	.sect	".text"
	.global	_MMC_setupNative

$C$DW$122	.dwtag  DW_TAG_subprogram, DW_AT_name("MMC_setupNative")
	.dwattr $C$DW$122, DW_AT_low_pc(_MMC_setupNative)
	.dwattr $C$DW$122, DW_AT_high_pc(0x00)
	.dwattr $C$DW$122, DW_AT_TI_symbol_name("_MMC_setupNative")
	.dwattr $C$DW$122, DW_AT_external
	.dwattr $C$DW$122, DW_AT_type(*$C$DW$T$132)
	.dwattr $C$DW$122, DW_AT_TI_begin_file("src/csl_mmcsd.c")
	.dwattr $C$DW$122, DW_AT_TI_begin_line(0x5dd)
	.dwattr $C$DW$122, DW_AT_TI_begin_column(0x0c)
	.dwattr $C$DW$122, DW_AT_TI_max_frame_size(0x06)
	.dwpsn	file "src/csl_mmcsd.c",line 1503,column 1,is_stmt,address _MMC_setupNative

	.dwfde $C$DW$CIE, _MMC_setupNative
$C$DW$123	.dwtag  DW_TAG_formal_parameter, DW_AT_name("hMmcsd")
	.dwattr $C$DW$123, DW_AT_TI_symbol_name("_hMmcsd")
	.dwattr $C$DW$123, DW_AT_type(*$C$DW$T$130)
	.dwattr $C$DW$123, DW_AT_location[DW_OP_reg17]
$C$DW$124	.dwtag  DW_TAG_formal_parameter, DW_AT_name("pMmcInit")
	.dwattr $C$DW$124, DW_AT_TI_symbol_name("_pMmcInit")
	.dwattr $C$DW$124, DW_AT_type(*$C$DW$T$136)
	.dwattr $C$DW$124, DW_AT_location[DW_OP_reg19]
;*******************************************************************************
;* FUNCTION NAME: MMC_setupNative                                              *
;*                                                                             *
;*   Function Uses Regs : AC0,AC0,AC1,AC1,T0,AR0,XAR0,AR1,XAR1,AR2,AR3,XAR3,SP,*
;*                        CARRY,TC1,M40,SATA,SATD,RDM,FRCT,SMUL                *
;*   Stack Frame        : Compact (No Frame Pointer, w/ debug)                 *
;*   Total Frame Size   : 6 words                                              *
;*                        (2 return address/alignment)                         *
;*                        (4 local values)                                     *
;*   Min System Stack   : 1 word                                               *
;*******************************************************************************
_MMC_setupNative:
	.dwcfi	cfa_offset, 1
	.dwcfi	save_reg_to_mem, 91, -1
        AADD #-5, SP
	.dwcfi	cfa_offset, 6
$C$DW$125	.dwtag  DW_TAG_variable, DW_AT_name("hMmcsd")
	.dwattr $C$DW$125, DW_AT_TI_symbol_name("_hMmcsd")
	.dwattr $C$DW$125, DW_AT_type(*$C$DW$T$130)
	.dwattr $C$DW$125, DW_AT_location[DW_OP_bregx 0x24 0]
$C$DW$126	.dwtag  DW_TAG_variable, DW_AT_name("pMmcInit")
	.dwattr $C$DW$126, DW_AT_TI_symbol_name("_pMmcInit")
	.dwattr $C$DW$126, DW_AT_type(*$C$DW$T$136)
	.dwattr $C$DW$126, DW_AT_location[DW_OP_bregx 0x24 2]
        MOV XAR1, dbl(*SP(#2))
        MOV XAR0, dbl(*SP(#0))
	.dwpsn	file "src/csl_mmcsd.c",line 1506,column 5,is_stmt
        MOV dbl(*SP(#0)), XAR3

        MOV XAR3, AC0
||      MOV #0, AC1 ; |1506| 

        CMPU AC1 != AC0, TC1 ; |1506| 
        BCC $C$L85,TC1 ; |1506| 
                                        ; branchcc occurs ; |1506| 
	.dwpsn	file "src/csl_mmcsd.c",line 1508,column 9,is_stmt
        MOV #-5, T0
        B $C$L87  ; |1508| 
                                        ; branch occurs ; |1508| 
$C$L85:    
	.dwpsn	file "src/csl_mmcsd.c",line 1512,column 9,is_stmt
        MOV dbl(*SP(#2)), XAR3
        MOV XAR3, AC0
        CMPU AC1 != AC0, TC1 ; |1512| 
        BCC $C$L86,TC1 ; |1512| 
                                        ; branchcc occurs ; |1512| 
	.dwpsn	file "src/csl_mmcsd.c",line 1514,column 13,is_stmt
        MOV #-6, T0
        B $C$L87  ; |1514| 
                                        ; branch occurs ; |1514| 
$C$L86:    
	.dwpsn	file "src/csl_mmcsd.c",line 1523,column 13,is_stmt
        MOV dbl(*SP(#0)), XAR3
        MOV *AR3, AR3 ; |1523| 
        MOV port(*AR3(short(#4))), AR1 ; |1523| 
        MOV dbl(*SP(#0)), XAR3
        MOV *AR3, AR3 ; |1523| 
        BCLR @#8, AR1 ; |1523| 
        MOV AR1, port(*AR3(short(#4))) ; |1523| 
	.dwpsn	file "src/csl_mmcsd.c",line 1524,column 13,is_stmt
        MOV dbl(*SP(#0)), XAR3
        MOV *AR3, AR3 ; |1524| 
        MOV port(*AR3(short(#4))), AR1 ; |1524| 
        MOV dbl(*SP(#2)), XAR3
        AND #0xff00, AR1, AR2 ; |1524| 
        MOV uns(low_byte(*AR3(short(#3)))), AR1 ; |1524| 
        MOV dbl(*SP(#0)), XAR3
        MOV *AR3, AR3 ; |1524| 
        OR AR2, AR1 ; |1524| 
        MOV AR1, port(*AR3(short(#4))) ; |1524| 
	.dwpsn	file "src/csl_mmcsd.c",line 1526,column 13,is_stmt
        MOV dbl(*SP(#0)), XAR3
        MOV *AR3, AR3 ; |1526| 
        MOV port(*AR3(short(#4))), AR1 ; |1526| 
        MOV dbl(*SP(#2)), XAR3
        MOV *AR3(short(#1)), AC0 ; |1526| 
        MOV dbl(*SP(#0)), XAR3
        MOV *AR3, AR3 ; |1526| 

        AND #0xff3f, AR1, AR1 ; |1526| 
||      SFTL AC0, #6, AC0 ; |1526| 

        AND #0x00c0, AC0, AR2 ; |1526| 
        OR AR1, AR2 ; |1526| 
        MOV AR2, port(*AR3(short(#4))) ; |1526| 
	.dwpsn	file "src/csl_mmcsd.c",line 1529,column 13,is_stmt
        MOV dbl(*SP(#2)), XAR3
        MOV *AR3(short(#4)), AR1 ; |1529| 
        MOV dbl(*SP(#0)), XAR3
        MOV #20, T0 ; |1529| 
        MOV *AR3, AR3 ; |1529| 
        MOV AR1, port(*AR3(T0)) ; |1529| 
	.dwpsn	file "src/csl_mmcsd.c",line 1530,column 13,is_stmt
        MOV dbl(*SP(#2)), XAR3
        MOV *AR3(short(#5)), AR1 ; |1530| 
        MOV dbl(*SP(#0)), XAR3
        MOV #24, T0 ; |1530| 
        MOV *AR3, AR3 ; |1530| 
        MOV AR1, port(*AR3(T0)) ; |1530| 
	.dwpsn	file "src/csl_mmcsd.c",line 1531,column 13,is_stmt
        MOV dbl(*SP(#2)), XAR3
        MOV *AR3(short(#6)), AR1 ; |1531| 
        MOV dbl(*SP(#0)), XAR3
        MOV #28, T0 ; |1531| 
        MOV *AR3, AR3 ; |1531| 
        MOV AR1, port(*AR3(T0)) ; |1531| 
	.dwpsn	file "src/csl_mmcsd.c",line 1533,column 13,is_stmt
        MOV #0, T0
$C$L87:    
	.dwpsn	file "src/csl_mmcsd.c",line 1536,column 1,is_stmt
        AADD #5, SP
	.dwcfi	cfa_offset, 1
$C$DW$127	.dwtag  DW_TAG_TI_branch
	.dwattr $C$DW$127, DW_AT_low_pc(0x00)
	.dwattr $C$DW$127, DW_AT_TI_return
        RET
                                        ; return occurs
	.dwattr $C$DW$122, DW_AT_TI_end_file("src/csl_mmcsd.c")
	.dwattr $C$DW$122, DW_AT_TI_end_line(0x600)
	.dwattr $C$DW$122, DW_AT_TI_end_column(0x01)
	.dwendentry
	.dwendtag $C$DW$122

	.sect	".text"
	.global	_MMC_config

$C$DW$128	.dwtag  DW_TAG_subprogram, DW_AT_name("MMC_config")
	.dwattr $C$DW$128, DW_AT_low_pc(_MMC_config)
	.dwattr $C$DW$128, DW_AT_high_pc(0x00)
	.dwattr $C$DW$128, DW_AT_TI_symbol_name("_MMC_config")
	.dwattr $C$DW$128, DW_AT_external
	.dwattr $C$DW$128, DW_AT_type(*$C$DW$T$132)
	.dwattr $C$DW$128, DW_AT_TI_begin_file("src/csl_mmcsd.c")
	.dwattr $C$DW$128, DW_AT_TI_begin_line(0x637)
	.dwattr $C$DW$128, DW_AT_TI_begin_column(0x0c)
	.dwattr $C$DW$128, DW_AT_TI_max_frame_size(0x06)
	.dwpsn	file "src/csl_mmcsd.c",line 1593,column 1,is_stmt,address _MMC_config

	.dwfde $C$DW$CIE, _MMC_config
$C$DW$129	.dwtag  DW_TAG_formal_parameter, DW_AT_name("hMmcsd")
	.dwattr $C$DW$129, DW_AT_TI_symbol_name("_hMmcsd")
	.dwattr $C$DW$129, DW_AT_type(*$C$DW$T$130)
	.dwattr $C$DW$129, DW_AT_location[DW_OP_reg17]
$C$DW$130	.dwtag  DW_TAG_formal_parameter, DW_AT_name("pMmcConfig")
	.dwattr $C$DW$130, DW_AT_TI_symbol_name("_pMmcConfig")
	.dwattr $C$DW$130, DW_AT_type(*$C$DW$T$138)
	.dwattr $C$DW$130, DW_AT_location[DW_OP_reg19]
;*******************************************************************************
;* FUNCTION NAME: MMC_config                                                   *
;*                                                                             *
;*   Function Uses Regs : AC0,AC0,AC1,AC1,T0,AR0,XAR0,AR1,XAR1,AR3,XAR3,SP,TC1,*
;*                        M40,SATA,SATD,RDM,FRCT,SMUL                          *
;*   Stack Frame        : Compact (No Frame Pointer, w/ debug)                 *
;*   Total Frame Size   : 6 words                                              *
;*                        (2 return address/alignment)                         *
;*                        (4 local values)                                     *
;*   Min System Stack   : 1 word                                               *
;*******************************************************************************
_MMC_config:
	.dwcfi	cfa_offset, 1
	.dwcfi	save_reg_to_mem, 91, -1
        AADD #-5, SP
	.dwcfi	cfa_offset, 6
$C$DW$131	.dwtag  DW_TAG_variable, DW_AT_name("hMmcsd")
	.dwattr $C$DW$131, DW_AT_TI_symbol_name("_hMmcsd")
	.dwattr $C$DW$131, DW_AT_type(*$C$DW$T$130)
	.dwattr $C$DW$131, DW_AT_location[DW_OP_bregx 0x24 0]
$C$DW$132	.dwtag  DW_TAG_variable, DW_AT_name("pMmcConfig")
	.dwattr $C$DW$132, DW_AT_TI_symbol_name("_pMmcConfig")
	.dwattr $C$DW$132, DW_AT_type(*$C$DW$T$138)
	.dwattr $C$DW$132, DW_AT_location[DW_OP_bregx 0x24 2]
        MOV XAR1, dbl(*SP(#2))
        MOV XAR0, dbl(*SP(#0))
	.dwpsn	file "src/csl_mmcsd.c",line 1594,column 5,is_stmt
        MOV dbl(*SP(#0)), XAR3

        MOV XAR3, AC0
||      MOV #0, AC1 ; |1594| 

        CMPU AC1 != AC0, TC1 ; |1594| 
        BCC $C$L88,TC1 ; |1594| 
                                        ; branchcc occurs ; |1594| 
	.dwpsn	file "src/csl_mmcsd.c",line 1596,column 9,is_stmt
        MOV #-5, T0
        B $C$L90  ; |1596| 
                                        ; branch occurs ; |1596| 
$C$L88:    
	.dwpsn	file "src/csl_mmcsd.c",line 1600,column 9,is_stmt
        MOV dbl(*SP(#2)), XAR3
        MOV XAR3, AC0
        CMPU AC1 != AC0, TC1 ; |1600| 
        BCC $C$L89,TC1 ; |1600| 
                                        ; branchcc occurs ; |1600| 
	.dwpsn	file "src/csl_mmcsd.c",line 1602,column 13,is_stmt
        MOV #-6, T0
        B $C$L90  ; |1602| 
                                        ; branch occurs ; |1602| 
$C$L89:    
	.dwpsn	file "src/csl_mmcsd.c",line 1606,column 13,is_stmt
        MOV *AR3, AR1 ; |1606| 
        MOV dbl(*SP(#0)), XAR3
        MOV *AR3, AR3 ; |1606| 
        MOV AR1, port(*AR3) ; |1606| 
	.dwpsn	file "src/csl_mmcsd.c",line 1607,column 13,is_stmt
        MOV dbl(*SP(#2)), XAR3
        MOV *AR3(short(#1)), AR1 ; |1607| 
        MOV dbl(*SP(#0)), XAR3
        MOV *AR3, AR3 ; |1607| 
        MOV AR1, port(*AR3(short(#4))) ; |1607| 
	.dwpsn	file "src/csl_mmcsd.c",line 1608,column 13,is_stmt
        MOV dbl(*SP(#2)), XAR3
        MOV *AR3(short(#2)), AR1 ; |1608| 
        MOV dbl(*SP(#0)), XAR3
        MOV #16, T0 ; |1608| 
        MOV *AR3, AR3 ; |1608| 
        MOV AR1, port(*AR3(T0)) ; |1608| 
	.dwpsn	file "src/csl_mmcsd.c",line 1609,column 13,is_stmt
        MOV dbl(*SP(#2)), XAR3
        MOV *AR3(short(#3)), AR1 ; |1609| 
        MOV dbl(*SP(#0)), XAR3
        MOV #20, T0 ; |1609| 
        MOV *AR3, AR3 ; |1609| 
        MOV AR1, port(*AR3(T0)) ; |1609| 
	.dwpsn	file "src/csl_mmcsd.c",line 1610,column 13,is_stmt
        MOV dbl(*SP(#2)), XAR3
        MOV *AR3(short(#4)), AR1 ; |1610| 
        MOV dbl(*SP(#0)), XAR3
        MOV #24, T0 ; |1610| 
        MOV *AR3, AR3 ; |1610| 
        MOV AR1, port(*AR3(T0)) ; |1610| 
	.dwpsn	file "src/csl_mmcsd.c",line 1611,column 13,is_stmt
        MOV dbl(*SP(#2)), XAR3
        MOV *AR3(short(#5)), AR1 ; |1611| 
        MOV dbl(*SP(#0)), XAR3
        MOV #28, T0 ; |1611| 
        MOV *AR3, AR3 ; |1611| 
        MOV AR1, port(*AR3(T0)) ; |1611| 
	.dwpsn	file "src/csl_mmcsd.c",line 1612,column 13,is_stmt
        MOV dbl(*SP(#2)), XAR3
        MOV *AR3(short(#6)), AR1 ; |1612| 
        MOV dbl(*SP(#0)), XAR3
        MOV #32, T0 ; |1612| 
        MOV *AR3, AR3 ; |1612| 
        MOV AR1, port(*AR3(T0)) ; |1612| 
	.dwpsn	file "src/csl_mmcsd.c",line 1613,column 13,is_stmt
        MOV #0, T0
$C$L90:    
	.dwpsn	file "src/csl_mmcsd.c",line 1616,column 1,is_stmt
        AADD #5, SP
	.dwcfi	cfa_offset, 1
$C$DW$133	.dwtag  DW_TAG_TI_branch
	.dwattr $C$DW$133, DW_AT_low_pc(0x00)
	.dwattr $C$DW$133, DW_AT_TI_return
        RET
                                        ; return occurs
	.dwattr $C$DW$128, DW_AT_TI_end_file("src/csl_mmcsd.c")
	.dwattr $C$DW$128, DW_AT_TI_end_line(0x650)
	.dwattr $C$DW$128, DW_AT_TI_end_column(0x01)
	.dwendentry
	.dwendtag $C$DW$128

	.sect	".text"
	.global	_MMC_getConfig

$C$DW$134	.dwtag  DW_TAG_subprogram, DW_AT_name("MMC_getConfig")
	.dwattr $C$DW$134, DW_AT_low_pc(_MMC_getConfig)
	.dwattr $C$DW$134, DW_AT_high_pc(0x00)
	.dwattr $C$DW$134, DW_AT_TI_symbol_name("_MMC_getConfig")
	.dwattr $C$DW$134, DW_AT_external
	.dwattr $C$DW$134, DW_AT_type(*$C$DW$T$132)
	.dwattr $C$DW$134, DW_AT_TI_begin_file("src/csl_mmcsd.c")
	.dwattr $C$DW$134, DW_AT_TI_begin_line(0x67e)
	.dwattr $C$DW$134, DW_AT_TI_begin_column(0x0c)
	.dwattr $C$DW$134, DW_AT_TI_max_frame_size(0x06)
	.dwpsn	file "src/csl_mmcsd.c",line 1664,column 1,is_stmt,address _MMC_getConfig

	.dwfde $C$DW$CIE, _MMC_getConfig
$C$DW$135	.dwtag  DW_TAG_formal_parameter, DW_AT_name("hMmcsd")
	.dwattr $C$DW$135, DW_AT_TI_symbol_name("_hMmcsd")
	.dwattr $C$DW$135, DW_AT_type(*$C$DW$T$130)
	.dwattr $C$DW$135, DW_AT_location[DW_OP_reg17]
$C$DW$136	.dwtag  DW_TAG_formal_parameter, DW_AT_name("pMmcConfig")
	.dwattr $C$DW$136, DW_AT_TI_symbol_name("_pMmcConfig")
	.dwattr $C$DW$136, DW_AT_type(*$C$DW$T$138)
	.dwattr $C$DW$136, DW_AT_location[DW_OP_reg19]
;*******************************************************************************
;* FUNCTION NAME: MMC_getConfig                                                *
;*                                                                             *
;*   Function Uses Regs : AC0,AC0,AC1,AC1,T0,AR0,XAR0,AR1,XAR1,AR3,XAR3,SP,TC1,*
;*                        M40,SATA,SATD,RDM,FRCT,SMUL                          *
;*   Stack Frame        : Compact (No Frame Pointer, w/ debug)                 *
;*   Total Frame Size   : 6 words                                              *
;*                        (2 return address/alignment)                         *
;*                        (4 local values)                                     *
;*   Min System Stack   : 1 word                                               *
;*******************************************************************************
_MMC_getConfig:
	.dwcfi	cfa_offset, 1
	.dwcfi	save_reg_to_mem, 91, -1
        AADD #-5, SP
	.dwcfi	cfa_offset, 6
$C$DW$137	.dwtag  DW_TAG_variable, DW_AT_name("hMmcsd")
	.dwattr $C$DW$137, DW_AT_TI_symbol_name("_hMmcsd")
	.dwattr $C$DW$137, DW_AT_type(*$C$DW$T$130)
	.dwattr $C$DW$137, DW_AT_location[DW_OP_bregx 0x24 0]
$C$DW$138	.dwtag  DW_TAG_variable, DW_AT_name("pMmcConfig")
	.dwattr $C$DW$138, DW_AT_TI_symbol_name("_pMmcConfig")
	.dwattr $C$DW$138, DW_AT_type(*$C$DW$T$138)
	.dwattr $C$DW$138, DW_AT_location[DW_OP_bregx 0x24 2]
        MOV XAR1, dbl(*SP(#2))
        MOV XAR0, dbl(*SP(#0))
	.dwpsn	file "src/csl_mmcsd.c",line 1665,column 5,is_stmt
        MOV dbl(*SP(#0)), XAR3

        MOV XAR3, AC0
||      MOV #0, AC1 ; |1665| 

        CMPU AC1 != AC0, TC1 ; |1665| 
        BCC $C$L91,TC1 ; |1665| 
                                        ; branchcc occurs ; |1665| 
	.dwpsn	file "src/csl_mmcsd.c",line 1667,column 9,is_stmt
        MOV #-5, T0
        B $C$L93  ; |1667| 
                                        ; branch occurs ; |1667| 
$C$L91:    
	.dwpsn	file "src/csl_mmcsd.c",line 1671,column 9,is_stmt
        MOV dbl(*SP(#2)), XAR3
        MOV XAR3, AC0
        CMPU AC1 != AC0, TC1 ; |1671| 
        BCC $C$L92,TC1 ; |1671| 
                                        ; branchcc occurs ; |1671| 
	.dwpsn	file "src/csl_mmcsd.c",line 1673,column 13,is_stmt
        MOV #-6, T0
        B $C$L93  ; |1673| 
                                        ; branch occurs ; |1673| 
$C$L92:    
	.dwpsn	file "src/csl_mmcsd.c",line 1677,column 13,is_stmt
        MOV dbl(*SP(#0)), XAR3
        MOV *AR3, AR3 ; |1677| 
        MOV port(*AR3), AR1 ; |1677| 
        MOV dbl(*SP(#2)), XAR3
        MOV AR1, *AR3 ; |1677| 
	.dwpsn	file "src/csl_mmcsd.c",line 1678,column 13,is_stmt
        MOV dbl(*SP(#0)), XAR3
        MOV *AR3, AR3 ; |1678| 
        MOV port(*AR3(short(#4))), AR1 ; |1678| 
        MOV dbl(*SP(#2)), XAR3
        MOV AR1, *AR3(short(#1)) ; |1678| 
	.dwpsn	file "src/csl_mmcsd.c",line 1679,column 13,is_stmt
        MOV dbl(*SP(#0)), XAR3
        MOV #16, T0 ; |1679| 
        MOV *AR3, AR3 ; |1679| 
        MOV port(*AR3(T0)), AR1 ; |1679| 
        MOV dbl(*SP(#2)), XAR3
        MOV AR1, *AR3(short(#2)) ; |1679| 
	.dwpsn	file "src/csl_mmcsd.c",line 1680,column 13,is_stmt
        MOV dbl(*SP(#0)), XAR3
        MOV #20, T0 ; |1680| 
        MOV *AR3, AR3 ; |1680| 
        MOV port(*AR3(T0)), AR1 ; |1680| 
        MOV dbl(*SP(#2)), XAR3
        MOV AR1, *AR3(short(#3)) ; |1680| 
	.dwpsn	file "src/csl_mmcsd.c",line 1681,column 13,is_stmt
        MOV dbl(*SP(#0)), XAR3
        MOV #24, T0 ; |1681| 
        MOV *AR3, AR3 ; |1681| 
        MOV port(*AR3(T0)), AR1 ; |1681| 
        MOV dbl(*SP(#2)), XAR3
        MOV AR1, *AR3(short(#4)) ; |1681| 
	.dwpsn	file "src/csl_mmcsd.c",line 1682,column 13,is_stmt
        MOV dbl(*SP(#0)), XAR3
        MOV #28, T0 ; |1682| 
        MOV *AR3, AR3 ; |1682| 
        MOV port(*AR3(T0)), AR1 ; |1682| 
        MOV dbl(*SP(#2)), XAR3
        MOV AR1, *AR3(short(#5)) ; |1682| 
	.dwpsn	file "src/csl_mmcsd.c",line 1683,column 13,is_stmt
        MOV dbl(*SP(#0)), XAR3
        MOV #32, T0 ; |1683| 
        MOV *AR3, AR3 ; |1683| 
        MOV port(*AR3(T0)), AR1 ; |1683| 
        MOV dbl(*SP(#2)), XAR3
        MOV AR1, *AR3(short(#6)) ; |1683| 
	.dwpsn	file "src/csl_mmcsd.c",line 1684,column 13,is_stmt
        MOV #0, T0
$C$L93:    
	.dwpsn	file "src/csl_mmcsd.c",line 1687,column 1,is_stmt
        AADD #5, SP
	.dwcfi	cfa_offset, 1
$C$DW$139	.dwtag  DW_TAG_TI_branch
	.dwattr $C$DW$139, DW_AT_low_pc(0x00)
	.dwattr $C$DW$139, DW_AT_TI_return
        RET
                                        ; return occurs
	.dwattr $C$DW$134, DW_AT_TI_end_file("src/csl_mmcsd.c")
	.dwattr $C$DW$134, DW_AT_TI_end_line(0x697)
	.dwattr $C$DW$134, DW_AT_TI_end_column(0x01)
	.dwendentry
	.dwendtag $C$DW$134

	.sect	".text"
	.global	_MMC_sendCmd

$C$DW$140	.dwtag  DW_TAG_subprogram, DW_AT_name("MMC_sendCmd")
	.dwattr $C$DW$140, DW_AT_low_pc(_MMC_sendCmd)
	.dwattr $C$DW$140, DW_AT_high_pc(0x00)
	.dwattr $C$DW$140, DW_AT_TI_symbol_name("_MMC_sendCmd")
	.dwattr $C$DW$140, DW_AT_external
	.dwattr $C$DW$140, DW_AT_type(*$C$DW$T$131)
	.dwattr $C$DW$140, DW_AT_TI_begin_file("src/csl_mmcsd.c")
	.dwattr $C$DW$140, DW_AT_TI_begin_line(0x6d4)
	.dwattr $C$DW$140, DW_AT_TI_begin_column(0x07)
	.dwattr $C$DW$140, DW_AT_TI_max_frame_size(0x0a)
	.dwpsn	file "src/csl_mmcsd.c",line 1752,column 1,is_stmt,address _MMC_sendCmd

	.dwfde $C$DW$CIE, _MMC_sendCmd
$C$DW$141	.dwtag  DW_TAG_formal_parameter, DW_AT_name("hMmcsd")
	.dwattr $C$DW$141, DW_AT_TI_symbol_name("_hMmcsd")
	.dwattr $C$DW$141, DW_AT_type(*$C$DW$T$130)
	.dwattr $C$DW$141, DW_AT_location[DW_OP_reg17]
$C$DW$142	.dwtag  DW_TAG_formal_parameter, DW_AT_name("cmd")
	.dwattr $C$DW$142, DW_AT_TI_symbol_name("_cmd")
	.dwattr $C$DW$142, DW_AT_type(*$C$DW$T$49)
	.dwattr $C$DW$142, DW_AT_location[DW_OP_reg0]
$C$DW$143	.dwtag  DW_TAG_formal_parameter, DW_AT_name("arg")
	.dwattr $C$DW$143, DW_AT_TI_symbol_name("_arg")
	.dwattr $C$DW$143, DW_AT_type(*$C$DW$T$49)
	.dwattr $C$DW$143, DW_AT_location[DW_OP_reg3]
$C$DW$144	.dwtag  DW_TAG_formal_parameter, DW_AT_name("eventFlags")
	.dwattr $C$DW$144, DW_AT_TI_symbol_name("_eventFlags")
	.dwattr $C$DW$144, DW_AT_type(*$C$DW$T$19)
	.dwattr $C$DW$144, DW_AT_location[DW_OP_reg12]
;*******************************************************************************
;* FUNCTION NAME: MMC_sendCmd                                                  *
;*                                                                             *
;*   Function Uses Regs : AC0,AC0,AC1,AC1,T0,AR0,XAR0,AR1,AR3,XAR3,SP,CARRY,   *
;*                        TC1,M40,SATA,SATD,RDM,FRCT,SMUL                      *
;*   Stack Frame        : Compact (No Frame Pointer, w/ debug)                 *
;*   Total Frame Size   : 10 words                                             *
;*                        (1 return address/alignment)                         *
;*                        (9 local values)                                     *
;*   Min System Stack   : 1 word                                               *
;*******************************************************************************
_MMC_sendCmd:
	.dwcfi	cfa_offset, 1
	.dwcfi	save_reg_to_mem, 91, -1
        AADD #-9, SP
	.dwcfi	cfa_offset, 10
$C$DW$145	.dwtag  DW_TAG_variable, DW_AT_name("hMmcsd")
	.dwattr $C$DW$145, DW_AT_TI_symbol_name("_hMmcsd")
	.dwattr $C$DW$145, DW_AT_type(*$C$DW$T$130)
	.dwattr $C$DW$145, DW_AT_location[DW_OP_bregx 0x24 0]
$C$DW$146	.dwtag  DW_TAG_variable, DW_AT_name("cmd")
	.dwattr $C$DW$146, DW_AT_TI_symbol_name("_cmd")
	.dwattr $C$DW$146, DW_AT_type(*$C$DW$T$49)
	.dwattr $C$DW$146, DW_AT_location[DW_OP_bregx 0x24 2]
$C$DW$147	.dwtag  DW_TAG_variable, DW_AT_name("arg")
	.dwattr $C$DW$147, DW_AT_TI_symbol_name("_arg")
	.dwattr $C$DW$147, DW_AT_type(*$C$DW$T$49)
	.dwattr $C$DW$147, DW_AT_location[DW_OP_bregx 0x24 4]
$C$DW$148	.dwtag  DW_TAG_variable, DW_AT_name("eventFlags")
	.dwattr $C$DW$148, DW_AT_TI_symbol_name("_eventFlags")
	.dwattr $C$DW$148, DW_AT_type(*$C$DW$T$19)
	.dwattr $C$DW$148, DW_AT_location[DW_OP_bregx 0x24 6]
$C$DW$149	.dwtag  DW_TAG_variable, DW_AT_name("status")
	.dwattr $C$DW$149, DW_AT_TI_symbol_name("_status")
	.dwattr $C$DW$149, DW_AT_type(*$C$DW$T$20)
	.dwattr $C$DW$149, DW_AT_location[DW_OP_bregx 0x24 7]
$C$DW$150	.dwtag  DW_TAG_variable, DW_AT_name("saved")
	.dwattr $C$DW$150, DW_AT_TI_symbol_name("_saved")
	.dwattr $C$DW$150, DW_AT_type(*$C$DW$T$19)
	.dwattr $C$DW$150, DW_AT_location[DW_OP_bregx 0x24 8]
        MOV T0, *SP(#6) ; |1752| 
        MOV AC1, dbl(*SP(#4)) ; |1752| 
        MOV AC0, dbl(*SP(#2)) ; |1752| 
        MOV XAR0, dbl(*SP(#0))
	.dwpsn	file "src/csl_mmcsd.c",line 1756,column 5,is_stmt
        MOV dbl(*SP(#0)), XAR3

        MOV XAR3, AC0
||      MOV #0, AC1 ; |1756| 

        CMPU AC1 != AC0, TC1 ; |1756| 
        BCC $C$L94,TC1 ; |1756| 
                                        ; branchcc occurs ; |1756| 
	.dwpsn	file "src/csl_mmcsd.c",line 1758,column 9,is_stmt
        MOV #-5, T0
        B $C$L100 ; |1758| 
                                        ; branch occurs ; |1758| 
$C$L94:    
	.dwpsn	file "src/csl_mmcsd.c",line 1763,column 3,is_stmt
$C$DW$151	.dwtag  DW_TAG_TI_branch
	.dwattr $C$DW$151, DW_AT_low_pc(0x00)
	.dwattr $C$DW$151, DW_AT_name("_IRQ_globalDisable")
	.dwattr $C$DW$151, DW_AT_TI_call
        CALL #_IRQ_globalDisable ; |1763| 
                                        ; call occurs [#_IRQ_globalDisable] ; |1763| 
        MOV T0, *SP(#8) ; |1763| 
	.dwpsn	file "src/csl_mmcsd.c",line 1765,column 9,is_stmt
        MOV dbl(*SP(#0)), XAR3
        MOV #52, T0 ; |1765| 
        MOV *AR3, AR3 ; |1765| 
        MOV port(*AR3(T0)), AR1 ; |1765| 
        MOV dbl(*SP(#0)), XAR3
        MOV *AR3, AR3 ; |1765| 
        MOV dbl(*SP(#4)), AC0 ; |1765| 
        AND #0xffff, AC0, AC0 ; |1765| 
        OR #0x0000, AC0, AC0 ; |1765| 
        MOV AC0, port(*AR3(T0)) ; |1765| 
	.dwpsn	file "src/csl_mmcsd.c",line 1767,column 9,is_stmt
        MOV dbl(*SP(#0)), XAR3
        MOV #53, T0 ; |1767| 
        MOV *AR3, AR3 ; |1767| 
        MOV port(*AR3(T0)), AR1 ; |1767| 
        MOV dbl(*SP(#0)), XAR3
        MOV *AR3, AR3 ; |1767| 
        MOV dbl(*SP(#4)), AC0 ; |1767| 
        SFTL AC0, #-16, AC0 ; |1767| 
        AND #0xffff, AC0, AC0 ; |1767| 
        OR #0x0000, AC0, AC0 ; |1767| 
        MOV AC0, port(*AR3(T0)) ; |1767| 
	.dwpsn	file "src/csl_mmcsd.c",line 1770,column 6,is_stmt
        MOV *SP(#8), T0 ; |1770| 
$C$DW$152	.dwtag  DW_TAG_TI_branch
	.dwattr $C$DW$152, DW_AT_low_pc(0x00)
	.dwattr $C$DW$152, DW_AT_name("_IRQ_globalRestore")
	.dwattr $C$DW$152, DW_AT_TI_call
        CALL #_IRQ_globalRestore ; |1770| 
                                        ; call occurs [#_IRQ_globalRestore] ; |1770| 
	.dwpsn	file "src/csl_mmcsd.c",line 1772,column 9,is_stmt
        MOV dbl(*SP(#0)), XAR3
        MOV #48, T0 ; |1772| 
        MOV *AR3, AR3 ; |1772| 
        MOV dbl(*SP(#2)), AC0 ; |1772| 
        AND #0xffff, AC0, AC0 ; |1772| 
        MOV AC0, port(*AR3(T0)) ; |1772| 
	.dwpsn	file "src/csl_mmcsd.c",line 1774,column 3,is_stmt
        MOV dbl(*SP(#2)), AC0 ; |1774| 
        SFTL AC0, #-16, AC0 ; |1774| 
        AND #0xffff, AC0, AC0 ; |1774| 
        MOV AC0, dbl(*SP(#2)) ; |1774| 
	.dwpsn	file "src/csl_mmcsd.c",line 1780,column 3,is_stmt

        MOV dbl(*SP(#2)), AC0 ; |1780| 
||      MOV #0, AC1 ; |1780| 

        CMPU AC1 == AC0, TC1 ; |1780| 
        BCC $C$L95,TC1 ; |1780| 
                                        ; branchcc occurs ; |1780| 
	.dwpsn	file "src/csl_mmcsd.c",line 1782,column 4,is_stmt
        MOV dbl(*SP(#0)), XAR3
        MOV #49, T0 ; |1782| 
        MOV *AR3, AR3 ; |1782| 
        MOV dbl(*SP(#2)), AC0 ; |1782| 
        OR port(*AR3(T0)), AC0, AC0 ; |1782| 
        MOV AC0, port(*AR3(T0)) ; |1782| 
$C$L95:    
	.dwpsn	file "src/csl_mmcsd.c",line 1785,column 6,is_stmt
        MOV *SP(#6), AR1 ; |1785| 
        BCC $C$L99,AR1 == #0 ; |1785| 
                                        ; branchcc occurs ; |1785| 
$C$L96:    
$C$DW$L$_MMC_sendCmd$7$B:
	.dwpsn	file "src/csl_mmcsd.c",line 1789,column 5,is_stmt
        MOV dbl(*SP(#0)), XAR3
        MOV *AR3, AR3 ; |1789| 
        AMOV #8, T0
        MOV port(*AR3(T0)), AR1 ; |1789| 
        MOV AR1, *SP(#7) ; |1789| 
        NOP
        NOP
        NOP
	.dwpsn	file "src/csl_mmcsd.c",line 1790,column 5,is_stmt
        BAND *SP(#7), #144, TC1 ; |1790| 
        BCC $C$L98,!TC1 ; |1790| 
                                        ; branchcc occurs ; |1790| 
$C$DW$L$_MMC_sendCmd$7$E:
	.dwpsn	file "src/csl_mmcsd.c",line 1792,column 6,is_stmt
        BTST #4, *SP(#7), TC1 ; |1792| 
        BCC $C$L97,!TC1 ; |1792| 
                                        ; branchcc occurs ; |1792| 
	.dwpsn	file "src/csl_mmcsd.c",line 1794,column 7,is_stmt
        MOV #-10, T0
        B $C$L100 ; |1794| 
                                        ; branch occurs ; |1794| 
$C$L97:    
	.dwpsn	file "src/csl_mmcsd.c",line 1798,column 7,is_stmt
        MOV #-15, T0
        B $C$L100 ; |1798| 
                                        ; branch occurs ; |1798| 
$C$L98:    
$C$DW$L$_MMC_sendCmd$12$B:
	.dwpsn	file "src/csl_mmcsd.c",line 1801,column 12,is_stmt
        MOV *SP(#6), AR1 ; |1801| 
        AND *SP(#7), AR1, AR1 ; |1801| 
        BCC $C$L96,AR1 == #0 ; |1801| 
                                        ; branchcc occurs ; |1801| 
$C$DW$L$_MMC_sendCmd$12$E:
$C$L99:    
	.dwpsn	file "src/csl_mmcsd.c",line 1804,column 9,is_stmt
        MOV #0, T0
$C$L100:    
	.dwpsn	file "src/csl_mmcsd.c",line 1806,column 1,is_stmt
        AADD #9, SP
	.dwcfi	cfa_offset, 1
$C$DW$153	.dwtag  DW_TAG_TI_branch
	.dwattr $C$DW$153, DW_AT_low_pc(0x00)
	.dwattr $C$DW$153, DW_AT_TI_return
        RET
                                        ; return occurs

$C$DW$154	.dwtag  DW_TAG_TI_loop
	.dwattr $C$DW$154, DW_AT_name("/home/santiago/dspfuzz/on_board/library/csl_mmcsd.asm:$C$L96:1:1714639441")
	.dwattr $C$DW$154, DW_AT_TI_begin_file("src/csl_mmcsd.c")
	.dwattr $C$DW$154, DW_AT_TI_begin_line(0x6fb)
	.dwattr $C$DW$154, DW_AT_TI_end_line(0x709)
$C$DW$155	.dwtag  DW_TAG_TI_loop_range
	.dwattr $C$DW$155, DW_AT_low_pc($C$DW$L$_MMC_sendCmd$7$B)
	.dwattr $C$DW$155, DW_AT_high_pc($C$DW$L$_MMC_sendCmd$7$E)
$C$DW$156	.dwtag  DW_TAG_TI_loop_range
	.dwattr $C$DW$156, DW_AT_low_pc($C$DW$L$_MMC_sendCmd$12$B)
	.dwattr $C$DW$156, DW_AT_high_pc($C$DW$L$_MMC_sendCmd$12$E)
	.dwendtag $C$DW$154

	.dwattr $C$DW$140, DW_AT_TI_end_file("src/csl_mmcsd.c")
	.dwattr $C$DW$140, DW_AT_TI_end_line(0x70e)
	.dwattr $C$DW$140, DW_AT_TI_end_column(0x01)
	.dwendentry
	.dwendtag $C$DW$140

	.sect	".text"
	.global	_MMC_sendGoIdle

$C$DW$157	.dwtag  DW_TAG_subprogram, DW_AT_name("MMC_sendGoIdle")
	.dwattr $C$DW$157, DW_AT_low_pc(_MMC_sendGoIdle)
	.dwattr $C$DW$157, DW_AT_high_pc(0x00)
	.dwattr $C$DW$157, DW_AT_TI_symbol_name("_MMC_sendGoIdle")
	.dwattr $C$DW$157, DW_AT_external
	.dwattr $C$DW$157, DW_AT_type(*$C$DW$T$132)
	.dwattr $C$DW$157, DW_AT_TI_begin_file("src/csl_mmcsd.c")
	.dwattr $C$DW$157, DW_AT_TI_begin_line(0x739)
	.dwattr $C$DW$157, DW_AT_TI_begin_column(0x0c)
	.dwattr $C$DW$157, DW_AT_TI_max_frame_size(0x04)
	.dwpsn	file "src/csl_mmcsd.c",line 1850,column 1,is_stmt,address _MMC_sendGoIdle

	.dwfde $C$DW$CIE, _MMC_sendGoIdle
$C$DW$158	.dwtag  DW_TAG_formal_parameter, DW_AT_name("hMmcsd")
	.dwattr $C$DW$158, DW_AT_TI_symbol_name("_hMmcsd")
	.dwattr $C$DW$158, DW_AT_type(*$C$DW$T$130)
	.dwattr $C$DW$158, DW_AT_location[DW_OP_reg17]
;*******************************************************************************
;* FUNCTION NAME: MMC_sendGoIdle                                               *
;*                                                                             *
;*   Function Uses Regs : AC0,AC0,AC1,AC1,T0,AR0,XAR0,AR1,AR3,XAR3,SP,TC1,M40, *
;*                        SATA,SATD,RDM,FRCT,SMUL                              *
;*   Stack Frame        : Compact (No Frame Pointer, w/ debug)                 *
;*   Total Frame Size   : 4 words                                              *
;*                        (1 return address/alignment)                         *
;*                        (3 local values)                                     *
;*   Min System Stack   : 1 word                                               *
;*******************************************************************************
_MMC_sendGoIdle:
	.dwcfi	cfa_offset, 1
	.dwcfi	save_reg_to_mem, 91, -1
        AADD #-3, SP
	.dwcfi	cfa_offset, 4
$C$DW$159	.dwtag  DW_TAG_variable, DW_AT_name("hMmcsd")
	.dwattr $C$DW$159, DW_AT_TI_symbol_name("_hMmcsd")
	.dwattr $C$DW$159, DW_AT_type(*$C$DW$T$130)
	.dwattr $C$DW$159, DW_AT_location[DW_OP_bregx 0x24 0]
$C$DW$160	.dwtag  DW_TAG_variable, DW_AT_name("goIdleCmd")
	.dwattr $C$DW$160, DW_AT_TI_symbol_name("_goIdleCmd")
	.dwattr $C$DW$160, DW_AT_type(*$C$DW$T$20)
	.dwattr $C$DW$160, DW_AT_location[DW_OP_bregx 0x24 2]
        MOV XAR0, dbl(*SP(#0))
	.dwpsn	file "src/csl_mmcsd.c",line 1853,column 2,is_stmt
        MOV #0, *SP(#2) ; |1853| 
	.dwpsn	file "src/csl_mmcsd.c",line 1855,column 5,is_stmt
        MOV dbl(*SP(#0)), XAR3

        MOV XAR3, AC0
||      MOV #0, AC1 ; |1855| 

        CMPU AC1 != AC0, TC1 ; |1855| 
        BCC $C$L101,TC1 ; |1855| 
                                        ; branchcc occurs ; |1855| 
	.dwpsn	file "src/csl_mmcsd.c",line 1857,column 9,is_stmt
        MOV #-5, T0
        B $C$L102 ; |1857| 
                                        ; branch occurs ; |1857| 
$C$L101:    
	.dwpsn	file "src/csl_mmcsd.c",line 1862,column 9,is_stmt
        MOV *SP(#2), AR1 ; |1862| 
        BCLR @#15, AR1 ; |1862| 
        BSET @#15, AR1 ; |1862| 
        MOV AR1, *SP(#2) ; |1862| 
        NOP
        NOP
        NOP
	.dwpsn	file "src/csl_mmcsd.c",line 1863,column 9,is_stmt
        MOV *SP(#2), AR1 ; |1863| 
        BCLR @#14, AR1 ; |1863| 
        BSET @#14, AR1 ; |1863| 
        MOV AR1, *SP(#2) ; |1863| 
	.dwpsn	file "src/csl_mmcsd.c",line 1864,column 9,is_stmt
        AND #0xdfff, *SP(#2) ; |1864| 
	.dwpsn	file "src/csl_mmcsd.c",line 1865,column 9,is_stmt
        AND #0xefff, *SP(#2) ; |1865| 
	.dwpsn	file "src/csl_mmcsd.c",line 1866,column 9,is_stmt
        AND #0xf7ff, *SP(#2) ; |1866| 
	.dwpsn	file "src/csl_mmcsd.c",line 1867,column 9,is_stmt
        AND #0xf9ff, *SP(#2) ; |1867| 
	.dwpsn	file "src/csl_mmcsd.c",line 1868,column 9,is_stmt
        AND #0xfeff, *SP(#2) ; |1868| 
	.dwpsn	file "src/csl_mmcsd.c",line 1869,column 9,is_stmt
        AND #0xff7f, *SP(#2) ; |1869| 
	.dwpsn	file "src/csl_mmcsd.c",line 1870,column 9,is_stmt
        AND #0xffc0, *SP(#2) ; |1870| 
        NOP
        NOP
	.dwpsn	file "src/csl_mmcsd.c",line 1872,column 3,is_stmt
        MOV dbl(*SP(#0)), XAR0
        MOV uns(*SP(#2)), AC0 ; |1872| 
$C$DW$161	.dwtag  DW_TAG_TI_branch
	.dwattr $C$DW$161, DW_AT_low_pc(0x00)
	.dwattr $C$DW$161, DW_AT_name("_MMC_sendCmd")
	.dwattr $C$DW$161, DW_AT_TI_call

        CALL #_MMC_sendCmd ; |1872| 
||      MOV #0, T0

                                        ; call occurs [#_MMC_sendCmd] ; |1872| 
	.dwpsn	file "src/csl_mmcsd.c",line 1876,column 9,is_stmt
        MOV #0, T0
$C$L102:    
	.dwpsn	file "src/csl_mmcsd.c",line 1878,column 1,is_stmt
        AADD #3, SP
	.dwcfi	cfa_offset, 1
$C$DW$162	.dwtag  DW_TAG_TI_branch
	.dwattr $C$DW$162, DW_AT_low_pc(0x00)
	.dwattr $C$DW$162, DW_AT_TI_return
        RET
                                        ; return occurs
	.dwattr $C$DW$157, DW_AT_TI_end_file("src/csl_mmcsd.c")
	.dwattr $C$DW$157, DW_AT_TI_end_line(0x756)
	.dwattr $C$DW$157, DW_AT_TI_end_column(0x01)
	.dwendentry
	.dwendtag $C$DW$157

	.sect	".text"
	.global	_MMC_stop

$C$DW$163	.dwtag  DW_TAG_subprogram, DW_AT_name("MMC_stop")
	.dwattr $C$DW$163, DW_AT_low_pc(_MMC_stop)
	.dwattr $C$DW$163, DW_AT_high_pc(0x00)
	.dwattr $C$DW$163, DW_AT_TI_symbol_name("_MMC_stop")
	.dwattr $C$DW$163, DW_AT_external
	.dwattr $C$DW$163, DW_AT_type(*$C$DW$T$132)
	.dwattr $C$DW$163, DW_AT_TI_begin_file("src/csl_mmcsd.c")
	.dwattr $C$DW$163, DW_AT_TI_begin_line(0x788)
	.dwattr $C$DW$163, DW_AT_TI_begin_column(0x0c)
	.dwattr $C$DW$163, DW_AT_TI_max_frame_size(0x06)
	.dwpsn	file "src/csl_mmcsd.c",line 1929,column 1,is_stmt,address _MMC_stop

	.dwfde $C$DW$CIE, _MMC_stop
$C$DW$164	.dwtag  DW_TAG_formal_parameter, DW_AT_name("hMmcsd")
	.dwattr $C$DW$164, DW_AT_TI_symbol_name("_hMmcsd")
	.dwattr $C$DW$164, DW_AT_type(*$C$DW$T$130)
	.dwattr $C$DW$164, DW_AT_location[DW_OP_reg17]
;*******************************************************************************
;* FUNCTION NAME: MMC_stop                                                     *
;*                                                                             *
;*   Function Uses Regs : AC0,AC0,AC1,AC1,T0,AR0,XAR0,AR1,AR2,AR3,XAR3,SP,TC1, *
;*                        M40,SATA,SATD,RDM,FRCT,SMUL                          *
;*   Stack Frame        : Compact (No Frame Pointer, w/ debug)                 *
;*   Total Frame Size   : 6 words                                              *
;*                        (1 return address/alignment)                         *
;*                        (5 local values)                                     *
;*   Min System Stack   : 1 word                                               *
;*******************************************************************************
_MMC_stop:
	.dwcfi	cfa_offset, 1
	.dwcfi	save_reg_to_mem, 91, -1
        AADD #-5, SP
	.dwcfi	cfa_offset, 6
$C$DW$165	.dwtag  DW_TAG_variable, DW_AT_name("hMmcsd")
	.dwattr $C$DW$165, DW_AT_TI_symbol_name("_hMmcsd")
	.dwattr $C$DW$165, DW_AT_type(*$C$DW$T$130)
	.dwattr $C$DW$165, DW_AT_location[DW_OP_bregx 0x24 0]
$C$DW$166	.dwtag  DW_TAG_variable, DW_AT_name("stopCmd")
	.dwattr $C$DW$166, DW_AT_TI_symbol_name("_stopCmd")
	.dwattr $C$DW$166, DW_AT_type(*$C$DW$T$19)
	.dwattr $C$DW$166, DW_AT_location[DW_OP_bregx 0x24 2]
$C$DW$167	.dwtag  DW_TAG_variable, DW_AT_name("status")
	.dwattr $C$DW$167, DW_AT_TI_symbol_name("_status")
	.dwattr $C$DW$167, DW_AT_type(*$C$DW$T$202)
	.dwattr $C$DW$167, DW_AT_location[DW_OP_bregx 0x24 3]
$C$DW$168	.dwtag  DW_TAG_variable, DW_AT_name("eventFlags")
	.dwattr $C$DW$168, DW_AT_TI_symbol_name("_eventFlags")
	.dwattr $C$DW$168, DW_AT_type(*$C$DW$T$19)
	.dwattr $C$DW$168, DW_AT_location[DW_OP_bregx 0x24 4]
        MOV XAR0, dbl(*SP(#0))
	.dwpsn	file "src/csl_mmcsd.c",line 1934,column 2,is_stmt
        MOV #0, *SP(#2) ; |1934| 
	.dwpsn	file "src/csl_mmcsd.c",line 1936,column 5,is_stmt
        MOV dbl(*SP(#0)), XAR3

        MOV XAR3, AC0
||      MOV #0, AC1 ; |1936| 

        CMPU AC1 != AC0, TC1 ; |1936| 
        BCC $C$L103,TC1 ; |1936| 
                                        ; branchcc occurs ; |1936| 
	.dwpsn	file "src/csl_mmcsd.c",line 1938,column 9,is_stmt
        MOV #-5, T0
        B $C$L106 ; |1938| 
                                        ; branch occurs ; |1938| 
$C$L103:    
	.dwpsn	file "src/csl_mmcsd.c",line 1943,column 9,is_stmt
        AND #0x7fff, *SP(#2) ; |1943| 
	.dwpsn	file "src/csl_mmcsd.c",line 1944,column 9,is_stmt
        AND #0xbfff, *SP(#2) ; |1944| 
	.dwpsn	file "src/csl_mmcsd.c",line 1945,column 9,is_stmt
        AND #0xdfff, *SP(#2) ; |1945| 
	.dwpsn	file "src/csl_mmcsd.c",line 1946,column 9,is_stmt
        AND #0xefff, *SP(#2) ; |1946| 
	.dwpsn	file "src/csl_mmcsd.c",line 1947,column 9,is_stmt
        AND #0xf7ff, *SP(#2) ; |1947| 
	.dwpsn	file "src/csl_mmcsd.c",line 1949,column 9,is_stmt
        MOV *SP(#2), AR1 ; |1949| 
        AND #0xf9ff, AR1, AC0 ; |1949| 
        BSET @#9, AC0 ; |1949| 
        MOV AC0, *SP(#2) ; |1949| 
	.dwpsn	file "src/csl_mmcsd.c",line 1950,column 9,is_stmt
        MOV AC0, AR1
        BCLR @#8, AR1 ; |1950| 
        BSET @#8, AR1 ; |1950| 
        MOV AR1, *SP(#2) ; |1950| 
	.dwpsn	file "src/csl_mmcsd.c",line 1951,column 3,is_stmt
        AND #0xff7f, *SP(#2) ; |1951| 
	.dwpsn	file "src/csl_mmcsd.c",line 1952,column 9,is_stmt
        MOV *SP(#2), AR1 ; |1952| 
        AND #0xffc0, AR1, AR1 ; |1952| 
        OR #0x000c, AR1, AR1 ; |1952| 
        MOV AR1, *SP(#2) ; |1952| 
	.dwpsn	file "src/csl_mmcsd.c",line 1954,column 3,is_stmt
        MOV #6, *SP(#4) ; |1954| 
	.dwpsn	file "src/csl_mmcsd.c",line 1955,column 3,is_stmt
        MOV dbl(*SP(#0)), XAR0
        MOV *SP(#4), T0 ; |1955| 
        MOV uns(*SP(#2)), AC0 ; |1955| 
$C$DW$169	.dwtag  DW_TAG_TI_branch
	.dwattr $C$DW$169, DW_AT_low_pc(0x00)
	.dwattr $C$DW$169, DW_AT_name("_MMC_sendCmd")
	.dwattr $C$DW$169, DW_AT_TI_call
        CALL #_MMC_sendCmd ; |1955| 
                                        ; call occurs [#_MMC_sendCmd] ; |1955| 
        MOV T0, *SP(#3) ; |1955| 
        NOP
        NOP
        NOP
	.dwpsn	file "src/csl_mmcsd.c",line 1959,column 3,is_stmt

        MOV *SP(#3), AR1 ; |1959| 
||      MOV #-10, AR2

        CMP AR2 == AR1, TC1 ; |1959| 
        BCC $C$L104,TC1 ; |1959| 
                                        ; branchcc occurs ; |1959| 

        MOV #-15, AR2
||      MOV *SP(#3), AR1 ; |1959| 

        CMP AR2 != AR1, TC1 ; |1959| 
        BCC $C$L105,TC1 ; |1959| 
                                        ; branchcc occurs ; |1959| 
$C$L104:    
	.dwpsn	file "src/csl_mmcsd.c",line 1962,column 4,is_stmt
        MOV *SP(#3), T0 ; |1962| 
        B $C$L106 ; |1962| 
                                        ; branch occurs ; |1962| 
$C$L105:    
	.dwpsn	file "src/csl_mmcsd.c",line 1965,column 6,is_stmt
        MOV #0, T0
$C$L106:    
	.dwpsn	file "src/csl_mmcsd.c",line 1967,column 1,is_stmt
        AADD #5, SP
	.dwcfi	cfa_offset, 1
$C$DW$170	.dwtag  DW_TAG_TI_branch
	.dwattr $C$DW$170, DW_AT_low_pc(0x00)
	.dwattr $C$DW$170, DW_AT_TI_return
        RET
                                        ; return occurs
	.dwattr $C$DW$163, DW_AT_TI_end_file("src/csl_mmcsd.c")
	.dwattr $C$DW$163, DW_AT_TI_end_line(0x7af)
	.dwattr $C$DW$163, DW_AT_TI_end_column(0x01)
	.dwendentry
	.dwendtag $C$DW$163

	.sect	".text"
	.global	_MMC_deselectCard

$C$DW$171	.dwtag  DW_TAG_subprogram, DW_AT_name("MMC_deselectCard")
	.dwattr $C$DW$171, DW_AT_low_pc(_MMC_deselectCard)
	.dwattr $C$DW$171, DW_AT_high_pc(0x00)
	.dwattr $C$DW$171, DW_AT_TI_symbol_name("_MMC_deselectCard")
	.dwattr $C$DW$171, DW_AT_external
	.dwattr $C$DW$171, DW_AT_type(*$C$DW$T$132)
	.dwattr $C$DW$171, DW_AT_TI_begin_file("src/csl_mmcsd.c")
	.dwattr $C$DW$171, DW_AT_TI_begin_line(0x7e0)
	.dwattr $C$DW$171, DW_AT_TI_begin_column(0x0c)
	.dwattr $C$DW$171, DW_AT_TI_max_frame_size(0x08)
	.dwpsn	file "src/csl_mmcsd.c",line 2018,column 1,is_stmt,address _MMC_deselectCard

	.dwfde $C$DW$CIE, _MMC_deselectCard
$C$DW$172	.dwtag  DW_TAG_formal_parameter, DW_AT_name("hMmcsd")
	.dwattr $C$DW$172, DW_AT_TI_symbol_name("_hMmcsd")
	.dwattr $C$DW$172, DW_AT_type(*$C$DW$T$130)
	.dwattr $C$DW$172, DW_AT_location[DW_OP_reg17]
$C$DW$173	.dwtag  DW_TAG_formal_parameter, DW_AT_name("pMmcCardObj")
	.dwattr $C$DW$173, DW_AT_TI_symbol_name("_pMmcCardObj")
	.dwattr $C$DW$173, DW_AT_type(*$C$DW$T$82)
	.dwattr $C$DW$173, DW_AT_location[DW_OP_reg19]
;*******************************************************************************
;* FUNCTION NAME: MMC_deselectCard                                             *
;*                                                                             *
;*   Function Uses Regs : AC0,AC0,AC1,AC1,T0,AR0,XAR0,AR1,XAR1,AR2,AR3,XAR3,SP,*
;*                        TC1,M40,SATA,SATD,RDM,FRCT,SMUL                      *
;*   Stack Frame        : Compact (No Frame Pointer, w/ debug)                 *
;*   Total Frame Size   : 8 words                                              *
;*                        (2 return address/alignment)                         *
;*                        (6 local values)                                     *
;*   Min System Stack   : 1 word                                               *
;*******************************************************************************
_MMC_deselectCard:
	.dwcfi	cfa_offset, 1
	.dwcfi	save_reg_to_mem, 91, -1
        AADD #-7, SP
	.dwcfi	cfa_offset, 8
$C$DW$174	.dwtag  DW_TAG_variable, DW_AT_name("hMmcsd")
	.dwattr $C$DW$174, DW_AT_TI_symbol_name("_hMmcsd")
	.dwattr $C$DW$174, DW_AT_type(*$C$DW$T$130)
	.dwattr $C$DW$174, DW_AT_location[DW_OP_bregx 0x24 0]
$C$DW$175	.dwtag  DW_TAG_variable, DW_AT_name("pMmcCardObj")
	.dwattr $C$DW$175, DW_AT_TI_symbol_name("_pMmcCardObj")
	.dwattr $C$DW$175, DW_AT_type(*$C$DW$T$82)
	.dwattr $C$DW$175, DW_AT_location[DW_OP_bregx 0x24 2]
$C$DW$176	.dwtag  DW_TAG_variable, DW_AT_name("deselectCmd")
	.dwattr $C$DW$176, DW_AT_TI_symbol_name("_deselectCmd")
	.dwattr $C$DW$176, DW_AT_type(*$C$DW$T$19)
	.dwattr $C$DW$176, DW_AT_location[DW_OP_bregx 0x24 4]
$C$DW$177	.dwtag  DW_TAG_variable, DW_AT_name("status")
	.dwattr $C$DW$177, DW_AT_TI_symbol_name("_status")
	.dwattr $C$DW$177, DW_AT_type(*$C$DW$T$202)
	.dwattr $C$DW$177, DW_AT_location[DW_OP_bregx 0x24 5]
        MOV XAR1, dbl(*SP(#2))
        MOV XAR0, dbl(*SP(#0))
	.dwpsn	file "src/csl_mmcsd.c",line 2022,column 2,is_stmt
        MOV #0, *SP(#4) ; |2022| 
	.dwpsn	file "src/csl_mmcsd.c",line 2024,column 5,is_stmt
        MOV dbl(*SP(#0)), XAR3

        MOV XAR3, AC0
||      MOV #0, AC1 ; |2024| 

        CMPU AC1 != AC0, TC1 ; |2024| 
        BCC $C$L107,TC1 ; |2024| 
                                        ; branchcc occurs ; |2024| 
	.dwpsn	file "src/csl_mmcsd.c",line 2026,column 9,is_stmt
        MOV #-5, T0
        B $C$L111 ; |2026| 
                                        ; branch occurs ; |2026| 
$C$L107:    
	.dwpsn	file "src/csl_mmcsd.c",line 2030,column 9,is_stmt
        MOV dbl(*SP(#2)), XAR3
        MOV XAR3, AC0
        CMPU AC1 != AC0, TC1 ; |2030| 
        BCC $C$L108,TC1 ; |2030| 
                                        ; branchcc occurs ; |2030| 
	.dwpsn	file "src/csl_mmcsd.c",line 2032,column 13,is_stmt
        MOV #-6, T0
        B $C$L111 ; |2032| 
                                        ; branch occurs ; |2032| 
$C$L108:    
	.dwpsn	file "src/csl_mmcsd.c",line 2036,column 4,is_stmt
        AND #0x7fff, *SP(#4) ; |2036| 
	.dwpsn	file "src/csl_mmcsd.c",line 2037,column 4,is_stmt
        AND #0xbfff, *SP(#4) ; |2037| 
	.dwpsn	file "src/csl_mmcsd.c",line 2038,column 4,is_stmt
        AND #0xdfff, *SP(#4) ; |2038| 
	.dwpsn	file "src/csl_mmcsd.c",line 2039,column 4,is_stmt
        AND #0xefff, *SP(#4) ; |2039| 
	.dwpsn	file "src/csl_mmcsd.c",line 2040,column 4,is_stmt
        AND #0xf7ff, *SP(#4) ; |2040| 
	.dwpsn	file "src/csl_mmcsd.c",line 2042,column 4,is_stmt
        AND #0xf9ff, *SP(#4) ; |2042| 
	.dwpsn	file "src/csl_mmcsd.c",line 2043,column 4,is_stmt
        AND #0xfeff, *SP(#4) ; |2043| 
	.dwpsn	file "src/csl_mmcsd.c",line 2044,column 4,is_stmt
        AND #0xff7f, *SP(#4) ; |2044| 
	.dwpsn	file "src/csl_mmcsd.c",line 2045,column 4,is_stmt
        MOV *SP(#4), AR1 ; |2045| 
        AND #0xffc0, AR1, AR1 ; |2045| 
        OR #0x0007, AR1, AR1 ; |2045| 
        MOV AR1, *SP(#4) ; |2045| 
	.dwpsn	file "src/csl_mmcsd.c",line 2048,column 4,is_stmt
        MOV uns(*SP(#4)), AC0 ; |2048| 
        MOV dbl(*SP(#0)), XAR0
$C$DW$178	.dwtag  DW_TAG_TI_branch
	.dwattr $C$DW$178, DW_AT_low_pc(0x00)
	.dwattr $C$DW$178, DW_AT_name("_MMC_sendCmd")
	.dwattr $C$DW$178, DW_AT_TI_call

        CALL #_MMC_sendCmd ; |2048| 
||      MOV #4, T0

                                        ; call occurs [#_MMC_sendCmd] ; |2048| 
        MOV T0, *SP(#5) ; |2048| 
        NOP
        NOP
        NOP
	.dwpsn	file "src/csl_mmcsd.c",line 2052,column 4,is_stmt

        MOV *SP(#5), AR1 ; |2052| 
||      MOV #-10, AR2

        CMP AR2 == AR1, TC1 ; |2052| 
        BCC $C$L109,TC1 ; |2052| 
                                        ; branchcc occurs ; |2052| 

        MOV #-15, AR2
||      MOV *SP(#5), AR1 ; |2052| 

        CMP AR2 != AR1, TC1 ; |2052| 
        BCC $C$L110,TC1 ; |2052| 
                                        ; branchcc occurs ; |2052| 
$C$L109:    
	.dwpsn	file "src/csl_mmcsd.c",line 2055,column 5,is_stmt
        MOV *SP(#5), T0 ; |2055| 
        B $C$L111 ; |2055| 
                                        ; branch occurs ; |2055| 
$C$L110:    
	.dwpsn	file "src/csl_mmcsd.c",line 2058,column 4,is_stmt
        MOV dbl(*SP(#2)), XAR3
        MOV #0, *AR3(#18) ; |2058| 
	.dwpsn	file "src/csl_mmcsd.c",line 2059,column 4,is_stmt
        MOV dbl(*SP(#0)), XAR3
        MOV #0, *AR3(short(#4)) ; |2059| 
	.dwpsn	file "src/csl_mmcsd.c",line 2061,column 13,is_stmt
        MOV #0, T0
$C$L111:    
	.dwpsn	file "src/csl_mmcsd.c",line 2064,column 1,is_stmt
        AADD #7, SP
	.dwcfi	cfa_offset, 1
$C$DW$179	.dwtag  DW_TAG_TI_branch
	.dwattr $C$DW$179, DW_AT_low_pc(0x00)
	.dwattr $C$DW$179, DW_AT_TI_return
        RET
                                        ; return occurs
	.dwattr $C$DW$171, DW_AT_TI_end_file("src/csl_mmcsd.c")
	.dwattr $C$DW$171, DW_AT_TI_end_line(0x810)
	.dwattr $C$DW$171, DW_AT_TI_end_column(0x01)
	.dwendentry
	.dwendtag $C$DW$171

	.sect	".text"
	.global	_MMC_selectCard

$C$DW$180	.dwtag  DW_TAG_subprogram, DW_AT_name("MMC_selectCard")
	.dwattr $C$DW$180, DW_AT_low_pc(_MMC_selectCard)
	.dwattr $C$DW$180, DW_AT_high_pc(0x00)
	.dwattr $C$DW$180, DW_AT_TI_symbol_name("_MMC_selectCard")
	.dwattr $C$DW$180, DW_AT_external
	.dwattr $C$DW$180, DW_AT_type(*$C$DW$T$132)
	.dwattr $C$DW$180, DW_AT_TI_begin_file("src/csl_mmcsd.c")
	.dwattr $C$DW$180, DW_AT_TI_begin_line(0x845)
	.dwattr $C$DW$180, DW_AT_TI_begin_column(0x0c)
	.dwattr $C$DW$180, DW_AT_TI_max_frame_size(0x0e)
	.dwpsn	file "src/csl_mmcsd.c",line 2119,column 1,is_stmt,address _MMC_selectCard

	.dwfde $C$DW$CIE, _MMC_selectCard
$C$DW$181	.dwtag  DW_TAG_formal_parameter, DW_AT_name("hMmcsd")
	.dwattr $C$DW$181, DW_AT_TI_symbol_name("_hMmcsd")
	.dwattr $C$DW$181, DW_AT_type(*$C$DW$T$130)
	.dwattr $C$DW$181, DW_AT_location[DW_OP_reg17]
$C$DW$182	.dwtag  DW_TAG_formal_parameter, DW_AT_name("pMmcCardObj")
	.dwattr $C$DW$182, DW_AT_TI_symbol_name("_pMmcCardObj")
	.dwattr $C$DW$182, DW_AT_type(*$C$DW$T$82)
	.dwattr $C$DW$182, DW_AT_location[DW_OP_reg19]
;*******************************************************************************
;* FUNCTION NAME: MMC_selectCard                                               *
;*                                                                             *
;*   Function Uses Regs : AC0,AC0,AC1,AC1,T0,T2,AR0,XAR0,AR1,XAR1,AR2,XAR2,AR3,*
;*                        XAR3,SP,CARRY,TC1,M40,SATA,SATD,RDM,FRCT,SMUL        *
;*   Save On Entry Regs : T2                                                   *
;*   Stack Frame        : Compact (No Frame Pointer, w/ debug)                 *
;*   Total Frame Size   : 14 words                                             *
;*                        (1 return address/alignment)                         *
;*                        (12 local values)                                    *
;*                        (1 register save area)                               *
;*   Min System Stack   : 1 word                                               *
;*******************************************************************************
_MMC_selectCard:
	.dwcfi	cfa_offset, 1
	.dwcfi	save_reg_to_mem, 91, -1
        PSH T2
	.dwcfi	cfa_offset, 2
	.dwcfi	save_reg_to_mem, 14, -2
        AADD #-12, SP
	.dwcfi	cfa_offset, 14
$C$DW$183	.dwtag  DW_TAG_variable, DW_AT_name("hMmcsd")
	.dwattr $C$DW$183, DW_AT_TI_symbol_name("_hMmcsd")
	.dwattr $C$DW$183, DW_AT_type(*$C$DW$T$130)
	.dwattr $C$DW$183, DW_AT_location[DW_OP_bregx 0x24 0]
$C$DW$184	.dwtag  DW_TAG_variable, DW_AT_name("pMmcCardObj")
	.dwattr $C$DW$184, DW_AT_TI_symbol_name("_pMmcCardObj")
	.dwattr $C$DW$184, DW_AT_type(*$C$DW$T$82)
	.dwattr $C$DW$184, DW_AT_location[DW_OP_bregx 0x24 2]
$C$DW$185	.dwtag  DW_TAG_variable, DW_AT_name("argument")
	.dwattr $C$DW$185, DW_AT_TI_symbol_name("_argument")
	.dwattr $C$DW$185, DW_AT_type(*$C$DW$T$49)
	.dwattr $C$DW$185, DW_AT_location[DW_OP_bregx 0x24 4]
$C$DW$186	.dwtag  DW_TAG_variable, DW_AT_name("resp")
	.dwattr $C$DW$186, DW_AT_TI_symbol_name("_resp")
	.dwattr $C$DW$186, DW_AT_type(*$C$DW$T$49)
	.dwattr $C$DW$186, DW_AT_location[DW_OP_bregx 0x24 6]
$C$DW$187	.dwtag  DW_TAG_variable, DW_AT_name("status")
	.dwattr $C$DW$187, DW_AT_TI_symbol_name("_status")
	.dwattr $C$DW$187, DW_AT_type(*$C$DW$T$202)
	.dwattr $C$DW$187, DW_AT_location[DW_OP_bregx 0x24 8]
$C$DW$188	.dwtag  DW_TAG_variable, DW_AT_name("cardCheck")
	.dwattr $C$DW$188, DW_AT_TI_symbol_name("_cardCheck")
	.dwattr $C$DW$188, DW_AT_type(*$C$DW$T$19)
	.dwattr $C$DW$188, DW_AT_location[DW_OP_bregx 0x24 9]
$C$DW$189	.dwtag  DW_TAG_variable, DW_AT_name("cmdRetryCnt")
	.dwattr $C$DW$189, DW_AT_TI_symbol_name("_cmdRetryCnt")
	.dwattr $C$DW$189, DW_AT_type(*$C$DW$T$19)
	.dwattr $C$DW$189, DW_AT_location[DW_OP_bregx 0x24 10]
$C$DW$190	.dwtag  DW_TAG_variable, DW_AT_name("eventFlags")
	.dwattr $C$DW$190, DW_AT_TI_symbol_name("_eventFlags")
	.dwattr $C$DW$190, DW_AT_type(*$C$DW$T$19)
	.dwattr $C$DW$190, DW_AT_location[DW_OP_bregx 0x24 11]
        MOV XAR1, dbl(*SP(#2))
        MOV XAR0, dbl(*SP(#0))
	.dwpsn	file "src/csl_mmcsd.c",line 2128,column 2,is_stmt
        MOV #1000, *SP(#10) ; |2128| 
	.dwpsn	file "src/csl_mmcsd.c",line 2130,column 5,is_stmt
        MOV dbl(*SP(#0)), XAR3
        MOV XAR3, AC0
        BCC $C$L112,AC0 == #0 ; |2130| 
                                        ; branchcc occurs ; |2130| 
        MOV dbl(*SP(#2)), XAR3
        MOV XAR3, AC0
        BCC $C$L114,AC0 != #0 ; |2130| 
                                        ; branchcc occurs ; |2130| 
	.dwpsn	file "src/csl_mmcsd.c",line 2133,column 5,is_stmt
$C$L112:    
	.dwpsn	file "src/csl_mmcsd.c",line 2136,column 9,is_stmt
        MOV dbl(*SP(#0)), XAR3

        MOV XAR3, AC0
||      MOV #0, AC1 ; |2136| 

        CMPU AC1 != AC0, TC1 ; |2136| 
        BCC $C$L113,TC1 ; |2136| 
                                        ; branchcc occurs ; |2136| 
	.dwpsn	file "src/csl_mmcsd.c",line 2138,column 13,is_stmt
        MOV #-5, T0
        B $C$L137 ; |2138| 
                                        ; branch occurs ; |2138| 
$C$L113:    
	.dwpsn	file "src/csl_mmcsd.c",line 2142,column 13,is_stmt
        MOV #-6, T0
        B $C$L137 ; |2142| 
                                        ; branch occurs ; |2142| 
$C$L114:    
	.dwpsn	file "src/csl_mmcsd.c",line 2146,column 5,is_stmt
        MOV dbl(*SP(#0)), XAR3
        MOV dbl(*SP(#2)), XAR2
        MOV XAR2, dbl(*AR3(short(#2)))
	.dwpsn	file "src/csl_mmcsd.c",line 2147,column 2,is_stmt
        MOV dbl(*SP(#2)), XAR3
        MOV #0, *AR3(#18) ; |2147| 
	.dwpsn	file "src/csl_mmcsd.c",line 2148,column 2,is_stmt
        MOV dbl(*SP(#2)), XAR3
        MOV #0, *AR3(#27) ; |2148| 
	.dwpsn	file "src/csl_mmcsd.c",line 2149,column 2,is_stmt
        MOV dbl(*SP(#2)), XAR3
        MOV #0, *AR3(#26) ; |2149| 
	.dwpsn	file "src/csl_mmcsd.c",line 2152,column 5,is_stmt
        MOV dbl(*SP(#0)), XAR3
        MOV *AR3, AR3 ; |2152| 
        MOV port(*AR3), AR1 ; |2152| 
        MOV dbl(*SP(#0)), XAR3
        MOV *AR3, AR3 ; |2152| 
        BCLR @#1, AR1 ; |2152| 
        BSET @#1, AR1 ; |2152| 
        MOV AR1, port(*AR3) ; |2152| 
	.dwpsn	file "src/csl_mmcsd.c",line 2153,column 5,is_stmt
        MOV dbl(*SP(#0)), XAR3
        MOV *AR3, AR3 ; |2153| 
        MOV port(*AR3), AR1 ; |2153| 
        MOV dbl(*SP(#0)), XAR3
        MOV *AR3, AR3 ; |2153| 
        BCLR @#0, AR1 ; |2153| 
        BSET @#0, AR1 ; |2153| 
        MOV AR1, port(*AR3) ; |2153| 
	.dwpsn	file "src/csl_mmcsd.c",line 2156,column 5,is_stmt
        MOV dbl(*SP(#0)), XAR3
        MOV #20, T0 ; |2156| 
        MOV *AR3, AR3 ; |2156| 
        MOV #65535, port(*AR3(T0)) ; |2156| 
	.dwpsn	file "src/csl_mmcsd.c",line 2157,column 5,is_stmt
        MOV dbl(*SP(#0)), XAR3
        MOV #24, T0 ; |2157| 
        MOV *AR3, AR3 ; |2157| 
        MOV #65535, port(*AR3(T0)) ; |2157| 
	.dwpsn	file "src/csl_mmcsd.c",line 2165,column 5,is_stmt
        MOV dbl(*SP(#0)), XAR3
        MOV *AR3, AR3 ; |2165| 
        MOV port(*AR3(short(#4))), AR1 ; |2165| 
        MOV dbl(*SP(#0)), XAR3
        MOV *AR3, AR3 ; |2165| 
        BCLR @#8, AR1 ; |2165| 
        MOV AR1, port(*AR3(short(#4))) ; |2165| 
	.dwpsn	file "src/csl_mmcsd.c",line 2166,column 5,is_stmt
        MOV dbl(*SP(#0)), XAR3
        MOV *AR3, AR3 ; |2166| 
        MOV port(*AR3(short(#4))), AR1 ; |2166| 
        MOV dbl(*SP(#0)), XAR3
        MOV *AR3, AR3 ; |2166| 
        AND #0xff00, AR1, AR1 ; |2166| 
        OR #0x007c, AR1, AR1 ; |2166| 
        MOV AR1, port(*AR3(short(#4))) ; |2166| 
	.dwpsn	file "src/csl_mmcsd.c",line 2170,column 5,is_stmt
        MOV dbl(*SP(#0)), XAR3
        MOV *AR3, AR3 ; |2170| 
        MOV port(*AR3), AR1 ; |2170| 
        MOV dbl(*SP(#0)), XAR3
        MOV *AR3, AR3 ; |2170| 
        BCLR @#1, AR1 ; |2170| 
        MOV AR1, port(*AR3) ; |2170| 
	.dwpsn	file "src/csl_mmcsd.c",line 2171,column 5,is_stmt
        MOV dbl(*SP(#0)), XAR3
        MOV *AR3, AR3 ; |2171| 
        MOV port(*AR3), AR1 ; |2171| 
        MOV dbl(*SP(#0)), XAR3
        MOV *AR3, AR3 ; |2171| 
        BCLR @#0, AR1 ; |2171| 
        MOV AR1, port(*AR3) ; |2171| 
	.dwpsn	file "src/csl_mmcsd.c",line 2178,column 2,is_stmt
        MOV dbl(*SP(#0)), XAR3
        MOV #80, T0 ; |2178| 
        MOV *AR3, AR3 ; |2178| 
        MOV port(*AR3(T0)), AR1 ; |2178| 
        MOV dbl(*SP(#0)), XAR3
        MOV *AR3, AR3 ; |2178| 
        AND #0xffc0, AR1, AC0 ; |2178| 
        MOV AC0, port(*AR3(T0)) ; |2178| 
	.dwpsn	file "src/csl_mmcsd.c",line 2180,column 2,is_stmt

        MOV #16384, AC0 ; |2180| 
||      MOV #0, AC1 ; |2180| 

        MOV dbl(*SP(#0)), XAR0
$C$DW$191	.dwtag  DW_TAG_TI_branch
	.dwattr $C$DW$191, DW_AT_low_pc(0x00)
	.dwattr $C$DW$191, DW_AT_name("_MMC_sendCmd")
	.dwattr $C$DW$191, DW_AT_TI_call

        CALL #_MMC_sendCmd ; |2180| 
||      MOV #4, T0

                                        ; call occurs [#_MMC_sendCmd] ; |2180| 
        MOV T0, *SP(#8) ; |2180| 
	.dwpsn	file "src/csl_mmcsd.c",line 2193,column 6,is_stmt
        MOV #0, *SP(#9) ; |2193| 
	.dwpsn	file "src/csl_mmcsd.c",line 2193,column 21,is_stmt

        MOV *SP(#9), AR1 ; |2193| 
||      MOV #3, AR2

        CMPU AR1 >= AR2, TC1 ; |2193| 
        BCC $C$L136,TC1 ; |2193| 
                                        ; branchcc occurs ; |2193| 
$C$L115:    
$C$DW$L$_MMC_selectCard$9$B:
	.dwpsn	file "src/csl_mmcsd.c",line 2200,column 3,is_stmt
        MOV #0, AR2
        CMPU AR2 != AR1, TC1 ; |2200| 
        BCC $C$L119,TC1 ; |2200| 
                                        ; branchcc occurs ; |2200| 
$C$DW$L$_MMC_selectCard$9$E:
$C$DW$L$_MMC_selectCard$10$B:
	.dwpsn	file "src/csl_mmcsd.c",line 2206,column 4,is_stmt
        MOV #426, AC0 ; |2206| 
        MOV AC0, dbl(*SP(#4)) ; |2206| 
	.dwpsn	file "src/csl_mmcsd.c",line 2207,column 4,is_stmt
        MOV dbl(*SP(#0)), XAR3
        MOV #69, T0 ; |2207| 
        MOV *AR3, AR3 ; |2207| 
        MOV #0, port(*AR3(T0)) ; |2207| 
	.dwpsn	file "src/csl_mmcsd.c",line 2208,column 4,is_stmt
        MOV dbl(*SP(#0)), XAR3
        MOV #80, T0 ; |2208| 
        MOV *AR3, AR3 ; |2208| 
        MOV port(*AR3(T0)), AR1 ; |2208| 
        MOV dbl(*SP(#0)), XAR3
        MOV *AR3, AR3 ; |2208| 
        AND #0xffc0, AR1, AC0 ; |2208| 
        MOV AC0, port(*AR3(T0)) ; |2208| 
	.dwpsn	file "src/csl_mmcsd.c",line 2210,column 4,is_stmt
        MOV #252, *SP(#11) ; |2210| 
	.dwpsn	file "src/csl_mmcsd.c",line 2211,column 4,is_stmt
        MOV #520, AC0 ; |2211| 
        MOV dbl(*SP(#0)), XAR0
        MOV dbl(*SP(#4)), AC1 ; |2211| 
        MOV *SP(#11), T0 ; |2211| 
$C$DW$192	.dwtag  DW_TAG_TI_branch
	.dwattr $C$DW$192, DW_AT_low_pc(0x00)
	.dwattr $C$DW$192, DW_AT_name("_MMC_sendCmd")
	.dwattr $C$DW$192, DW_AT_TI_call
        CALL #_MMC_sendCmd ; |2211| 
                                        ; call occurs [#_MMC_sendCmd] ; |2211| 
        MOV T0, *SP(#8) ; |2211| 
        NOP
        NOP
        NOP
	.dwpsn	file "src/csl_mmcsd.c",line 2215,column 4,is_stmt

        MOV *SP(#8), AR1 ; |2215| 
||      MOV #-15, AR2

        CMP AR2 != AR1, TC1 ; |2215| 
        BCC $C$L116,TC1 ; |2215| 
                                        ; branchcc occurs ; |2215| 
$C$DW$L$_MMC_selectCard$10$E:
	.dwpsn	file "src/csl_mmcsd.c",line 2220,column 5,is_stmt
        MOV *SP(#8), T0 ; |2220| 
        B $C$L137 ; |2220| 
                                        ; branch occurs ; |2220| 
$C$L116:    
$C$DW$L$_MMC_selectCard$12$B:
	.dwpsn	file "src/csl_mmcsd.c",line 2223,column 4,is_stmt
        BAND *SP(#8), #248, TC1 ; |2223| 
        BCC $C$L118,TC1 ; |2223| 
                                        ; branchcc occurs ; |2223| 
$C$DW$L$_MMC_selectCard$12$E:
$C$DW$L$_MMC_selectCard$13$B:
	.dwpsn	file "src/csl_mmcsd.c",line 2228,column 5,is_stmt
        MOV dbl(*SP(#0)), XAR3
        MOV #68, T0 ; |2228| 
        MOV *AR3, AR3 ; |2228| 
        MOV #426, AR2 ; |2228| 
        MOV port(*AR3(T0)), AR1 ; |2228| 
        AND #0x01ff, AR1, AR1 ; |2228| 
        CMPU AR2 != AR1, TC1 ; |2228| 
        BCC $C$L117,TC1 ; |2228| 
                                        ; branchcc occurs ; |2228| 
$C$DW$L$_MMC_selectCard$13$E:
$C$DW$L$_MMC_selectCard$14$B:
	.dwpsn	file "src/csl_mmcsd.c",line 2234,column 6,is_stmt
        MOV #16639 << #16, AC0 ; |2234| 
        OR #0x8000, AC0, AC0 ; |2234| 
        MOV AC0, dbl(*SP(#4)) ; |2234| 
	.dwpsn	file "src/csl_mmcsd.c",line 2235,column 5,is_stmt
        B $C$L135 ; |2235| 
                                        ; branch occurs ; |2235| 
$C$DW$L$_MMC_selectCard$14$E:
$C$L117:    
	.dwpsn	file "src/csl_mmcsd.c",line 2242,column 6,is_stmt
        MOV dbl(*SP(#2)), XAR3
        MOV #0, *AR3(#18) ; |2242| 
	.dwpsn	file "src/csl_mmcsd.c",line 2243,column 6,is_stmt
        MOV dbl(*SP(#0)), XAR3
        MOV #0, *AR3(short(#4)) ; |2243| 
	.dwpsn	file "src/csl_mmcsd.c",line 2244,column 6,is_stmt
        B $C$L136 ; |2244| 
                                        ; branch occurs ; |2244| 
$C$L118:    
$C$DW$L$_MMC_selectCard$17$B:
	.dwpsn	file "src/csl_mmcsd.c",line 2249,column 5,is_stmt
        MOV #255 << #16, AC0 ; |2249| 
        OR #0x8000, AC0, AC0 ; |2249| 
        MOV AC0, dbl(*SP(#4)) ; |2249| 
	.dwpsn	file "src/csl_mmcsd.c",line 2260,column 5,is_stmt
        MOV dbl(*SP(#0)), XAR3
        MOV #80, T0 ; |2260| 
        MOV *AR3, AR3 ; |2260| 
        MOV port(*AR3(T0)), AR1 ; |2260| 
        MOV dbl(*SP(#0)), XAR3
        MOV *AR3, AR3 ; |2260| 
        AND #0xffc0, AR1, AC0 ; |2260| 
        MOV AC0, port(*AR3(T0)) ; |2260| 
	.dwpsn	file "src/csl_mmcsd.c",line 2262,column 5,is_stmt
        MOV #4, *SP(#11) ; |2262| 
	.dwpsn	file "src/csl_mmcsd.c",line 2263,column 5,is_stmt
        MOV dbl(*SP(#0)), XAR0
        MOV #16384, AC0 ; |2263| 
        MOV *SP(#11), T0 ; |2263| 
$C$DW$193	.dwtag  DW_TAG_TI_branch
	.dwattr $C$DW$193, DW_AT_low_pc(0x00)
	.dwattr $C$DW$193, DW_AT_name("_MMC_sendCmd")
	.dwattr $C$DW$193, DW_AT_TI_call

        CALL #_MMC_sendCmd ; |2263| 
||      MOV #0, AC1 ; |2263| 

                                        ; call occurs [#_MMC_sendCmd] ; |2263| 
        MOV T0, *SP(#8) ; |2263| 
	.dwpsn	file "src/csl_mmcsd.c",line 2269,column 3,is_stmt
        B $C$L135 ; |2269| 
                                        ; branch occurs ; |2269| 
$C$DW$L$_MMC_selectCard$17$E:
$C$L119:    
$C$DW$L$_MMC_selectCard$18$B:
	.dwpsn	file "src/csl_mmcsd.c",line 2270,column 8,is_stmt
        MOV #1, AR2
        CMPU AR2 != AR1, TC1 ; |2270| 
        BCC $C$L128,TC1 ; |2270| 
                                        ; branchcc occurs ; |2270| 
$C$DW$L$_MMC_selectCard$18$E:
$C$L120:    
$C$DW$L$_MMC_selectCard$19$B:
	.dwpsn	file "src/csl_mmcsd.c",line 2278,column 5,is_stmt
        MOV dbl(*SP(#0)), XAR3
        MOV #69, T0 ; |2278| 
        MOV *AR3, AR3 ; |2278| 
        MOV #0, port(*AR3(T0)) ; |2278| 
	.dwpsn	file "src/csl_mmcsd.c",line 2279,column 5,is_stmt
        MOV dbl(*SP(#0)), XAR3
        MOV #80, T0 ; |2279| 
        MOV *AR3, AR3 ; |2279| 
        MOV port(*AR3(T0)), AR1 ; |2279| 
        MOV dbl(*SP(#0)), XAR3
        MOV *AR3, AR3 ; |2279| 
        AND #0xffc0, AR1, AC0 ; |2279| 
        MOV AC0, port(*AR3(T0)) ; |2279| 
	.dwpsn	file "src/csl_mmcsd.c",line 2281,column 5,is_stmt
        MOV #252, *SP(#11) ; |2281| 
	.dwpsn	file "src/csl_mmcsd.c",line 2282,column 5,is_stmt
        MOV dbl(*SP(#0)), XAR0
        MOV #567, AC0 ; |2282| 
        MOV *SP(#11), T0 ; |2282| 
$C$DW$194	.dwtag  DW_TAG_TI_branch
	.dwattr $C$DW$194, DW_AT_low_pc(0x00)
	.dwattr $C$DW$194, DW_AT_name("_MMC_sendCmd")
	.dwattr $C$DW$194, DW_AT_TI_call

        CALL #_MMC_sendCmd ; |2282| 
||      MOV #0, AC1 ; |2282| 

                                        ; call occurs [#_MMC_sendCmd] ; |2282| 
        MOV T0, *SP(#8) ; |2282| 
        NOP
        NOP
        NOP
	.dwpsn	file "src/csl_mmcsd.c",line 2286,column 5,is_stmt

        MOV *SP(#8), AR1 ; |2286| 
||      MOV #-15, AR2

        CMP AR2 != AR1, TC1 ; |2286| 
        BCC $C$L121,TC1 ; |2286| 
                                        ; branchcc occurs ; |2286| 
$C$DW$L$_MMC_selectCard$19$E:
	.dwpsn	file "src/csl_mmcsd.c",line 2291,column 7,is_stmt
        MOV *SP(#8), T0 ; |2291| 
        B $C$L137 ; |2291| 
                                        ; branch occurs ; |2291| 
$C$L121:    
$C$DW$L$_MMC_selectCard$21$B:
	.dwpsn	file "src/csl_mmcsd.c",line 2295,column 5,is_stmt
        BTST #4, *SP(#8), TC1 ; |2295| 
        BCC $C$L122,!TC1 ; |2295| 
                                        ; branchcc occurs ; |2295| 
$C$DW$L$_MMC_selectCard$21$E:
$C$DW$L$_MMC_selectCard$22$B:
	.dwpsn	file "src/csl_mmcsd.c",line 2300,column 6,is_stmt
        MOV #0, AC0 ; |2300| 
        MOV AC0, dbl(*SP(#6)) ; |2300| 
	.dwpsn	file "src/csl_mmcsd.c",line 2301,column 6,is_stmt
        B $C$L125 ; |2301| 
                                        ; branch occurs ; |2301| 
$C$DW$L$_MMC_selectCard$22$E:
$C$L122:    
$C$DW$L$_MMC_selectCard$23$B:
	.dwpsn	file "src/csl_mmcsd.c",line 2309,column 5,is_stmt
        MOV dbl(*SP(#0)), XAR3
        MOV #69, T0 ; |2309| 
        MOV *AR3, AR3 ; |2309| 
        MOV #0, port(*AR3(T0)) ; |2309| 
	.dwpsn	file "src/csl_mmcsd.c",line 2310,column 5,is_stmt
        MOV dbl(*SP(#0)), XAR3
        MOV #80, T0 ; |2310| 
        MOV *AR3, AR3 ; |2310| 
        MOV port(*AR3(T0)), AR1 ; |2310| 
        MOV dbl(*SP(#0)), XAR3
        MOV *AR3, AR3 ; |2310| 
        AND #0xffc0, AR1, AC0 ; |2310| 
        MOV AC0, port(*AR3(T0)) ; |2310| 
	.dwpsn	file "src/csl_mmcsd.c",line 2312,column 5,is_stmt
        MOV #252, *SP(#11) ; |2312| 
	.dwpsn	file "src/csl_mmcsd.c",line 2313,column 5,is_stmt
        MOV dbl(*SP(#0)), XAR0
        MOV dbl(*SP(#4)), AC1 ; |2313| 
        MOV #1577, AC0 ; |2313| 
        MOV *SP(#11), T0 ; |2313| 
$C$DW$195	.dwtag  DW_TAG_TI_branch
	.dwattr $C$DW$195, DW_AT_low_pc(0x00)
	.dwattr $C$DW$195, DW_AT_name("_MMC_sendCmd")
	.dwattr $C$DW$195, DW_AT_TI_call
        CALL #_MMC_sendCmd ; |2313| 
                                        ; call occurs [#_MMC_sendCmd] ; |2313| 
        MOV T0, *SP(#8) ; |2313| 
        NOP
        NOP
        NOP
	.dwpsn	file "src/csl_mmcsd.c",line 2319,column 5,is_stmt

        MOV *SP(#8), AR1 ; |2319| 
||      MOV #-10, AR2

        CMP AR2 != AR1, TC1 ; |2319| 
        BCC $C$L123,TC1 ; |2319| 
                                        ; branchcc occurs ; |2319| 
$C$DW$L$_MMC_selectCard$23$E:
$C$DW$L$_MMC_selectCard$24$B:
	.dwpsn	file "src/csl_mmcsd.c",line 2324,column 6,is_stmt
        MOV #0, AC0 ; |2324| 
        MOV AC0, dbl(*SP(#6)) ; |2324| 
	.dwpsn	file "src/csl_mmcsd.c",line 2325,column 6,is_stmt
        B $C$L125 ; |2325| 
                                        ; branch occurs ; |2325| 
$C$DW$L$_MMC_selectCard$24$E:
$C$L123:    
$C$DW$L$_MMC_selectCard$25$B:
	.dwpsn	file "src/csl_mmcsd.c",line 2328,column 5,is_stmt
        MOV dbl(*SP(#0)), XAR3
        MOV #69, T0 ; |2328| 
        MOV *AR3, AR3 ; |2328| 
        MOV uns(port(*AR3(T0))), AC0 ; |2328| 
        MOV AC0, dbl(*SP(#6)) ; |2328| 
	.dwpsn	file "src/csl_mmcsd.c",line 2329,column 5,is_stmt
        MOV dbl(*SP(#0)), XAR3
        MOV #68, T0 ; |2329| 
        MOV *AR3, AR3 ; |2329| 
        MOV dbl(*SP(#6)), AC1 ; |2329| 
        MOV uns(port(*AR3(T0))), AC0 ; |2329| 
        OR AC1 << #16, AC0 ; |2329| 
        MOV AC0, dbl(*SP(#6)) ; |2329| 
	.dwpsn	file "src/csl_mmcsd.c",line 2332,column 5,is_stmt
        MOV dbl(*SP(#6)), AC0 ; |2332| 
        BCC $C$L125,AC0 == #0 ; |2332| 
                                        ; branchcc occurs ; |2332| 
$C$DW$L$_MMC_selectCard$25$E:
$C$DW$L$_MMC_selectCard$26$B:
	.dwpsn	file "src/csl_mmcsd.c",line 2337,column 6,is_stmt
	.dwpsn	file "src/csl_mmcsd.c",line 2340,column 5,is_stmt
        SUB #1, *SP(#10) ; |2340| 
	.dwpsn	file "src/csl_mmcsd.c",line 2341,column 5,is_stmt
        MOV *SP(#10), AR1 ; |2341| 
        BCC $C$L124,AR1 != #0 ; |2341| 
                                        ; branchcc occurs ; |2341| 
$C$DW$L$_MMC_selectCard$26$E:
	.dwpsn	file "src/csl_mmcsd.c",line 2346,column 6,is_stmt
        MOV #-10, T0
        B $C$L137 ; |2346| 
                                        ; branch occurs ; |2346| 
$C$L124:    
$C$DW$L$_MMC_selectCard$28$B:
	.dwpsn	file "src/csl_mmcsd.c",line 2349,column 12,is_stmt
        MOV #-32513 << #16, AC0 ; |2349| 
        MOV dbl(*SP(#6)), AC1 ; |2349| 
        OR #0x8000, AC0, AC0 ; |2349| 

        MOV #-32513 << #16, AC1 ; |2349| 
||      AND AC1, AC0 ; |2349| 

        OR #0x8000, AC1, AC1 ; |2349| 
        CMPU AC0 != AC1, TC1 ; |2349| 
        BCC $C$L120,TC1 ; |2349| 
                                        ; branchcc occurs ; |2349| 
$C$DW$L$_MMC_selectCard$28$E:
$C$L125:    
$C$DW$L$_MMC_selectCard$29$B:
	.dwpsn	file "src/csl_mmcsd.c",line 2351,column 4,is_stmt
        MOV dbl(*SP(#6)), AC0 ; |2351| 
        BCC $C$L135,AC0 == #0 ; |2351| 
                                        ; branchcc occurs ; |2351| 
$C$DW$L$_MMC_selectCard$29$E:
	.dwpsn	file "src/csl_mmcsd.c",line 2354,column 5,is_stmt
        MOV dbl(*SP(#6)), AC1 ; |2354| 
        MOV #16384 << #16, AC0 ; |2354| 
        AND AC1, AC0 ; |2354| 
        BCC $C$L126,AC0 == #0 ; |2354| 
                                        ; branchcc occurs ; |2354| 
	.dwpsn	file "src/csl_mmcsd.c",line 2359,column 6,is_stmt
        MOV dbl(*SP(#2)), XAR3
        MOV #1, *AR3(#26) ; |2359| 
	.dwpsn	file "src/csl_mmcsd.c",line 2360,column 5,is_stmt
        B $C$L127 ; |2360| 
                                        ; branch occurs ; |2360| 
$C$L126:    
	.dwpsn	file "src/csl_mmcsd.c",line 2366,column 6,is_stmt
        MOV dbl(*SP(#2)), XAR3
        MOV #0, *AR3(#26) ; |2366| 
$C$L127:    
	.dwpsn	file "src/csl_mmcsd.c",line 2369,column 5,is_stmt
        MOV dbl(*SP(#2)), XAR3
        MOV #1, *AR3(#18) ; |2369| 
	.dwpsn	file "src/csl_mmcsd.c",line 2370,column 5,is_stmt
        MOV dbl(*SP(#0)), XAR3
        MOV #1, *AR3(short(#4)) ; |2370| 
	.dwpsn	file "src/csl_mmcsd.c",line 2371,column 5,is_stmt
        B $C$L136 ; |2371| 
                                        ; branch occurs ; |2371| 
$C$L128:    
$C$DW$L$_MMC_selectCard$35$B:
	.dwpsn	file "src/csl_mmcsd.c",line 2381,column 4,is_stmt
        MOV #1000, *SP(#10) ; |2381| 
	.dwpsn	file "src/csl_mmcsd.c",line 2382,column 4,is_stmt
        MOV #16639 << #16, AC0 ; |2382| 
        OR #0x8080, AC0, AC0 ; |2382| 

        MOV AC0, dbl(*SP(#4)) ; |2382| 
||      MOV #-10, T2

$C$DW$L$_MMC_selectCard$35$E:
$C$L129:    
$C$DW$L$_MMC_selectCard$36$B:
	.dwpsn	file "src/csl_mmcsd.c",line 2390,column 5,is_stmt
        MOV dbl(*SP(#0)), XAR3
        MOV #69, T0 ; |2390| 
        MOV *AR3, AR3 ; |2390| 
        MOV #0, port(*AR3(T0)) ; |2390| 
	.dwpsn	file "src/csl_mmcsd.c",line 2391,column 5,is_stmt
        MOV dbl(*SP(#0)), XAR3
        MOV #80, T0 ; |2391| 
        MOV *AR3, AR3 ; |2391| 
        MOV port(*AR3(T0)), AR1 ; |2391| 
        MOV dbl(*SP(#0)), XAR3
        MOV *AR3, AR3 ; |2391| 
        AND #0xffc0, AR1, AC0 ; |2391| 
        MOV AC0, port(*AR3(T0)) ; |2391| 
	.dwpsn	file "src/csl_mmcsd.c",line 2393,column 5,is_stmt
        MOV #4, *SP(#11) ; |2393| 
	.dwpsn	file "src/csl_mmcsd.c",line 2394,column 5,is_stmt
        MOV dbl(*SP(#0)), XAR0
        MOV dbl(*SP(#4)), AC1 ; |2394| 
        MOV #1537, AC0 ; |2394| 
        MOV *SP(#11), T0 ; |2394| 
$C$DW$196	.dwtag  DW_TAG_TI_branch
	.dwattr $C$DW$196, DW_AT_low_pc(0x00)
	.dwattr $C$DW$196, DW_AT_name("_MMC_sendCmd")
	.dwattr $C$DW$196, DW_AT_TI_call
        CALL #_MMC_sendCmd ; |2394| 
                                        ; call occurs [#_MMC_sendCmd] ; |2394| 
        MOV T0, *SP(#8) ; |2394| 
        NOP
        NOP
        NOP
	.dwpsn	file "src/csl_mmcsd.c",line 2398,column 5,is_stmt
        MOV *SP(#8), AR1 ; |2398| 
        CMP T2 != AR1, TC1 ; |2398| 
        BCC $C$L130,TC1 ; |2398| 
                                        ; branchcc occurs ; |2398| 
$C$DW$L$_MMC_selectCard$36$E:
	.dwpsn	file "src/csl_mmcsd.c",line 2403,column 6,is_stmt
        MOV #-10, T0
        B $C$L137 ; |2403| 
                                        ; branch occurs ; |2403| 
$C$L130:    
$C$DW$L$_MMC_selectCard$38$B:
	.dwpsn	file "src/csl_mmcsd.c",line 2406,column 5,is_stmt
        MOV dbl(*SP(#0)), XAR3
        MOV #69, T0 ; |2406| 
        MOV *AR3, AR3 ; |2406| 
        MOV uns(port(*AR3(T0))), AC0 ; |2406| 
        MOV AC0, dbl(*SP(#6)) ; |2406| 
	.dwpsn	file "src/csl_mmcsd.c",line 2407,column 5,is_stmt
        MOV dbl(*SP(#0)), XAR3
        MOV #68, T0 ; |2407| 
        MOV *AR3, AR3 ; |2407| 
        MOV dbl(*SP(#6)), AC1 ; |2407| 
        MOV uns(port(*AR3(T0))), AC0 ; |2407| 
        OR AC1 << #16, AC0 ; |2407| 
        MOV AC0, dbl(*SP(#6)) ; |2407| 
	.dwpsn	file "src/csl_mmcsd.c",line 2415,column 5,is_stmt
        SUB #1, *SP(#10) ; |2415| 
	.dwpsn	file "src/csl_mmcsd.c",line 2416,column 12,is_stmt
        MOV #-32513 << #16, AC0 ; |2416| 
        OR #0x8000, AC0, AC0 ; |2416| 
        MOV dbl(*SP(#6)), AC1 ; |2416| 

        MOV #-32513 << #16, AC1 ; |2416| 
||      AND AC1, AC0 ; |2416| 

        OR #0x8000, AC1, AC1 ; |2416| 
        CMPU AC0 == AC1, TC1 ; |2416| 
        BCC $C$L131,TC1 ; |2416| 
                                        ; branchcc occurs ; |2416| 
$C$DW$L$_MMC_selectCard$38$E:
$C$DW$L$_MMC_selectCard$39$B:
        MOV *SP(#10), AR1 ; |2416| 
        BCC $C$L129,AR1 != #0 ; |2416| 
                                        ; branchcc occurs ; |2416| 
$C$DW$L$_MMC_selectCard$39$E:
$C$L131:    
$C$DW$L$_MMC_selectCard$40$B:
	.dwpsn	file "src/csl_mmcsd.c",line 2419,column 4,is_stmt
        MOV *SP(#10), AR1 ; |2419| 
        BCC $C$L134,AR1 == #0 ; |2419| 
                                        ; branchcc occurs ; |2419| 
$C$DW$L$_MMC_selectCard$40$E:
$C$DW$L$_MMC_selectCard$41$B:
	.dwpsn	file "src/csl_mmcsd.c",line 2421,column 8,is_stmt
        MOV dbl(*SP(#2)), XAR3
        MOV #2, *AR3(#18) ; |2421| 
	.dwpsn	file "src/csl_mmcsd.c",line 2422,column 8,is_stmt
        MOV #16384 << #16, AC0 ; |2422| 
        MOV dbl(*SP(#6)), AC1 ; |2422| 
        AND AC1, AC0 ; |2422| 
        BCC $C$L132,AC0 == #0 ; |2422| 
                                        ; branchcc occurs ; |2422| 
$C$DW$L$_MMC_selectCard$41$E:
$C$DW$L$_MMC_selectCard$42$B:
	.dwpsn	file "src/csl_mmcsd.c",line 2427,column 6,is_stmt
        MOV dbl(*SP(#2)), XAR3
        MOV #1, *AR3(#27) ; |2427| 
	.dwpsn	file "src/csl_mmcsd.c",line 2428,column 5,is_stmt
        B $C$L133 ; |2428| 
                                        ; branch occurs ; |2428| 
$C$DW$L$_MMC_selectCard$42$E:
$C$L132:    
$C$DW$L$_MMC_selectCard$43$B:
	.dwpsn	file "src/csl_mmcsd.c",line 2434,column 6,is_stmt
        MOV dbl(*SP(#2)), XAR3
        MOV #0, *AR3(#27) ; |2434| 
$C$DW$L$_MMC_selectCard$43$E:
$C$L133:    
$C$DW$L$_MMC_selectCard$44$B:
	.dwpsn	file "src/csl_mmcsd.c",line 2437,column 8,is_stmt
        MOV dbl(*SP(#0)), XAR3
        MOV #1, *AR3(short(#4)) ; |2437| 
	.dwpsn	file "src/csl_mmcsd.c",line 2438,column 4,is_stmt
        B $C$L135 ; |2438| 
                                        ; branch occurs ; |2438| 
$C$DW$L$_MMC_selectCard$44$E:
$C$L134:    
$C$DW$L$_MMC_selectCard$45$B:
	.dwpsn	file "src/csl_mmcsd.c",line 2444,column 8,is_stmt
        MOV dbl(*SP(#2)), XAR3
        MOV #0, *AR3(#18) ; |2444| 
	.dwpsn	file "src/csl_mmcsd.c",line 2445,column 8,is_stmt
        MOV dbl(*SP(#0)), XAR3
        MOV #0, *AR3(short(#4)) ; |2445| 
$C$DW$L$_MMC_selectCard$45$E:
$C$L135:    
$C$DW$L$_MMC_selectCard$46$B:
	.dwpsn	file "src/csl_mmcsd.c",line 2193,column 36,is_stmt
        ADD #1, *SP(#9) ; |2193| 
	.dwpsn	file "src/csl_mmcsd.c",line 2193,column 21,is_stmt

        MOV *SP(#9), AR1 ; |2193| 
||      MOV #3, AR2

        CMPU AR1 < AR2, TC1 ; |2193| 
        BCC $C$L115,TC1 ; |2193| 
                                        ; branchcc occurs ; |2193| 
$C$DW$L$_MMC_selectCard$46$E:
$C$L136:    
	.dwpsn	file "src/csl_mmcsd.c",line 2450,column 2,is_stmt
        MOV #0, T0
$C$L137:    
	.dwpsn	file "src/csl_mmcsd.c",line 2451,column 1,is_stmt
        AADD #12, SP
	.dwcfi	cfa_offset, 2
        POP T2
	.dwcfi	restore_reg, 14
	.dwcfi	cfa_offset, 1
$C$DW$197	.dwtag  DW_TAG_TI_branch
	.dwattr $C$DW$197, DW_AT_low_pc(0x00)
	.dwattr $C$DW$197, DW_AT_TI_return
        RET
                                        ; return occurs

$C$DW$198	.dwtag  DW_TAG_TI_loop
	.dwattr $C$DW$198, DW_AT_name("/home/santiago/dspfuzz/on_board/library/csl_mmcsd.asm:$C$L115:1:1714639441")
	.dwattr $C$DW$198, DW_AT_TI_begin_file("src/csl_mmcsd.c")
	.dwattr $C$DW$198, DW_AT_TI_begin_line(0x891)
	.dwattr $C$DW$198, DW_AT_TI_end_line(0x990)
$C$DW$199	.dwtag  DW_TAG_TI_loop_range
	.dwattr $C$DW$199, DW_AT_low_pc($C$DW$L$_MMC_selectCard$9$B)
	.dwattr $C$DW$199, DW_AT_high_pc($C$DW$L$_MMC_selectCard$9$E)
$C$DW$200	.dwtag  DW_TAG_TI_loop_range
	.dwattr $C$DW$200, DW_AT_low_pc($C$DW$L$_MMC_selectCard$35$B)
	.dwattr $C$DW$200, DW_AT_high_pc($C$DW$L$_MMC_selectCard$35$E)
$C$DW$201	.dwtag  DW_TAG_TI_loop_range
	.dwattr $C$DW$201, DW_AT_low_pc($C$DW$L$_MMC_selectCard$40$B)
	.dwattr $C$DW$201, DW_AT_high_pc($C$DW$L$_MMC_selectCard$40$E)
$C$DW$202	.dwtag  DW_TAG_TI_loop_range
	.dwattr $C$DW$202, DW_AT_low_pc($C$DW$L$_MMC_selectCard$41$B)
	.dwattr $C$DW$202, DW_AT_high_pc($C$DW$L$_MMC_selectCard$41$E)
$C$DW$203	.dwtag  DW_TAG_TI_loop_range
	.dwattr $C$DW$203, DW_AT_low_pc($C$DW$L$_MMC_selectCard$42$B)
	.dwattr $C$DW$203, DW_AT_high_pc($C$DW$L$_MMC_selectCard$42$E)
$C$DW$204	.dwtag  DW_TAG_TI_loop_range
	.dwattr $C$DW$204, DW_AT_low_pc($C$DW$L$_MMC_selectCard$43$B)
	.dwattr $C$DW$204, DW_AT_high_pc($C$DW$L$_MMC_selectCard$43$E)
$C$DW$205	.dwtag  DW_TAG_TI_loop_range
	.dwattr $C$DW$205, DW_AT_low_pc($C$DW$L$_MMC_selectCard$18$B)
	.dwattr $C$DW$205, DW_AT_high_pc($C$DW$L$_MMC_selectCard$18$E)
$C$DW$206	.dwtag  DW_TAG_TI_loop_range
	.dwattr $C$DW$206, DW_AT_low_pc($C$DW$L$_MMC_selectCard$22$B)
	.dwattr $C$DW$206, DW_AT_high_pc($C$DW$L$_MMC_selectCard$22$E)
$C$DW$207	.dwtag  DW_TAG_TI_loop_range
	.dwattr $C$DW$207, DW_AT_low_pc($C$DW$L$_MMC_selectCard$24$B)
	.dwattr $C$DW$207, DW_AT_high_pc($C$DW$L$_MMC_selectCard$24$E)
$C$DW$208	.dwtag  DW_TAG_TI_loop_range
	.dwattr $C$DW$208, DW_AT_low_pc($C$DW$L$_MMC_selectCard$10$B)
	.dwattr $C$DW$208, DW_AT_high_pc($C$DW$L$_MMC_selectCard$10$E)
$C$DW$209	.dwtag  DW_TAG_TI_loop_range
	.dwattr $C$DW$209, DW_AT_low_pc($C$DW$L$_MMC_selectCard$12$B)
	.dwattr $C$DW$209, DW_AT_high_pc($C$DW$L$_MMC_selectCard$12$E)
$C$DW$210	.dwtag  DW_TAG_TI_loop_range
	.dwattr $C$DW$210, DW_AT_low_pc($C$DW$L$_MMC_selectCard$13$B)
	.dwattr $C$DW$210, DW_AT_high_pc($C$DW$L$_MMC_selectCard$13$E)
$C$DW$211	.dwtag  DW_TAG_TI_loop_range
	.dwattr $C$DW$211, DW_AT_low_pc($C$DW$L$_MMC_selectCard$14$B)
	.dwattr $C$DW$211, DW_AT_high_pc($C$DW$L$_MMC_selectCard$14$E)
$C$DW$212	.dwtag  DW_TAG_TI_loop_range
	.dwattr $C$DW$212, DW_AT_low_pc($C$DW$L$_MMC_selectCard$17$B)
	.dwattr $C$DW$212, DW_AT_high_pc($C$DW$L$_MMC_selectCard$17$E)
$C$DW$213	.dwtag  DW_TAG_TI_loop_range
	.dwattr $C$DW$213, DW_AT_low_pc($C$DW$L$_MMC_selectCard$29$B)
	.dwattr $C$DW$213, DW_AT_high_pc($C$DW$L$_MMC_selectCard$29$E)
$C$DW$214	.dwtag  DW_TAG_TI_loop_range
	.dwattr $C$DW$214, DW_AT_low_pc($C$DW$L$_MMC_selectCard$44$B)
	.dwattr $C$DW$214, DW_AT_high_pc($C$DW$L$_MMC_selectCard$44$E)
$C$DW$215	.dwtag  DW_TAG_TI_loop_range
	.dwattr $C$DW$215, DW_AT_low_pc($C$DW$L$_MMC_selectCard$45$B)
	.dwattr $C$DW$215, DW_AT_high_pc($C$DW$L$_MMC_selectCard$45$E)
$C$DW$216	.dwtag  DW_TAG_TI_loop_range
	.dwattr $C$DW$216, DW_AT_low_pc($C$DW$L$_MMC_selectCard$46$B)
	.dwattr $C$DW$216, DW_AT_high_pc($C$DW$L$_MMC_selectCard$46$E)

$C$DW$217	.dwtag  DW_TAG_TI_loop
	.dwattr $C$DW$217, DW_AT_name("/home/santiago/dspfuzz/on_board/library/csl_mmcsd.asm:$C$L129:2:1714639441")
	.dwattr $C$DW$217, DW_AT_TI_begin_file("src/csl_mmcsd.c")
	.dwattr $C$DW$217, DW_AT_TI_begin_line(0x950)
	.dwattr $C$DW$217, DW_AT_TI_end_line(0x970)
$C$DW$218	.dwtag  DW_TAG_TI_loop_range
	.dwattr $C$DW$218, DW_AT_low_pc($C$DW$L$_MMC_selectCard$36$B)
	.dwattr $C$DW$218, DW_AT_high_pc($C$DW$L$_MMC_selectCard$36$E)
$C$DW$219	.dwtag  DW_TAG_TI_loop_range
	.dwattr $C$DW$219, DW_AT_low_pc($C$DW$L$_MMC_selectCard$38$B)
	.dwattr $C$DW$219, DW_AT_high_pc($C$DW$L$_MMC_selectCard$38$E)
$C$DW$220	.dwtag  DW_TAG_TI_loop_range
	.dwattr $C$DW$220, DW_AT_low_pc($C$DW$L$_MMC_selectCard$39$B)
	.dwattr $C$DW$220, DW_AT_high_pc($C$DW$L$_MMC_selectCard$39$E)
	.dwendtag $C$DW$217


$C$DW$221	.dwtag  DW_TAG_TI_loop
	.dwattr $C$DW$221, DW_AT_name("/home/santiago/dspfuzz/on_board/library/csl_mmcsd.asm:$C$L120:2:1714639441")
	.dwattr $C$DW$221, DW_AT_TI_begin_file("src/csl_mmcsd.c")
	.dwattr $C$DW$221, DW_AT_TI_begin_line(0x8e4)
	.dwattr $C$DW$221, DW_AT_TI_end_line(0x92d)
$C$DW$222	.dwtag  DW_TAG_TI_loop_range
	.dwattr $C$DW$222, DW_AT_low_pc($C$DW$L$_MMC_selectCard$19$B)
	.dwattr $C$DW$222, DW_AT_high_pc($C$DW$L$_MMC_selectCard$19$E)
$C$DW$223	.dwtag  DW_TAG_TI_loop_range
	.dwattr $C$DW$223, DW_AT_low_pc($C$DW$L$_MMC_selectCard$21$B)
	.dwattr $C$DW$223, DW_AT_high_pc($C$DW$L$_MMC_selectCard$21$E)
$C$DW$224	.dwtag  DW_TAG_TI_loop_range
	.dwattr $C$DW$224, DW_AT_low_pc($C$DW$L$_MMC_selectCard$23$B)
	.dwattr $C$DW$224, DW_AT_high_pc($C$DW$L$_MMC_selectCard$23$E)
$C$DW$225	.dwtag  DW_TAG_TI_loop_range
	.dwattr $C$DW$225, DW_AT_low_pc($C$DW$L$_MMC_selectCard$25$B)
	.dwattr $C$DW$225, DW_AT_high_pc($C$DW$L$_MMC_selectCard$25$E)
$C$DW$226	.dwtag  DW_TAG_TI_loop_range
	.dwattr $C$DW$226, DW_AT_low_pc($C$DW$L$_MMC_selectCard$26$B)
	.dwattr $C$DW$226, DW_AT_high_pc($C$DW$L$_MMC_selectCard$26$E)
$C$DW$227	.dwtag  DW_TAG_TI_loop_range
	.dwattr $C$DW$227, DW_AT_low_pc($C$DW$L$_MMC_selectCard$28$B)
	.dwattr $C$DW$227, DW_AT_high_pc($C$DW$L$_MMC_selectCard$28$E)
	.dwendtag $C$DW$221

	.dwendtag $C$DW$198

	.dwattr $C$DW$180, DW_AT_TI_end_file("src/csl_mmcsd.c")
	.dwattr $C$DW$180, DW_AT_TI_end_line(0x993)
	.dwattr $C$DW$180, DW_AT_TI_end_column(0x01)
	.dwendentry
	.dwendtag $C$DW$180

	.sect	".text"
	.global	_MMC_sendOpCond

$C$DW$228	.dwtag  DW_TAG_subprogram, DW_AT_name("MMC_sendOpCond")
	.dwattr $C$DW$228, DW_AT_low_pc(_MMC_sendOpCond)
	.dwattr $C$DW$228, DW_AT_high_pc(0x00)
	.dwattr $C$DW$228, DW_AT_TI_symbol_name("_MMC_sendOpCond")
	.dwattr $C$DW$228, DW_AT_external
	.dwattr $C$DW$228, DW_AT_type(*$C$DW$T$132)
	.dwattr $C$DW$228, DW_AT_TI_begin_file("src/csl_mmcsd.c")
	.dwattr $C$DW$228, DW_AT_TI_begin_line(0x9c9)
	.dwattr $C$DW$228, DW_AT_TI_begin_column(0x0c)
	.dwattr $C$DW$228, DW_AT_TI_max_frame_size(0x04)
	.dwpsn	file "src/csl_mmcsd.c",line 2507,column 1,is_stmt,address _MMC_sendOpCond

	.dwfde $C$DW$CIE, _MMC_sendOpCond
$C$DW$229	.dwtag  DW_TAG_formal_parameter, DW_AT_name("hMmcsd")
	.dwattr $C$DW$229, DW_AT_TI_symbol_name("_hMmcsd")
	.dwattr $C$DW$229, DW_AT_type(*$C$DW$T$130)
	.dwattr $C$DW$229, DW_AT_location[DW_OP_reg17]
$C$DW$230	.dwtag  DW_TAG_formal_parameter, DW_AT_name("clkDivValue")
	.dwattr $C$DW$230, DW_AT_TI_symbol_name("_clkDivValue")
	.dwattr $C$DW$230, DW_AT_type(*$C$DW$T$19)
	.dwattr $C$DW$230, DW_AT_location[DW_OP_reg12]
;*******************************************************************************
;* FUNCTION NAME: MMC_sendOpCond                                               *
;*                                                                             *
;*   Function Uses Regs : AC0,AC0,AC1,AC1,T0,AR0,XAR0,AR1,AR2,AR3,XAR3,SP,TC1, *
;*                        M40,SATA,SATD,RDM,FRCT,SMUL                          *
;*   Stack Frame        : Compact (No Frame Pointer, w/ debug)                 *
;*   Total Frame Size   : 4 words                                              *
;*                        (1 return address/alignment)                         *
;*                        (3 local values)                                     *
;*   Min System Stack   : 1 word                                               *
;*******************************************************************************
_MMC_sendOpCond:
	.dwcfi	cfa_offset, 1
	.dwcfi	save_reg_to_mem, 91, -1
        AADD #-3, SP
	.dwcfi	cfa_offset, 4
$C$DW$231	.dwtag  DW_TAG_variable, DW_AT_name("hMmcsd")
	.dwattr $C$DW$231, DW_AT_TI_symbol_name("_hMmcsd")
	.dwattr $C$DW$231, DW_AT_type(*$C$DW$T$130)
	.dwattr $C$DW$231, DW_AT_location[DW_OP_bregx 0x24 0]
$C$DW$232	.dwtag  DW_TAG_variable, DW_AT_name("clkDivValue")
	.dwattr $C$DW$232, DW_AT_TI_symbol_name("_clkDivValue")
	.dwattr $C$DW$232, DW_AT_type(*$C$DW$T$19)
	.dwattr $C$DW$232, DW_AT_location[DW_OP_bregx 0x24 2]
        MOV T0, *SP(#2) ; |2507| 
        MOV XAR0, dbl(*SP(#0))
	.dwpsn	file "src/csl_mmcsd.c",line 2508,column 5,is_stmt
        MOV dbl(*SP(#0)), XAR3

        MOV XAR3, AC0
||      MOV #0, AC1 ; |2508| 

        CMPU AC1 != AC0, TC1 ; |2508| 
        BCC $C$L138,TC1 ; |2508| 
                                        ; branchcc occurs ; |2508| 
	.dwpsn	file "src/csl_mmcsd.c",line 2510,column 9,is_stmt
        MOV #-5, T0
        B $C$L142 ; |2510| 
                                        ; branch occurs ; |2510| 
$C$L138:    
	.dwpsn	file "src/csl_mmcsd.c",line 2514,column 3,is_stmt
        MOV #255, AR2 ; |2514| 
        MOV *SP(#2), AR1 ; |2514| 
        CMPU AR1 > AR2, TC1 ; |2514| 
        BCC $C$L141,TC1 ; |2514| 
                                        ; branchcc occurs ; |2514| 
	.dwpsn	file "src/csl_mmcsd.c",line 2517,column 4,is_stmt
        MOV *AR3, AR3 ; |2517| 
        MOV port(*AR3(short(#4))), AR1 ; |2517| 
        MOV dbl(*SP(#0)), XAR3
        MOV *AR3, AR3 ; |2517| 
        BCLR @#8, AR1 ; |2517| 
        MOV AR1, port(*AR3(short(#4))) ; |2517| 
	.dwpsn	file "src/csl_mmcsd.c",line 2518,column 4,is_stmt
        MOV dbl(*SP(#0)), XAR3
        MOV *AR3, AR3 ; |2518| 
        MOV port(*AR3(short(#4))), AR1 ; |2518| 
        MOV dbl(*SP(#0)), XAR3
        MOV *AR3, AR3 ; |2518| 
        AND #0xff00, AR1, AR2 ; |2518| 
        MOV uns(low_byte(*SP(#2))), AR1 ; |2518| 
        OR AR2, AR1 ; |2518| 
        MOV AR1, port(*AR3(short(#4))) ; |2518| 
	.dwpsn	file "src/csl_mmcsd.c",line 2520,column 4,is_stmt
        MOV dbl(*SP(#0)), XAR3
        MOV dbl(*AR3(short(#2))), XAR3
        MOV #2, AR2
        MOV *AR3(#18), AR1 ; |2520| 
        CMP AR2 != AR1, TC1 ; |2520| 
        BCC $C$L139,TC1 ; |2520| 
                                        ; branchcc occurs ; |2520| 
	.dwpsn	file "src/csl_mmcsd.c",line 2523,column 5,is_stmt
        MOV dbl(*SP(#0)), XAR3
        MOV *AR3, AR3 ; |2523| 
        MOV port(*AR3), AR1 ; |2523| 
        MOV dbl(*SP(#0)), XAR3
        MOV *AR3, AR3 ; |2523| 
        BCLR @#2, AR1 ; |2523| 
        MOV AR1, port(*AR3) ; |2523| 
$C$L139:    
	.dwpsn	file "src/csl_mmcsd.c",line 2526,column 4,is_stmt
        MOV dbl(*SP(#0)), XAR3
        MOV dbl(*AR3(short(#2))), XAR3
        MOV #1, AR2
        MOV *AR3(#18), AR1 ; |2526| 
        CMP AR2 != AR1, TC1 ; |2526| 
        BCC $C$L140,TC1 ; |2526| 
                                        ; branchcc occurs ; |2526| 
	.dwpsn	file "src/csl_mmcsd.c",line 2529,column 5,is_stmt
        MOV dbl(*SP(#0)), XAR3
        MOV *AR3, AR3 ; |2529| 
        MOV port(*AR3), AR1 ; |2529| 
        MOV dbl(*SP(#0)), XAR3
        MOV *AR3, AR3 ; |2529| 
        BCLR @#2, AR1 ; |2529| 
        BSET @#2, AR1 ; |2529| 
        MOV AR1, port(*AR3) ; |2529| 
$C$L140:    
	.dwpsn	file "src/csl_mmcsd.c",line 2532,column 4,is_stmt
        MOV #0, T0
        B $C$L142 ; |2532| 
                                        ; branch occurs ; |2532| 
$C$L141:    
	.dwpsn	file "src/csl_mmcsd.c",line 2536,column 4,is_stmt
        MOV #-6, T0
$C$L142:    
	.dwpsn	file "src/csl_mmcsd.c",line 2539,column 1,is_stmt
        AADD #3, SP
	.dwcfi	cfa_offset, 1
$C$DW$233	.dwtag  DW_TAG_TI_branch
	.dwattr $C$DW$233, DW_AT_low_pc(0x00)
	.dwattr $C$DW$233, DW_AT_TI_return
        RET
                                        ; return occurs
	.dwattr $C$DW$228, DW_AT_TI_end_file("src/csl_mmcsd.c")
	.dwattr $C$DW$228, DW_AT_TI_end_line(0x9eb)
	.dwattr $C$DW$228, DW_AT_TI_end_column(0x01)
	.dwendentry
	.dwendtag $C$DW$228

	.sect	".text"
	.global	_MMC_setRca

$C$DW$234	.dwtag  DW_TAG_subprogram, DW_AT_name("MMC_setRca")
	.dwattr $C$DW$234, DW_AT_low_pc(_MMC_setRca)
	.dwattr $C$DW$234, DW_AT_high_pc(0x00)
	.dwattr $C$DW$234, DW_AT_TI_symbol_name("_MMC_setRca")
	.dwattr $C$DW$234, DW_AT_external
	.dwattr $C$DW$234, DW_AT_type(*$C$DW$T$132)
	.dwattr $C$DW$234, DW_AT_TI_begin_file("src/csl_mmcsd.c")
	.dwattr $C$DW$234, DW_AT_TI_begin_line(0xa31)
	.dwattr $C$DW$234, DW_AT_TI_begin_column(0x0c)
	.dwattr $C$DW$234, DW_AT_TI_max_frame_size(0x0c)
	.dwpsn	file "src/csl_mmcsd.c",line 2612,column 1,is_stmt,address _MMC_setRca

	.dwfde $C$DW$CIE, _MMC_setRca
$C$DW$235	.dwtag  DW_TAG_formal_parameter, DW_AT_name("hMmcsd")
	.dwattr $C$DW$235, DW_AT_TI_symbol_name("_hMmcsd")
	.dwattr $C$DW$235, DW_AT_type(*$C$DW$T$130)
	.dwattr $C$DW$235, DW_AT_location[DW_OP_reg17]
$C$DW$236	.dwtag  DW_TAG_formal_parameter, DW_AT_name("pMmcCardObj")
	.dwattr $C$DW$236, DW_AT_TI_symbol_name("_pMmcCardObj")
	.dwattr $C$DW$236, DW_AT_type(*$C$DW$T$82)
	.dwattr $C$DW$236, DW_AT_location[DW_OP_reg19]
$C$DW$237	.dwtag  DW_TAG_formal_parameter, DW_AT_name("rCardAddr")
	.dwattr $C$DW$237, DW_AT_TI_symbol_name("_rCardAddr")
	.dwattr $C$DW$237, DW_AT_type(*$C$DW$T$19)
	.dwattr $C$DW$237, DW_AT_location[DW_OP_reg12]
;*******************************************************************************
;* FUNCTION NAME: MMC_setRca                                                   *
;*                                                                             *
;*   Function Uses Regs : AC0,AC0,AC1,AC1,T0,AR0,XAR0,AR1,XAR1,AR2,XAR2,AR3,   *
;*                        XAR3,SP,TC1,M40,SATA,SATD,RDM,FRCT,SMUL              *
;*   Stack Frame        : Compact (No Frame Pointer, w/ debug)                 *
;*   Total Frame Size   : 12 words                                             *
;*                        (2 return address/alignment)                         *
;*                        (10 local values)                                    *
;*   Min System Stack   : 1 word                                               *
;*******************************************************************************
_MMC_setRca:
	.dwcfi	cfa_offset, 1
	.dwcfi	save_reg_to_mem, 91, -1
        AADD #-11, SP
	.dwcfi	cfa_offset, 12
$C$DW$238	.dwtag  DW_TAG_variable, DW_AT_name("hMmcsd")
	.dwattr $C$DW$238, DW_AT_TI_symbol_name("_hMmcsd")
	.dwattr $C$DW$238, DW_AT_type(*$C$DW$T$130)
	.dwattr $C$DW$238, DW_AT_location[DW_OP_bregx 0x24 0]
$C$DW$239	.dwtag  DW_TAG_variable, DW_AT_name("pMmcCardObj")
	.dwattr $C$DW$239, DW_AT_TI_symbol_name("_pMmcCardObj")
	.dwattr $C$DW$239, DW_AT_type(*$C$DW$T$82)
	.dwattr $C$DW$239, DW_AT_location[DW_OP_bregx 0x24 2]
$C$DW$240	.dwtag  DW_TAG_variable, DW_AT_name("rCardAddr")
	.dwattr $C$DW$240, DW_AT_TI_symbol_name("_rCardAddr")
	.dwattr $C$DW$240, DW_AT_type(*$C$DW$T$19)
	.dwattr $C$DW$240, DW_AT_location[DW_OP_bregx 0x24 4]
$C$DW$241	.dwtag  DW_TAG_variable, DW_AT_name("setRcaCmd")
	.dwattr $C$DW$241, DW_AT_TI_symbol_name("_setRcaCmd")
	.dwattr $C$DW$241, DW_AT_type(*$C$DW$T$19)
	.dwattr $C$DW$241, DW_AT_location[DW_OP_bregx 0x24 5]
$C$DW$242	.dwtag  DW_TAG_variable, DW_AT_name("status")
	.dwattr $C$DW$242, DW_AT_TI_symbol_name("_status")
	.dwattr $C$DW$242, DW_AT_type(*$C$DW$T$202)
	.dwattr $C$DW$242, DW_AT_location[DW_OP_bregx 0x24 6]
$C$DW$243	.dwtag  DW_TAG_variable, DW_AT_name("argument")
	.dwattr $C$DW$243, DW_AT_TI_symbol_name("_argument")
	.dwattr $C$DW$243, DW_AT_type(*$C$DW$T$49)
	.dwattr $C$DW$243, DW_AT_location[DW_OP_bregx 0x24 8]
        MOV T0, *SP(#4) ; |2612| 
        MOV XAR1, dbl(*SP(#2))
        MOV XAR0, dbl(*SP(#0))
	.dwpsn	file "src/csl_mmcsd.c",line 2617,column 5,is_stmt
        MOV #0, *SP(#5) ; |2617| 
	.dwpsn	file "src/csl_mmcsd.c",line 2619,column 5,is_stmt
        MOV dbl(*SP(#0)), XAR3

        MOV XAR3, AC0
||      MOV #0, AC1 ; |2619| 

        CMPU AC1 != AC0, TC1 ; |2619| 
        BCC $C$L143,TC1 ; |2619| 
                                        ; branchcc occurs ; |2619| 
	.dwpsn	file "src/csl_mmcsd.c",line 2621,column 9,is_stmt
        MOV #-5, T0
        B $C$L147 ; |2621| 
                                        ; branch occurs ; |2621| 
$C$L143:    
	.dwpsn	file "src/csl_mmcsd.c",line 2625,column 9,is_stmt
        MOV dbl(*SP(#2)), XAR3
        MOV XAR3, AC0
        CMPU AC1 != AC0, TC1 ; |2625| 
        BCC $C$L144,TC1 ; |2625| 
                                        ; branchcc occurs ; |2625| 
	.dwpsn	file "src/csl_mmcsd.c",line 2627,column 13,is_stmt
        MOV #-6, T0
        B $C$L147 ; |2627| 
                                        ; branch occurs ; |2627| 
$C$L144:    
	.dwpsn	file "src/csl_mmcsd.c",line 2631,column 10,is_stmt
        AND #0x7fff, *SP(#5) ; |2631| 
	.dwpsn	file "src/csl_mmcsd.c",line 2632,column 10,is_stmt
        AND #0xbfff, *SP(#5) ; |2632| 
	.dwpsn	file "src/csl_mmcsd.c",line 2633,column 10,is_stmt
        AND #0xdfff, *SP(#5) ; |2633| 
	.dwpsn	file "src/csl_mmcsd.c",line 2634,column 10,is_stmt
        AND #0xefff, *SP(#5) ; |2634| 
	.dwpsn	file "src/csl_mmcsd.c",line 2635,column 10,is_stmt
        AND #0xf7ff, *SP(#5) ; |2635| 
	.dwpsn	file "src/csl_mmcsd.c",line 2637,column 10,is_stmt
        MOV *SP(#5), AR1 ; |2637| 
        AND #0xf9ff, AR1, AC0 ; |2637| 
        BSET @#9, AC0 ; |2637| 
        MOV AC0, *SP(#5) ; |2637| 
	.dwpsn	file "src/csl_mmcsd.c",line 2638,column 10,is_stmt
        AND #0xfeff, *SP(#5) ; |2638| 
	.dwpsn	file "src/csl_mmcsd.c",line 2639,column 13,is_stmt
        AND #0xff7f, *SP(#5) ; |2639| 
	.dwpsn	file "src/csl_mmcsd.c",line 2640,column 10,is_stmt
        MOV *SP(#5), AR1 ; |2640| 
        AND #0xffc0, AR1, AR1 ; |2640| 
        OR #0x0003, AR1, AR1 ; |2640| 
        MOV AR1, *SP(#5) ; |2640| 
	.dwpsn	file "src/csl_mmcsd.c",line 2642,column 10,is_stmt
        MOV *SP(#4), AR1 ; |2642| 
        MOV AR1, HI(AC0) ; |2642| 
        MOV AC0, dbl(*SP(#8)) ; |2642| 
	.dwpsn	file "src/csl_mmcsd.c",line 2643,column 10,is_stmt
        MOV dbl(*SP(#8)), AC0 ; |2643| 
        MOV AC0, dbl(*SP(#8)) ; |2643| 
	.dwpsn	file "src/csl_mmcsd.c",line 2645,column 4,is_stmt
        MOV dbl(*SP(#0)), XAR0
        MOV dbl(*SP(#8)), AC1 ; |2645| 
        MOV uns(*SP(#5)), AC0 ; |2645| 
$C$DW$244	.dwtag  DW_TAG_TI_branch
	.dwattr $C$DW$244, DW_AT_low_pc(0x00)
	.dwattr $C$DW$244, DW_AT_name("_MMC_sendCmd")
	.dwattr $C$DW$244, DW_AT_TI_call

        CALL #_MMC_sendCmd ; |2645| 
||      MOV #4, T0

                                        ; call occurs [#_MMC_sendCmd] ; |2645| 
        MOV T0, *SP(#6) ; |2645| 
        NOP
        NOP
        NOP
	.dwpsn	file "src/csl_mmcsd.c",line 2649,column 4,is_stmt

        MOV *SP(#6), AR1 ; |2649| 
||      MOV #-10, AR2

        CMP AR2 == AR1, TC1 ; |2649| 
        BCC $C$L145,TC1 ; |2649| 
                                        ; branchcc occurs ; |2649| 

        MOV #-15, AR2
||      MOV *SP(#6), AR1 ; |2649| 

        CMP AR2 != AR1, TC1 ; |2649| 
        BCC $C$L146,TC1 ; |2649| 
                                        ; branchcc occurs ; |2649| 
$C$L145:    
	.dwpsn	file "src/csl_mmcsd.c",line 2652,column 5,is_stmt
        MOV *SP(#6), T0 ; |2652| 
        B $C$L147 ; |2652| 
                                        ; branch occurs ; |2652| 
$C$L146:    
	.dwpsn	file "src/csl_mmcsd.c",line 2655,column 4,is_stmt
        MOV dbl(*SP(#2)), XAR3
        MOV *SP(#4), AR1 ; |2655| 
        MOV AR1, *AR3 ; |2655| 
	.dwpsn	file "src/csl_mmcsd.c",line 2656,column 4,is_stmt
        MOV dbl(*SP(#0)), XAR3
        MOV dbl(*SP(#2)), XAR2
        MOV XAR2, dbl(*AR3(short(#2)))
	.dwpsn	file "src/csl_mmcsd.c",line 2658,column 4,is_stmt
        MOV #0, T0
$C$L147:    
	.dwpsn	file "src/csl_mmcsd.c",line 2661,column 1,is_stmt
        AADD #11, SP
	.dwcfi	cfa_offset, 1
$C$DW$245	.dwtag  DW_TAG_TI_branch
	.dwattr $C$DW$245, DW_AT_low_pc(0x00)
	.dwattr $C$DW$245, DW_AT_TI_return
        RET
                                        ; return occurs
	.dwattr $C$DW$234, DW_AT_TI_end_file("src/csl_mmcsd.c")
	.dwattr $C$DW$234, DW_AT_TI_end_line(0xa65)
	.dwattr $C$DW$234, DW_AT_TI_end_column(0x01)
	.dwendentry
	.dwendtag $C$DW$234

	.sect	".text"
	.global	_SD_sendRca

$C$DW$246	.dwtag  DW_TAG_subprogram, DW_AT_name("SD_sendRca")
	.dwattr $C$DW$246, DW_AT_low_pc(_SD_sendRca)
	.dwattr $C$DW$246, DW_AT_high_pc(0x00)
	.dwattr $C$DW$246, DW_AT_TI_symbol_name("_SD_sendRca")
	.dwattr $C$DW$246, DW_AT_external
	.dwattr $C$DW$246, DW_AT_type(*$C$DW$T$132)
	.dwattr $C$DW$246, DW_AT_TI_begin_file("src/csl_mmcsd.c")
	.dwattr $C$DW$246, DW_AT_TI_begin_line(0xaab)
	.dwattr $C$DW$246, DW_AT_TI_begin_column(0x0c)
	.dwattr $C$DW$246, DW_AT_TI_max_frame_size(0x0a)
	.dwpsn	file "src/csl_mmcsd.c",line 2734,column 1,is_stmt,address _SD_sendRca

	.dwfde $C$DW$CIE, _SD_sendRca
$C$DW$247	.dwtag  DW_TAG_formal_parameter, DW_AT_name("hMmcsd")
	.dwattr $C$DW$247, DW_AT_TI_symbol_name("_hMmcsd")
	.dwattr $C$DW$247, DW_AT_type(*$C$DW$T$130)
	.dwattr $C$DW$247, DW_AT_location[DW_OP_reg17]
$C$DW$248	.dwtag  DW_TAG_formal_parameter, DW_AT_name("pSdCardObj")
	.dwattr $C$DW$248, DW_AT_TI_symbol_name("_pSdCardObj")
	.dwattr $C$DW$248, DW_AT_type(*$C$DW$T$82)
	.dwattr $C$DW$248, DW_AT_location[DW_OP_reg19]
$C$DW$249	.dwtag  DW_TAG_formal_parameter, DW_AT_name("pRCardAddr")
	.dwattr $C$DW$249, DW_AT_TI_symbol_name("_pRCardAddr")
	.dwattr $C$DW$249, DW_AT_type(*$C$DW$T$161)
	.dwattr $C$DW$249, DW_AT_location[DW_OP_reg21]
;*******************************************************************************
;* FUNCTION NAME: SD_sendRca                                                   *
;*                                                                             *
;*   Function Uses Regs : AC0,AC0,AC1,AC1,T0,AR0,XAR0,AR1,XAR1,AR2,XAR2,AR3,   *
;*                        XAR3,SP,TC1,M40,SATA,SATD,RDM,FRCT,SMUL              *
;*   Stack Frame        : Compact (No Frame Pointer, w/ debug)                 *
;*   Total Frame Size   : 10 words                                             *
;*                        (2 return address/alignment)                         *
;*                        (8 local values)                                     *
;*   Min System Stack   : 1 word                                               *
;*******************************************************************************
_SD_sendRca:
	.dwcfi	cfa_offset, 1
	.dwcfi	save_reg_to_mem, 91, -1
        AADD #-9, SP
	.dwcfi	cfa_offset, 10
$C$DW$250	.dwtag  DW_TAG_variable, DW_AT_name("hMmcsd")
	.dwattr $C$DW$250, DW_AT_TI_symbol_name("_hMmcsd")
	.dwattr $C$DW$250, DW_AT_type(*$C$DW$T$130)
	.dwattr $C$DW$250, DW_AT_location[DW_OP_bregx 0x24 0]
$C$DW$251	.dwtag  DW_TAG_variable, DW_AT_name("pSdCardObj")
	.dwattr $C$DW$251, DW_AT_TI_symbol_name("_pSdCardObj")
	.dwattr $C$DW$251, DW_AT_type(*$C$DW$T$82)
	.dwattr $C$DW$251, DW_AT_location[DW_OP_bregx 0x24 2]
$C$DW$252	.dwtag  DW_TAG_variable, DW_AT_name("pRCardAddr")
	.dwattr $C$DW$252, DW_AT_TI_symbol_name("_pRCardAddr")
	.dwattr $C$DW$252, DW_AT_type(*$C$DW$T$161)
	.dwattr $C$DW$252, DW_AT_location[DW_OP_bregx 0x24 4]
$C$DW$253	.dwtag  DW_TAG_variable, DW_AT_name("sendRcaCmd")
	.dwattr $C$DW$253, DW_AT_TI_symbol_name("_sendRcaCmd")
	.dwattr $C$DW$253, DW_AT_type(*$C$DW$T$20)
	.dwattr $C$DW$253, DW_AT_location[DW_OP_bregx 0x24 6]
$C$DW$254	.dwtag  DW_TAG_variable, DW_AT_name("status")
	.dwattr $C$DW$254, DW_AT_TI_symbol_name("_status")
	.dwattr $C$DW$254, DW_AT_type(*$C$DW$T$202)
	.dwattr $C$DW$254, DW_AT_location[DW_OP_bregx 0x24 7]
        MOV XAR2, dbl(*SP(#4))
        MOV XAR1, dbl(*SP(#2))
        MOV XAR0, dbl(*SP(#0))
	.dwpsn	file "src/csl_mmcsd.c",line 2738,column 5,is_stmt
        MOV #0, *SP(#6) ; |2738| 
	.dwpsn	file "src/csl_mmcsd.c",line 2740,column 5,is_stmt
        MOV dbl(*SP(#0)), XAR3

        MOV XAR3, AC0
||      MOV #0, AC1 ; |2740| 

        CMPU AC1 != AC0, TC1 ; |2740| 
        BCC $C$L148,TC1 ; |2740| 
                                        ; branchcc occurs ; |2740| 
	.dwpsn	file "src/csl_mmcsd.c",line 2742,column 9,is_stmt
        MOV #-5, T0
        B $C$L153 ; |2742| 
                                        ; branch occurs ; |2742| 
$C$L148:    
	.dwpsn	file "src/csl_mmcsd.c",line 2746,column 9,is_stmt
        MOV dbl(*SP(#2)), XAR3
        MOV XAR3, AC0
        CMPU AC1 == AC0, TC1 ; |2746| 
        BCC $C$L149,TC1 ; |2746| 
                                        ; branchcc occurs ; |2746| 
        MOV dbl(*SP(#4)), XAR3
        MOV XAR3, AC0
        CMPU AC1 != AC0, TC1 ; |2746| 
        BCC $C$L150,TC1 ; |2746| 
                                        ; branchcc occurs ; |2746| 
$C$L149:    
	.dwpsn	file "src/csl_mmcsd.c",line 2748,column 13,is_stmt
        MOV #-6, T0
        B $C$L153 ; |2748| 
                                        ; branch occurs ; |2748| 
$C$L150:    
	.dwpsn	file "src/csl_mmcsd.c",line 2753,column 10,is_stmt
        AND #0x7fff, *SP(#6) ; |2753| 
	.dwpsn	file "src/csl_mmcsd.c",line 2754,column 10,is_stmt
        AND #0xbfff, *SP(#6) ; |2754| 
	.dwpsn	file "src/csl_mmcsd.c",line 2755,column 10,is_stmt
        AND #0xdfff, *SP(#6) ; |2755| 
	.dwpsn	file "src/csl_mmcsd.c",line 2756,column 10,is_stmt
        AND #0xefff, *SP(#6) ; |2756| 
	.dwpsn	file "src/csl_mmcsd.c",line 2757,column 10,is_stmt
        AND #0xf7ff, *SP(#6) ; |2757| 
        NOP
        NOP
        NOP
	.dwpsn	file "src/csl_mmcsd.c",line 2759,column 4,is_stmt
        MOV *SP(#6), AR1 ; |2759| 
        AND #0xf9ff, AR1, AC0 ; |2759| 
        BSET @#9, AC0 ; |2759| 
        MOV AC0, *SP(#6) ; |2759| 
	.dwpsn	file "src/csl_mmcsd.c",line 2760,column 10,is_stmt
        AND #0xfeff, *SP(#6) ; |2760| 
	.dwpsn	file "src/csl_mmcsd.c",line 2761,column 13,is_stmt
        AND #0xff7f, *SP(#6) ; |2761| 
        NOP
        NOP
        NOP
	.dwpsn	file "src/csl_mmcsd.c",line 2762,column 10,is_stmt
        MOV *SP(#6), AR1 ; |2762| 
        AND #0xffc0, AR1, AR1 ; |2762| 
        OR #0x0003, AR1, AR1 ; |2762| 
        MOV AR1, *SP(#6) ; |2762| 
        NOP
        NOP
	.dwpsn	file "src/csl_mmcsd.c",line 2764,column 4,is_stmt
        MOV dbl(*SP(#0)), XAR0
        MOV uns(*SP(#6)), AC0 ; |2764| 
$C$DW$255	.dwtag  DW_TAG_TI_branch
	.dwattr $C$DW$255, DW_AT_low_pc(0x00)
	.dwattr $C$DW$255, DW_AT_name("_MMC_sendCmd")
	.dwattr $C$DW$255, DW_AT_TI_call

        CALL #_MMC_sendCmd ; |2764| 
||      MOV #4, T0

                                        ; call occurs [#_MMC_sendCmd] ; |2764| 
        MOV T0, *SP(#7) ; |2764| 
        NOP
        NOP
        NOP
	.dwpsn	file "src/csl_mmcsd.c",line 2768,column 4,is_stmt

        MOV *SP(#7), AR1 ; |2768| 
||      MOV #-10, AR2

        CMP AR2 == AR1, TC1 ; |2768| 
        BCC $C$L151,TC1 ; |2768| 
                                        ; branchcc occurs ; |2768| 

        MOV #-15, AR2
||      MOV *SP(#7), AR1 ; |2768| 

        CMP AR2 != AR1, TC1 ; |2768| 
        BCC $C$L152,TC1 ; |2768| 
                                        ; branchcc occurs ; |2768| 
$C$L151:    
	.dwpsn	file "src/csl_mmcsd.c",line 2771,column 5,is_stmt
        MOV *SP(#7), T0 ; |2771| 
        B $C$L153 ; |2771| 
                                        ; branch occurs ; |2771| 
$C$L152:    
	.dwpsn	file "src/csl_mmcsd.c",line 2774,column 13,is_stmt
        MOV dbl(*SP(#0)), XAR3
        MOV #69, T0 ; |2774| 
        MOV *AR3, AR3 ; |2774| 
        MOV port(*AR3(T0)), AR1 ; |2774| 
        MOV dbl(*SP(#4)), XAR3
        MOV AR1, *AR3 ; |2774| 
	.dwpsn	file "src/csl_mmcsd.c",line 2775,column 13,is_stmt
        MOV dbl(*SP(#2)), XAR2
        MOV dbl(*SP(#4)), XAR3
        MOV *AR3, *AR2 ; |2775| 
	.dwpsn	file "src/csl_mmcsd.c",line 2776,column 13,is_stmt
        MOV dbl(*SP(#0)), XAR3
        MOV dbl(*SP(#2)), XAR2
        MOV XAR2, dbl(*AR3(short(#2)))
	.dwpsn	file "src/csl_mmcsd.c",line 2778,column 13,is_stmt
        MOV #0, T0
$C$L153:    
	.dwpsn	file "src/csl_mmcsd.c",line 2781,column 1,is_stmt
        AADD #9, SP
	.dwcfi	cfa_offset, 1
$C$DW$256	.dwtag  DW_TAG_TI_branch
	.dwattr $C$DW$256, DW_AT_low_pc(0x00)
	.dwattr $C$DW$256, DW_AT_TI_return
        RET
                                        ; return occurs
	.dwattr $C$DW$246, DW_AT_TI_end_file("src/csl_mmcsd.c")
	.dwattr $C$DW$246, DW_AT_TI_end_line(0xadd)
	.dwattr $C$DW$246, DW_AT_TI_end_column(0x01)
	.dwendentry
	.dwendtag $C$DW$246

	.sect	".text"
	.global	_MMC_sendAllCID

$C$DW$257	.dwtag  DW_TAG_subprogram, DW_AT_name("MMC_sendAllCID")
	.dwattr $C$DW$257, DW_AT_low_pc(_MMC_sendAllCID)
	.dwattr $C$DW$257, DW_AT_high_pc(0x00)
	.dwattr $C$DW$257, DW_AT_TI_symbol_name("_MMC_sendAllCID")
	.dwattr $C$DW$257, DW_AT_external
	.dwattr $C$DW$257, DW_AT_type(*$C$DW$T$132)
	.dwattr $C$DW$257, DW_AT_TI_begin_file("src/csl_mmcsd.c")
	.dwattr $C$DW$257, DW_AT_TI_begin_line(0xb1c)
	.dwattr $C$DW$257, DW_AT_TI_begin_column(0x0c)
	.dwattr $C$DW$257, DW_AT_TI_max_frame_size(0x0e)
	.dwpsn	file "src/csl_mmcsd.c",line 2846,column 1,is_stmt,address _MMC_sendAllCID

	.dwfde $C$DW$CIE, _MMC_sendAllCID
$C$DW$258	.dwtag  DW_TAG_formal_parameter, DW_AT_name("hMmcsd")
	.dwattr $C$DW$258, DW_AT_TI_symbol_name("_hMmcsd")
	.dwattr $C$DW$258, DW_AT_type(*$C$DW$T$130)
	.dwattr $C$DW$258, DW_AT_location[DW_OP_reg17]
$C$DW$259	.dwtag  DW_TAG_formal_parameter, DW_AT_name("pMmcCardIdObj")
	.dwattr $C$DW$259, DW_AT_TI_symbol_name("_pMmcCardIdObj")
	.dwattr $C$DW$259, DW_AT_type(*$C$DW$T$64)
	.dwattr $C$DW$259, DW_AT_location[DW_OP_reg19]
;*******************************************************************************
;* FUNCTION NAME: MMC_sendAllCID                                               *
;*                                                                             *
;*   Function Uses Regs : AC0,AC0,AC1,AC1,T0,AR0,XAR0,AR1,XAR1,AR2,XAR2,AR3,   *
;*                        XAR3,SP,CSR,RPTC,CARRY,TC1,M40,SATA,SATD,RDM,FRCT,   *
;*                        SMUL                                                 *
;*   Stack Frame        : Compact (No Frame Pointer, w/ debug)                 *
;*   Total Frame Size   : 14 words                                             *
;*                        (1 return address/alignment)                         *
;*                        (13 local values)                                    *
;*   Min System Stack   : 1 word                                               *
;*******************************************************************************
_MMC_sendAllCID:
	.dwcfi	cfa_offset, 1
	.dwcfi	save_reg_to_mem, 91, -1
        AADD #-13, SP
	.dwcfi	cfa_offset, 14
$C$DW$260	.dwtag  DW_TAG_variable, DW_AT_name("hMmcsd")
	.dwattr $C$DW$260, DW_AT_TI_symbol_name("_hMmcsd")
	.dwattr $C$DW$260, DW_AT_type(*$C$DW$T$130)
	.dwattr $C$DW$260, DW_AT_location[DW_OP_bregx 0x24 0]
$C$DW$261	.dwtag  DW_TAG_variable, DW_AT_name("pMmcCardIdObj")
	.dwattr $C$DW$261, DW_AT_TI_symbol_name("_pMmcCardIdObj")
	.dwattr $C$DW$261, DW_AT_type(*$C$DW$T$64)
	.dwattr $C$DW$261, DW_AT_location[DW_OP_bregx 0x24 2]
$C$DW$262	.dwtag  DW_TAG_variable, DW_AT_name("status")
	.dwattr $C$DW$262, DW_AT_TI_symbol_name("_status")
	.dwattr $C$DW$262, DW_AT_type(*$C$DW$T$202)
	.dwattr $C$DW$262, DW_AT_location[DW_OP_bregx 0x24 4]
$C$DW$263	.dwtag  DW_TAG_variable, DW_AT_name("mmcCid")
	.dwattr $C$DW$263, DW_AT_TI_symbol_name("_mmcCid")
	.dwattr $C$DW$263, DW_AT_type(*$C$DW$T$94)
	.dwattr $C$DW$263, DW_AT_location[DW_OP_bregx 0x24 5]
        MOV XAR1, dbl(*SP(#2))
        MOV XAR0, dbl(*SP(#0))
	.dwpsn	file "src/csl_mmcsd.c",line 2850,column 5,is_stmt
        MOV dbl(*SP(#0)), XAR3
        MOV XAR3, AC0
        BCC $C$L154,AC0 == #0 ; |2850| 
                                        ; branchcc occurs ; |2850| 
        MOV dbl(*SP(#2)), XAR3
        MOV XAR3, AC0
        BCC $C$L156,AC0 != #0 ; |2850| 
                                        ; branchcc occurs ; |2850| 
	.dwpsn	file "src/csl_mmcsd.c",line 2853,column 5,is_stmt
$C$L154:    
	.dwpsn	file "src/csl_mmcsd.c",line 2856,column 9,is_stmt
        MOV dbl(*SP(#0)), XAR3

        MOV XAR3, AC0
||      MOV #0, AC1 ; |2856| 

        CMPU AC1 != AC0, TC1 ; |2856| 
        BCC $C$L155,TC1 ; |2856| 
                                        ; branchcc occurs ; |2856| 
	.dwpsn	file "src/csl_mmcsd.c",line 2858,column 13,is_stmt
        MOV #-5, T0
        B $C$L161 ; |2858| 
                                        ; branch occurs ; |2858| 
$C$L155:    
	.dwpsn	file "src/csl_mmcsd.c",line 2862,column 13,is_stmt
        MOV #-6, T0
        B $C$L161 ; |2862| 
                                        ; branch occurs ; |2862| 
$C$L156:    
	.dwpsn	file "src/csl_mmcsd.c",line 2867,column 5,is_stmt
        MOV dbl(*SP(#0)), XAR3
        MOV #69, T0 ; |2867| 
        MOV *AR3, AR3 ; |2867| 
        MOV #0, port(*AR3(T0)) ; |2867| 
	.dwpsn	file "src/csl_mmcsd.c",line 2868,column 5,is_stmt
        MOV dbl(*SP(#0)), XAR3
        MOV #80, T0 ; |2868| 
        MOV *AR3, AR3 ; |2868| 
        MOV port(*AR3(T0)), AR1 ; |2868| 
        MOV dbl(*SP(#0)), XAR3
        MOV *AR3, AR3 ; |2868| 
        AND #0xffc0, AR1, AC0 ; |2868| 
        MOV AC0, port(*AR3(T0)) ; |2868| 
	.dwpsn	file "src/csl_mmcsd.c",line 2870,column 2,is_stmt
        MOV dbl(*SP(#0)), XAR0

        MOV #1026, AC0 ; |2870| 
||      MOV #0, AC1 ; |2870| 

$C$DW$264	.dwtag  DW_TAG_TI_branch
	.dwattr $C$DW$264, DW_AT_low_pc(0x00)
	.dwattr $C$DW$264, DW_AT_name("_MMC_sendCmd")
	.dwattr $C$DW$264, DW_AT_TI_call

        CALL #_MMC_sendCmd ; |2870| 
||      MOV #4, T0

                                        ; call occurs [#_MMC_sendCmd] ; |2870| 
        MOV T0, *SP(#4) ; |2870| 
        NOP
        NOP
        NOP
	.dwpsn	file "src/csl_mmcsd.c",line 2874,column 2,is_stmt

        MOV *SP(#4), AR1 ; |2874| 
||      MOV #-10, AR2

        CMP AR2 == AR1, TC1 ; |2874| 
        BCC $C$L157,TC1 ; |2874| 
                                        ; branchcc occurs ; |2874| 

        MOV #-15, AR2
||      MOV *SP(#4), AR1 ; |2874| 

        CMP AR2 != AR1, TC1 ; |2874| 
        BCC $C$L158,TC1 ; |2874| 
                                        ; branchcc occurs ; |2874| 
$C$L157:    
	.dwpsn	file "src/csl_mmcsd.c",line 2877,column 3,is_stmt
        MOV *SP(#4), T0 ; |2877| 
        B $C$L161 ; |2877| 
                                        ; branch occurs ; |2877| 
$C$L158:    
	.dwpsn	file "src/csl_mmcsd.c",line 2881,column 5,is_stmt
        MOV dbl(*SP(#0)), XAR3
        MOV #56, T0 ; |2881| 
        MOV *AR3, AR3 ; |2881| 
        MOV port(*AR3(T0)), AR1 ; |2881| 
        MOV AR1, *SP(#12) ; |2881| 
	.dwpsn	file "src/csl_mmcsd.c",line 2882,column 5,is_stmt
        MOV dbl(*SP(#0)), XAR3
        MOV #57, T0 ; |2882| 
        MOV *AR3, AR3 ; |2882| 
        MOV port(*AR3(T0)), AR1 ; |2882| 
        MOV AR1, *SP(#11) ; |2882| 
	.dwpsn	file "src/csl_mmcsd.c",line 2883,column 5,is_stmt
        MOV dbl(*SP(#0)), XAR3
        MOV #60, T0 ; |2883| 
        MOV *AR3, AR3 ; |2883| 
        MOV port(*AR3(T0)), AR1 ; |2883| 
        MOV AR1, *SP(#10) ; |2883| 
	.dwpsn	file "src/csl_mmcsd.c",line 2884,column 5,is_stmt
        MOV dbl(*SP(#0)), XAR3
        MOV #61, T0 ; |2884| 
        MOV *AR3, AR3 ; |2884| 
        MOV port(*AR3(T0)), AR1 ; |2884| 
        MOV AR1, *SP(#9) ; |2884| 
	.dwpsn	file "src/csl_mmcsd.c",line 2885,column 5,is_stmt
        MOV dbl(*SP(#0)), XAR3
        MOV #64, T0 ; |2885| 
        MOV *AR3, AR3 ; |2885| 
        MOV port(*AR3(T0)), AR1 ; |2885| 
        MOV AR1, *SP(#8) ; |2885| 
	.dwpsn	file "src/csl_mmcsd.c",line 2886,column 5,is_stmt
        MOV dbl(*SP(#0)), XAR3
        MOV #65, T0 ; |2886| 
        MOV *AR3, AR3 ; |2886| 
        MOV port(*AR3(T0)), AR1 ; |2886| 
        MOV AR1, *SP(#7) ; |2886| 
	.dwpsn	file "src/csl_mmcsd.c",line 2887,column 5,is_stmt
        MOV dbl(*SP(#0)), XAR3
        MOV #68, T0 ; |2887| 
        MOV *AR3, AR3 ; |2887| 
        MOV port(*AR3(T0)), AR1 ; |2887| 
        MOV AR1, *SP(#6) ; |2887| 
	.dwpsn	file "src/csl_mmcsd.c",line 2888,column 5,is_stmt
        MOV dbl(*SP(#0)), XAR3
        MOV #69, T0 ; |2888| 
        MOV *AR3, AR3 ; |2888| 
        MOV port(*AR3(T0)), AR1 ; |2888| 
        MOV AR1, *SP(#5) ; |2888| 
	.dwpsn	file "src/csl_mmcsd.c",line 2890,column 5,is_stmt
        MOV dbl(*SP(#0)), XAR2
        AMAR *SP(#5), XAR3

        RPT #7    ; |2890| 
||      AADD #45, AR2 ; |2890| 

                                            ; loop starts ; |2890| 
$C$L159:    
$C$DW$L$_MMC_sendAllCID$12$B:
            MOV *AR3+, *AR2+ ; |2890| 
                                        ; loop ends ; |2890| 
$C$DW$L$_MMC_sendAllCID$12$E:
$C$L160:    
	.dwpsn	file "src/csl_mmcsd.c",line 2892,column 5,is_stmt
        MOV dbl(*SP(#2)), XAR3
        MOV uns(high_byte(*SP(#5))), AR1 ; |2892| 
        AND #0x00ff, AR1, AC0 ; |2892| 
        MOV AC0, *AR3 ; |2892| 
	.dwpsn	file "src/csl_mmcsd.c",line 2894,column 5,is_stmt
        MOV dbl(*SP(#2)), XAR3
        MOV *SP(#6), AC0 ; |2894| 
        MOV *SP(#5), AC1 ; |2894| 
        BFXTR #0xff00, AC0, AC0 ; |2894| 
        OR AC1 << #8, AC0 ; |2894| 
        MOV AC0, *AR3(short(#1)) ; |2894| 
	.dwpsn	file "src/csl_mmcsd.c",line 2897,column 5,is_stmt
        MOV dbl(*SP(#2)), XAR3
        MOV uns(high_byte(*SP(#9))), AR1 ; |2897| 
        AND #0x00ff, AR1, AC0 ; |2897| 
        MOV AC0, *AR3(short(#7)) ; |2897| 
	.dwpsn	file "src/csl_mmcsd.c",line 2898,column 5,is_stmt
        MOV dbl(*SP(#2)), XAR3
        MOV uns(low_byte(*SP(#8))), AR1 ; |2898| 
        MOV AR1, *AR3(short(#6)) ; |2898| 
	.dwpsn	file "src/csl_mmcsd.c",line 2899,column 5,is_stmt
        MOV dbl(*SP(#2)), XAR3
        MOV uns(high_byte(*SP(#8))), AR1 ; |2899| 
        AND #0x00ff, AR1, AC0 ; |2899| 
        MOV AC0, *AR3(short(#5)) ; |2899| 
	.dwpsn	file "src/csl_mmcsd.c",line 2900,column 5,is_stmt
        MOV dbl(*SP(#2)), XAR3
        MOV uns(low_byte(*SP(#7))), AR1 ; |2900| 
        MOV AR1, *AR3(short(#4)) ; |2900| 
	.dwpsn	file "src/csl_mmcsd.c",line 2901,column 5,is_stmt
        MOV dbl(*SP(#2)), XAR3
        MOV uns(high_byte(*SP(#7))), AR1 ; |2901| 
        AND #0x00ff, AR1, AC0 ; |2901| 
        MOV AC0, *AR3(short(#3)) ; |2901| 
	.dwpsn	file "src/csl_mmcsd.c",line 2902,column 5,is_stmt
        MOV dbl(*SP(#2)), XAR3
        MOV uns(low_byte(*SP(#6))), AR1 ; |2902| 
        MOV AR1, *AR3(short(#2)) ; |2902| 
	.dwpsn	file "src/csl_mmcsd.c",line 2904,column 5,is_stmt
        MOV dbl(*SP(#2)), XAR3
        MOV *SP(#10), AR1 ; |2904| 
        MOV AR1, HI(AC0) ; |2904| 
        OR *SP(#11), AC0, AC0 ; |2904| 
        MOV AC0, dbl(*AR3(#10)) ; |2904| 
	.dwpsn	file "src/csl_mmcsd.c",line 2906,column 5,is_stmt
        MOV dbl(*SP(#2)), XAR3
        MOV *SP(#12), AC0 ; |2906| 
        BFXTR #0xf000, AC0, AR1 ; |2906| 
        MOV AR1, *AR3(#12) ; |2906| 
	.dwpsn	file "src/csl_mmcsd.c",line 2907,column 5,is_stmt
        MOV dbl(*SP(#2)), XAR3
        MOV *SP(#12), AC0 ; |2907| 
        BFXTR #0x0f00, AC0, AR1 ; |2907| 
        ADD #1997, AR1, AR1 ; |2907| 
        MOV AR1, *AR3(#13) ; |2907| 
	.dwpsn	file "src/csl_mmcsd.c",line 2908,column 5,is_stmt
        MOV dbl(*SP(#2)), XAR3
        MOV *SP(#12), AR1 ; |2908| 
        AND #0x00fe, AR1, AR1 ; |2908| 
        SFTL AR1, #-1 ; |2908| 
        MOV AR1, *AR3(#14) ; |2908| 
	.dwpsn	file "src/csl_mmcsd.c",line 2910,column 5,is_stmt
        MOV dbl(*SP(#0)), XAR3
        MOV dbl(*AR3(short(#2))), XAR3
        MOV dbl(*SP(#2)), XAR2
        MOV XAR2, dbl(*AR3(#20))
	.dwpsn	file "src/csl_mmcsd.c",line 2912,column 2,is_stmt
        MOV #0, T0
$C$L161:    
	.dwpsn	file "src/csl_mmcsd.c",line 2913,column 1,is_stmt
        AADD #13, SP
	.dwcfi	cfa_offset, 1
$C$DW$265	.dwtag  DW_TAG_TI_branch
	.dwattr $C$DW$265, DW_AT_low_pc(0x00)
	.dwattr $C$DW$265, DW_AT_TI_return
        RET
                                        ; return occurs

$C$DW$266	.dwtag  DW_TAG_TI_loop
	.dwattr $C$DW$266, DW_AT_name("/home/santiago/dspfuzz/on_board/library/csl_mmcsd.asm:$C$L159:1:1714639441")
	.dwattr $C$DW$266, DW_AT_TI_begin_file("src/csl_mmcsd.c")
	.dwattr $C$DW$266, DW_AT_TI_begin_line(0xb4a)
	.dwattr $C$DW$266, DW_AT_TI_end_line(0xb4a)
$C$DW$267	.dwtag  DW_TAG_TI_loop_range
	.dwattr $C$DW$267, DW_AT_low_pc($C$DW$L$_MMC_sendAllCID$12$B)
	.dwattr $C$DW$267, DW_AT_high_pc($C$DW$L$_MMC_sendAllCID$12$E)
	.dwendtag $C$DW$266

	.dwattr $C$DW$257, DW_AT_TI_end_file("src/csl_mmcsd.c")
	.dwattr $C$DW$257, DW_AT_TI_end_line(0xb61)
	.dwattr $C$DW$257, DW_AT_TI_end_column(0x01)
	.dwendentry
	.dwendtag $C$DW$257

	.sect	".text"
	.global	_SD_sendAllCID

$C$DW$268	.dwtag  DW_TAG_subprogram, DW_AT_name("SD_sendAllCID")
	.dwattr $C$DW$268, DW_AT_low_pc(_SD_sendAllCID)
	.dwattr $C$DW$268, DW_AT_high_pc(0x00)
	.dwattr $C$DW$268, DW_AT_TI_symbol_name("_SD_sendAllCID")
	.dwattr $C$DW$268, DW_AT_external
	.dwattr $C$DW$268, DW_AT_type(*$C$DW$T$132)
	.dwattr $C$DW$268, DW_AT_TI_begin_file("src/csl_mmcsd.c")
	.dwattr $C$DW$268, DW_AT_TI_begin_line(0xba1)
	.dwattr $C$DW$268, DW_AT_TI_begin_column(0x0c)
	.dwattr $C$DW$268, DW_AT_TI_max_frame_size(0x0e)
	.dwpsn	file "src/csl_mmcsd.c",line 2979,column 1,is_stmt,address _SD_sendAllCID

	.dwfde $C$DW$CIE, _SD_sendAllCID
$C$DW$269	.dwtag  DW_TAG_formal_parameter, DW_AT_name("hMmcsd")
	.dwattr $C$DW$269, DW_AT_TI_symbol_name("_hMmcsd")
	.dwattr $C$DW$269, DW_AT_type(*$C$DW$T$130)
	.dwattr $C$DW$269, DW_AT_location[DW_OP_reg17]
$C$DW$270	.dwtag  DW_TAG_formal_parameter, DW_AT_name("pSdCardIdObj")
	.dwattr $C$DW$270, DW_AT_TI_symbol_name("_pSdCardIdObj")
	.dwattr $C$DW$270, DW_AT_type(*$C$DW$T$64)
	.dwattr $C$DW$270, DW_AT_location[DW_OP_reg19]
;*******************************************************************************
;* FUNCTION NAME: SD_sendAllCID                                                *
;*                                                                             *
;*   Function Uses Regs : AC0,AC0,AC1,AC1,T0,AR0,XAR0,AR1,XAR1,AR2,XAR2,AR3,   *
;*                        XAR3,SP,CSR,RPTC,CARRY,TC1,M40,SATA,SATD,RDM,FRCT,   *
;*                        SMUL                                                 *
;*   Stack Frame        : Compact (No Frame Pointer, w/ debug)                 *
;*   Total Frame Size   : 14 words                                             *
;*                        (1 return address/alignment)                         *
;*                        (13 local values)                                    *
;*   Min System Stack   : 1 word                                               *
;*******************************************************************************
_SD_sendAllCID:
	.dwcfi	cfa_offset, 1
	.dwcfi	save_reg_to_mem, 91, -1
        AADD #-13, SP
	.dwcfi	cfa_offset, 14
$C$DW$271	.dwtag  DW_TAG_variable, DW_AT_name("hMmcsd")
	.dwattr $C$DW$271, DW_AT_TI_symbol_name("_hMmcsd")
	.dwattr $C$DW$271, DW_AT_type(*$C$DW$T$130)
	.dwattr $C$DW$271, DW_AT_location[DW_OP_bregx 0x24 0]
$C$DW$272	.dwtag  DW_TAG_variable, DW_AT_name("pSdCardIdObj")
	.dwattr $C$DW$272, DW_AT_TI_symbol_name("_pSdCardIdObj")
	.dwattr $C$DW$272, DW_AT_type(*$C$DW$T$64)
	.dwattr $C$DW$272, DW_AT_location[DW_OP_bregx 0x24 2]
$C$DW$273	.dwtag  DW_TAG_variable, DW_AT_name("status")
	.dwattr $C$DW$273, DW_AT_TI_symbol_name("_status")
	.dwattr $C$DW$273, DW_AT_type(*$C$DW$T$202)
	.dwattr $C$DW$273, DW_AT_location[DW_OP_bregx 0x24 4]
$C$DW$274	.dwtag  DW_TAG_variable, DW_AT_name("sdCid")
	.dwattr $C$DW$274, DW_AT_TI_symbol_name("_sdCid")
	.dwattr $C$DW$274, DW_AT_type(*$C$DW$T$94)
	.dwattr $C$DW$274, DW_AT_location[DW_OP_bregx 0x24 5]
        MOV XAR1, dbl(*SP(#2))
        MOV XAR0, dbl(*SP(#0))
	.dwpsn	file "src/csl_mmcsd.c",line 2983,column 5,is_stmt
        MOV dbl(*SP(#0)), XAR3
        MOV XAR3, AC0
        BCC $C$L162,AC0 == #0 ; |2983| 
                                        ; branchcc occurs ; |2983| 
        MOV dbl(*SP(#2)), XAR3
        MOV XAR3, AC0
        BCC $C$L164,AC0 != #0 ; |2983| 
                                        ; branchcc occurs ; |2983| 
	.dwpsn	file "src/csl_mmcsd.c",line 2986,column 5,is_stmt
$C$L162:    
	.dwpsn	file "src/csl_mmcsd.c",line 2989,column 9,is_stmt
        MOV dbl(*SP(#0)), XAR3

        MOV XAR3, AC0
||      MOV #0, AC1 ; |2989| 

        CMPU AC1 != AC0, TC1 ; |2989| 
        BCC $C$L163,TC1 ; |2989| 
                                        ; branchcc occurs ; |2989| 
	.dwpsn	file "src/csl_mmcsd.c",line 2991,column 13,is_stmt
        MOV #-5, T0
        B $C$L169 ; |2991| 
                                        ; branch occurs ; |2991| 
$C$L163:    
	.dwpsn	file "src/csl_mmcsd.c",line 2995,column 13,is_stmt
        MOV #-6, T0
        B $C$L169 ; |2995| 
                                        ; branch occurs ; |2995| 
$C$L164:    
	.dwpsn	file "src/csl_mmcsd.c",line 3000,column 5,is_stmt
        MOV dbl(*SP(#0)), XAR3
        MOV #69, T0 ; |3000| 
        MOV *AR3, AR3 ; |3000| 
        MOV #0, port(*AR3(T0)) ; |3000| 
	.dwpsn	file "src/csl_mmcsd.c",line 3001,column 5,is_stmt
        MOV dbl(*SP(#0)), XAR3
        MOV #80, T0 ; |3001| 
        MOV *AR3, AR3 ; |3001| 
        MOV port(*AR3(T0)), AR1 ; |3001| 
        MOV dbl(*SP(#0)), XAR3
        MOV *AR3, AR3 ; |3001| 
        AND #0xffc0, AR1, AC0 ; |3001| 
        MOV AC0, port(*AR3(T0)) ; |3001| 
	.dwpsn	file "src/csl_mmcsd.c",line 3003,column 2,is_stmt
        MOV dbl(*SP(#0)), XAR0

        MOV #1026, AC0 ; |3003| 
||      MOV #0, AC1 ; |3003| 

$C$DW$275	.dwtag  DW_TAG_TI_branch
	.dwattr $C$DW$275, DW_AT_low_pc(0x00)
	.dwattr $C$DW$275, DW_AT_name("_MMC_sendCmd")
	.dwattr $C$DW$275, DW_AT_TI_call

        CALL #_MMC_sendCmd ; |3003| 
||      MOV #4, T0

                                        ; call occurs [#_MMC_sendCmd] ; |3003| 
        MOV T0, *SP(#4) ; |3003| 
        NOP
        NOP
        NOP
	.dwpsn	file "src/csl_mmcsd.c",line 3007,column 2,is_stmt

        MOV *SP(#4), AR1 ; |3007| 
||      MOV #-10, AR2

        CMP AR2 == AR1, TC1 ; |3007| 
        BCC $C$L165,TC1 ; |3007| 
                                        ; branchcc occurs ; |3007| 

        MOV #-15, AR2
||      MOV *SP(#4), AR1 ; |3007| 

        CMP AR2 != AR1, TC1 ; |3007| 
        BCC $C$L166,TC1 ; |3007| 
                                        ; branchcc occurs ; |3007| 
$C$L165:    
	.dwpsn	file "src/csl_mmcsd.c",line 3010,column 3,is_stmt
        MOV *SP(#4), T0 ; |3010| 
        B $C$L169 ; |3010| 
                                        ; branch occurs ; |3010| 
$C$L166:    
	.dwpsn	file "src/csl_mmcsd.c",line 3014,column 5,is_stmt
        MOV dbl(*SP(#0)), XAR3
        MOV #56, T0 ; |3014| 
        MOV *AR3, AR3 ; |3014| 
        MOV port(*AR3(T0)), AR1 ; |3014| 
        MOV AR1, *SP(#12) ; |3014| 
	.dwpsn	file "src/csl_mmcsd.c",line 3015,column 5,is_stmt
        MOV dbl(*SP(#0)), XAR3
        MOV #57, T0 ; |3015| 
        MOV *AR3, AR3 ; |3015| 
        MOV port(*AR3(T0)), AR1 ; |3015| 
        MOV AR1, *SP(#11) ; |3015| 
	.dwpsn	file "src/csl_mmcsd.c",line 3016,column 5,is_stmt
        MOV dbl(*SP(#0)), XAR3
        MOV #60, T0 ; |3016| 
        MOV *AR3, AR3 ; |3016| 
        MOV port(*AR3(T0)), AR1 ; |3016| 
        MOV AR1, *SP(#10) ; |3016| 
	.dwpsn	file "src/csl_mmcsd.c",line 3017,column 5,is_stmt
        MOV dbl(*SP(#0)), XAR3
        MOV #61, T0 ; |3017| 
        MOV *AR3, AR3 ; |3017| 
        MOV port(*AR3(T0)), AR1 ; |3017| 
        MOV AR1, *SP(#9) ; |3017| 
	.dwpsn	file "src/csl_mmcsd.c",line 3018,column 5,is_stmt
        MOV dbl(*SP(#0)), XAR3
        MOV #64, T0 ; |3018| 
        MOV *AR3, AR3 ; |3018| 
        MOV port(*AR3(T0)), AR1 ; |3018| 
        MOV AR1, *SP(#8) ; |3018| 
	.dwpsn	file "src/csl_mmcsd.c",line 3019,column 5,is_stmt
        MOV dbl(*SP(#0)), XAR3
        MOV #65, T0 ; |3019| 
        MOV *AR3, AR3 ; |3019| 
        MOV port(*AR3(T0)), AR1 ; |3019| 
        MOV AR1, *SP(#7) ; |3019| 
	.dwpsn	file "src/csl_mmcsd.c",line 3020,column 5,is_stmt
        MOV dbl(*SP(#0)), XAR3
        MOV #68, T0 ; |3020| 
        MOV *AR3, AR3 ; |3020| 
        MOV port(*AR3(T0)), AR1 ; |3020| 
        MOV AR1, *SP(#6) ; |3020| 
	.dwpsn	file "src/csl_mmcsd.c",line 3021,column 5,is_stmt
        MOV dbl(*SP(#0)), XAR3
        MOV #69, T0 ; |3021| 
        MOV *AR3, AR3 ; |3021| 
        MOV port(*AR3(T0)), AR1 ; |3021| 
        MOV AR1, *SP(#5) ; |3021| 
	.dwpsn	file "src/csl_mmcsd.c",line 3023,column 5,is_stmt
        MOV dbl(*SP(#0)), XAR2
        AMAR *SP(#5), XAR3

        RPT #7    ; |3023| 
||      AADD #45, AR2 ; |3023| 

                                            ; loop starts ; |3023| 
$C$L167:    
$C$DW$L$_SD_sendAllCID$12$B:
            MOV *AR3+, *AR2+ ; |3023| 
                                        ; loop ends ; |3023| 
$C$DW$L$_SD_sendAllCID$12$E:
$C$L168:    
	.dwpsn	file "src/csl_mmcsd.c",line 3025,column 5,is_stmt
        MOV dbl(*SP(#2)), XAR3
        MOV *SP(#5), AR1 ; |3025| 
        AND #0xff00, AR1, AC0 ; |3025| 
        BFXTR #0xff00, AC0, AR1 ; |3025| 
        MOV AR1, *AR3 ; |3025| 
	.dwpsn	file "src/csl_mmcsd.c",line 3027,column 5,is_stmt
        MOV *SP(#6), AR1 ; |3027| 
        MOV dbl(*SP(#2)), XAR3
        MOV *SP(#5), AC1 ; |3027| 
        AND #0xff00, AR1, AC0 ; |3027| 
        BFXTR #0xff00, AC0, AC0 ; |3027| 
        OR AC1 << #8, AC0 ; |3027| 
        MOV AC0, *AR3(short(#1)) ; |3027| 
	.dwpsn	file "src/csl_mmcsd.c",line 3030,column 5,is_stmt
        MOV dbl(*SP(#2)), XAR3
        MOV #0, *AR3(short(#7)) ; |3030| 
	.dwpsn	file "src/csl_mmcsd.c",line 3031,column 5,is_stmt
        MOV dbl(*SP(#2)), XAR3
        MOV uns(low_byte(*SP(#8))), AR1 ; |3031| 
        MOV AR1, *AR3(short(#6)) ; |3031| 
	.dwpsn	file "src/csl_mmcsd.c",line 3032,column 5,is_stmt
        MOV dbl(*SP(#2)), XAR3
        MOV uns(high_byte(*SP(#8))), AR1 ; |3032| 
        MOV AR1, *AR3(short(#5)) ; |3032| 
	.dwpsn	file "src/csl_mmcsd.c",line 3033,column 5,is_stmt
        MOV dbl(*SP(#2)), XAR3
        MOV uns(low_byte(*SP(#7))), AR1 ; |3033| 
        MOV AR1, *AR3(short(#4)) ; |3033| 
	.dwpsn	file "src/csl_mmcsd.c",line 3034,column 5,is_stmt
        MOV dbl(*SP(#2)), XAR3
        MOV uns(high_byte(*SP(#7))), AR1 ; |3034| 
        MOV AR1, *AR3(short(#3)) ; |3034| 
	.dwpsn	file "src/csl_mmcsd.c",line 3035,column 5,is_stmt
        MOV dbl(*SP(#2)), XAR3
        MOV uns(low_byte(*SP(#6))), AR1 ; |3035| 
        MOV AR1, *AR3(short(#2)) ; |3035| 
	.dwpsn	file "src/csl_mmcsd.c",line 3037,column 5,is_stmt
        MOV uns(low_byte(*SP(#9))), AR1 ; |3037| 
        MOV dbl(*SP(#2)), XAR3
        MOV uns(*SP(#10)), AC1 ; |3037| 

        MOV uns(high_byte(*SP(#11))), AR1 ; |3037| 
||      MOV AR1, HI(AC0) ; |3037| 

        AND #0xffff, AR1, AC1 ; |3037| 
||      OR AC1 << #8, AC0 ; |3037| 

        OR AC0, AC1 ; |3037| 
        MOV AC1, dbl(*AR3(#10)) ; |3037| 
	.dwpsn	file "src/csl_mmcsd.c",line 3041,column 5,is_stmt
        MOV dbl(*SP(#2)), XAR3
        MOV uns(high_byte(*SP(#12))), AR1 ; |3041| 
        AND #0x000f, AR1, AC0 ; |3041| 
        MOV AC0, *AR3(#12) ; |3041| 
	.dwpsn	file "src/csl_mmcsd.c",line 3042,column 5,is_stmt
        MOV *SP(#11), AR1 ; |3042| 
        MOV *SP(#12), AC0 ; |3042| 
        MOV dbl(*SP(#2)), XAR3

        AND #0x000f, AR1, AC0 ; |3042| 
||      BFXTR #0xf000, AC0, AR2 ; |3042| 

        SFTL AC0, #4, AC0 ; |3042| 
        ADD #2000, AC0, AR1 ; |3042| 
        OR AR2, AR1 ; |3042| 
        MOV AR1, *AR3(#13) ; |3042| 
	.dwpsn	file "src/csl_mmcsd.c",line 3045,column 5,is_stmt
        MOV dbl(*SP(#2)), XAR3
        MOV *SP(#12), AR1 ; |3045| 
        AND #0x00fe, AR1, AR1 ; |3045| 
        SFTL AR1, #-1 ; |3045| 
        MOV AR1, *AR3(#14) ; |3045| 
	.dwpsn	file "src/csl_mmcsd.c",line 3047,column 5,is_stmt
        MOV dbl(*SP(#0)), XAR3
        MOV dbl(*AR3(short(#2))), XAR3
        MOV dbl(*SP(#2)), XAR2
        MOV XAR2, dbl(*AR3(#20))
	.dwpsn	file "src/csl_mmcsd.c",line 3049,column 2,is_stmt
        MOV #0, T0
$C$L169:    
	.dwpsn	file "src/csl_mmcsd.c",line 3050,column 1,is_stmt
        AADD #13, SP
	.dwcfi	cfa_offset, 1
$C$DW$276	.dwtag  DW_TAG_TI_branch
	.dwattr $C$DW$276, DW_AT_low_pc(0x00)
	.dwattr $C$DW$276, DW_AT_TI_return
        RET
                                        ; return occurs

$C$DW$277	.dwtag  DW_TAG_TI_loop
	.dwattr $C$DW$277, DW_AT_name("/home/santiago/dspfuzz/on_board/library/csl_mmcsd.asm:$C$L167:1:1714639441")
	.dwattr $C$DW$277, DW_AT_TI_begin_file("src/csl_mmcsd.c")
	.dwattr $C$DW$277, DW_AT_TI_begin_line(0xbcf)
	.dwattr $C$DW$277, DW_AT_TI_end_line(0xbcf)
$C$DW$278	.dwtag  DW_TAG_TI_loop_range
	.dwattr $C$DW$278, DW_AT_low_pc($C$DW$L$_SD_sendAllCID$12$B)
	.dwattr $C$DW$278, DW_AT_high_pc($C$DW$L$_SD_sendAllCID$12$E)
	.dwendtag $C$DW$277

	.dwattr $C$DW$268, DW_AT_TI_end_file("src/csl_mmcsd.c")
	.dwattr $C$DW$268, DW_AT_TI_end_line(0xbea)
	.dwattr $C$DW$268, DW_AT_TI_end_column(0x01)
	.dwendentry
	.dwendtag $C$DW$268

	.sect	".text"
	.global	_MMC_getCardCsd

$C$DW$279	.dwtag  DW_TAG_subprogram, DW_AT_name("MMC_getCardCsd")
	.dwattr $C$DW$279, DW_AT_low_pc(_MMC_getCardCsd)
	.dwattr $C$DW$279, DW_AT_high_pc(0x00)
	.dwattr $C$DW$279, DW_AT_TI_symbol_name("_MMC_getCardCsd")
	.dwattr $C$DW$279, DW_AT_external
	.dwattr $C$DW$279, DW_AT_type(*$C$DW$T$132)
	.dwattr $C$DW$279, DW_AT_TI_begin_file("src/csl_mmcsd.c")
	.dwattr $C$DW$279, DW_AT_TI_begin_line(0xc30)
	.dwattr $C$DW$279, DW_AT_TI_begin_column(0x0c)
	.dwattr $C$DW$279, DW_AT_TI_max_frame_size(0x18)
	.dwpsn	file "src/csl_mmcsd.c",line 3122,column 1,is_stmt,address _MMC_getCardCsd

	.dwfde $C$DW$CIE, _MMC_getCardCsd
$C$DW$280	.dwtag  DW_TAG_formal_parameter, DW_AT_name("hMmcsd")
	.dwattr $C$DW$280, DW_AT_TI_symbol_name("_hMmcsd")
	.dwattr $C$DW$280, DW_AT_type(*$C$DW$T$130)
	.dwattr $C$DW$280, DW_AT_location[DW_OP_reg17]
$C$DW$281	.dwtag  DW_TAG_formal_parameter, DW_AT_name("pMmcCardCsdObj")
	.dwattr $C$DW$281, DW_AT_TI_symbol_name("_pMmcCardCsdObj")
	.dwattr $C$DW$281, DW_AT_type(*$C$DW$T$66)
	.dwattr $C$DW$281, DW_AT_location[DW_OP_reg19]
;*******************************************************************************
;* FUNCTION NAME: MMC_getCardCsd                                               *
;*                                                                             *
;*   Function Uses Regs : AC0,AC0,AC1,AC1,T0,T1,AR0,XAR0,AR1,XAR1,AR2,XAR2,AR3,*
;*                        XAR3,SP,CSR,RPTC,CARRY,TC1,M40,SATA,SATD,RDM,FRCT,   *
;*                        SMUL                                                 *
;*   Stack Frame        : Compact (No Frame Pointer, w/ debug)                 *
;*   Total Frame Size   : 24 words                                             *
;*                        (2 return address/alignment)                         *
;*                        (22 local values)                                    *
;*   Min System Stack   : 1 word                                               *
;*******************************************************************************
_MMC_getCardCsd:
	.dwcfi	cfa_offset, 1
	.dwcfi	save_reg_to_mem, 91, -1
        AADD #-23, SP
	.dwcfi	cfa_offset, 24
$C$DW$282	.dwtag  DW_TAG_variable, DW_AT_name("hMmcsd")
	.dwattr $C$DW$282, DW_AT_TI_symbol_name("_hMmcsd")
	.dwattr $C$DW$282, DW_AT_type(*$C$DW$T$130)
	.dwattr $C$DW$282, DW_AT_location[DW_OP_bregx 0x24 0]
$C$DW$283	.dwtag  DW_TAG_variable, DW_AT_name("pMmcCardCsdObj")
	.dwattr $C$DW$283, DW_AT_TI_symbol_name("_pMmcCardCsdObj")
	.dwattr $C$DW$283, DW_AT_type(*$C$DW$T$66)
	.dwattr $C$DW$283, DW_AT_location[DW_OP_bregx 0x24 2]
$C$DW$284	.dwtag  DW_TAG_variable, DW_AT_name("result")
	.dwattr $C$DW$284, DW_AT_TI_symbol_name("_result")
	.dwattr $C$DW$284, DW_AT_type(*$C$DW$T$132)
	.dwattr $C$DW$284, DW_AT_location[DW_OP_bregx 0x24 4]
$C$DW$285	.dwtag  DW_TAG_variable, DW_AT_name("argument")
	.dwattr $C$DW$285, DW_AT_TI_symbol_name("_argument")
	.dwattr $C$DW$285, DW_AT_type(*$C$DW$T$49)
	.dwattr $C$DW$285, DW_AT_location[DW_OP_bregx 0x24 6]
$C$DW$286	.dwtag  DW_TAG_variable, DW_AT_name("multVal")
	.dwattr $C$DW$286, DW_AT_TI_symbol_name("_multVal")
	.dwattr $C$DW$286, DW_AT_type(*$C$DW$T$49)
	.dwattr $C$DW$286, DW_AT_location[DW_OP_bregx 0x24 8]
$C$DW$287	.dwtag  DW_TAG_variable, DW_AT_name("blockNR")
	.dwattr $C$DW$287, DW_AT_TI_symbol_name("_blockNR")
	.dwattr $C$DW$287, DW_AT_type(*$C$DW$T$49)
	.dwattr $C$DW$287, DW_AT_location[DW_OP_bregx 0x24 10]
$C$DW$288	.dwtag  DW_TAG_variable, DW_AT_name("status")
	.dwattr $C$DW$288, DW_AT_TI_symbol_name("_status")
	.dwattr $C$DW$288, DW_AT_type(*$C$DW$T$202)
	.dwattr $C$DW$288, DW_AT_location[DW_OP_bregx 0x24 12]
$C$DW$289	.dwtag  DW_TAG_variable, DW_AT_name("mmcCsd")
	.dwattr $C$DW$289, DW_AT_TI_symbol_name("_mmcCsd")
	.dwattr $C$DW$289, DW_AT_type(*$C$DW$T$95)
	.dwattr $C$DW$289, DW_AT_location[DW_OP_bregx 0x24 13]
$C$DW$290	.dwtag  DW_TAG_variable, DW_AT_name("eventFlags")
	.dwattr $C$DW$290, DW_AT_TI_symbol_name("_eventFlags")
	.dwattr $C$DW$290, DW_AT_type(*$C$DW$T$19)
	.dwattr $C$DW$290, DW_AT_location[DW_OP_bregx 0x24 21]
        MOV XAR1, dbl(*SP(#2))
        MOV XAR0, dbl(*SP(#0))
	.dwpsn	file "src/csl_mmcsd.c",line 3132,column 5,is_stmt
        MOV dbl(*SP(#0)), XAR3
        MOV XAR3, AC0
        BCC $C$L170,AC0 == #0 ; |3132| 
                                        ; branchcc occurs ; |3132| 
        MOV dbl(*SP(#2)), XAR3
        MOV XAR3, AC0
        BCC $C$L172,AC0 != #0 ; |3132| 
                                        ; branchcc occurs ; |3132| 
	.dwpsn	file "src/csl_mmcsd.c",line 3135,column 5,is_stmt
$C$L170:    
	.dwpsn	file "src/csl_mmcsd.c",line 3138,column 9,is_stmt
        MOV dbl(*SP(#0)), XAR3

        MOV XAR3, AC0
||      MOV #0, AC1 ; |3138| 

        CMPU AC1 != AC0, TC1 ; |3138| 
        BCC $C$L171,TC1 ; |3138| 
                                        ; branchcc occurs ; |3138| 
	.dwpsn	file "src/csl_mmcsd.c",line 3140,column 13,is_stmt
        MOV #-5, T0
        B $C$L183 ; |3140| 
                                        ; branch occurs ; |3140| 
$C$L171:    
	.dwpsn	file "src/csl_mmcsd.c",line 3144,column 13,is_stmt
        MOV #-6, T0
        B $C$L183 ; |3144| 
                                        ; branch occurs ; |3144| 
$C$L172:    
	.dwpsn	file "src/csl_mmcsd.c",line 3148,column 5,is_stmt
        MOV dbl(*SP(#0)), XAR3
        MOV dbl(*AR3(short(#2))), XAR3
        MOV uns(*AR3), AC0 ; |3148| 
        MOV AC0, dbl(*SP(#6)) ; |3148| 
	.dwpsn	file "src/csl_mmcsd.c",line 3149,column 2,is_stmt
        MOV dbl(*SP(#6)), AC0 ; |3149| 
        SFTL AC0, #16, AC0 ; |3149| 
        MOV AC0, dbl(*SP(#6)) ; |3149| 
	.dwpsn	file "src/csl_mmcsd.c",line 3152,column 5,is_stmt
        MOV dbl(*SP(#0)), XAR3
        MOV #69, T0 ; |3152| 
        MOV *AR3, AR3 ; |3152| 
        MOV #0, port(*AR3(T0)) ; |3152| 
	.dwpsn	file "src/csl_mmcsd.c",line 3153,column 5,is_stmt
        MOV dbl(*SP(#0)), XAR3
        MOV #80, T0 ; |3153| 
        MOV *AR3, AR3 ; |3153| 
        MOV port(*AR3(T0)), AR1 ; |3153| 
        MOV dbl(*SP(#0)), XAR3
        MOV *AR3, AR3 ; |3153| 
        AND #0xffc0, AR1, AC0 ; |3153| 
        MOV AC0, port(*AR3(T0)) ; |3153| 
	.dwpsn	file "src/csl_mmcsd.c",line 3155,column 2,is_stmt
        MOV #4, *SP(#21) ; |3155| 
	.dwpsn	file "src/csl_mmcsd.c",line 3156,column 2,is_stmt
        MOV #1033, AC0 ; |3156| 
        MOV dbl(*SP(#0)), XAR0
        MOV dbl(*SP(#6)), AC1 ; |3156| 
        MOV *SP(#21), T0 ; |3156| 
$C$DW$291	.dwtag  DW_TAG_TI_branch
	.dwattr $C$DW$291, DW_AT_low_pc(0x00)
	.dwattr $C$DW$291, DW_AT_name("_MMC_sendCmd")
	.dwattr $C$DW$291, DW_AT_TI_call
        CALL #_MMC_sendCmd ; |3156| 
                                        ; call occurs [#_MMC_sendCmd] ; |3156| 
        MOV T0, *SP(#12) ; |3156| 
        NOP
        NOP
        NOP
	.dwpsn	file "src/csl_mmcsd.c",line 3160,column 2,is_stmt

        MOV *SP(#12), AR1 ; |3160| 
||      MOV #-10, AR2

        CMP AR2 == AR1, TC1 ; |3160| 
        BCC $C$L173,TC1 ; |3160| 
                                        ; branchcc occurs ; |3160| 

        MOV #-15, AR2
||      MOV *SP(#12), AR1 ; |3160| 

        CMP AR2 != AR1, TC1 ; |3160| 
        BCC $C$L174,TC1 ; |3160| 
                                        ; branchcc occurs ; |3160| 
$C$L173:    
	.dwpsn	file "src/csl_mmcsd.c",line 3164,column 3,is_stmt
        MOV *SP(#12), T0 ; |3164| 
        B $C$L183 ; |3164| 
                                        ; branch occurs ; |3164| 
$C$L174:    
	.dwpsn	file "src/csl_mmcsd.c",line 3168,column 5,is_stmt
        MOV dbl(*SP(#0)), XAR3
        MOV #56, T0 ; |3168| 
        MOV *AR3, AR3 ; |3168| 
        MOV port(*AR3(T0)), AR1 ; |3168| 
        MOV AR1, *SP(#20) ; |3168| 
	.dwpsn	file "src/csl_mmcsd.c",line 3169,column 5,is_stmt
        MOV dbl(*SP(#0)), XAR3
        MOV #57, T0 ; |3169| 
        MOV *AR3, AR3 ; |3169| 
        MOV port(*AR3(T0)), AR1 ; |3169| 
        MOV AR1, *SP(#19) ; |3169| 
	.dwpsn	file "src/csl_mmcsd.c",line 3170,column 5,is_stmt
        MOV dbl(*SP(#0)), XAR3
        MOV #60, T0 ; |3170| 
        MOV *AR3, AR3 ; |3170| 
        MOV port(*AR3(T0)), AR1 ; |3170| 
        MOV AR1, *SP(#18) ; |3170| 
	.dwpsn	file "src/csl_mmcsd.c",line 3171,column 5,is_stmt
        MOV dbl(*SP(#0)), XAR3
        MOV #61, T0 ; |3171| 
        MOV *AR3, AR3 ; |3171| 
        MOV port(*AR3(T0)), AR1 ; |3171| 
        MOV AR1, *SP(#17) ; |3171| 
	.dwpsn	file "src/csl_mmcsd.c",line 3172,column 5,is_stmt
        MOV dbl(*SP(#0)), XAR3
        MOV #64, T0 ; |3172| 
        MOV *AR3, AR3 ; |3172| 
        MOV port(*AR3(T0)), AR1 ; |3172| 
        MOV AR1, *SP(#16) ; |3172| 
	.dwpsn	file "src/csl_mmcsd.c",line 3173,column 5,is_stmt
        MOV dbl(*SP(#0)), XAR3
        MOV #65, T0 ; |3173| 
        MOV *AR3, AR3 ; |3173| 
        MOV port(*AR3(T0)), AR1 ; |3173| 
        MOV AR1, *SP(#15) ; |3173| 
	.dwpsn	file "src/csl_mmcsd.c",line 3174,column 5,is_stmt
        MOV dbl(*SP(#0)), XAR3
        MOV #68, T0 ; |3174| 
        MOV *AR3, AR3 ; |3174| 
        MOV port(*AR3(T0)), AR1 ; |3174| 
        MOV AR1, *SP(#14) ; |3174| 
	.dwpsn	file "src/csl_mmcsd.c",line 3175,column 5,is_stmt
        MOV dbl(*SP(#0)), XAR3
        MOV #69, T0 ; |3175| 
        MOV *AR3, AR3 ; |3175| 
        MOV port(*AR3(T0)), AR1 ; |3175| 
        MOV AR1, *SP(#13) ; |3175| 
	.dwpsn	file "src/csl_mmcsd.c",line 3177,column 5,is_stmt
        MOV dbl(*SP(#0)), XAR2
        AMAR *SP(#13), XAR3

        RPT #7    ; |3177| 
||      AADD #53, AR2 ; |3177| 

                                            ; loop starts ; |3177| 
$C$L175:    
$C$DW$L$_MMC_getCardCsd$12$B:
            MOV *AR3+, *AR2+ ; |3177| 
                                        ; loop ends ; |3177| 
$C$DW$L$_MMC_getCardCsd$12$E:
$C$L176:    
	.dwpsn	file "src/csl_mmcsd.c",line 3180,column 5,is_stmt
        MOV dbl(*SP(#0)), XAR3
        MOV *AR3, AR3 ; |3180| 
        MOV #0, port(*AR3(T0)) ; |3180| 
	.dwpsn	file "src/csl_mmcsd.c",line 3181,column 5,is_stmt
        MOV dbl(*SP(#0)), XAR3
        MOV #80, T0 ; |3181| 
        MOV *AR3, AR3 ; |3181| 
        MOV port(*AR3(T0)), AR1 ; |3181| 
        MOV dbl(*SP(#0)), XAR3
        MOV *AR3, AR3 ; |3181| 
        AND #0xffc0, AR1, AC0 ; |3181| 
        MOV AC0, port(*AR3(T0)) ; |3181| 
	.dwpsn	file "src/csl_mmcsd.c",line 3183,column 2,is_stmt
        MOV #6, *SP(#21) ; |3183| 
	.dwpsn	file "src/csl_mmcsd.c",line 3184,column 2,is_stmt
        MOV dbl(*SP(#0)), XAR0
        MOV dbl(*SP(#6)), AC1 ; |3184| 
        MOV #775, AC0 ; |3184| 
        MOV *SP(#21), T0 ; |3184| 
$C$DW$292	.dwtag  DW_TAG_TI_branch
	.dwattr $C$DW$292, DW_AT_low_pc(0x00)
	.dwattr $C$DW$292, DW_AT_name("_MMC_sendCmd")
	.dwattr $C$DW$292, DW_AT_TI_call
        CALL #_MMC_sendCmd ; |3184| 
                                        ; call occurs [#_MMC_sendCmd] ; |3184| 
        MOV T0, *SP(#12) ; |3184| 
        NOP
        NOP
        NOP
	.dwpsn	file "src/csl_mmcsd.c",line 3188,column 2,is_stmt

        MOV *SP(#12), AR1 ; |3188| 
||      MOV #-10, AR2

        CMP AR2 == AR1, TC1 ; |3188| 
        BCC $C$L177,TC1 ; |3188| 
                                        ; branchcc occurs ; |3188| 

        MOV #-15, AR2
||      MOV *SP(#12), AR1 ; |3188| 

        CMP AR2 != AR1, TC1 ; |3188| 
        BCC $C$L178,TC1 ; |3188| 
                                        ; branchcc occurs ; |3188| 
$C$L177:    
	.dwpsn	file "src/csl_mmcsd.c",line 3191,column 3,is_stmt
        MOV *SP(#12), T0 ; |3191| 
        B $C$L183 ; |3191| 
                                        ; branch occurs ; |3191| 
$C$L178:    
	.dwpsn	file "src/csl_mmcsd.c",line 3195,column 2,is_stmt
        MOV dbl(*SP(#2)), XAR3
        MOV *SP(#13), AC0 ; |3195| 
        BFXTR #0xc000, AC0, AR1 ; |3195| 
        MOV AR1, *AR3 ; |3195| 
	.dwpsn	file "src/csl_mmcsd.c",line 3197,column 2,is_stmt
        MOV dbl(*SP(#2)), XAR3

        MOV *AR3, AR1 ; |3197| 
||      MOV #1, AR2

        CMPU AR1 <= AR2, TC1 ; |3197| 
        BCC $C$L179,TC1 ; |3197| 
                                        ; branchcc occurs ; |3197| 
	.dwpsn	file "src/csl_mmcsd.c",line 3199,column 3,is_stmt
        MOV dbl(*SP(#0)), XAR0
$C$DW$293	.dwtag  DW_TAG_TI_branch
	.dwattr $C$DW$293, DW_AT_low_pc(0x00)
	.dwattr $C$DW$293, DW_AT_name("_MMC_setEMMCBusWidth")
	.dwattr $C$DW$293, DW_AT_TI_call

        CALL #_MMC_setEMMCBusWidth ; |3199| 
||      MOV #0, T0

                                        ; call occurs [#_MMC_setEMMCBusWidth] ; |3199| 
$C$L179:    
	.dwpsn	file "src/csl_mmcsd.c",line 3239,column 2,is_stmt
        MOV dbl(*SP(#2)), XAR3
        MOV *SP(#20), AC0 ; |3239| 
        BFXTR #0x00fe, AC0, AR1 ; |3239| 
        MOV AR1, *AR3(#33) ; |3239| 
	.dwpsn	file "src/csl_mmcsd.c",line 3240,column 5,is_stmt
        MOV dbl(*SP(#2)), XAR3
        MOV uns(high_byte(*SP(#20))), AR1 ; |3240| 
        AND #0x0003, AR1, AC0 ; |3240| 
        MOV AC0, *AR3(#32) ; |3240| 
	.dwpsn	file "src/csl_mmcsd.c",line 3241,column 5,is_stmt
        MOV dbl(*SP(#2)), XAR3
        MOV *SP(#20), AC0 ; |3241| 
        BFXTR #0x0c00, AC0, AR1 ; |3241| 
        MOV AR1, *AR3(#31) ; |3241| 
	.dwpsn	file "src/csl_mmcsd.c",line 3242,column 5,is_stmt
        MOV dbl(*SP(#2)), XAR3
        MOV *SP(#20), AC0 ; |3242| 
        BFXTR #0x1000, AC0, AR1 ; |3242| 
        MOV AR1, *AR3(#30) ; |3242| 
	.dwpsn	file "src/csl_mmcsd.c",line 3243,column 5,is_stmt
        MOV dbl(*SP(#2)), XAR3
        MOV *SP(#20), AC0 ; |3243| 
        BFXTR #0x2000, AC0, AR1 ; |3243| 
        MOV AR1, *AR3(#29) ; |3243| 
	.dwpsn	file "src/csl_mmcsd.c",line 3244,column 5,is_stmt
        MOV dbl(*SP(#2)), XAR3
        MOV *SP(#20), AC0 ; |3244| 
        BFXTR #0x4000, AC0, AR1 ; |3244| 
        MOV AR1, *AR3(#28) ; |3244| 
	.dwpsn	file "src/csl_mmcsd.c",line 3245,column 5,is_stmt
        MOV dbl(*SP(#2)), XAR3
        MOV *SP(#20), AC0 ; |3245| 
        BFXTR #0x8000, AC0, AR1 ; |3245| 
        MOV AR1, *AR3(#27) ; |3245| 
	.dwpsn	file "src/csl_mmcsd.c",line 3247,column 5,is_stmt
        MOV dbl(*SP(#2)), XAR3
        MOV *SP(#19), AR1 ; |3247| 
        AND #0x0001, AR1, AC0 ; |3247| 
        MOV AC0, *AR3(#26) ; |3247| 
	.dwpsn	file "src/csl_mmcsd.c",line 3248,column 5,is_stmt
        MOV dbl(*SP(#2)), XAR3
        MOV *SP(#19), AC0 ; |3248| 
        BFXTR #0x0020, AC0, AR1 ; |3248| 
        MOV AR1, *AR3(#25) ; |3248| 
	.dwpsn	file "src/csl_mmcsd.c",line 3249,column 5,is_stmt
        MOV dbl(*SP(#2)), XAR3
        MOV *SP(#19), AC0 ; |3249| 
        BFXTR #0x03c0, AC0, AR1 ; |3249| 
        MOV AR1, *AR3(#24) ; |3249| 
	.dwpsn	file "src/csl_mmcsd.c",line 3250,column 5,is_stmt
        MOV dbl(*SP(#2)), XAR3
        MOV *SP(#19), AC0 ; |3250| 
        BFXTR #0x1c00, AC0, AR1 ; |3250| 
        MOV AR1, *AR3(#23) ; |3250| 
	.dwpsn	file "src/csl_mmcsd.c",line 3251,column 5,is_stmt
        MOV dbl(*SP(#2)), XAR3
        MOV *SP(#19), AC0 ; |3251| 
        BFXTR #0x6000, AC0, AR1 ; |3251| 
        MOV AR1, *AR3(#22) ; |3251| 
	.dwpsn	file "src/csl_mmcsd.c",line 3252,column 5,is_stmt
        MOV dbl(*SP(#2)), XAR3
        MOV *SP(#19), AC0 ; |3252| 
        BFXTR #0x8000, AC0, AR1 ; |3252| 
        MOV AR1, *AR3(#21) ; |3252| 
	.dwpsn	file "src/csl_mmcsd.c",line 3254,column 5,is_stmt
        MOV dbl(*SP(#2)), XAR3
        MOV *SP(#18), AR1 ; |3254| 
        AND #0x001f, AR1, AC0 ; |3254| 
        MOV AC0, *AR3(#20) ; |3254| 
	.dwpsn	file "src/csl_mmcsd.c",line 3255,column 2,is_stmt
        MOV dbl(*SP(#2)), XAR3
        MOV *SP(#18), AC0 ; |3255| 
        BFXTR #0x03e0, AC0, AR1 ; |3255| 
        MOV AR1, *AR3(#19) ; |3255| 
	.dwpsn	file "src/csl_mmcsd.c",line 3256,column 5,is_stmt
        MOV dbl(*SP(#2)), XAR3
        MOV *SP(#18), AC0 ; |3256| 
        BFXTR #0x7c00, AC0, AR1 ; |3256| 
        MOV AR1, *AR3(#18) ; |3256| 
	.dwpsn	file "src/csl_mmcsd.c",line 3257,column 5,is_stmt
        MOV dbl(*SP(#2)), XAR3
        MOV *SP(#18), AC0 ; |3257| 
        BFXTR #0x8000, AC0, AR1 ; |3257| 
        MOV AR1, *AR3(#16) ; |3257| 
	.dwpsn	file "src/csl_mmcsd.c",line 3259,column 5,is_stmt
        MOV dbl(*SP(#2)), XAR3
        MOV *SP(#17), AR1 ; |3259| 
        AND #0x0003, AR1, AC1 ; |3259| 
        MOV *AR3(#16), AC0 ; |3259| 
        OR AC1 << #1, AC0 ; |3259| 
        MOV AC0, *AR3(#16) ; |3259| 
	.dwpsn	file "src/csl_mmcsd.c",line 3261,column 5,is_stmt
        MOV dbl(*SP(#2)), XAR3
        MOV *SP(#17), AC0 ; |3261| 
        BFXTR #0x001c, AC0, AR1 ; |3261| 
        MOV AR1, *AR3(#15) ; |3261| 
	.dwpsn	file "src/csl_mmcsd.c",line 3262,column 5,is_stmt
        MOV dbl(*SP(#2)), XAR3
        MOV *SP(#17), AC0 ; |3262| 
        BFXTR #0x00e0, AC0, AR1 ; |3262| 
        MOV AR1, *AR3(#14) ; |3262| 
	.dwpsn	file "src/csl_mmcsd.c",line 3263,column 5,is_stmt
        MOV dbl(*SP(#2)), XAR3
        MOV uns(high_byte(*SP(#17))), AR1 ; |3263| 
        AND #0x0007, AR1, AC0 ; |3263| 
        MOV AC0, *AR3(#13) ; |3263| 
	.dwpsn	file "src/csl_mmcsd.c",line 3264,column 5,is_stmt
        MOV dbl(*SP(#2)), XAR3
        MOV *SP(#17), AC0 ; |3264| 
        BFXTR #0x3800, AC0, AR1 ; |3264| 
        MOV AR1, *AR3(#12) ; |3264| 
	.dwpsn	file "src/csl_mmcsd.c",line 3265,column 5,is_stmt
        MOV dbl(*SP(#2)), XAR3
        MOV *SP(#17), AC0 ; |3265| 
        BFXTR #0xc000, AC0, AR1 ; |3265| 
        MOV AR1, *AR3(#11) ; |3265| 
	.dwpsn	file "src/csl_mmcsd.c",line 3267,column 5,is_stmt
        MOV dbl(*SP(#2)), XAR3
        MOV *SP(#16), AR1 ; |3267| 
        AND #0x03ff, AR1, AC1 ; |3267| 
        MOV *AR3(#11), AC0 ; |3267| 
        OR AC1 << #2, AC0 ; |3267| 
        MOV AC0, *AR3(#11) ; |3267| 
	.dwpsn	file "src/csl_mmcsd.c",line 3269,column 5,is_stmt
        MOV dbl(*SP(#2)), XAR3
        MOV *SP(#16), AC0 ; |3269| 
        BFXTR #0x1000, AC0, AR1 ; |3269| 
        MOV AR1, *AR3(#10) ; |3269| 
	.dwpsn	file "src/csl_mmcsd.c",line 3270,column 5,is_stmt
        MOV dbl(*SP(#2)), XAR3
        MOV *SP(#16), AC0 ; |3270| 
        BFXTR #0x2000, AC0, AR1 ; |3270| 
        MOV AR1, *AR3(#9) ; |3270| 
	.dwpsn	file "src/csl_mmcsd.c",line 3271,column 5,is_stmt
        MOV dbl(*SP(#2)), XAR3
        MOV *SP(#16), AC0 ; |3271| 
        BFXTR #0x4000, AC0, AR1 ; |3271| 
        MOV AR1, *AR3(#8) ; |3271| 
	.dwpsn	file "src/csl_mmcsd.c",line 3272,column 5,is_stmt
        MOV dbl(*SP(#2)), XAR3
        MOV *SP(#16), AC0 ; |3272| 
        BFXTR #0x8000, AC0, AR1 ; |3272| 
        MOV AR1, *AR3(short(#7)) ; |3272| 
	.dwpsn	file "src/csl_mmcsd.c",line 3274,column 5,is_stmt
        MOV dbl(*SP(#2)), XAR3
        MOV *SP(#15), AR1 ; |3274| 
        AND #0x000f, AR1, AC0 ; |3274| 
        MOV AC0, *AR3(short(#6)) ; |3274| 
	.dwpsn	file "src/csl_mmcsd.c",line 3275,column 5,is_stmt
        MOV dbl(*SP(#2)), XAR3
        MOV *SP(#15), AC0 ; |3275| 
        BFXTR #0xfff0, AC0, AR1 ; |3275| 
        MOV AR1, *AR3(short(#5)) ; |3275| 
	.dwpsn	file "src/csl_mmcsd.c",line 3277,column 5,is_stmt
        MOV dbl(*SP(#2)), XAR3
        MOV uns(low_byte(*SP(#14))), AR1 ; |3277| 
        MOV AR1, *AR3(short(#4)) ; |3277| 
	.dwpsn	file "src/csl_mmcsd.c",line 3278,column 5,is_stmt
        MOV dbl(*SP(#2)), XAR3
        MOV uns(high_byte(*SP(#14))), AR1 ; |3278| 
        AND #0x00ff, AR1, AC0 ; |3278| 
        MOV AC0, *AR3(short(#3)) ; |3278| 
	.dwpsn	file "src/csl_mmcsd.c",line 3280,column 2,is_stmt
        MOV dbl(*SP(#2)), XAR3
        MOV uns(low_byte(*SP(#13))), AR1 ; |3280| 
        MOV AR1, *AR3(short(#2)) ; |3280| 
	.dwpsn	file "src/csl_mmcsd.c",line 3281,column 5,is_stmt
        MOV dbl(*SP(#2)), XAR3
        MOV *SP(#13), AC0 ; |3281| 
        BFXTR #0x3c00, AC0, AR1 ; |3281| 
        MOV AR1, *AR3(short(#1)) ; |3281| 
	.dwpsn	file "src/csl_mmcsd.c",line 3283,column 5,is_stmt
        MOV dbl(*SP(#2)), XAR3
        MOV *AR3(short(#6)), T1 ; |3283| 
        MOV dbl(*SP(#0)), XAR3
        MOV dbl(*AR3(short(#2))), XAR3
        MOV #1, AC0
        SFTS AC0, T1, AC0 ; |3283| 
        MOV mmap(AC0L), AC0 ; |3283| 
        MOV AC0, dbl(*AR3(#10)) ; |3283| 
	.dwpsn	file "src/csl_mmcsd.c",line 3286,column 5,is_stmt
        MOV dbl(*SP(#0)), XAR3
        MOV dbl(*AR3(short(#2))), XAR3
        CMP *AR3(#27) == #1, TC1 ; |3286| 
        BCC $C$L180,TC1 ; |3286| 
                                        ; branchcc occurs ; |3286| 
        MOV dbl(*(#(_mmcsdCardExtCSD+12))), AC0 ; |3286| 
        BCC $C$L180,AC0 != #0 ; |3286| 
                                        ; branchcc occurs ; |3286| 
	.dwpsn	file "src/csl_mmcsd.c",line 3288,column 3,is_stmt
        MOV dbl(*SP(#2)), XAR3
        MOV *AR3(#16), T1 ; |3288| 

