******************************************************************************
              TMS320C55x Linker PC v4.4.1                      
******************************************************************************
>> Linked Mon Feb 12 14:25:24 2024

OUTPUT FILE NAME:   <Intial_Fuzz.out>
ENTRY POINT SYMBOL: "_c_int00"  address: 0001407a


MEMORY CONFIGURATION

         name            origin    length      used     unused   attr    fill
                        (bytes)   (bytes)    (bytes)   (bytes)
----------------------  --------  ---------  --------  --------  ----  --------
  MMR                   00000000   000000c0  00000000  000000c0  RWIX
  DARAM0                000000c0   00001f40  000009ac  00001594  RWIX
  DARAM1                00002000   00002000  00000000  00002000  RWIX
  DARAM2                00004000   00002000  00000000  00002000  RWIX
  DARAM3                00006000   00002000  00000000  00002000  RWIX
  DARAM4                00008000   00002000  00000400  00001c00  RWIX
  DARAM5                0000a000   00002000  000004d4  00001b2c  RWIX
  DARAM6                0000c000   00002000  00000000  00002000  RWIX
  DARAM7                0000e000   00002000  00000000  00002000  RWIX
  SARAM0                00010000   00002000  00002000  00000000  RWIX
  SARAM1                00012000   00002000  00001ffa  00000006  RWIX
  SARAM2                00014000   00002000  0000018a  00001e76  RWIX
  SARAM3                00016000   00002000  00000000  00002000  RWIX
  SARAM4                00018000   00002000  00000000  00002000  RWIX
  SARAM5                0001a000   00002000  00000000  00002000  RWIX
  SARAM6                0001c000   00002000  00000000  00002000  RWIX
  SARAM7                0001e000   00002000  00000000  00002000  RWIX
  SARAM8                00020000   00002000  00000000  00002000  RWIX
  SARAM9                00022000   00002000  00000000  00002000  RWIX
  SARAM10               00024000   00002000  00000000  00002000  RWIX
  SARAM11               00026000   00002000  00000000  00002000  RWIX
  SARAM12               00028000   00002000  00000000  00002000  RWIX
  SARAM13               0002a000   00002000  00000000  00002000  RWIX
  SARAM14               0002c000   00002000  00000000  00002000  RWIX
  SARAM15               0002e000   00002000  00000000  00002000  RWIX
  SARAM16               00030000   00002000  00000000  00002000  RWIX
  SARAM17               00032000   00002000  00000000  00002000  RWIX
  SARAM18               00034000   00002000  00000000  00002000  RWIX
  SARAM19               00036000   00002000  00000000  00002000  RWIX
  SARAM20               00038000   00002000  00000000  00002000  RWIX
  SARAM21               0003a000   00002000  00000000  00002000  RWIX
  SARAM22               0003c000   00002000  00000000  00002000  RWIX
  SARAM23               0003e000   00002000  00000000  00002000  RWIX
  SARAM24               00040000   00002000  00000000  00002000  RWIX
  SARAM25               00042000   00002000  00000000  00002000  RWIX
  SARAM26               00044000   00002000  00000000  00002000  RWIX
  SARAM27               00046000   00002000  00000000  00002000  RWIX
  SARAM28               00048000   00002000  00000000  00002000  RWIX
  SARAM29               0004a000   00002000  00000000  00002000  RWIX
  SARAM30               0004c000   00002000  00000000  00002000  RWIX
  SARAM31               0004e000   00002000  00000000  00002000  RWIX
  CS0                   00050000   007b0000  00000000  007b0000  RWIX
  CS2                   00800000   00400000  00000000  00400000  RWIX
  CS3                   00c00000   00200000  00000000  00200000  RWIX
  CS4                   00e00000   00100000  00000000  00100000  RWIX
  CS5                   00f00000   000e0000  00000000  000e0000  RWIX
  ROM                   00fe0000   0001ff00  00000000  0001ff00  RWIX
  VECS                  00ffff00   00000100  00000100  00000000  RWIX


SECTION ALLOCATION MAP
(Addresses surrounded by []'s are displayed for convenience only!)

output                                                          attributes/
section   page  orgn(bytes) orgn(words) len(bytes) len(words)   input sections
--------  ----  ----------- ----------- ---------- ----------   --------------
.const       0   [ 000000c0 ]  00000060          *   00000142   
                 [ 000000c0 ]  00000060          *   00000101   rts55x.lib : ctype.obj (.const:__ctypes_)
                 [ 000002c2 ]  00000161          *   00000001   --HOLE-- [fill = 0]
                 [ 000002c4 ]  00000162          *   00000024              : _printfi.obj (.const:.string)
                 [ 0000030c ]  00000186          *   0000000c              : _printfi.obj (.const)
                 [ 00000324 ]  00000192          *   00000008              : divd.obj (.const:_initial_approx$1)
                 [ 00000334 ]  0000019a          *   00000004   main.obj (.const:.string)
                 [ 0000033c ]  0000019e          *   00000002   rts55x.lib : fputs.obj (.const:.string)
                 [ 00000340 ]  000001a0          *   00000002              : fltlid.obj (.const)

.cio         0   [ 00000348 ]  000001a4          *   00000120   UNINITIALIZED
                 [ 00000348 ]  000001a4          *   00000120   rts55x.lib : trgmsg.obj (.cio)

.stack       0   [ 00000588 ]  000002c4          *   00000100   UNINITIALIZED
                 [ 00000588 ]  000002c4          *   00000100   --HOLE--

.sysstack 
*            0   [ 00000788 ]  000003c4          *   00000100   UNINITIALIZED
                 [ 00000788 ]  000003c4          *   00000100   --HOLE--

.cinit       0   [ 00000988 ]  000004c4          *   00000074   
                 [ 00000988 ]  000004c4          *   0000002d   rts55x.lib : lowlev.obj (.cinit)
                 [ 000009e2 ]  000004f1          *   0000002a              : defs.obj (.cinit)
                 [ 00000a36 ]  0000051b          *   0000000a              : _lock.obj (.cinit)
                 [ 00000a4a ]  00000525          *   0000000a              : exit.obj (.cinit)
                 [ 00000a5e ]  0000052f          *   00000004              : fopen.obj (.cinit)
                 [ 00000a66 ]  00000533          *   00000004              : memory.obj (.cinit)
                 [ 00000a6e ]  00000537          *   00000001   --HOLE-- [fill = 0]

.sysmem      0   [ 00008000 ]  00004000          *   00000200   UNINITIALIZED
                 [ 00008000 ]  00004000          *   00000200   --HOLE--

.data        0   [ 00008000 ]  00004000          *   00000000   UNINITIALIZED

.bss         0   [ 0000a000 ]  00005000          *   0000026a   UNINITIALIZED
                 [ 0000a000 ]  00005000          *   00000119   rts55x.lib : defs.obj (.bss)
                 [ 0000a232 ]  00005119          *   000000d0              : trgdrv.obj (.bss)
                 [ 0000a3d2 ]  000051e9          *   00000001              : fopen.obj (.bss)
                 [ 0000a3d4 ]  000051ea          *   00000071              : lowlev.obj (.bss)
                 [ 0000a4b6 ]  0000525b          *   00000001   --HOLE--
                 [ 0000a4b8 ]  0000525c          *   00000006              : memory.obj (.bss)
                 [ 0000a4c4 ]  00005262          *   00000004              : _lock.obj (.bss)
                 [ 0000a4cc ]  00005266          *   00000004              : exit.obj (.bss)

.text.1      0     00010000  [ 00008000 ] 00002000          *   
                   00010000  [ 00008000 ] 000015a4          *   rts55x.lib : _printfi.obj (.text)
                   000115a4  [ 00008ad2 ] 00000543          *              : lowlev.obj (.text)
                   00011ae7  [ 00008d73+] 000004b5          *              : memory.obj (.text)
                   00011f9c  [ 00008fce ] 0000005c          *              : atoi.obj (.text)
                   00011ff8  [ 00008ffc ] 00000007          *              : exit.obj (.text:CIO_breakpoint)
                   00011fff  [ 00008fff ] 00000001          *   --HOLE-- [fill = 20]

.text.2      0     00012000  [ 00009000 ] 00001ffa          *   
                   00012000  [ 00009000 ] 00000528          *   rts55x.lib : trgdrv.obj (.text)
                   00012528  [ 00009294 ] 000003cc          *              : divd.obj (.text)
                   000128f4  [ 0000947a ] 0000027f          *              : fopen.obj (.text)
                   00012b73  [ 000095b9+] 0000025e          *              : llmpy.obj (.text)
                   00012dd1  [ 000096e8+] 0000025a          *              : addd.obj (.text)
                   0001302b  [ 00009815+] 000001ea          *              : cmpd.obj (.text)
                   00013215  [ 0000990a+] 00000163          *              : fputs.obj (.text)
                   00013378  [ 000099bc ] 0000014c          *              : mpyd.obj (.text)
                   000134c4  [ 00009a62 ] 000000e6          *              : setvbuf.obj (.text)
                   000135aa  [ 00009ad5 ] 000000dd          *              : _io_perm.obj (.text)
                   00013687  [ 00009b43+] 000000d8          *   main.obj (.text)
                   0001375f  [ 00009baf+] 000000c2          *   rts55x.lib : fflush.obj (.text)
                   00013821  [ 00009c10+] 000000ba          *              : trgmsg.obj (.text:CIO_breakpoint)
                   000138db  [ 00009c6d+] 000000a6          *              : fputc.obj (.text)
                   00013981  [ 00009cc0+] 000000a1          *              : divul.obj (.text)
                   00013a22  [ 00009d11 ] 0000007d          *              : ltoa.obj (.text)
                   00013a9f  [ 00009d4f+] 0000007b          *              : fclose.obj (.text)
                   00013b1a  [ 00009d8d ] 00000076          *              : frcmpyd.obj (.text)
                   00013b90  [ 00009dc8 ] 00000073          *              : frcmpyd_div.obj (.text)
                   00013c03  [ 00009e01+] 00000072          *              : remul.obj (.text)
                   00013c75  [ 00009e3a+] 0000006f          *              : fixdli.obj (.text)
                   00013ce4  [ 00009e72 ] 0000006d          *              : trgmsg.obj (.text)
                   00013d51  [ 00009ea8+] 0000006b          *              : fseek.obj (.text)
                   00013dbc  [ 00009ede ] 00000067          *              : fltlid.obj (.text)
                   00013e23  [ 00009f11+] 00000050          *              : printf.obj (.text)
                   00013e73  [ 00009f39+] 0000004d          *              : autoinit.obj (.text)
                   00013ec0  [ 00009f60 ] 0000004b          *              : args_main.obj (.text)
                   00013f0b  [ 00009f85+] 0000004b          *              : remli.obj (.text)
                   00013f56  [ 00009fab ] 00000048          *              : divli.obj (.text)
                   00013f9e  [ 00009fcf ] 0000003f          *              : memcpy.obj (.text)
                   00013fdd  [ 00009fee+] 0000001a          *              : isinf.obj (.text)
                   00013ff7  [ 00009ffb+] 00000002          *              : vectors.obj (.text)
                   00013ff9  [ 00009ffc ] 00000001          *   --HOLE-- [fill = 20]

.text.3      0     00014000  [ 0000a000 ] 0000018a          *   
                   00014000  [ 0000a000 ] 0000003e          *   rts55x.lib : exit.obj (.text)
                   0001403e  [ 0000a01f ] 0000003c          *              : idiv.obj (.text)
                   0001407a  [ 0000a03d ] 00000034          *              : boot.obj (.text)
                   000140ae  [ 0000a057 ] 0000002a          *              : fixdi.obj (.text)
                   000140d8  [ 0000a06c ] 0000002a          *              : udiv.obj (.text)
                   00014102  [ 0000a081 ] 00000023          *              : memccpy.obj (.text)
                   00014125  [ 0000a092+] 00000014          *              : subd.obj (.text)
                   00014139  [ 0000a09c+] 00000013          *              : lmpy.obj (.text)
                   0001414c  [ 0000a0a6 ] 00000012          *              : _lock.obj (.text)
                   0001415e  [ 0000a0af ] 00000011          *              : memset.obj (.text)
                   0001416f  [ 0000a0b7+] 00000010          *              : negd.obj (.text)
                   0001417f  [ 0000a0bf+] 0000000a          *              : remove.obj (.text)
                   00014189  [ 0000a0c4 ] 00000001          *   --HOLE-- [fill = 20]

vectors      0     00ffff00  [ 007fff80 ] 00000100          *   NOLOAD SECTION
                   00ffff00  [ 007fff80 ] 00000100          *   rts55x.lib : vectors.obj (vectors)


GLOBAL SYMBOLS: SORTED ALPHABETICALLY BY Name 

abs. value/
byte addr   word addr   name
---------   ---------   ----
00000002                $TI_capability$C5500$CallingConvention
00000002                $TI_capability$C5500$MemoryModel
00000001                $TI_capability_requires_rev3
            00005000    .bss
            00004000    .data
ffffffff                .text
00011ff9                C$$EXIT
000138d6                C$$IO$$
0001403e                I$$DIV
00014139                I$$LMPY
0001405d                I$$MOD
000140d8                I$$UDIV
000140ed                I$$UMOD
000124ca                _HOSTclock
0001245f                _HOSTclose
000123aa                _HOSTlseek
0001230b                _HOSTopen
0001227e                _HOSTread
000121d0                _HOSTrename
00012172                _HOSTtime
00012108                _HOSTunlink
0001207b                _HOSTwrite
00ffff00                _Reset
            000001a4    __CIOBUF_
            000003c4    __STACK_END
00000200                __STACK_SIZE
00000400                __SYSMEM_SIZE
00000200                __SYSSTACK_SIZE
00000001                __TI_args_main
ffffffff                ___binit__
            00005000    ___bss__
ffffffff                ___c_args__
            000004c4    ___cinit__
            00004000    ___data__
            00004000    ___edata__
            0000526a    ___end__
ffffffff                ___etext__
00013fdd                ___isinf
ffffffff                ___pinit__
ffffffff                ___text__
00012dd1                __addd
00013ec0                __args_main
00012a15                __cleanup
            00005266    __cleanup_ptr
000131bd                __cmpd
            00000060    __ctypes_
00012528                __divd
0001403e                __divi
00013f56                __divli
00012d9c                __divlli
000140d8                __divu
00013981                __divul
00012ca8                __divull
0001375f                __doflush
            00005268    __dtors_ptr
00013189                __eqld
000140ae                __fixdi
00013c75                __fixdli
00013dbc                __fltlid
00013b1a                __frcmpyd
00013b90                __frcmpyd_div
            00005118    __ft_end
            00005000    __ftable
0001313f                __geqd
000130f4                __gtrd
000130a7                __leqd
            00005262    __lock
0001305f                __lssd
00013378                __mpyd
00014139                __mpyli
00012bf0                __mpylli
0001416f                __negd
0001302b                __neqd
0001415c                __nop
00011362                __printfi
0001362a                __rd_ok
00014154                __register_lock
0001414c                __register_unlock
0001405d                __remi
00013f0b                __remli
00012bc1                __remlli
000140ed                __remu
00013c03                __remul
00012b73                __remull
            000002c4    __stack
00014125                __subd
            00004000    __sys_memory
            000003c4    __sysstack
            00005078    __tmpnams
            00005264    __unlock
000135aa                __wrt_ok
00011ff8                _abort
000119f7                _add_device
00011f9c                _atoi
00013e73                _auto_init
0001407a                _c_int00
00011f76                _calloc
00011f6e                _chkheap
00011984                _close
00014000                _exit
00013a9f                _fclose
000137c8                _fflush
0001197b                _find_registered_device
00012b38                _fopen
000138db                _fputc
00013215                _fputs
00011ae7                _free
00011f18                _free_memory
00012a6f                _freopen
00013d51                _fseek
00013687                _fuzzer_log
00012000                _getenv
00011915                _lseek
00013a22                _ltoa
000136af                _main
00011c18                _malloc
00011ebe                _max_free
00014102                _memccpy
00013f9e                _memcpy
0001415e                _memset
00011bb3                _minit
00011856                _open
00013e23                _printf
000138db                _putc
00013972                _putchar
0001334a                _puts
000117a8                _read
00013ce4                _readmsg
00011d0d                _realloc
0001417f                _remove
00011772                _remove_device
00011719                _rename
000134c4                _setvbuf
000116e6                _unlink
000115a4                _write
00013821                _writemsg
ffffffff                binit
            000004c4    cinit
            00004000    edata
            0000526a    end
ffffffff                etext
ffffffff                pinit


GLOBAL SYMBOLS: SORTED BY Symbol Address 

abs. value/
byte addr   word addr   name
---------   ---------   ----
00000001                $TI_capability_requires_rev3
00000001                __TI_args_main
00000002                $TI_capability$C5500$CallingConvention
00000002                $TI_capability$C5500$MemoryModel
            00000060    __ctypes_
00000200                __STACK_SIZE
00000200                __SYSSTACK_SIZE
            000001a4    __CIOBUF_
00000400                __SYSMEM_SIZE
            000002c4    __stack
            000003c4    __STACK_END
            000003c4    __sysstack
            000004c4    ___cinit__
            000004c4    cinit
            00004000    .data
            00004000    ___data__
            00004000    ___edata__
            00004000    __sys_memory
            00004000    edata
            00005000    .bss
            00005000    ___bss__
            00005000    __ftable
            00005078    __tmpnams
            00005118    __ft_end
            00005262    __lock
            00005264    __unlock
            00005266    __cleanup_ptr
            00005268    __dtors_ptr
            0000526a    ___end__
            0000526a    end
00011362                __printfi
000115a4                _write
000116e6                _unlink
00011719                _rename
00011772                _remove_device
000117a8                _read
00011856                _open
00011915                _lseek
0001197b                _find_registered_device
00011984                _close
000119f7                _add_device
00011ae7                _free
00011bb3                _minit
00011c18                _malloc
00011d0d                _realloc
00011ebe                _max_free
00011f18                _free_memory
00011f6e                _chkheap
00011f76                _calloc
00011f9c                _atoi
00011ff8                _abort
00011ff9                C$$EXIT
00012000                _getenv
0001207b                _HOSTwrite
00012108                _HOSTunlink
00012172                _HOSTtime
000121d0                _HOSTrename
0001227e                _HOSTread
0001230b                _HOSTopen
000123aa                _HOSTlseek
0001245f                _HOSTclose
000124ca                _HOSTclock
00012528                __divd
00012a15                __cleanup
00012a6f                _freopen
00012b38                _fopen
00012b73                __remull
00012bc1                __remlli
00012bf0                __mpylli
00012ca8                __divull
00012d9c                __divlli
00012dd1                __addd
0001302b                __neqd
0001305f                __lssd
000130a7                __leqd
000130f4                __gtrd
0001313f                __geqd
00013189                __eqld
000131bd                __cmpd
00013215                _fputs
0001334a                _puts
00013378                __mpyd
000134c4                _setvbuf
000135aa                __wrt_ok
0001362a                __rd_ok
00013687                _fuzzer_log
000136af                _main
0001375f                __doflush
000137c8                _fflush
00013821                _writemsg
000138d6                C$$IO$$
000138db                _fputc
000138db                _putc
00013972                _putchar
00013981                __divul
00013a22                _ltoa
00013a9f                _fclose
00013b1a                __frcmpyd
00013b90                __frcmpyd_div
00013c03                __remul
00013c75                __fixdli
00013ce4                _readmsg
00013d51                _fseek
00013dbc                __fltlid
00013e23                _printf
00013e73                _auto_init
00013ec0                __args_main
00013f0b                __remli
00013f56                __divli
00013f9e                _memcpy
00013fdd                ___isinf
00014000                _exit
0001403e                I$$DIV
0001403e                __divi
0001405d                I$$MOD
0001405d                __remi
0001407a                _c_int00
000140ae                __fixdi
000140d8                I$$UDIV
000140d8                __divu
000140ed                I$$UMOD
000140ed                __remu
00014102                _memccpy
00014125                __subd
00014139                I$$LMPY
00014139                __mpyli
0001414c                __register_unlock
00014154                __register_lock
0001415c                __nop
0001415e                _memset
0001416f                __negd
0001417f                _remove
00ffff00                _Reset
ffffffff                .text
ffffffff                ___binit__
ffffffff                ___c_args__
ffffffff                ___etext__
ffffffff                ___pinit__
ffffffff                ___text__
ffffffff                binit
ffffffff                etext
ffffffff                pinit

[142 symbols]
